(dp1
S'output'
p2
S"<type 'exceptions.TypeError'> 'Field' object is not callable"
p3
sS'layer'
p4
S'/Users/zamechek/Downloads/web2py/web2py.app/Contents/Resources/applications/hellow/controllers/game.py'
p5
sS'code'
p6
S'# coding: utf8\n# try something like\ndef show(): \n    id = request.args[0]\n    game = db.game.id(id)    \n    #user = game.auth_user    \n    return game.id #dict(message="hello from game.py")\n\nresponse._vars=response._caller(show)\n'
p7
sS'snapshot'
p8
(dp9
S'exception'
p10
(dp11
S'__hash__'
p12
S"<method-wrapper '__hash__' of exceptions.TypeError object at 0xa4357b0>"
p13
sS'__setattr__'
p14
S"<method-wrapper '__setattr__' of exceptions.TypeError object at 0xa4357b0>"
p15
sS'__reduce_ex__'
p16
S'<built-in method __reduce_ex__ of exceptions.TypeError object at 0xa4357b0>'
p17
sS'__getslice__'
p18
S"<method-wrapper '__getslice__' of exceptions.TypeError object at 0xa4357b0>"
p19
sS'__getitem__'
p20
S"<method-wrapper '__getitem__' of exceptions.TypeError object at 0xa4357b0>"
p21
sS'__setstate__'
p22
S'<built-in method __setstate__ of exceptions.TypeError object at 0xa4357b0>'
p23
sS'__reduce__'
p24
S'<built-in method __reduce__ of exceptions.TypeError object at 0xa4357b0>'
p25
sS'__str__'
p26
S"<method-wrapper '__str__' of exceptions.TypeError object at 0xa4357b0>"
p27
sS'args'
p28
S'("\'Field\' object is not callable",)'
p29
sS'__getattribute__'
p30
S"<method-wrapper '__getattribute__' of exceptions.TypeError object at 0xa4357b0>"
p31
sS'__class__'
p32
S"<type 'exceptions.TypeError'>"
p33
sS'__delattr__'
p34
S"<method-wrapper '__delattr__' of exceptions.TypeError object at 0xa4357b0>"
p35
sS'__repr__'
p36
S"<method-wrapper '__repr__' of exceptions.TypeError object at 0xa4357b0>"
p37
sS'__dict__'
p38
S'{}'
p39
sS'__doc__'
p40
S"'Inappropriate argument type.'"
p41
sS'__init__'
p42
S"<method-wrapper '__init__' of exceptions.TypeError object at 0xa4357b0>"
p43
sS'__new__'
p44
S'<built-in method __new__ of type object at 0x5fa140>'
p45
ssS'evalue'
p46
S"'Field' object is not callable"
p47
sS'request'
p48
ccopy_reg
_reconstructor
p49
(cgluon.html
BEAUTIFY
p50
c__builtin__
object
p51
NtRp52
(dp53
S'attributes'
p54
(dp55
sS'components'
p56
(lp57
g49
(cgluon.html
TABLE
p58
g51
NtRp59
(dp60
g54
(dp61
S'level'
p62
I5
ssS'parent'
p63
Nsg56
(lp64
g49
(cgluon.html
TR
p65
g51
NtRp66
(dp67
g54
(dp68
sg63
g59
sg56
(lp69
g49
(cgluon.html
TD
p70
g51
NtRp71
(dp72
g54
(dp73
S'_style'
p74
S'font-weight:bold;vertical-align:top'
p75
ssg63
g66
sg56
(lp76
S'ajax'
p77
asbag49
(g70
g51
NtRp78
(dp79
g54
(dp80
S'_valign'
p81
S'top'
p82
ssg63
g66
sg56
(lp83
S':'
asbag49
(g70
g51
NtRp84
(dp85
g54
(dp86
sg63
g66
sg56
(lp87
g49
(g50
g51
NtRp88
(dp89
g54
(dp90
g62
I5
ssg63
g84
sg56
(lp91
S'False'
p92
asbasbasbag49
(g65
g51
NtRp93
(dp94
g54
(dp95
sg63
g59
sg56
(lp96
g49
(g70
g51
NtRp97
(dp98
g54
(dp99
g74
g75
ssg63
g93
sg56
(lp100
S'application'
p101
asbag49
(g70
g51
NtRp102
(dp103
g54
(dp104
g81
g82
ssg63
g93
sg56
(lp105
S':'
asbag49
(g70
g51
NtRp106
(dp107
g54
(dp108
sg63
g93
sg56
(lp109
g49
(g50
g51
NtRp110
(dp111
g54
(dp112
g62
I5
ssg63
g106
sg56
(lp113
S'hellow'
p114
asbasbasbag49
(g65
g51
NtRp115
(dp116
g54
(dp117
sg63
g59
sg56
(lp118
g49
(g70
g51
NtRp119
(dp120
g54
(dp121
g74
g75
ssg63
g115
sg56
(lp122
g28
asbag49
(g70
g51
NtRp123
(dp124
g54
(dp125
g81
g82
ssg63
g115
sg56
(lp126
S':'
asbag49
(g70
g51
NtRp127
(dp128
g54
(dp129
sg63
g115
sg56
(lp130
g49
(g50
g51
NtRp131
(dp132
g54
(dp133
g62
I5
ssg63
g127
sg56
(lp134
g49
(g58
g51
NtRp135
(dp136
g54
(dp137
g62
I4
ssg63
Nsg56
(lp138
g49
(g65
g51
NtRp139
(dp140
g54
(dp141
sg63
g135
sg56
(lp142
g49
(g70
g51
NtRp143
(dp144
g54
(dp145
sg63
g139
sg56
(lp146
g49
(g50
g51
NtRp147
(dp148
g54
(dp149
g62
I4
ssg63
g143
sg56
(lp150
S'1'
asbasbasbasbasbasbasbag49
(g65
g51
NtRp151
(dp152
g54
(dp153
sg63
g59
sg56
(lp154
g49
(g70
g51
NtRp155
(dp156
g54
(dp157
g74
g75
ssg63
g151
sg56
(lp158
S'body'
p159
asbag49
(g70
g51
NtRp160
(dp161
g54
(dp162
g81
g82
ssg63
g151
sg56
(lp163
S':'
asbag49
(g70
g51
NtRp164
(dp165
g54
(dp166
sg63
g151
sg56
(lp167
g49
(g50
g51
NtRp168
(dp169
g54
(dp170
g62
I5
ssg63
g164
sg56
(lp171
S'<cStringIO.StringO object at 0xb460940>'
p172
asbasbasbag49
(g65
g51
NtRp173
(dp174
g54
(dp175
sg63
g59
sg56
(lp176
g49
(g70
g51
NtRp177
(dp178
g54
(dp179
g74
g75
ssg63
g173
sg56
(lp180
S'cid'
p181
asbag49
(g70
g51
NtRp182
(dp183
g54
(dp184
g81
g82
ssg63
g173
sg56
(lp185
S':'
asbag49
(g70
g51
NtRp186
(dp187
g54
(dp188
sg63
g173
sg56
(lp189
g49
(g50
g51
NtRp190
(dp191
g54
(dp192
g62
I5
ssg63
g186
sg56
(lp193
S'None'
p194
asbasbasbag49
(g65
g51
NtRp195
(dp196
g54
(dp197
sg63
g59
sg56
(lp198
g49
(g70
g51
NtRp199
(dp200
g54
(dp201
g74
g75
ssg63
g195
sg56
(lp202
S'client'
p203
asbag49
(g70
g51
NtRp204
(dp205
g54
(dp206
g81
g82
ssg63
g195
sg56
(lp207
S':'
asbag49
(g70
g51
NtRp208
(dp209
g54
(dp210
sg63
g195
sg56
(lp211
g49
(g50
g51
NtRp212
(dp213
g54
(dp214
g62
I5
ssg63
g208
sg56
(lp215
S'127.0.0.1'
p216
asbasbasbag49
(g65
g51
NtRp217
(dp218
g54
(dp219
sg63
g59
sg56
(lp220
g49
(g70
g51
NtRp221
(dp222
g54
(dp223
g74
g75
ssg63
g217
sg56
(lp224
S'controller'
p225
asbag49
(g70
g51
NtRp226
(dp227
g54
(dp228
g81
g82
ssg63
g217
sg56
(lp229
S':'
asbag49
(g70
g51
NtRp230
(dp231
g54
(dp232
sg63
g217
sg56
(lp233
g49
(g50
g51
NtRp234
(dp235
g54
(dp236
g62
I5
ssg63
g230
sg56
(lp237
S'game'
p238
asbasbasbag49
(g65
g51
NtRp239
(dp240
g54
(dp241
sg63
g59
sg56
(lp242
g49
(g70
g51
NtRp243
(dp244
g54
(dp245
g74
g75
ssg63
g239
sg56
(lp246
S'cookies'
p247
asbag49
(g70
g51
NtRp248
(dp249
g54
(dp250
g81
g82
ssg63
g239
sg56
(lp251
S':'
asbag49
(g70
g51
NtRp252
(dp253
g54
(dp254
sg63
g239
sg56
(lp255
g49
(g50
g51
NtRp256
(dp257
g54
(dp258
g62
I5
ssg63
g252
sg56
(lp259
g49
(g58
g51
NtRp260
(dp261
g54
(dp262
g62
I4
ssg63
Nsg56
(lp263
g49
(g65
g51
NtRp264
(dp265
g54
(dp266
sg63
g260
sg56
(lp267
g49
(g70
g51
NtRp268
(dp269
g54
(dp270
g74
g75
ssg63
g264
sg56
(lp271
S'session_data_examples'
p272
asbag49
(g70
g51
NtRp273
(dp274
g54
(dp275
g81
g82
ssg63
g264
sg56
(lp276
S':'
asbag49
(g70
g51
NtRp277
(dp278
g54
(dp279
sg63
g264
sg56
(lp280
g49
(g50
g51
NtRp281
(dp282
g54
(dp283
g62
I4
ssg63
g277
sg56
(lp284
S'6590e93a92ae056071f3d5d23c5da718:8mcaYr3jD5OS9Hm5obiuGpOS1hqNCswQLIoFlRGZYdaR8FVZ84s0w9vMAEY5L6DK8gvTZcQowujTbbDj-ns3802lRCPwkkcburTr1lmHorC9hQtD5W0yZ89O_mdlKuHPlwEItXQ5_WAFut_RTkzpuyS0nQWmuEGxVuLk0DXc0ndh8WySsXoErgPnINq0aXqKzueVqcmNBWwB7tluAV8oSQyVVnjPajiXfmT2moAb3dPnaGC3yePavU4XAXO8FVarzcdAnZ4bnTo9uMJJvT2hL9oQVbtD8YY8yMHurMAdtIpf8wcGfXNr6SjFTzpMxYtAg1tv7XdXpUPETM1Ox80jE-qsgQd_Xr1FA049-xsoxpdA4EzMUoouiTJ995NWCOJNjo6VICpuSvfOJBlnOLd8aLxueLUtuyScbkLd2jOCQIsF2aV6hhIZWDXpJwlCKPkIckeaXaaHeE4EqTZR6N0JnA=='
p285
ag49
(g58
g51
NtRp286
(dp287
g54
(dp288
g62
I3
ssg63
Nsg56
(lp289
g49
(g65
g51
NtRp290
(dp291
g54
(dp292
sg63
g286
sg56
(lp293
g49
(g70
g51
NtRp294
(dp295
g54
(dp296
g74
g75
ssg63
g290
sg56
(lp297
S'comment'
p298
asbag49
(g70
g51
NtRp299
(dp300
g54
(dp301
g81
g82
ssg63
g290
sg56
(lp302
S':'
asbag49
(g70
g51
NtRp303
(dp304
g54
(dp305
sg63
g290
sg56
(lp306
g49
(g50
g51
NtRp307
(dp308
g54
(dp309
g62
I3
ssg63
g303
sg56
(lp310
S''
asbasbasbag49
(g65
g51
NtRp311
(dp312
g54
(dp313
sg63
g286
sg56
(lp314
g49
(g70
g51
NtRp315
(dp316
g54
(dp317
g74
g75
ssg63
g311
sg56
(lp318
S'domain'
p319
asbag49
(g70
g51
NtRp320
(dp321
g54
(dp322
g81
g82
ssg63
g311
sg56
(lp323
S':'
asbag49
(g70
g51
NtRp324
(dp325
g54
(dp326
sg63
g311
sg56
(lp327
g49
(g50
g51
NtRp328
(dp329
g54
(dp330
g62
I3
ssg63
g324
sg56
(lp331
S''
asbasbasbag49
(g65
g51
NtRp332
(dp333
g54
(dp334
sg63
g286
sg56
(lp335
g49
(g70
g51
NtRp336
(dp337
g54
(dp338
g74
g75
ssg63
g332
sg56
(lp339
S'expires'
p340
asbag49
(g70
g51
NtRp341
(dp342
g54
(dp343
g81
g82
ssg63
g332
sg56
(lp344
S':'
asbag49
(g70
g51
NtRp345
(dp346
g54
(dp347
sg63
g332
sg56
(lp348
g49
(g50
g51
NtRp349
(dp350
g54
(dp351
g62
I3
ssg63
g345
sg56
(lp352
S''
asbasbasbag49
(g65
g51
NtRp353
(dp354
g54
(dp355
sg63
g286
sg56
(lp356
g49
(g70
g51
NtRp357
(dp358
g54
(dp359
g74
g75
ssg63
g353
sg56
(lp360
S'max-age'
p361
asbag49
(g70
g51
NtRp362
(dp363
g54
(dp364
g81
g82
ssg63
g353
sg56
(lp365
S':'
asbag49
(g70
g51
NtRp366
(dp367
g54
(dp368
sg63
g353
sg56
(lp369
g49
(g50
g51
NtRp370
(dp371
g54
(dp372
g62
I3
ssg63
g366
sg56
(lp373
S''
asbasbasbag49
(g65
g51
NtRp374
(dp375
g54
(dp376
sg63
g286
sg56
(lp377
g49
(g70
g51
NtRp378
(dp379
g54
(dp380
g74
g75
ssg63
g374
sg56
(lp381
S'path'
p382
asbag49
(g70
g51
NtRp383
(dp384
g54
(dp385
g81
g82
ssg63
g374
sg56
(lp386
S':'
asbag49
(g70
g51
NtRp387
(dp388
g54
(dp389
sg63
g374
sg56
(lp390
g49
(g50
g51
NtRp391
(dp392
g54
(dp393
g62
I3
ssg63
g387
sg56
(lp394
S''
asbasbasbag49
(g65
g51
NtRp395
(dp396
g54
(dp397
sg63
g286
sg56
(lp398
g49
(g70
g51
NtRp399
(dp400
g54
(dp401
g74
g75
ssg63
g395
sg56
(lp402
S'secure'
p403
asbag49
(g70
g51
NtRp404
(dp405
g54
(dp406
g81
g82
ssg63
g395
sg56
(lp407
S':'
asbag49
(g70
g51
NtRp408
(dp409
g54
(dp410
sg63
g395
sg56
(lp411
g49
(g50
g51
NtRp412
(dp413
g54
(dp414
g62
I3
ssg63
g408
sg56
(lp415
S''
asbasbasbag49
(g65
g51
NtRp416
(dp417
g54
(dp418
sg63
g286
sg56
(lp419
g49
(g70
g51
NtRp420
(dp421
g54
(dp422
g74
g75
ssg63
g416
sg56
(lp423
S'version'
p424
asbag49
(g70
g51
NtRp425
(dp426
g54
(dp427
g81
g82
ssg63
g416
sg56
(lp428
S':'
asbag49
(g70
g51
NtRp429
(dp430
g54
(dp431
sg63
g416
sg56
(lp432
g49
(g50
g51
NtRp433
(dp434
g54
(dp435
g62
I3
ssg63
g429
sg56
(lp436
S''
asbasbasbasbasbasbasbag49
(g65
g51
NtRp437
(dp438
g54
(dp439
sg63
g260
sg56
(lp440
g49
(g70
g51
NtRp441
(dp442
g54
(dp443
g74
g75
ssg63
g437
sg56
(lp444
S'session_id_admin'
p445
asbag49
(g70
g51
NtRp446
(dp447
g54
(dp448
g81
g82
ssg63
g437
sg56
(lp449
S':'
asbag49
(g70
g51
NtRp450
(dp451
g54
(dp452
sg63
g437
sg56
(lp453
g49
(g50
g51
NtRp454
(dp455
g54
(dp456
g62
I4
ssg63
g450
sg56
(lp457
S'127.0.0.1-66a1de5b-ba15-4b30-ba06-132c9e7969c1'
p458
ag49
(g58
g51
NtRp459
(dp460
g54
(dp461
g62
I3
ssg63
Nsg56
(lp462
g49
(g65
g51
NtRp463
(dp464
g54
(dp465
sg63
g459
sg56
(lp466
g49
(g70
g51
NtRp467
(dp468
g54
(dp469
g74
g75
ssg63
g463
sg56
(lp470
g298
asbag49
(g70
g51
NtRp471
(dp472
g54
(dp473
g81
g82
ssg63
g463
sg56
(lp474
S':'
asbag49
(g70
g51
NtRp475
(dp476
g54
(dp477
sg63
g463
sg56
(lp478
g49
(g50
g51
NtRp479
(dp480
g54
(dp481
g62
I3
ssg63
g475
sg56
(lp482
S''
asbasbasbag49
(g65
g51
NtRp483
(dp484
g54
(dp485
sg63
g459
sg56
(lp486
g49
(g70
g51
NtRp487
(dp488
g54
(dp489
g74
g75
ssg63
g483
sg56
(lp490
g319
asbag49
(g70
g51
NtRp491
(dp492
g54
(dp493
g81
g82
ssg63
g483
sg56
(lp494
S':'
asbag49
(g70
g51
NtRp495
(dp496
g54
(dp497
sg63
g483
sg56
(lp498
g49
(g50
g51
NtRp499
(dp500
g54
(dp501
g62
I3
ssg63
g495
sg56
(lp502
S''
asbasbasbag49
(g65
g51
NtRp503
(dp504
g54
(dp505
sg63
g459
sg56
(lp506
g49
(g70
g51
NtRp507
(dp508
g54
(dp509
g74
g75
ssg63
g503
sg56
(lp510
g340
asbag49
(g70
g51
NtRp511
(dp512
g54
(dp513
g81
g82
ssg63
g503
sg56
(lp514
S':'
asbag49
(g70
g51
NtRp515
(dp516
g54
(dp517
sg63
g503
sg56
(lp518
g49
(g50
g51
NtRp519
(dp520
g54
(dp521
g62
I3
ssg63
g515
sg56
(lp522
S''
asbasbasbag49
(g65
g51
NtRp523
(dp524
g54
(dp525
sg63
g459
sg56
(lp526
g49
(g70
g51
NtRp527
(dp528
g54
(dp529
g74
g75
ssg63
g523
sg56
(lp530
g361
asbag49
(g70
g51
NtRp531
(dp532
g54
(dp533
g81
g82
ssg63
g523
sg56
(lp534
S':'
asbag49
(g70
g51
NtRp535
(dp536
g54
(dp537
sg63
g523
sg56
(lp538
g49
(g50
g51
NtRp539
(dp540
g54
(dp541
g62
I3
ssg63
g535
sg56
(lp542
S''
asbasbasbag49
(g65
g51
NtRp543
(dp544
g54
(dp545
sg63
g459
sg56
(lp546
g49
(g70
g51
NtRp547
(dp548
g54
(dp549
g74
g75
ssg63
g543
sg56
(lp550
g382
asbag49
(g70
g51
NtRp551
(dp552
g54
(dp553
g81
g82
ssg63
g543
sg56
(lp554
S':'
asbag49
(g70
g51
NtRp555
(dp556
g54
(dp557
sg63
g543
sg56
(lp558
g49
(g50
g51
NtRp559
(dp560
g54
(dp561
g62
I3
ssg63
g555
sg56
(lp562
S''
asbasbasbag49
(g65
g51
NtRp563
(dp564
g54
(dp565
sg63
g459
sg56
(lp566
g49
(g70
g51
NtRp567
(dp568
g54
(dp569
g74
g75
ssg63
g563
sg56
(lp570
g403
asbag49
(g70
g51
NtRp571
(dp572
g54
(dp573
g81
g82
ssg63
g563
sg56
(lp574
S':'
asbag49
(g70
g51
NtRp575
(dp576
g54
(dp577
sg63
g563
sg56
(lp578
g49
(g50
g51
NtRp579
(dp580
g54
(dp581
g62
I3
ssg63
g575
sg56
(lp582
S''
asbasbasbag49
(g65
g51
NtRp583
(dp584
g54
(dp585
sg63
g459
sg56
(lp586
g49
(g70
g51
NtRp587
(dp588
g54
(dp589
g74
g75
ssg63
g583
sg56
(lp590
g424
asbag49
(g70
g51
NtRp591
(dp592
g54
(dp593
g81
g82
ssg63
g583
sg56
(lp594
S':'
asbag49
(g70
g51
NtRp595
(dp596
g54
(dp597
sg63
g583
sg56
(lp598
g49
(g50
g51
NtRp599
(dp600
g54
(dp601
g62
I3
ssg63
g595
sg56
(lp602
S''
asbasbasbasbasbasbasbag49
(g65
g51
NtRp603
(dp604
g54
(dp605
sg63
g260
sg56
(lp606
g49
(g70
g51
NtRp607
(dp608
g54
(dp609
g74
g75
ssg63
g603
sg56
(lp610
S'session_id_hellow'
p611
asbag49
(g70
g51
NtRp612
(dp613
g54
(dp614
g81
g82
ssg63
g603
sg56
(lp615
S':'
asbag49
(g70
g51
NtRp616
(dp617
g54
(dp618
sg63
g603
sg56
(lp619
g49
(g50
g51
NtRp620
(dp621
g54
(dp622
g62
I4
ssg63
g616
sg56
(lp623
S'127.0.0.1-f0c125e4-5d5e-4805-8c10-bdfc66367729'
p624
ag49
(g58
g51
NtRp625
(dp626
g54
(dp627
g62
I3
ssg63
Nsg56
(lp628
g49
(g65
g51
NtRp629
(dp630
g54
(dp631
sg63
g625
sg56
(lp632
g49
(g70
g51
NtRp633
(dp634
g54
(dp635
g74
g75
ssg63
g629
sg56
(lp636
g298
asbag49
(g70
g51
NtRp637
(dp638
g54
(dp639
g81
g82
ssg63
g629
sg56
(lp640
S':'
asbag49
(g70
g51
NtRp641
(dp642
g54
(dp643
sg63
g629
sg56
(lp644
g49
(g50
g51
NtRp645
(dp646
g54
(dp647
g62
I3
ssg63
g641
sg56
(lp648
S''
asbasbasbag49
(g65
g51
NtRp649
(dp650
g54
(dp651
sg63
g625
sg56
(lp652
g49
(g70
g51
NtRp653
(dp654
g54
(dp655
g74
g75
ssg63
g649
sg56
(lp656
g319
asbag49
(g70
g51
NtRp657
(dp658
g54
(dp659
g81
g82
ssg63
g649
sg56
(lp660
S':'
asbag49
(g70
g51
NtRp661
(dp662
g54
(dp663
sg63
g649
sg56
(lp664
g49
(g50
g51
NtRp665
(dp666
g54
(dp667
g62
I3
ssg63
g661
sg56
(lp668
S''
asbasbasbag49
(g65
g51
NtRp669
(dp670
g54
(dp671
sg63
g625
sg56
(lp672
g49
(g70
g51
NtRp673
(dp674
g54
(dp675
g74
g75
ssg63
g669
sg56
(lp676
g340
asbag49
(g70
g51
NtRp677
(dp678
g54
(dp679
g81
g82
ssg63
g669
sg56
(lp680
S':'
asbag49
(g70
g51
NtRp681
(dp682
g54
(dp683
sg63
g669
sg56
(lp684
g49
(g50
g51
NtRp685
(dp686
g54
(dp687
g62
I3
ssg63
g681
sg56
(lp688
S''
asbasbasbag49
(g65
g51
NtRp689
(dp690
g54
(dp691
sg63
g625
sg56
(lp692
g49
(g70
g51
NtRp693
(dp694
g54
(dp695
g74
g75
ssg63
g689
sg56
(lp696
g361
asbag49
(g70
g51
NtRp697
(dp698
g54
(dp699
g81
g82
ssg63
g689
sg56
(lp700
S':'
asbag49
(g70
g51
NtRp701
(dp702
g54
(dp703
sg63
g689
sg56
(lp704
g49
(g50
g51
NtRp705
(dp706
g54
(dp707
g62
I3
ssg63
g701
sg56
(lp708
S''
asbasbasbag49
(g65
g51
NtRp709
(dp710
g54
(dp711
sg63
g625
sg56
(lp712
g49
(g70
g51
NtRp713
(dp714
g54
(dp715
g74
g75
ssg63
g709
sg56
(lp716
g382
asbag49
(g70
g51
NtRp717
(dp718
g54
(dp719
g81
g82
ssg63
g709
sg56
(lp720
S':'
asbag49
(g70
g51
NtRp721
(dp722
g54
(dp723
sg63
g709
sg56
(lp724
g49
(g50
g51
NtRp725
(dp726
g54
(dp727
g62
I3
ssg63
g721
sg56
(lp728
S''
asbasbasbag49
(g65
g51
NtRp729
(dp730
g54
(dp731
sg63
g625
sg56
(lp732
g49
(g70
g51
NtRp733
(dp734
g54
(dp735
g74
g75
ssg63
g729
sg56
(lp736
g403
asbag49
(g70
g51
NtRp737
(dp738
g54
(dp739
g81
g82
ssg63
g729
sg56
(lp740
S':'
asbag49
(g70
g51
NtRp741
(dp742
g54
(dp743
sg63
g729
sg56
(lp744
g49
(g50
g51
NtRp745
(dp746
g54
(dp747
g62
I3
ssg63
g741
sg56
(lp748
S''
asbasbasbag49
(g65
g51
NtRp749
(dp750
g54
(dp751
sg63
g625
sg56
(lp752
g49
(g70
g51
NtRp753
(dp754
g54
(dp755
g74
g75
ssg63
g749
sg56
(lp756
g424
asbag49
(g70
g51
NtRp757
(dp758
g54
(dp759
g81
g82
ssg63
g749
sg56
(lp760
S':'
asbag49
(g70
g51
NtRp761
(dp762
g54
(dp763
sg63
g749
sg56
(lp764
g49
(g50
g51
NtRp765
(dp766
g54
(dp767
g62
I3
ssg63
g761
sg56
(lp768
S''
asbasbasbasbasbasbasbag49
(g65
g51
NtRp769
(dp770
g54
(dp771
sg63
g260
sg56
(lp772
g49
(g70
g51
NtRp773
(dp774
g54
(dp775
g74
g75
ssg63
g769
sg56
(lp776
S'session_id_slots'
p777
asbag49
(g70
g51
NtRp778
(dp779
g54
(dp780
g81
g82
ssg63
g769
sg56
(lp781
S':'
asbag49
(g70
g51
NtRp782
(dp783
g54
(dp784
sg63
g769
sg56
(lp785
g49
(g50
g51
NtRp786
(dp787
g54
(dp788
g62
I4
ssg63
g782
sg56
(lp789
S'127.0.0.1-c959d0b0-1e49-49e4-b6ce-60b17dcbfd08'
p790
ag49
(g58
g51
NtRp791
(dp792
g54
(dp793
g62
I3
ssg63
Nsg56
(lp794
g49
(g65
g51
NtRp795
(dp796
g54
(dp797
sg63
g791
sg56
(lp798
g49
(g70
g51
NtRp799
(dp800
g54
(dp801
g74
g75
ssg63
g795
sg56
(lp802
g298
asbag49
(g70
g51
NtRp803
(dp804
g54
(dp805
g81
g82
ssg63
g795
sg56
(lp806
S':'
asbag49
(g70
g51
NtRp807
(dp808
g54
(dp809
sg63
g795
sg56
(lp810
g49
(g50
g51
NtRp811
(dp812
g54
(dp813
g62
I3
ssg63
g807
sg56
(lp814
S''
asbasbasbag49
(g65
g51
NtRp815
(dp816
g54
(dp817
sg63
g791
sg56
(lp818
g49
(g70
g51
NtRp819
(dp820
g54
(dp821
g74
g75
ssg63
g815
sg56
(lp822
g319
asbag49
(g70
g51
NtRp823
(dp824
g54
(dp825
g81
g82
ssg63
g815
sg56
(lp826
S':'
asbag49
(g70
g51
NtRp827
(dp828
g54
(dp829
sg63
g815
sg56
(lp830
g49
(g50
g51
NtRp831
(dp832
g54
(dp833
g62
I3
ssg63
g827
sg56
(lp834
S''
asbasbasbag49
(g65
g51
NtRp835
(dp836
g54
(dp837
sg63
g791
sg56
(lp838
g49
(g70
g51
NtRp839
(dp840
g54
(dp841
g74
g75
ssg63
g835
sg56
(lp842
g340
asbag49
(g70
g51
NtRp843
(dp844
g54
(dp845
g81
g82
ssg63
g835
sg56
(lp846
S':'
asbag49
(g70
g51
NtRp847
(dp848
g54
(dp849
sg63
g835
sg56
(lp850
g49
(g50
g51
NtRp851
(dp852
g54
(dp853
g62
I3
ssg63
g847
sg56
(lp854
S''
asbasbasbag49
(g65
g51
NtRp855
(dp856
g54
(dp857
sg63
g791
sg56
(lp858
g49
(g70
g51
NtRp859
(dp860
g54
(dp861
g74
g75
ssg63
g855
sg56
(lp862
g361
asbag49
(g70
g51
NtRp863
(dp864
g54
(dp865
g81
g82
ssg63
g855
sg56
(lp866
S':'
asbag49
(g70
g51
NtRp867
(dp868
g54
(dp869
sg63
g855
sg56
(lp870
g49
(g50
g51
NtRp871
(dp872
g54
(dp873
g62
I3
ssg63
g867
sg56
(lp874
S''
asbasbasbag49
(g65
g51
NtRp875
(dp876
g54
(dp877
sg63
g791
sg56
(lp878
g49
(g70
g51
NtRp879
(dp880
g54
(dp881
g74
g75
ssg63
g875
sg56
(lp882
g382
asbag49
(g70
g51
NtRp883
(dp884
g54
(dp885
g81
g82
ssg63
g875
sg56
(lp886
S':'
asbag49
(g70
g51
NtRp887
(dp888
g54
(dp889
sg63
g875
sg56
(lp890
g49
(g50
g51
NtRp891
(dp892
g54
(dp893
g62
I3
ssg63
g887
sg56
(lp894
S''
asbasbasbag49
(g65
g51
NtRp895
(dp896
g54
(dp897
sg63
g791
sg56
(lp898
g49
(g70
g51
NtRp899
(dp900
g54
(dp901
g74
g75
ssg63
g895
sg56
(lp902
g403
asbag49
(g70
g51
NtRp903
(dp904
g54
(dp905
g81
g82
ssg63
g895
sg56
(lp906
S':'
asbag49
(g70
g51
NtRp907
(dp908
g54
(dp909
sg63
g895
sg56
(lp910
g49
(g50
g51
NtRp911
(dp912
g54
(dp913
g62
I3
ssg63
g907
sg56
(lp914
S''
asbasbasbag49
(g65
g51
NtRp915
(dp916
g54
(dp917
sg63
g791
sg56
(lp918
g49
(g70
g51
NtRp919
(dp920
g54
(dp921
g74
g75
ssg63
g915
sg56
(lp922
g424
asbag49
(g70
g51
NtRp923
(dp924
g54
(dp925
g81
g82
ssg63
g915
sg56
(lp926
S':'
asbag49
(g70
g51
NtRp927
(dp928
g54
(dp929
sg63
g915
sg56
(lp930
g49
(g50
g51
NtRp931
(dp932
g54
(dp933
g62
I3
ssg63
g927
sg56
(lp934
S''
asbasbasbasbasbasbasbag49
(g65
g51
NtRp935
(dp936
g54
(dp937
sg63
g260
sg56
(lp938
g49
(g70
g51
NtRp939
(dp940
g54
(dp941
g74
g75
ssg63
g935
sg56
(lp942
S'session_id_welcome'
p943
asbag49
(g70
g51
NtRp944
(dp945
g54
(dp946
g81
g82
ssg63
g935
sg56
(lp947
S':'
asbag49
(g70
g51
NtRp948
(dp949
g54
(dp950
sg63
g935
sg56
(lp951
g49
(g50
g51
NtRp952
(dp953
g54
(dp954
g62
I4
ssg63
g948
sg56
(lp955
S'127.0.0.1-245d6654-272e-49f5-968f-2cbd15b43359'
p956
ag49
(g58
g51
NtRp957
(dp958
g54
(dp959
g62
I3
ssg63
Nsg56
(lp960
g49
(g65
g51
NtRp961
(dp962
g54
(dp963
sg63
g957
sg56
(lp964
g49
(g70
g51
NtRp965
(dp966
g54
(dp967
g74
g75
ssg63
g961
sg56
(lp968
g298
asbag49
(g70
g51
NtRp969
(dp970
g54
(dp971
g81
g82
ssg63
g961
sg56
(lp972
S':'
asbag49
(g70
g51
NtRp973
(dp974
g54
(dp975
sg63
g961
sg56
(lp976
g49
(g50
g51
NtRp977
(dp978
g54
(dp979
g62
I3
ssg63
g973
sg56
(lp980
S''
asbasbasbag49
(g65
g51
NtRp981
(dp982
g54
(dp983
sg63
g957
sg56
(lp984
g49
(g70
g51
NtRp985
(dp986
g54
(dp987
g74
g75
ssg63
g981
sg56
(lp988
g319
asbag49
(g70
g51
NtRp989
(dp990
g54
(dp991
g81
g82
ssg63
g981
sg56
(lp992
S':'
asbag49
(g70
g51
NtRp993
(dp994
g54
(dp995
sg63
g981
sg56
(lp996
g49
(g50
g51
NtRp997
(dp998
g54
(dp999
g62
I3
ssg63
g993
sg56
(lp1000
S''
asbasbasbag49
(g65
g51
NtRp1001
(dp1002
g54
(dp1003
sg63
g957
sg56
(lp1004
g49
(g70
g51
NtRp1005
(dp1006
g54
(dp1007
g74
g75
ssg63
g1001
sg56
(lp1008
g340
asbag49
(g70
g51
NtRp1009
(dp1010
g54
(dp1011
g81
g82
ssg63
g1001
sg56
(lp1012
S':'
asbag49
(g70
g51
NtRp1013
(dp1014
g54
(dp1015
sg63
g1001
sg56
(lp1016
g49
(g50
g51
NtRp1017
(dp1018
g54
(dp1019
g62
I3
ssg63
g1013
sg56
(lp1020
S''
asbasbasbag49
(g65
g51
NtRp1021
(dp1022
g54
(dp1023
sg63
g957
sg56
(lp1024
g49
(g70
g51
NtRp1025
(dp1026
g54
(dp1027
g74
g75
ssg63
g1021
sg56
(lp1028
g361
asbag49
(g70
g51
NtRp1029
(dp1030
g54
(dp1031
g81
g82
ssg63
g1021
sg56
(lp1032
S':'
asbag49
(g70
g51
NtRp1033
(dp1034
g54
(dp1035
sg63
g1021
sg56
(lp1036
g49
(g50
g51
NtRp1037
(dp1038
g54
(dp1039
g62
I3
ssg63
g1033
sg56
(lp1040
S''
asbasbasbag49
(g65
g51
NtRp1041
(dp1042
g54
(dp1043
sg63
g957
sg56
(lp1044
g49
(g70
g51
NtRp1045
(dp1046
g54
(dp1047
g74
g75
ssg63
g1041
sg56
(lp1048
g382
asbag49
(g70
g51
NtRp1049
(dp1050
g54
(dp1051
g81
g82
ssg63
g1041
sg56
(lp1052
S':'
asbag49
(g70
g51
NtRp1053
(dp1054
g54
(dp1055
sg63
g1041
sg56
(lp1056
g49
(g50
g51
NtRp1057
(dp1058
g54
(dp1059
g62
I3
ssg63
g1053
sg56
(lp1060
S''
asbasbasbag49
(g65
g51
NtRp1061
(dp1062
g54
(dp1063
sg63
g957
sg56
(lp1064
g49
(g70
g51
NtRp1065
(dp1066
g54
(dp1067
g74
g75
ssg63
g1061
sg56
(lp1068
g403
asbag49
(g70
g51
NtRp1069
(dp1070
g54
(dp1071
g81
g82
ssg63
g1061
sg56
(lp1072
S':'
asbag49
(g70
g51
NtRp1073
(dp1074
g54
(dp1075
sg63
g1061
sg56
(lp1076
g49
(g50
g51
NtRp1077
(dp1078
g54
(dp1079
g62
I3
ssg63
g1073
sg56
(lp1080
S''
asbasbasbag49
(g65
g51
NtRp1081
(dp1082
g54
(dp1083
sg63
g957
sg56
(lp1084
g49
(g70
g51
NtRp1085
(dp1086
g54
(dp1087
g74
g75
ssg63
g1081
sg56
(lp1088
g424
asbag49
(g70
g51
NtRp1089
(dp1090
g54
(dp1091
g81
g82
ssg63
g1081
sg56
(lp1092
S':'
asbag49
(g70
g51
NtRp1093
(dp1094
g54
(dp1095
sg63
g1081
sg56
(lp1096
g49
(g50
g51
NtRp1097
(dp1098
g54
(dp1099
g62
I3
ssg63
g1093
sg56
(lp1100
S''
asbasbasbasbasbasbasbasbasbasbasbag49
(g65
g51
NtRp1101
(dp1102
g54
(dp1103
sg63
g59
sg56
(lp1104
g49
(g70
g51
NtRp1105
(dp1106
g54
(dp1107
g74
g75
ssg63
g1101
sg56
(lp1108
S'env'
p1109
asbag49
(g70
g51
NtRp1110
(dp1111
g54
(dp1112
g81
g82
ssg63
g1101
sg56
(lp1113
S':'
asbag49
(g70
g51
NtRp1114
(dp1115
g54
(dp1116
sg63
g1101
sg56
(lp1117
g49
(g50
g51
NtRp1118
(dp1119
g54
(dp1120
g62
I5
ssg63
g1114
sg56
(lp1121
g49
(g58
g51
NtRp1122
(dp1123
g54
(dp1124
g62
I4
ssg63
Nsg56
(lp1125
g49
(g65
g51
NtRp1126
(dp1127
g54
(dp1128
sg63
g1122
sg56
(lp1129
g49
(g70
g51
NtRp1130
(dp1131
g54
(dp1132
g74
g75
ssg63
g1126
sg56
(lp1133
S'app_folders'
p1134
asbag49
(g70
g51
NtRp1135
(dp1136
g54
(dp1137
g81
g82
ssg63
g1126
sg56
(lp1138
S':'
asbag49
(g70
g51
NtRp1139
(dp1140
g54
(dp1141
sg63
g1126
sg56
(lp1142
g49
(g50
g51
NtRp1143
(dp1144
g54
(dp1145
g62
I4
ssg63
g1139
sg56
(lp1146
S"set(['/Users/zamechek/Downloads/web2py/web2py.app/Contents/Resources/applications/examples/', '/Users/zamechek/Downloads/web2py/web2py.app/Contents/Resources/applications/hellow/', '/Users/zamechek/Downloads/web2py/web2py.app/Contents/Resources/applications/admin/', '/Users/zamechek/Downloads/web2py/web2py.app/Contents/Resources/applications/slots/', '/Users/zamechek/Downloads/web2py/web2py.app/Contents/Resources/applications/welcome/'])"
p1147
asbasbasbag49
(g65
g51
NtRp1148
(dp1149
g54
(dp1150
sg63
g1122
sg56
(lp1151
g49
(g70
g51
NtRp1152
(dp1153
g54
(dp1154
g74
g75
ssg63
g1148
sg56
(lp1155
S'applications_parent'
p1156
asbag49
(g70
g51
NtRp1157
(dp1158
g54
(dp1159
g81
g82
ssg63
g1148
sg56
(lp1160
S':'
asbag49
(g70
g51
NtRp1161
(dp1162
g54
(dp1163
sg63
g1148
sg56
(lp1164
g49
(g50
g51
NtRp1165
(dp1166
g54
(dp1167
g62
I4
ssg63
g1161
sg56
(lp1168
S'/Users/zamechek/Downloads/web2py/web2py.app/Contents/Resources'
p1169
asbasbasbag49
(g65
g51
NtRp1170
(dp1171
g54
(dp1172
sg63
g1122
sg56
(lp1173
g49
(g70
g51
NtRp1174
(dp1175
g54
(dp1176
g74
g75
ssg63
g1170
sg56
(lp1177
S'cmd_args'
p1178
asbag49
(g70
g51
NtRp1179
(dp1180
g54
(dp1181
g81
g82
ssg63
g1170
sg56
(lp1182
S':'
asbag49
(g70
g51
NtRp1183
(dp1184
g54
(dp1185
sg63
g1170
sg56
(lp1186
g49
(g50
g51
NtRp1187
(dp1188
g54
(dp1189
g62
I4
ssg63
g1183
sg56
(lp1190
g49
(g58
g51
NtRp1191
(dp1192
g54
(dp1193
g62
I3
ssg63
Nsg56
(lp1194
sbasbasbasbag49
(g65
g51
NtRp1195
(dp1196
g54
(dp1197
sg63
g1122
sg56
(lp1198
g49
(g70
g51
NtRp1199
(dp1200
g54
(dp1201
g74
g75
ssg63
g1195
sg56
(lp1202
S'cmd_options'
p1203
asbag49
(g70
g51
NtRp1204
(dp1205
g54
(dp1206
g81
g82
ssg63
g1195
sg56
(lp1207
S':'
asbag49
(g70
g51
NtRp1208
(dp1209
g54
(dp1210
sg63
g1195
sg56
(lp1211
g49
(g50
g51
NtRp1212
(dp1213
g54
(dp1214
g62
I4
ssg63
g1208
sg56
(lp1215
S"<Values at 0x32c8f58: {'verbose': False, 'ip': '127.0.0.1', 'with_scheduler': False, 'ips': ['130.91.151.157'], 'shutdown_timeout': 5, 'taskbar': False, 'port': 8000, 'maxthreads': None, 'softcron': False, 'server_name': 'hntvlan531.0924.wlan.wireless-pennnet.upenn.edu', 'bpython': False, 'nogui': False, 'pid_filename': 'httpserver.pid', 'extcron': False, 'runcron': False, 'run_system_tests': False, 'test': None, 'folder': '/Users/zamechek/Downloads/web2py/web2py.app/Contents/Resources', 'config': '', 'import_models': False, 'winservice': '', 'shell': None, 'run': '', 'log_filename': 'httpserver.log', 'debuglevel': 30, 'args': [''], 'socket_timeout': 5, 'ssl_ca_certificate': None, 'scheduler': None, 'profiler_filename': None, 'ssl_private_key': '', 'scheduler_groups': None, 'password': '<ask>', 'request_queue_size': 5, 'ssl_certificate': '', 'cronjob': False, 'numthreads': None, 'quiet': False, 'interfaces': None, 'minthreads': None, 'timeout': 10, 'plain': False, 'nobanner': False}>"
p1216
asbasbasbag49
(g65
g51
NtRp1217
(dp1218
g54
(dp1219
sg63
g1122
sg56
(lp1220
g49
(g70
g51
NtRp1221
(dp1222
g54
(dp1223
g74
g75
ssg63
g1217
sg56
(lp1224
S'db_sessions'
p1225
asbag49
(g70
g51
NtRp1226
(dp1227
g54
(dp1228
g81
g82
ssg63
g1217
sg56
(lp1229
S':'
asbag49
(g70
g51
NtRp1230
(dp1231
g54
(dp1232
sg63
g1217
sg56
(lp1233
g49
(g50
g51
NtRp1234
(dp1235
g54
(dp1236
g62
I4
ssg63
g1230
sg56
(lp1237
S'set([])'
p1238
asbasbasbag49
(g65
g51
NtRp1239
(dp1240
g54
(dp1241
sg63
g1122
sg56
(lp1242
g49
(g70
g51
NtRp1243
(dp1244
g54
(dp1245
g74
g75
ssg63
g1239
sg56
(lp1246
S'debugging'
p1247
asbag49
(g70
g51
NtRp1248
(dp1249
g54
(dp1250
g81
g82
ssg63
g1239
sg56
(lp1251
S':'
asbag49
(g70
g51
NtRp1252
(dp1253
g54
(dp1254
sg63
g1239
sg56
(lp1255
g49
(g50
g51
NtRp1256
(dp1257
g54
(dp1258
g62
I4
ssg63
g1252
sg56
(lp1259
S'True'
p1260
asbasbasbag49
(g65
g51
NtRp1261
(dp1262
g54
(dp1263
sg63
g1122
sg56
(lp1264
g49
(g70
g51
NtRp1265
(dp1266
g54
(dp1267
g74
g75
ssg63
g1261
sg56
(lp1268
S'gluon_parent'
p1269
asbag49
(g70
g51
NtRp1270
(dp1271
g54
(dp1272
g81
g82
ssg63
g1261
sg56
(lp1273
S':'
asbag49
(g70
g51
NtRp1274
(dp1275
g54
(dp1276
sg63
g1261
sg56
(lp1277
g49
(g50
g51
NtRp1278
(dp1279
g54
(dp1280
g62
I4
ssg63
g1274
sg56
(lp1281
S'/Users/zamechek/Downloads/web2py/web2py.app/Contents/Resources'
p1282
asbasbasbag49
(g65
g51
NtRp1283
(dp1284
g54
(dp1285
sg63
g1122
sg56
(lp1286
g49
(g70
g51
NtRp1287
(dp1288
g54
(dp1289
g74
g75
ssg63
g1283
sg56
(lp1290
S'http_accept'
p1291
asbag49
(g70
g51
NtRp1292
(dp1293
g54
(dp1294
g81
g82
ssg63
g1283
sg56
(lp1295
S':'
asbag49
(g70
g51
NtRp1296
(dp1297
g54
(dp1298
sg63
g1283
sg56
(lp1299
g49
(g50
g51
NtRp1300
(dp1301
g54
(dp1302
g62
I4
ssg63
g1296
sg56
(lp1303
S'text/html,application/xhtml+xml,application/xml;q=0.9,*/*;q=0.8'
p1304
asbasbasbag49
(g65
g51
NtRp1305
(dp1306
g54
(dp1307
sg63
g1122
sg56
(lp1308
g49
(g70
g51
NtRp1309
(dp1310
g54
(dp1311
g74
g75
ssg63
g1305
sg56
(lp1312
S'http_accept_charset'
p1313
asbag49
(g70
g51
NtRp1314
(dp1315
g54
(dp1316
g81
g82
ssg63
g1305
sg56
(lp1317
S':'
asbag49
(g70
g51
NtRp1318
(dp1319
g54
(dp1320
sg63
g1305
sg56
(lp1321
g49
(g50
g51
NtRp1322
(dp1323
g54
(dp1324
g62
I4
ssg63
g1318
sg56
(lp1325
S'ISO-8859-1,utf-8;q=0.7,*;q=0.3'
p1326
asbasbasbag49
(g65
g51
NtRp1327
(dp1328
g54
(dp1329
sg63
g1122
sg56
(lp1330
g49
(g70
g51
NtRp1331
(dp1332
g54
(dp1333
g74
g75
ssg63
g1327
sg56
(lp1334
S'http_accept_encoding'
p1335
asbag49
(g70
g51
NtRp1336
(dp1337
g54
(dp1338
g81
g82
ssg63
g1327
sg56
(lp1339
S':'
asbag49
(g70
g51
NtRp1340
(dp1341
g54
(dp1342
sg63
g1327
sg56
(lp1343
g49
(g50
g51
NtRp1344
(dp1345
g54
(dp1346
g62
I4
ssg63
g1340
sg56
(lp1347
S'gzip,deflate,sdch'
p1348
asbasbasbag49
(g65
g51
NtRp1349
(dp1350
g54
(dp1351
sg63
g1122
sg56
(lp1352
g49
(g70
g51
NtRp1353
(dp1354
g54
(dp1355
g74
g75
ssg63
g1349
sg56
(lp1356
S'http_accept_language'
p1357
asbag49
(g70
g51
NtRp1358
(dp1359
g54
(dp1360
g81
g82
ssg63
g1349
sg56
(lp1361
S':'
asbag49
(g70
g51
NtRp1362
(dp1363
g54
(dp1364
sg63
g1349
sg56
(lp1365
g49
(g50
g51
NtRp1366
(dp1367
g54
(dp1368
g62
I4
ssg63
g1362
sg56
(lp1369
S'en-US,en;q=0.8'
p1370
asbasbasbag49
(g65
g51
NtRp1371
(dp1372
g54
(dp1373
sg63
g1122
sg56
(lp1374
g49
(g70
g51
NtRp1375
(dp1376
g54
(dp1377
g74
g75
ssg63
g1371
sg56
(lp1378
S'http_connection'
p1379
asbag49
(g70
g51
NtRp1380
(dp1381
g54
(dp1382
g81
g82
ssg63
g1371
sg56
(lp1383
S':'
asbag49
(g70
g51
NtRp1384
(dp1385
g54
(dp1386
sg63
g1371
sg56
(lp1387
g49
(g50
g51
NtRp1388
(dp1389
g54
(dp1390
g62
I4
ssg63
g1384
sg56
(lp1391
S'keep-alive'
p1392
asbasbasbag49
(g65
g51
NtRp1393
(dp1394
g54
(dp1395
sg63
g1122
sg56
(lp1396
g49
(g70
g51
NtRp1397
(dp1398
g54
(dp1399
g74
g75
ssg63
g1393
sg56
(lp1400
S'http_cookie'
p1401
asbag49
(g70
g51
NtRp1402
(dp1403
g54
(dp1404
g81
g82
ssg63
g1393
sg56
(lp1405
S':'
asbag49
(g70
g51
NtRp1406
(dp1407
g54
(dp1408
sg63
g1393
sg56
(lp1409
g49
(g50
g51
NtRp1410
(dp1411
g54
(dp1412
g62
I4
ssg63
g1406
sg56
(lp1413
S'session_id_welcome=127.0.0.1-245d6654-272e-49f5-968f-2cbd15b43359; session_id_slots=127.0.0.1-c959d0b0-1e49-49e4-b6ce-60b17dcbfd08; session_data_examples="6590e93a92ae056071f3d5d23c5da718:8mcaYr3jD5OS9Hm5obiuGpOS1hqNCswQLIoFlRGZYdaR8FVZ84s0w9vMAEY5L6DK8gvTZcQowujTbbDj-ns3802lRCPwkkcburTr1lmHorC9hQtD5W0yZ89O_mdlKuHPlwEItXQ5_WAFut_RTkzpuyS0nQWmuEGxVuLk0DXc0ndh8WySsXoErgPnINq0aXqKzueVqcmNBWwB7tluAV8oSQyVVnjPajiXfmT2moAb3dPnaGC3yePavU4XAXO8FVarzcdAnZ4bnTo9uMJJvT2hL9oQVbtD8YY8yMHurMAdtIpf8wcGfXNr6SjFTzpMxYtAg1tv7XdXpUPETM1Ox80jE-qsgQd_Xr1FA049-xsoxpdA4EzMUoouiTJ995NWCOJNjo6VICpuSvfOJBlnOLd8aLxueLUtuyScbkLd2jOCQIsF2aV6hhIZWDXpJwlCKPkIckeaXaaHeE4EqTZR6N0JnA=="; session_id_hellow=127.0.0.1-f0c125e4-5d5e-4805-8c10-bdfc66367729; session_id_admin=127.0.0.1-66a1de5b-ba15-4b30-ba06-132c9e7969c1'
p1414
asbasbasbag49
(g65
g51
NtRp1415
(dp1416
g54
(dp1417
sg63
g1122
sg56
(lp1418
g49
(g70
g51
NtRp1419
(dp1420
g54
(dp1421
g74
g75
ssg63
g1415
sg56
(lp1422
S'http_host'
p1423
asbag49
(g70
g51
NtRp1424
(dp1425
g54
(dp1426
g81
g82
ssg63
g1415
sg56
(lp1427
S':'
asbag49
(g70
g51
NtRp1428
(dp1429
g54
(dp1430
sg63
g1415
sg56
(lp1431
g49
(g50
g51
NtRp1432
(dp1433
g54
(dp1434
g62
I4
ssg63
g1428
sg56
(lp1435
S'127.0.0.1:8887'
p1436
asbasbasbag49
(g65
g51
NtRp1437
(dp1438
g54
(dp1439
sg63
g1122
sg56
(lp1440
g49
(g70
g51
NtRp1441
(dp1442
g54
(dp1443
g74
g75
ssg63
g1437
sg56
(lp1444
S'http_user_agent'
p1445
asbag49
(g70
g51
NtRp1446
(dp1447
g54
(dp1448
g81
g82
ssg63
g1437
sg56
(lp1449
S':'
asbag49
(g70
g51
NtRp1450
(dp1451
g54
(dp1452
sg63
g1437
sg56
(lp1453
g49
(g50
g51
NtRp1454
(dp1455
g54
(dp1456
g62
I4
ssg63
g1450
sg56
(lp1457
S'Mozilla/5.0 (Macintosh; Intel Mac OS X 10_8_3) AppleWebKit/537.22 (KHTML, like Gecko) Chrome/25.0.1364.172 Safari/537.22'
p1458
asbasbasbag49
(g65
g51
NtRp1459
(dp1460
g54
(dp1461
sg63
g1122
sg56
(lp1462
g49
(g70
g51
NtRp1463
(dp1464
g54
(dp1465
g74
g75
ssg63
g1459
sg56
(lp1466
S'is_jython'
p1467
asbag49
(g70
g51
NtRp1468
(dp1469
g54
(dp1470
g81
g82
ssg63
g1459
sg56
(lp1471
S':'
asbag49
(g70
g51
NtRp1472
(dp1473
g54
(dp1474
sg63
g1459
sg56
(lp1475
g49
(g50
g51
NtRp1476
(dp1477
g54
(dp1478
g62
I4
ssg63
g1472
sg56
(lp1479
g92
asbasbasbag49
(g65
g51
NtRp1480
(dp1481
g54
(dp1482
sg63
g1122
sg56
(lp1483
g49
(g70
g51
NtRp1484
(dp1485
g54
(dp1486
g74
g75
ssg63
g1480
sg56
(lp1487
S'is_pypy'
p1488
asbag49
(g70
g51
NtRp1489
(dp1490
g54
(dp1491
g81
g82
ssg63
g1480
sg56
(lp1492
S':'
asbag49
(g70
g51
NtRp1493
(dp1494
g54
(dp1495
sg63
g1480
sg56
(lp1496
g49
(g50
g51
NtRp1497
(dp1498
g54
(dp1499
g62
I4
ssg63
g1493
sg56
(lp1500
g92
asbasbasbag49
(g65
g51
NtRp1501
(dp1502
g54
(dp1503
sg63
g1122
sg56
(lp1504
g49
(g70
g51
NtRp1505
(dp1506
g54
(dp1507
g74
g75
ssg63
g1501
sg56
(lp1508
S'local_hosts'
p1509
asbag49
(g70
g51
NtRp1510
(dp1511
g54
(dp1512
g81
g82
ssg63
g1501
sg56
(lp1513
S':'
asbag49
(g70
g51
NtRp1514
(dp1515
g54
(dp1516
sg63
g1501
sg56
(lp1517
g49
(g50
g51
NtRp1518
(dp1519
g54
(dp1520
g62
I4
ssg63
g1514
sg56
(lp1521
g49
(g58
g51
NtRp1522
(dp1523
g54
(dp1524
g62
I3
ssg63
Nsg56
(lp1525
g49
(g65
g51
NtRp1526
(dp1527
g54
(dp1528
sg63
g1522
sg56
(lp1529
g49
(g70
g51
NtRp1530
(dp1531
g54
(dp1532
sg63
g1526
sg56
(lp1533
g49
(g50
g51
NtRp1534
(dp1535
g54
(dp1536
g62
I3
ssg63
g1530
sg56
(lp1537
S'130.91.151.157'
p1538
asbasbasbag49
(g65
g51
NtRp1539
(dp1540
g54
(dp1541
sg63
g1522
sg56
(lp1542
g49
(g70
g51
NtRp1543
(dp1544
g54
(dp1545
sg63
g1539
sg56
(lp1546
g49
(g50
g51
NtRp1547
(dp1548
g54
(dp1549
g62
I3
ssg63
g1543
sg56
(lp1550
S'::1'
p1551
asbasbasbag49
(g65
g51
NtRp1552
(dp1553
g54
(dp1554
sg63
g1522
sg56
(lp1555
g49
(g70
g51
NtRp1556
(dp1557
g54
(dp1558
sg63
g1552
sg56
(lp1559
g49
(g50
g51
NtRp1560
(dp1561
g54
(dp1562
g62
I3
ssg63
g1556
sg56
(lp1563
S'::ffff:127.0.0.1'
p1564
asbasbasbag49
(g65
g51
NtRp1565
(dp1566
g54
(dp1567
sg63
g1522
sg56
(lp1568
g49
(g70
g51
NtRp1569
(dp1570
g54
(dp1571
sg63
g1565
sg56
(lp1572
g49
(g50
g51
NtRp1573
(dp1574
g54
(dp1575
g62
I3
ssg63
g1569
sg56
(lp1576
S'127.0.0.1'
p1577
asbasbasbag49
(g65
g51
NtRp1578
(dp1579
g54
(dp1580
sg63
g1522
sg56
(lp1581
g49
(g70
g51
NtRp1582
(dp1583
g54
(dp1584
sg63
g1578
sg56
(lp1585
g49
(g50
g51
NtRp1586
(dp1587
g54
(dp1588
g62
I3
ssg63
g1582
sg56
(lp1589
S'hntvlan531.0924.wlan.wireless-pennnet.upenn.edu'
p1590
asbasbasbasbasbasbasbag49
(g65
g51
NtRp1591
(dp1592
g54
(dp1593
sg63
g1122
sg56
(lp1594
g49
(g70
g51
NtRp1595
(dp1596
g54
(dp1597
g74
g75
ssg63
g1591
sg56
(lp1598
S'path_info'
p1599
asbag49
(g70
g51
NtRp1600
(dp1601
g54
(dp1602
g81
g82
ssg63
g1591
sg56
(lp1603
S':'
asbag49
(g70
g51
NtRp1604
(dp1605
g54
(dp1606
sg63
g1591
sg56
(lp1607
g49
(g50
g51
NtRp1608
(dp1609
g54
(dp1610
g62
I4
ssg63
g1604
sg56
(lp1611
S'/hellow/game/show/1'
p1612
asbasbasbag49
(g65
g51
NtRp1613
(dp1614
g54
(dp1615
sg63
g1122
sg56
(lp1616
g49
(g70
g51
NtRp1617
(dp1618
g54
(dp1619
g74
g75
ssg63
g1613
sg56
(lp1620
S'query_string'
p1621
asbag49
(g70
g51
NtRp1622
(dp1623
g54
(dp1624
g81
g82
ssg63
g1613
sg56
(lp1625
S':'
asbag49
(g70
g51
NtRp1626
(dp1627
g54
(dp1628
sg63
g1613
sg56
(lp1629
g49
(g50
g51
NtRp1630
(dp1631
g54
(dp1632
g62
I4
ssg63
g1626
sg56
(lp1633
S''
asbasbasbag49
(g65
g51
NtRp1634
(dp1635
g54
(dp1636
sg63
g1122
sg56
(lp1637
g49
(g70
g51
NtRp1638
(dp1639
g54
(dp1640
g74
g75
ssg63
g1634
sg56
(lp1641
S'remote_addr'
p1642
asbag49
(g70
g51
NtRp1643
(dp1644
g54
(dp1645
g81
g82
ssg63
g1634
sg56
(lp1646
S':'
asbag49
(g70
g51
NtRp1647
(dp1648
g54
(dp1649
sg63
g1634
sg56
(lp1650
g49
(g50
g51
NtRp1651
(dp1652
g54
(dp1653
g62
I4
ssg63
g1647
sg56
(lp1654
g216
asbasbasbag49
(g65
g51
NtRp1655
(dp1656
g54
(dp1657
sg63
g1122
sg56
(lp1658
g49
(g70
g51
NtRp1659
(dp1660
g54
(dp1661
g74
g75
ssg63
g1655
sg56
(lp1662
S'remote_port'
p1663
asbag49
(g70
g51
NtRp1664
(dp1665
g54
(dp1666
g81
g82
ssg63
g1655
sg56
(lp1667
S':'
asbag49
(g70
g51
NtRp1668
(dp1669
g54
(dp1670
sg63
g1655
sg56
(lp1671
g49
(g50
g51
NtRp1672
(dp1673
g54
(dp1674
g62
I4
ssg63
g1668
sg56
(lp1675
S'64825'
p1676
asbasbasbag49
(g65
g51
NtRp1677
(dp1678
g54
(dp1679
sg63
g1122
sg56
(lp1680
g49
(g70
g51
NtRp1681
(dp1682
g54
(dp1683
g74
g75
ssg63
g1677
sg56
(lp1684
S'request_method'
p1685
asbag49
(g70
g51
NtRp1686
(dp1687
g54
(dp1688
g81
g82
ssg63
g1677
sg56
(lp1689
S':'
asbag49
(g70
g51
NtRp1690
(dp1691
g54
(dp1692
sg63
g1677
sg56
(lp1693
g49
(g50
g51
NtRp1694
(dp1695
g54
(dp1696
g62
I4
ssg63
g1690
sg56
(lp1697
S'GET'
p1698
asbasbasbag49
(g65
g51
NtRp1699
(dp1700
g54
(dp1701
sg63
g1122
sg56
(lp1702
g49
(g70
g51
NtRp1703
(dp1704
g54
(dp1705
g74
g75
ssg63
g1699
sg56
(lp1706
S'request_uri'
p1707
asbag49
(g70
g51
NtRp1708
(dp1709
g54
(dp1710
g81
g82
ssg63
g1699
sg56
(lp1711
S':'
asbag49
(g70
g51
NtRp1712
(dp1713
g54
(dp1714
sg63
g1699
sg56
(lp1715
g49
(g50
g51
NtRp1716
(dp1717
g54
(dp1718
g62
I4
ssg63
g1712
sg56
(lp1719
g1612
asbasbasbag49
(g65
g51
NtRp1720
(dp1721
g54
(dp1722
sg63
g1122
sg56
(lp1723
g49
(g70
g51
NtRp1724
(dp1725
g54
(dp1726
g74
g75
ssg63
g1720
sg56
(lp1727
S'script_name'
p1728
asbag49
(g70
g51
NtRp1729
(dp1730
g54
(dp1731
g81
g82
ssg63
g1720
sg56
(lp1732
S':'
asbag49
(g70
g51
NtRp1733
(dp1734
g54
(dp1735
sg63
g1720
sg56
(lp1736
g49
(g50
g51
NtRp1737
(dp1738
g54
(dp1739
g62
I4
ssg63
g1733
sg56
(lp1740
S''
asbasbasbag49
(g65
g51
NtRp1741
(dp1742
g54
(dp1743
sg63
g1122
sg56
(lp1744
g49
(g70
g51
NtRp1745
(dp1746
g54
(dp1747
g74
g75
ssg63
g1741
sg56
(lp1748
S'server_name'
p1749
asbag49
(g70
g51
NtRp1750
(dp1751
g54
(dp1752
g81
g82
ssg63
g1741
sg56
(lp1753
S':'
asbag49
(g70
g51
NtRp1754
(dp1755
g54
(dp1756
sg63
g1741
sg56
(lp1757
g49
(g50
g51
NtRp1758
(dp1759
g54
(dp1760
g62
I4
ssg63
g1754
sg56
(lp1761
S'hntvlan531.0924.wlan.wireless-pennnet.upenn.edu'
p1762
asbasbasbag49
(g65
g51
NtRp1763
(dp1764
g54
(dp1765
sg63
g1122
sg56
(lp1766
g49
(g70
g51
NtRp1767
(dp1768
g54
(dp1769
g74
g75
ssg63
g1763
sg56
(lp1770
S'server_port'
p1771
asbag49
(g70
g51
NtRp1772
(dp1773
g54
(dp1774
g81
g82
ssg63
g1763
sg56
(lp1775
S':'
asbag49
(g70
g51
NtRp1776
(dp1777
g54
(dp1778
sg63
g1763
sg56
(lp1779
g49
(g50
g51
NtRp1780
(dp1781
g54
(dp1782
g62
I4
ssg63
g1776
sg56
(lp1783
S'8887'
p1784
asbasbasbag49
(g65
g51
NtRp1785
(dp1786
g54
(dp1787
sg63
g1122
sg56
(lp1788
g49
(g70
g51
NtRp1789
(dp1790
g54
(dp1791
g74
g75
ssg63
g1785
sg56
(lp1792
S'server_protocol'
p1793
asbag49
(g70
g51
NtRp1794
(dp1795
g54
(dp1796
g81
g82
ssg63
g1785
sg56
(lp1797
S':'
asbag49
(g70
g51
NtRp1798
(dp1799
g54
(dp1800
sg63
g1785
sg56
(lp1801
g49
(g50
g51
NtRp1802
(dp1803
g54
(dp1804
g62
I4
ssg63
g1798
sg56
(lp1805
S'HTTP/1.1'
p1806
asbasbasbag49
(g65
g51
NtRp1807
(dp1808
g54
(dp1809
sg63
g1122
sg56
(lp1810
g49
(g70
g51
NtRp1811
(dp1812
g54
(dp1813
g74
g75
ssg63
g1807
sg56
(lp1814
S'server_software'
p1815
asbag49
(g70
g51
NtRp1816
(dp1817
g54
(dp1818
g81
g82
ssg63
g1807
sg56
(lp1819
S':'
asbag49
(g70
g51
NtRp1820
(dp1821
g54
(dp1822
sg63
g1807
sg56
(lp1823
g49
(g50
g51
NtRp1824
(dp1825
g54
(dp1826
g62
I4
ssg63
g1820
sg56
(lp1827
S'Rocket 1.2.6'
p1828
asbasbasbag49
(g65
g51
NtRp1829
(dp1830
g54
(dp1831
sg63
g1122
sg56
(lp1832
g49
(g70
g51
NtRp1833
(dp1834
g54
(dp1835
g74
g75
ssg63
g1829
sg56
(lp1836
S'web2py_path'
p1837
asbag49
(g70
g51
NtRp1838
(dp1839
g54
(dp1840
g81
g82
ssg63
g1829
sg56
(lp1841
S':'
asbag49
(g70
g51
NtRp1842
(dp1843
g54
(dp1844
sg63
g1829
sg56
(lp1845
g49
(g50
g51
NtRp1846
(dp1847
g54
(dp1848
g62
I4
ssg63
g1842
sg56
(lp1849
g1169
asbasbasbag49
(g65
g51
NtRp1850
(dp1851
g54
(dp1852
sg63
g1122
sg56
(lp1853
g49
(g70
g51
NtRp1854
(dp1855
g54
(dp1856
g74
g75
ssg63
g1850
sg56
(lp1857
S'web2py_version'
p1858
asbag49
(g70
g51
NtRp1859
(dp1860
g54
(dp1861
g81
g82
ssg63
g1850
sg56
(lp1862
S':'
asbag49
(g70
g51
NtRp1863
(dp1864
g54
(dp1865
sg63
g1850
sg56
(lp1866
g49
(g50
g51
NtRp1867
(dp1868
g54
(dp1869
g62
I4
ssg63
g1863
sg56
(lp1870
g49
(g58
g51
NtRp1871
(dp1872
g54
(dp1873
g62
I3
ssg63
Nsg56
(lp1874
g49
(g65
g51
NtRp1875
(dp1876
g54
(dp1877
sg63
g1871
sg56
(lp1878
g49
(g70
g51
NtRp1879
(dp1880
g54
(dp1881
sg63
g1875
sg56
(lp1882
g49
(g50
g51
NtRp1883
(dp1884
g54
(dp1885
g62
I3
ssg63
g1879
sg56
(lp1886
S'2'
asbasbasbag49
(g65
g51
NtRp1887
(dp1888
g54
(dp1889
sg63
g1871
sg56
(lp1890
g49
(g70
g51
NtRp1891
(dp1892
g54
(dp1893
sg63
g1887
sg56
(lp1894
g49
(g50
g51
NtRp1895
(dp1896
g54
(dp1897
g62
I3
ssg63
g1891
sg56
(lp1898
S'4'
asbasbasbag49
(g65
g51
NtRp1899
(dp1900
g54
(dp1901
sg63
g1871
sg56
(lp1902
g49
(g70
g51
NtRp1903
(dp1904
g54
(dp1905
sg63
g1899
sg56
(lp1906
g49
(g50
g51
NtRp1907
(dp1908
g54
(dp1909
g62
I3
ssg63
g1903
sg56
(lp1910
S'5'
asbasbasbag49
(g65
g51
NtRp1911
(dp1912
g54
(dp1913
sg63
g1871
sg56
(lp1914
g49
(g70
g51
NtRp1915
(dp1916
g54
(dp1917
sg63
g1911
sg56
(lp1918
g49
(g50
g51
NtRp1919
(dp1920
g54
(dp1921
g62
I3
ssg63
g1915
sg56
(lp1922
S'stable'
p1923
asbasbasbag49
(g65
g51
NtRp1924
(dp1925
g54
(dp1926
sg63
g1871
sg56
(lp1927
g49
(g70
g51
NtRp1928
(dp1929
g54
(dp1930
sg63
g1924
sg56
(lp1931
g49
(g50
g51
NtRp1932
(dp1933
g54
(dp1934
g62
I3
ssg63
g1928
sg56
(lp1935
S'datetime.datetime(2013, 3, 18, 22, 46, 22)'
p1936
asbasbasbasbasbasbasbag49
(g65
g51
NtRp1937
(dp1938
g54
(dp1939
sg63
g1122
sg56
(lp1940
g49
(g70
g51
NtRp1941
(dp1942
g54
(dp1943
g74
g75
ssg63
g1937
sg56
(lp1944
S'wsgi_errors'
p1945
asbag49
(g70
g51
NtRp1946
(dp1947
g54
(dp1948
g81
g82
ssg63
g1937
sg56
(lp1949
S':'
asbag49
(g70
g51
NtRp1950
(dp1951
g54
(dp1952
sg63
g1937
sg56
(lp1953
g49
(g50
g51
NtRp1954
(dp1955
g54
(dp1956
g62
I4
ssg63
g1950
sg56
(lp1957
S"<open file '<stderr>', mode 'w' at 0x540b0>"
p1958
asbasbasbag49
(g65
g51
NtRp1959
(dp1960
g54
(dp1961
sg63
g1122
sg56
(lp1962
g49
(g70
g51
NtRp1963
(dp1964
g54
(dp1965
g74
g75
ssg63
g1959
sg56
(lp1966
S'wsgi_file_wrapper'
p1967
asbag49
(g70
g51
NtRp1968
(dp1969
g54
(dp1970
g81
g82
ssg63
g1959
sg56
(lp1971
S':'
asbag49
(g70
g51
NtRp1972
(dp1973
g54
(dp1974
sg63
g1959
sg56
(lp1975
g49
(g50
g51
NtRp1976
(dp1977
g54
(dp1978
g62
I4
ssg63
g1972
sg56
(lp1979
S'<class wsgiref.util.FileWrapper at 0x329d060>'
p1980
asbasbasbag49
(g65
g51
NtRp1981
(dp1982
g54
(dp1983
sg63
g1122
sg56
(lp1984
g49
(g70
g51
NtRp1985
(dp1986
g54
(dp1987
g74
g75
ssg63
g1981
sg56
(lp1988
S'wsgi_input'
p1989
asbag49
(g70
g51
NtRp1990
(dp1991
g54
(dp1992
g81
g82
ssg63
g1981
sg56
(lp1993
S':'
asbag49
(g70
g51
NtRp1994
(dp1995
g54
(dp1996
sg63
g1981
sg56
(lp1997
g49
(g50
g51
NtRp1998
(dp1999
g54
(dp2000
g62
I4
ssg63
g1994
sg56
(lp2001
S'<socket._fileobject object at 0x9ccccb0>'
p2002
asbasbasbag49
(g65
g51
NtRp2003
(dp2004
g54
(dp2005
sg63
g1122
sg56
(lp2006
g49
(g70
g51
NtRp2007
(dp2008
g54
(dp2009
g74
g75
ssg63
g2003
sg56
(lp2010
S'wsgi_multiprocess'
p2011
asbag49
(g70
g51
NtRp2012
(dp2013
g54
(dp2014
g81
g82
ssg63
g2003
sg56
(lp2015
S':'
asbag49
(g70
g51
NtRp2016
(dp2017
g54
(dp2018
sg63
g2003
sg56
(lp2019
g49
(g50
g51
NtRp2020
(dp2021
g54
(dp2022
g62
I4
ssg63
g2016
sg56
(lp2023
g92
asbasbasbag49
(g65
g51
NtRp2024
(dp2025
g54
(dp2026
sg63
g1122
sg56
(lp2027
g49
(g70
g51
NtRp2028
(dp2029
g54
(dp2030
g74
g75
ssg63
g2024
sg56
(lp2031
S'wsgi_multithread'
p2032
asbag49
(g70
g51
NtRp2033
(dp2034
g54
(dp2035
g81
g82
ssg63
g2024
sg56
(lp2036
S':'
asbag49
(g70
g51
NtRp2037
(dp2038
g54
(dp2039
sg63
g2024
sg56
(lp2040
g49
(g50
g51
NtRp2041
(dp2042
g54
(dp2043
g62
I4
ssg63
g2037
sg56
(lp2044
g1260
asbasbasbag49
(g65
g51
NtRp2045
(dp2046
g54
(dp2047
sg63
g1122
sg56
(lp2048
g49
(g70
g51
NtRp2049
(dp2050
g54
(dp2051
g74
g75
ssg63
g2045
sg56
(lp2052
S'wsgi_run_once'
p2053
asbag49
(g70
g51
NtRp2054
(dp2055
g54
(dp2056
g81
g82
ssg63
g2045
sg56
(lp2057
S':'
asbag49
(g70
g51
NtRp2058
(dp2059
g54
(dp2060
sg63
g2045
sg56
(lp2061
g49
(g50
g51
NtRp2062
(dp2063
g54
(dp2064
g62
I4
ssg63
g2058
sg56
(lp2065
g92
asbasbasbag49
(g65
g51
NtRp2066
(dp2067
g54
(dp2068
sg63
g1122
sg56
(lp2069
g49
(g70
g51
NtRp2070
(dp2071
g54
(dp2072
g74
g75
ssg63
g2066
sg56
(lp2073
S'wsgi_url_scheme'
p2074
asbag49
(g70
g51
NtRp2075
(dp2076
g54
(dp2077
g81
g82
ssg63
g2066
sg56
(lp2078
S':'
asbag49
(g70
g51
NtRp2079
(dp2080
g54
(dp2081
sg63
g2066
sg56
(lp2082
g49
(g50
g51
NtRp2083
(dp2084
g54
(dp2085
g62
I4
ssg63
g2079
sg56
(lp2086
S'http'
p2087
asbasbasbag49
(g65
g51
NtRp2088
(dp2089
g54
(dp2090
sg63
g1122
sg56
(lp2091
g49
(g70
g51
NtRp2092
(dp2093
g54
(dp2094
g74
g75
ssg63
g2088
sg56
(lp2095
S'wsgi_version'
p2096
asbag49
(g70
g51
NtRp2097
(dp2098
g54
(dp2099
g81
g82
ssg63
g2088
sg56
(lp2100
S':'
asbag49
(g70
g51
NtRp2101
(dp2102
g54
(dp2103
sg63
g2088
sg56
(lp2104
g49
(g50
g51
NtRp2105
(dp2106
g54
(dp2107
g62
I4
ssg63
g2101
sg56
(lp2108
g49
(g58
g51
NtRp2109
(dp2110
g54
(dp2111
g62
I3
ssg63
Nsg56
(lp2112
g49
(g65
g51
NtRp2113
(dp2114
g54
(dp2115
sg63
g2109
sg56
(lp2116
g49
(g70
g51
NtRp2117
(dp2118
g54
(dp2119
sg63
g2113
sg56
(lp2120
g49
(g50
g51
NtRp2121
(dp2122
g54
(dp2123
g62
I3
ssg63
g2117
sg56
(lp2124
S'1'
asbasbasbag49
(g65
g51
NtRp2125
(dp2126
g54
(dp2127
sg63
g2109
sg56
(lp2128
g49
(g70
g51
NtRp2129
(dp2130
g54
(dp2131
sg63
g2125
sg56
(lp2132
g49
(g50
g51
NtRp2133
(dp2134
g54
(dp2135
g62
I3
ssg63
g2129
sg56
(lp2136
S'0'
asbasbasbasbasbasbasbasbasbasbasbag49
(g65
g51
NtRp2137
(dp2138
g54
(dp2139
sg63
g59
sg56
(lp2140
g49
(g70
g51
NtRp2141
(dp2142
g54
(dp2143
g74
g75
ssg63
g2137
sg56
(lp2144
S'extension'
p2145
asbag49
(g70
g51
NtRp2146
(dp2147
g54
(dp2148
g81
g82
ssg63
g2137
sg56
(lp2149
S':'
asbag49
(g70
g51
NtRp2150
(dp2151
g54
(dp2152
sg63
g2137
sg56
(lp2153
g49
(g50
g51
NtRp2154
(dp2155
g54
(dp2156
g62
I5
ssg63
g2150
sg56
(lp2157
S'html'
p2158
asbasbasbag49
(g65
g51
NtRp2159
(dp2160
g54
(dp2161
sg63
g59
sg56
(lp2162
g49
(g70
g51
NtRp2163
(dp2164
g54
(dp2165
g74
g75
ssg63
g2159
sg56
(lp2166
S'folder'
p2167
asbag49
(g70
g51
NtRp2168
(dp2169
g54
(dp2170
g81
g82
ssg63
g2159
sg56
(lp2171
S':'
asbag49
(g70
g51
NtRp2172
(dp2173
g54
(dp2174
sg63
g2159
sg56
(lp2175
g49
(g50
g51
NtRp2176
(dp2177
g54
(dp2178
g62
I5
ssg63
g2172
sg56
(lp2179
S'/Users/zamechek/Downloads/web2py/web2py.app/Contents/Resources/applications/hellow/'
p2180
asbasbasbag49
(g65
g51
NtRp2181
(dp2182
g54
(dp2183
sg63
g59
sg56
(lp2184
g49
(g70
g51
NtRp2185
(dp2186
g54
(dp2187
g74
g75
ssg63
g2181
sg56
(lp2188
S'function'
p2189
asbag49
(g70
g51
NtRp2190
(dp2191
g54
(dp2192
g81
g82
ssg63
g2181
sg56
(lp2193
S':'
asbag49
(g70
g51
NtRp2194
(dp2195
g54
(dp2196
sg63
g2181
sg56
(lp2197
g49
(g50
g51
NtRp2198
(dp2199
g54
(dp2200
g62
I5
ssg63
g2194
sg56
(lp2201
S'show'
p2202
asbasbasbag49
(g65
g51
NtRp2203
(dp2204
g54
(dp2205
sg63
g59
sg56
(lp2206
g49
(g70
g51
NtRp2207
(dp2208
g54
(dp2209
g74
g75
ssg63
g2203
sg56
(lp2210
S'get_vars'
p2211
asbag49
(g70
g51
NtRp2212
(dp2213
g54
(dp2214
g81
g82
ssg63
g2203
sg56
(lp2215
S':'
asbag49
(g70
g51
NtRp2216
(dp2217
g54
(dp2218
sg63
g2203
sg56
(lp2219
g49
(g50
g51
NtRp2220
(dp2221
g54
(dp2222
g62
I5
ssg63
g2216
sg56
(lp2223
g49
(g58
g51
NtRp2224
(dp2225
g54
(dp2226
g62
I4
ssg63
Nsg56
(lp2227
sbasbasbasbag49
(g65
g51
NtRp2228
(dp2229
g54
(dp2230
sg63
g59
sg56
(lp2231
g49
(g70
g51
NtRp2232
(dp2233
g54
(dp2234
g74
g75
ssg63
g2228
sg56
(lp2235
S'global_settings'
p2236
asbag49
(g70
g51
NtRp2237
(dp2238
g54
(dp2239
g81
g82
ssg63
g2228
sg56
(lp2240
S':'
asbag49
(g70
g51
NtRp2241
(dp2242
g54
(dp2243
sg63
g2228
sg56
(lp2244
g49
(g50
g51
NtRp2245
(dp2246
g54
(dp2247
g62
I5
ssg63
g2241
sg56
(lp2248
g49
(g58
g51
NtRp2249
(dp2250
g54
(dp2251
g62
I4
ssg63
Nsg56
(lp2252
g49
(g65
g51
NtRp2253
(dp2254
g54
(dp2255
sg63
g2249
sg56
(lp2256
g49
(g70
g51
NtRp2257
(dp2258
g54
(dp2259
g74
g75
ssg63
g2253
sg56
(lp2260
g1134
asbag49
(g70
g51
NtRp2261
(dp2262
g54
(dp2263
g81
g82
ssg63
g2253
sg56
(lp2264
S':'
asbag49
(g70
g51
NtRp2265
(dp2266
g54
(dp2267
sg63
g2253
sg56
(lp2268
g49
(g50
g51
NtRp2269
(dp2270
g54
(dp2271
g62
I4
ssg63
g2265
sg56
(lp2272
S"set(['/Users/zamechek/Downloads/web2py/web2py.app/Contents/Resources/applications/examples/', '/Users/zamechek/Downloads/web2py/web2py.app/Contents/Resources/applications/hellow/', '/Users/zamechek/Downloads/web2py/web2py.app/Contents/Resources/applications/admin/', '/Users/zamechek/Downloads/web2py/web2py.app/Contents/Resources/applications/slots/', '/Users/zamechek/Downloads/web2py/web2py.app/Contents/Resources/applications/welcome/'])"
p2273
asbasbasbag49
(g65
g51
NtRp2274
(dp2275
g54
(dp2276
sg63
g2249
sg56
(lp2277
g49
(g70
g51
NtRp2278
(dp2279
g54
(dp2280
g74
g75
ssg63
g2274
sg56
(lp2281
g1156
asbag49
(g70
g51
NtRp2282
(dp2283
g54
(dp2284
g81
g82
ssg63
g2274
sg56
(lp2285
S':'
asbag49
(g70
g51
NtRp2286
(dp2287
g54
(dp2288
sg63
g2274
sg56
(lp2289
g49
(g50
g51
NtRp2290
(dp2291
g54
(dp2292
g62
I4
ssg63
g2286
sg56
(lp2293
g1169
asbasbasbag49
(g65
g51
NtRp2294
(dp2295
g54
(dp2296
sg63
g2249
sg56
(lp2297
g49
(g70
g51
NtRp2298
(dp2299
g54
(dp2300
g74
g75
ssg63
g2294
sg56
(lp2301
g1178
asbag49
(g70
g51
NtRp2302
(dp2303
g54
(dp2304
g81
g82
ssg63
g2294
sg56
(lp2305
S':'
asbag49
(g70
g51
NtRp2306
(dp2307
g54
(dp2308
sg63
g2294
sg56
(lp2309
g49
(g50
g51
NtRp2310
(dp2311
g54
(dp2312
g62
I4
ssg63
g2306
sg56
(lp2313
g49
(g58
g51
NtRp2314
(dp2315
g54
(dp2316
g62
I3
ssg63
Nsg56
(lp2317
sbasbasbasbag49
(g65
g51
NtRp2318
(dp2319
g54
(dp2320
sg63
g2249
sg56
(lp2321
g49
(g70
g51
NtRp2322
(dp2323
g54
(dp2324
g74
g75
ssg63
g2318
sg56
(lp2325
g1203
asbag49
(g70
g51
NtRp2326
(dp2327
g54
(dp2328
g81
g82
ssg63
g2318
sg56
(lp2329
S':'
asbag49
(g70
g51
NtRp2330
(dp2331
g54
(dp2332
sg63
g2318
sg56
(lp2333
g49
(g50
g51
NtRp2334
(dp2335
g54
(dp2336
g62
I4
ssg63
g2330
sg56
(lp2337
S"<Values at 0x32c8f58: {'verbose': False, 'ip': '127.0.0.1', 'with_scheduler': False, 'ips': ['130.91.151.157'], 'shutdown_timeout': 5, 'taskbar': False, 'port': 8000, 'maxthreads': None, 'softcron': False, 'server_name': 'hntvlan531.0924.wlan.wireless-pennnet.upenn.edu', 'bpython': False, 'nogui': False, 'pid_filename': 'httpserver.pid', 'extcron': False, 'runcron': False, 'run_system_tests': False, 'test': None, 'folder': '/Users/zamechek/Downloads/web2py/web2py.app/Contents/Resources', 'config': '', 'import_models': False, 'winservice': '', 'shell': None, 'run': '', 'log_filename': 'httpserver.log', 'debuglevel': 30, 'args': [''], 'socket_timeout': 5, 'ssl_ca_certificate': None, 'scheduler': None, 'profiler_filename': None, 'ssl_private_key': '', 'scheduler_groups': None, 'password': '<ask>', 'request_queue_size': 5, 'ssl_certificate': '', 'cronjob': False, 'numthreads': None, 'quiet': False, 'interfaces': None, 'minthreads': None, 'timeout': 10, 'plain': False, 'nobanner': False}>"
p2338
asbasbasbag49
(g65
g51
NtRp2339
(dp2340
g54
(dp2341
sg63
g2249
sg56
(lp2342
g49
(g70
g51
NtRp2343
(dp2344
g54
(dp2345
g74
g75
ssg63
g2339
sg56
(lp2346
g1225
asbag49
(g70
g51
NtRp2347
(dp2348
g54
(dp2349
g81
g82
ssg63
g2339
sg56
(lp2350
S':'
asbag49
(g70
g51
NtRp2351
(dp2352
g54
(dp2353
sg63
g2339
sg56
(lp2354
g49
(g50
g51
NtRp2355
(dp2356
g54
(dp2357
g62
I4
ssg63
g2351
sg56
(lp2358
S'set([])'
p2359
asbasbasbag49
(g65
g51
NtRp2360
(dp2361
g54
(dp2362
sg63
g2249
sg56
(lp2363
g49
(g70
g51
NtRp2364
(dp2365
g54
(dp2366
g74
g75
ssg63
g2360
sg56
(lp2367
g1247
asbag49
(g70
g51
NtRp2368
(dp2369
g54
(dp2370
g81
g82
ssg63
g2360
sg56
(lp2371
S':'
asbag49
(g70
g51
NtRp2372
(dp2373
g54
(dp2374
sg63
g2360
sg56
(lp2375
g49
(g50
g51
NtRp2376
(dp2377
g54
(dp2378
g62
I4
ssg63
g2372
sg56
(lp2379
g1260
asbasbasbag49
(g65
g51
NtRp2380
(dp2381
g54
(dp2382
sg63
g2249
sg56
(lp2383
g49
(g70
g51
NtRp2384
(dp2385
g54
(dp2386
g74
g75
ssg63
g2380
sg56
(lp2387
g1269
asbag49
(g70
g51
NtRp2388
(dp2389
g54
(dp2390
g81
g82
ssg63
g2380
sg56
(lp2391
S':'
asbag49
(g70
g51
NtRp2392
(dp2393
g54
(dp2394
sg63
g2380
sg56
(lp2395
g49
(g50
g51
NtRp2396
(dp2397
g54
(dp2398
g62
I4
ssg63
g2392
sg56
(lp2399
g1282
asbasbasbag49
(g65
g51
NtRp2400
(dp2401
g54
(dp2402
sg63
g2249
sg56
(lp2403
g49
(g70
g51
NtRp2404
(dp2405
g54
(dp2406
g74
g75
ssg63
g2400
sg56
(lp2407
g1467
asbag49
(g70
g51
NtRp2408
(dp2409
g54
(dp2410
g81
g82
ssg63
g2400
sg56
(lp2411
S':'
asbag49
(g70
g51
NtRp2412
(dp2413
g54
(dp2414
sg63
g2400
sg56
(lp2415
g49
(g50
g51
NtRp2416
(dp2417
g54
(dp2418
g62
I4
ssg63
g2412
sg56
(lp2419
g92
asbasbasbag49
(g65
g51
NtRp2420
(dp2421
g54
(dp2422
sg63
g2249
sg56
(lp2423
g49
(g70
g51
NtRp2424
(dp2425
g54
(dp2426
g74
g75
ssg63
g2420
sg56
(lp2427
g1488
asbag49
(g70
g51
NtRp2428
(dp2429
g54
(dp2430
g81
g82
ssg63
g2420
sg56
(lp2431
S':'
asbag49
(g70
g51
NtRp2432
(dp2433
g54
(dp2434
sg63
g2420
sg56
(lp2435
g49
(g50
g51
NtRp2436
(dp2437
g54
(dp2438
g62
I4
ssg63
g2432
sg56
(lp2439
g92
asbasbasbag49
(g65
g51
NtRp2440
(dp2441
g54
(dp2442
sg63
g2249
sg56
(lp2443
g49
(g70
g51
NtRp2444
(dp2445
g54
(dp2446
g74
g75
ssg63
g2440
sg56
(lp2447
g1509
asbag49
(g70
g51
NtRp2448
(dp2449
g54
(dp2450
g81
g82
ssg63
g2440
sg56
(lp2451
S':'
asbag49
(g70
g51
NtRp2452
(dp2453
g54
(dp2454
sg63
g2440
sg56
(lp2455
g49
(g50
g51
NtRp2456
(dp2457
g54
(dp2458
g62
I4
ssg63
g2452
sg56
(lp2459
g49
(g58
g51
NtRp2460
(dp2461
g54
(dp2462
g62
I3
ssg63
Nsg56
(lp2463
g49
(g65
g51
NtRp2464
(dp2465
g54
(dp2466
sg63
g2460
sg56
(lp2467
g49
(g70
g51
NtRp2468
(dp2469
g54
(dp2470
sg63
g2464
sg56
(lp2471
g49
(g50
g51
NtRp2472
(dp2473
g54
(dp2474
g62
I3
ssg63
g2468
sg56
(lp2475
g1538
asbasbasbag49
(g65
g51
NtRp2476
(dp2477
g54
(dp2478
sg63
g2460
sg56
(lp2479
g49
(g70
g51
NtRp2480
(dp2481
g54
(dp2482
sg63
g2476
sg56
(lp2483
g49
(g50
g51
NtRp2484
(dp2485
g54
(dp2486
g62
I3
ssg63
g2480
sg56
(lp2487
g1551
asbasbasbag49
(g65
g51
NtRp2488
(dp2489
g54
(dp2490
sg63
g2460
sg56
(lp2491
g49
(g70
g51
NtRp2492
(dp2493
g54
(dp2494
sg63
g2488
sg56
(lp2495
g49
(g50
g51
NtRp2496
(dp2497
g54
(dp2498
g62
I3
ssg63
g2492
sg56
(lp2499
g1564
asbasbasbag49
(g65
g51
NtRp2500
(dp2501
g54
(dp2502
sg63
g2460
sg56
(lp2503
g49
(g70
g51
NtRp2504
(dp2505
g54
(dp2506
sg63
g2500
sg56
(lp2507
g49
(g50
g51
NtRp2508
(dp2509
g54
(dp2510
g62
I3
ssg63
g2504
sg56
(lp2511
g1577
asbasbasbag49
(g65
g51
NtRp2512
(dp2513
g54
(dp2514
sg63
g2460
sg56
(lp2515
g49
(g70
g51
NtRp2516
(dp2517
g54
(dp2518
sg63
g2512
sg56
(lp2519
g49
(g50
g51
NtRp2520
(dp2521
g54
(dp2522
g62
I3
ssg63
g2516
sg56
(lp2523
g1590
asbasbasbasbasbasbasbag49
(g65
g51
NtRp2524
(dp2525
g54
(dp2526
sg63
g2249
sg56
(lp2527
g49
(g70
g51
NtRp2528
(dp2529
g54
(dp2530
g74
g75
ssg63
g2524
sg56
(lp2531
g1858
asbag49
(g70
g51
NtRp2532
(dp2533
g54
(dp2534
g81
g82
ssg63
g2524
sg56
(lp2535
S':'
asbag49
(g70
g51
NtRp2536
(dp2537
g54
(dp2538
sg63
g2524
sg56
(lp2539
g49
(g50
g51
NtRp2540
(dp2541
g54
(dp2542
g62
I4
ssg63
g2536
sg56
(lp2543
g49
(g58
g51
NtRp2544
(dp2545
g54
(dp2546
g62
I3
ssg63
Nsg56
(lp2547
g49
(g65
g51
NtRp2548
(dp2549
g54
(dp2550
sg63
g2544
sg56
(lp2551
g49
(g70
g51
NtRp2552
(dp2553
g54
(dp2554
sg63
g2548
sg56
(lp2555
g49
(g50
g51
NtRp2556
(dp2557
g54
(dp2558
g62
I3
ssg63
g2552
sg56
(lp2559
S'2'
asbasbasbag49
(g65
g51
NtRp2560
(dp2561
g54
(dp2562
sg63
g2544
sg56
(lp2563
g49
(g70
g51
NtRp2564
(dp2565
g54
(dp2566
sg63
g2560
sg56
(lp2567
g49
(g50
g51
NtRp2568
(dp2569
g54
(dp2570
g62
I3
ssg63
g2564
sg56
(lp2571
S'4'
asbasbasbag49
(g65
g51
NtRp2572
(dp2573
g54
(dp2574
sg63
g2544
sg56
(lp2575
g49
(g70
g51
NtRp2576
(dp2577
g54
(dp2578
sg63
g2572
sg56
(lp2579
g49
(g50
g51
NtRp2580
(dp2581
g54
(dp2582
g62
I3
ssg63
g2576
sg56
(lp2583
S'5'
asbasbasbag49
(g65
g51
NtRp2584
(dp2585
g54
(dp2586
sg63
g2544
sg56
(lp2587
g49
(g70
g51
NtRp2588
(dp2589
g54
(dp2590
sg63
g2584
sg56
(lp2591
g49
(g50
g51
NtRp2592
(dp2593
g54
(dp2594
g62
I3
ssg63
g2588
sg56
(lp2595
g1923
asbasbasbag49
(g65
g51
NtRp2596
(dp2597
g54
(dp2598
sg63
g2544
sg56
(lp2599
g49
(g70
g51
NtRp2600
(dp2601
g54
(dp2602
sg63
g2596
sg56
(lp2603
g49
(g50
g51
NtRp2604
(dp2605
g54
(dp2606
g62
I3
ssg63
g2600
sg56
(lp2607
S'datetime.datetime(2013, 3, 18, 22, 46, 22)'
p2608
asbasbasbasbasbasbasbasbasbasbasbag49
(g65
g51
NtRp2609
(dp2610
g54
(dp2611
sg63
g59
sg56
(lp2612
g49
(g70
g51
NtRp2613
(dp2614
g54
(dp2615
g74
g75
ssg63
g2609
sg56
(lp2616
S'is_https'
p2617
asbag49
(g70
g51
NtRp2618
(dp2619
g54
(dp2620
g81
g82
ssg63
g2609
sg56
(lp2621
S':'
asbag49
(g70
g51
NtRp2622
(dp2623
g54
(dp2624
sg63
g2609
sg56
(lp2625
g49
(g50
g51
NtRp2626
(dp2627
g54
(dp2628
g62
I5
ssg63
g2622
sg56
(lp2629
g92
asbasbasbag49
(g65
g51
NtRp2630
(dp2631
g54
(dp2632
sg63
g59
sg56
(lp2633
g49
(g70
g51
NtRp2634
(dp2635
g54
(dp2636
g74
g75
ssg63
g2630
sg56
(lp2637
S'is_local'
p2638
asbag49
(g70
g51
NtRp2639
(dp2640
g54
(dp2641
g81
g82
ssg63
g2630
sg56
(lp2642
S':'
asbag49
(g70
g51
NtRp2643
(dp2644
g54
(dp2645
sg63
g2630
sg56
(lp2646
g49
(g50
g51
NtRp2647
(dp2648
g54
(dp2649
g62
I5
ssg63
g2643
sg56
(lp2650
g1260
asbasbasbag49
(g65
g51
NtRp2651
(dp2652
g54
(dp2653
sg63
g59
sg56
(lp2654
g49
(g70
g51
NtRp2655
(dp2656
g54
(dp2657
g74
g75
ssg63
g2651
sg56
(lp2658
S'is_restful'
p2659
asbag49
(g70
g51
NtRp2660
(dp2661
g54
(dp2662
g81
g82
ssg63
g2651
sg56
(lp2663
S':'
asbag49
(g70
g51
NtRp2664
(dp2665
g54
(dp2666
sg63
g2651
sg56
(lp2667
g49
(g50
g51
NtRp2668
(dp2669
g54
(dp2670
g62
I5
ssg63
g2664
sg56
(lp2671
g92
asbasbasbag49
(g65
g51
NtRp2672
(dp2673
g54
(dp2674
sg63
g59
sg56
(lp2675
g49
(g70
g51
NtRp2676
(dp2677
g54
(dp2678
g74
g75
ssg63
g2672
sg56
(lp2679
S'now'
p2680
asbag49
(g70
g51
NtRp2681
(dp2682
g54
(dp2683
g81
g82
ssg63
g2672
sg56
(lp2684
S':'
asbag49
(g70
g51
NtRp2685
(dp2686
g54
(dp2687
sg63
g2672
sg56
(lp2688
g49
(g50
g51
NtRp2689
(dp2690
g54
(dp2691
g62
I5
ssg63
g2685
sg56
(lp2692
S'datetime.datetime(2013, 3, 25, 13, 19, 36, 342770)'
p2693
asbasbasbag49
(g65
g51
NtRp2694
(dp2695
g54
(dp2696
sg63
g59
sg56
(lp2697
g49
(g70
g51
NtRp2698
(dp2699
g54
(dp2700
g74
g75
ssg63
g2694
sg56
(lp2701
S'post_vars'
p2702
asbag49
(g70
g51
NtRp2703
(dp2704
g54
(dp2705
g81
g82
ssg63
g2694
sg56
(lp2706
S':'
asbag49
(g70
g51
NtRp2707
(dp2708
g54
(dp2709
sg63
g2694
sg56
(lp2710
g49
(g50
g51
NtRp2711
(dp2712
g54
(dp2713
g62
I5
ssg63
g2707
sg56
(lp2714
g49
(g58
g51
NtRp2715
(dp2716
g54
(dp2717
g62
I4
ssg63
Nsg56
(lp2718
sbasbasbasbag49
(g65
g51
NtRp2719
(dp2720
g54
(dp2721
sg63
g59
sg56
(lp2722
g49
(g70
g51
NtRp2723
(dp2724
g54
(dp2725
g74
g75
ssg63
g2719
sg56
(lp2726
S'raw_args'
p2727
asbag49
(g70
g51
NtRp2728
(dp2729
g54
(dp2730
g81
g82
ssg63
g2719
sg56
(lp2731
S':'
asbag49
(g70
g51
NtRp2732
(dp2733
g54
(dp2734
sg63
g2719
sg56
(lp2735
g49
(g50
g51
NtRp2736
(dp2737
g54
(dp2738
g62
I5
ssg63
g2732
sg56
(lp2739
S'1'
asbasbasbag49
(g65
g51
NtRp2740
(dp2741
g54
(dp2742
sg63
g59
sg56
(lp2743
g49
(g70
g51
NtRp2744
(dp2745
g54
(dp2746
g74
g75
ssg63
g2740
sg56
(lp2747
S'raw_extension'
p2748
asbag49
(g70
g51
NtRp2749
(dp2750
g54
(dp2751
g81
g82
ssg63
g2740
sg56
(lp2752
S':'
asbag49
(g70
g51
NtRp2753
(dp2754
g54
(dp2755
sg63
g2740
sg56
(lp2756
g49
(g50
g51
NtRp2757
(dp2758
g54
(dp2759
g62
I5
ssg63
g2753
sg56
(lp2760
S'None'
p2761
asbasbasbag49
(g65
g51
NtRp2762
(dp2763
g54
(dp2764
sg63
g59
sg56
(lp2765
g49
(g70
g51
NtRp2766
(dp2767
g54
(dp2768
g74
g75
ssg63
g2762
sg56
(lp2769
S'url'
p2770
asbag49
(g70
g51
NtRp2771
(dp2772
g54
(dp2773
g81
g82
ssg63
g2762
sg56
(lp2774
S':'
asbag49
(g70
g51
NtRp2775
(dp2776
g54
(dp2777
sg63
g2762
sg56
(lp2778
g49
(g50
g51
NtRp2779
(dp2780
g54
(dp2781
g62
I5
ssg63
g2775
sg56
(lp2782
g1612
asbasbasbag49
(g65
g51
NtRp2783
(dp2784
g54
(dp2785
sg63
g59
sg56
(lp2786
g49
(g70
g51
NtRp2787
(dp2788
g54
(dp2789
g74
g75
ssg63
g2783
sg56
(lp2790
S'utcnow'
p2791
asbag49
(g70
g51
NtRp2792
(dp2793
g54
(dp2794
g81
g82
ssg63
g2783
sg56
(lp2795
S':'
asbag49
(g70
g51
NtRp2796
(dp2797
g54
(dp2798
sg63
g2783
sg56
(lp2799
g49
(g50
g51
NtRp2800
(dp2801
g54
(dp2802
g62
I5
ssg63
g2796
sg56
(lp2803
S'datetime.datetime(2013, 3, 25, 17, 19, 36, 342781)'
p2804
asbasbasbag49
(g65
g51
NtRp2805
(dp2806
g54
(dp2807
sg63
g59
sg56
(lp2808
g49
(g70
g51
NtRp2809
(dp2810
g54
(dp2811
g74
g75
ssg63
g2805
sg56
(lp2812
S'uuid'
p2813
asbag49
(g70
g51
NtRp2814
(dp2815
g54
(dp2816
g81
g82
ssg63
g2805
sg56
(lp2817
S':'
asbag49
(g70
g51
NtRp2818
(dp2819
g54
(dp2820
sg63
g2805
sg56
(lp2821
g49
(g50
g51
NtRp2822
(dp2823
g54
(dp2824
g62
I5
ssg63
g2818
sg56
(lp2825
S'hellow/127.0.0.1.2013-03-25.13-19-36.b51fac6b-5d4d-4f98-97c9-c6a81bd406dd'
p2826
asbasbasbag49
(g65
g51
NtRp2827
(dp2828
g54
(dp2829
sg63
g59
sg56
(lp2830
g49
(g70
g51
NtRp2831
(dp2832
g54
(dp2833
g74
g75
ssg63
g2827
sg56
(lp2834
S'vars'
p2835
asbag49
(g70
g51
NtRp2836
(dp2837
g54
(dp2838
g81
g82
ssg63
g2827
sg56
(lp2839
S':'
asbag49
(g70
g51
NtRp2840
(dp2841
g54
(dp2842
sg63
g2827
sg56
(lp2843
g49
(g50
g51
NtRp2844
(dp2845
g54
(dp2846
g62
I5
ssg63
g2840
sg56
(lp2847
g49
(g58
g51
NtRp2848
(dp2849
g54
(dp2850
g62
I4
ssg63
Nsg56
(lp2851
sbasbasbasbag49
(g65
g51
NtRp2852
(dp2853
g54
(dp2854
sg63
g59
sg56
(lp2855
g49
(g70
g51
NtRp2856
(dp2857
g54
(dp2858
g74
g75
ssg63
g2852
sg56
(lp2859
S'wsgi'
p2860
asbag49
(g70
g51
NtRp2861
(dp2862
g54
(dp2863
g81
g82
ssg63
g2852
sg56
(lp2864
S':'
asbag49
(g70
g51
NtRp2865
(dp2866
g54
(dp2867
sg63
g2852
sg56
(lp2868
g49
(g50
g51
NtRp2869
(dp2870
g54
(dp2871
g62
I5
ssg63
g2865
sg56
(lp2872
g49
(g58
g51
NtRp2873
(dp2874
g54
(dp2875
g62
I4
ssg63
Nsg56
(lp2876
g49
(g65
g51
NtRp2877
(dp2878
g54
(dp2879
sg63
g2873
sg56
(lp2880
g49
(g70
g51
NtRp2881
(dp2882
g54
(dp2883
g74
g75
ssg63
g2877
sg56
(lp2884
S'environ'
p2885
asbag49
(g70
g51
NtRp2886
(dp2887
g54
(dp2888
g81
g82
ssg63
g2877
sg56
(lp2889
S':'
asbag49
(g70
g51
NtRp2890
(dp2891
g54
(dp2892
sg63
g2877
sg56
(lp2893
g49
(g50
g51
NtRp2894
(dp2895
g54
(dp2896
g62
I4
ssg63
g2890
sg56
(lp2897
g49
(g58
g51
NtRp2898
(dp2899
g54
(dp2900
g62
I3
ssg63
Nsg56
(lp2901
g49
(g65
g51
NtRp2902
(dp2903
g54
(dp2904
sg63
g2898
sg56
(lp2905
g49
(g70
g51
NtRp2906
(dp2907
g54
(dp2908
g74
g75
ssg63
g2902
sg56
(lp2909
S'HTTP_ACCEPT'
p2910
asbag49
(g70
g51
NtRp2911
(dp2912
g54
(dp2913
g81
g82
ssg63
g2902
sg56
(lp2914
S':'
asbag49
(g70
g51
NtRp2915
(dp2916
g54
(dp2917
sg63
g2902
sg56
(lp2918
g49
(g50
g51
NtRp2919
(dp2920
g54
(dp2921
g62
I3
ssg63
g2915
sg56
(lp2922
g1304
asbasbasbag49
(g65
g51
NtRp2923
(dp2924
g54
(dp2925
sg63
g2898
sg56
(lp2926
g49
(g70
g51
NtRp2927
(dp2928
g54
(dp2929
g74
g75
ssg63
g2923
sg56
(lp2930
S'HTTP_ACCEPT_CHARSET'
p2931
asbag49
(g70
g51
NtRp2932
(dp2933
g54
(dp2934
g81
g82
ssg63
g2923
sg56
(lp2935
S':'
asbag49
(g70
g51
NtRp2936
(dp2937
g54
(dp2938
sg63
g2923
sg56
(lp2939
g49
(g50
g51
NtRp2940
(dp2941
g54
(dp2942
g62
I3
ssg63
g2936
sg56
(lp2943
g1326
asbasbasbag49
(g65
g51
NtRp2944
(dp2945
g54
(dp2946
sg63
g2898
sg56
(lp2947
g49
(g70
g51
NtRp2948
(dp2949
g54
(dp2950
g74
g75
ssg63
g2944
sg56
(lp2951
S'HTTP_ACCEPT_ENCODING'
p2952
asbag49
(g70
g51
NtRp2953
(dp2954
g54
(dp2955
g81
g82
ssg63
g2944
sg56
(lp2956
S':'
asbag49
(g70
g51
NtRp2957
(dp2958
g54
(dp2959
sg63
g2944
sg56
(lp2960
g49
(g50
g51
NtRp2961
(dp2962
g54
(dp2963
g62
I3
ssg63
g2957
sg56
(lp2964
g1348
asbasbasbag49
(g65
g51
NtRp2965
(dp2966
g54
(dp2967
sg63
g2898
sg56
(lp2968
g49
(g70
g51
NtRp2969
(dp2970
g54
(dp2971
g74
g75
ssg63
g2965
sg56
(lp2972
S'HTTP_ACCEPT_LANGUAGE'
p2973
asbag49
(g70
g51
NtRp2974
(dp2975
g54
(dp2976
g81
g82
ssg63
g2965
sg56
(lp2977
S':'
asbag49
(g70
g51
NtRp2978
(dp2979
g54
(dp2980
sg63
g2965
sg56
(lp2981
g49
(g50
g51
NtRp2982
(dp2983
g54
(dp2984
g62
I3
ssg63
g2978
sg56
(lp2985
g1370
asbasbasbag49
(g65
g51
NtRp2986
(dp2987
g54
(dp2988
sg63
g2898
sg56
(lp2989
g49
(g70
g51
NtRp2990
(dp2991
g54
(dp2992
g74
g75
ssg63
g2986
sg56
(lp2993
S'HTTP_CONNECTION'
p2994
asbag49
(g70
g51
NtRp2995
(dp2996
g54
(dp2997
g81
g82
ssg63
g2986
sg56
(lp2998
S':'
asbag49
(g70
g51
NtRp2999
(dp3000
g54
(dp3001
sg63
g2986
sg56
(lp3002
g49
(g50
g51
NtRp3003
(dp3004
g54
(dp3005
g62
I3
ssg63
g2999
sg56
(lp3006
g1392
asbasbasbag49
(g65
g51
NtRp3007
(dp3008
g54
(dp3009
sg63
g2898
sg56
(lp3010
g49
(g70
g51
NtRp3011
(dp3012
g54
(dp3013
g74
g75
ssg63
g3007
sg56
(lp3014
S'HTTP_COOKIE'
p3015
asbag49
(g70
g51
NtRp3016
(dp3017
g54
(dp3018
g81
g82
ssg63
g3007
sg56
(lp3019
S':'
asbag49
(g70
g51
NtRp3020
(dp3021
g54
(dp3022
sg63
g3007
sg56
(lp3023
g49
(g50
g51
NtRp3024
(dp3025
g54
(dp3026
g62
I3
ssg63
g3020
sg56
(lp3027
g1414
asbasbasbag49
(g65
g51
NtRp3028
(dp3029
g54
(dp3030
sg63
g2898
sg56
(lp3031
g49
(g70
g51
NtRp3032
(dp3033
g54
(dp3034
g74
g75
ssg63
g3028
sg56
(lp3035
S'HTTP_HOST'
p3036
asbag49
(g70
g51
NtRp3037
(dp3038
g54
(dp3039
g81
g82
ssg63
g3028
sg56
(lp3040
S':'
asbag49
(g70
g51
NtRp3041
(dp3042
g54
(dp3043
sg63
g3028
sg56
(lp3044
g49
(g50
g51
NtRp3045
(dp3046
g54
(dp3047
g62
I3
ssg63
g3041
sg56
(lp3048
g1436
asbasbasbag49
(g65
g51
NtRp3049
(dp3050
g54
(dp3051
sg63
g2898
sg56
(lp3052
g49
(g70
g51
NtRp3053
(dp3054
g54
(dp3055
g74
g75
ssg63
g3049
sg56
(lp3056
S'HTTP_USER_AGENT'
p3057
asbag49
(g70
g51
NtRp3058
(dp3059
g54
(dp3060
g81
g82
ssg63
g3049
sg56
(lp3061
S':'
asbag49
(g70
g51
NtRp3062
(dp3063
g54
(dp3064
sg63
g3049
sg56
(lp3065
g49
(g50
g51
NtRp3066
(dp3067
g54
(dp3068
g62
I3
ssg63
g3062
sg56
(lp3069
g1458
asbasbasbag49
(g65
g51
NtRp3070
(dp3071
g54
(dp3072
sg63
g2898
sg56
(lp3073
g49
(g70
g51
NtRp3074
(dp3075
g54
(dp3076
g74
g75
ssg63
g3070
sg56
(lp3077
S'PATH_INFO'
p3078
asbag49
(g70
g51
NtRp3079
(dp3080
g54
(dp3081
g81
g82
ssg63
g3070
sg56
(lp3082
S':'
asbag49
(g70
g51
NtRp3083
(dp3084
g54
(dp3085
sg63
g3070
sg56
(lp3086
g49
(g50
g51
NtRp3087
(dp3088
g54
(dp3089
g62
I3
ssg63
g3083
sg56
(lp3090
g1612
asbasbasbag49
(g65
g51
NtRp3091
(dp3092
g54
(dp3093
sg63
g2898
sg56
(lp3094
g49
(g70
g51
NtRp3095
(dp3096
g54
(dp3097
g74
g75
ssg63
g3091
sg56
(lp3098
S'QUERY_STRING'
p3099
asbag49
(g70
g51
NtRp3100
(dp3101
g54
(dp3102
g81
g82
ssg63
g3091
sg56
(lp3103
S':'
asbag49
(g70
g51
NtRp3104
(dp3105
g54
(dp3106
sg63
g3091
sg56
(lp3107
g49
(g50
g51
NtRp3108
(dp3109
g54
(dp3110
g62
I3
ssg63
g3104
sg56
(lp3111
S''
asbasbasbag49
(g65
g51
NtRp3112
(dp3113
g54
(dp3114
sg63
g2898
sg56
(lp3115
g49
(g70
g51
NtRp3116
(dp3117
g54
(dp3118
g74
g75
ssg63
g3112
sg56
(lp3119
S'REMOTE_ADDR'
p3120
asbag49
(g70
g51
NtRp3121
(dp3122
g54
(dp3123
g81
g82
ssg63
g3112
sg56
(lp3124
S':'
asbag49
(g70
g51
NtRp3125
(dp3126
g54
(dp3127
sg63
g3112
sg56
(lp3128
g49
(g50
g51
NtRp3129
(dp3130
g54
(dp3131
g62
I3
ssg63
g3125
sg56
(lp3132
g216
asbasbasbag49
(g65
g51
NtRp3133
(dp3134
g54
(dp3135
sg63
g2898
sg56
(lp3136
g49
(g70
g51
NtRp3137
(dp3138
g54
(dp3139
g74
g75
ssg63
g3133
sg56
(lp3140
S'REMOTE_PORT'
p3141
asbag49
(g70
g51
NtRp3142
(dp3143
g54
(dp3144
g81
g82
ssg63
g3133
sg56
(lp3145
S':'
asbag49
(g70
g51
NtRp3146
(dp3147
g54
(dp3148
sg63
g3133
sg56
(lp3149
g49
(g50
g51
NtRp3150
(dp3151
g54
(dp3152
g62
I3
ssg63
g3146
sg56
(lp3153
g1676
asbasbasbag49
(g65
g51
NtRp3154
(dp3155
g54
(dp3156
sg63
g2898
sg56
(lp3157
g49
(g70
g51
NtRp3158
(dp3159
g54
(dp3160
g74
g75
ssg63
g3154
sg56
(lp3161
S'REQUEST_METHOD'
p3162
asbag49
(g70
g51
NtRp3163
(dp3164
g54
(dp3165
g81
g82
ssg63
g3154
sg56
(lp3166
S':'
asbag49
(g70
g51
NtRp3167
(dp3168
g54
(dp3169
sg63
g3154
sg56
(lp3170
g49
(g50
g51
NtRp3171
(dp3172
g54
(dp3173
g62
I3
ssg63
g3167
sg56
(lp3174
g1698
asbasbasbag49
(g65
g51
NtRp3175
(dp3176
g54
(dp3177
sg63
g2898
sg56
(lp3178
g49
(g70
g51
NtRp3179
(dp3180
g54
(dp3181
g74
g75
ssg63
g3175
sg56
(lp3182
S'REQUEST_URI'
p3183
asbag49
(g70
g51
NtRp3184
(dp3185
g54
(dp3186
g81
g82
ssg63
g3175
sg56
(lp3187
S':'
asbag49
(g70
g51
NtRp3188
(dp3189
g54
(dp3190
sg63
g3175
sg56
(lp3191
g49
(g50
g51
NtRp3192
(dp3193
g54
(dp3194
g62
I3
ssg63
g3188
sg56
(lp3195
g1612
asbasbasbag49
(g65
g51
NtRp3196
(dp3197
g54
(dp3198
sg63
g2898
sg56
(lp3199
g49
(g70
g51
NtRp3200
(dp3201
g54
(dp3202
g74
g75
ssg63
g3196
sg56
(lp3203
S'SCRIPT_NAME'
p3204
asbag49
(g70
g51
NtRp3205
(dp3206
g54
(dp3207
g81
g82
ssg63
g3196
sg56
(lp3208
S':'
asbag49
(g70
g51
NtRp3209
(dp3210
g54
(dp3211
sg63
g3196
sg56
(lp3212
g49
(g50
g51
NtRp3213
(dp3214
g54
(dp3215
g62
I3
ssg63
g3209
sg56
(lp3216
S''
asbasbasbag49
(g65
g51
NtRp3217
(dp3218
g54
(dp3219
sg63
g2898
sg56
(lp3220
g49
(g70
g51
NtRp3221
(dp3222
g54
(dp3223
g74
g75
ssg63
g3217
sg56
(lp3224
S'SERVER_NAME'
p3225
asbag49
(g70
g51
NtRp3226
(dp3227
g54
(dp3228
g81
g82
ssg63
g3217
sg56
(lp3229
S':'
asbag49
(g70
g51
NtRp3230
(dp3231
g54
(dp3232
sg63
g3217
sg56
(lp3233
g49
(g50
g51
NtRp3234
(dp3235
g54
(dp3236
g62
I3
ssg63
g3230
sg56
(lp3237
g1762
asbasbasbag49
(g65
g51
NtRp3238
(dp3239
g54
(dp3240
sg63
g2898
sg56
(lp3241
g49
(g70
g51
NtRp3242
(dp3243
g54
(dp3244
g74
g75
ssg63
g3238
sg56
(lp3245
S'SERVER_PORT'
p3246
asbag49
(g70
g51
NtRp3247
(dp3248
g54
(dp3249
g81
g82
ssg63
g3238
sg56
(lp3250
S':'
asbag49
(g70
g51
NtRp3251
(dp3252
g54
(dp3253
sg63
g3238
sg56
(lp3254
g49
(g50
g51
NtRp3255
(dp3256
g54
(dp3257
g62
I3
ssg63
g3251
sg56
(lp3258
g1784
asbasbasbag49
(g65
g51
NtRp3259
(dp3260
g54
(dp3261
sg63
g2898
sg56
(lp3262
g49
(g70
g51
NtRp3263
(dp3264
g54
(dp3265
g74
g75
ssg63
g3259
sg56
(lp3266
S'SERVER_PROTOCOL'
p3267
asbag49
(g70
g51
NtRp3268
(dp3269
g54
(dp3270
g81
g82
ssg63
g3259
sg56
(lp3271
S':'
asbag49
(g70
g51
NtRp3272
(dp3273
g54
(dp3274
sg63
g3259
sg56
(lp3275
g49
(g50
g51
NtRp3276
(dp3277
g54
(dp3278
g62
I3
ssg63
g3272
sg56
(lp3279
g1806
asbasbasbag49
(g65
g51
NtRp3280
(dp3281
g54
(dp3282
sg63
g2898
sg56
(lp3283
g49
(g70
g51
NtRp3284
(dp3285
g54
(dp3286
g74
g75
ssg63
g3280
sg56
(lp3287
S'SERVER_SOFTWARE'
p3288
asbag49
(g70
g51
NtRp3289
(dp3290
g54
(dp3291
g81
g82
ssg63
g3280
sg56
(lp3292
S':'
asbag49
(g70
g51
NtRp3293
(dp3294
g54
(dp3295
sg63
g3280
sg56
(lp3296
g49
(g50
g51
NtRp3297
(dp3298
g54
(dp3299
g62
I3
ssg63
g3293
sg56
(lp3300
g1828
asbasbasbag49
(g65
g51
NtRp3301
(dp3302
g54
(dp3303
sg63
g2898
sg56
(lp3304
g49
(g70
g51
NtRp3305
(dp3306
g54
(dp3307
g74
g75
ssg63
g3301
sg56
(lp3308
S'wsgi.errors'
p3309
asbag49
(g70
g51
NtRp3310
(dp3311
g54
(dp3312
g81
g82
ssg63
g3301
sg56
(lp3313
S':'
asbag49
(g70
g51
NtRp3314
(dp3315
g54
(dp3316
sg63
g3301
sg56
(lp3317
g49
(g50
g51
NtRp3318
(dp3319
g54
(dp3320
g62
I3
ssg63
g3314
sg56
(lp3321
S"<open file '<stderr>', mode 'w' at 0x540b0>"
p3322
asbasbasbag49
(g65
g51
NtRp3323
(dp3324
g54
(dp3325
sg63
g2898
sg56
(lp3326
g49
(g70
g51
NtRp3327
(dp3328
g54
(dp3329
g74
g75
ssg63
g3323
sg56
(lp3330
S'wsgi.file_wrapper'
p3331
asbag49
(g70
g51
NtRp3332
(dp3333
g54
(dp3334
g81
g82
ssg63
g3323
sg56
(lp3335
S':'
asbag49
(g70
g51
NtRp3336
(dp3337
g54
(dp3338
sg63
g3323
sg56
(lp3339
g49
(g50
g51
NtRp3340
(dp3341
g54
(dp3342
g62
I3
ssg63
g3336
sg56
(lp3343
S'<class wsgiref.util.FileWrapper at 0x329d060>'
p3344
asbasbasbag49
(g65
g51
NtRp3345
(dp3346
g54
(dp3347
sg63
g2898
sg56
(lp3348
g49
(g70
g51
NtRp3349
(dp3350
g54
(dp3351
g74
g75
ssg63
g3345
sg56
(lp3352
S'wsgi.input'
p3353
asbag49
(g70
g51
NtRp3354
(dp3355
g54
(dp3356
g81
g82
ssg63
g3345
sg56
(lp3357
S':'
asbag49
(g70
g51
NtRp3358
(dp3359
g54
(dp3360
sg63
g3345
sg56
(lp3361
g49
(g50
g51
NtRp3362
(dp3363
g54
(dp3364
g62
I3
ssg63
g3358
sg56
(lp3365
S'<cStringIO.StringO object at 0xb460940>'
p3366
asbasbasbag49
(g65
g51
NtRp3367
(dp3368
g54
(dp3369
sg63
g2898
sg56
(lp3370
g49
(g70
g51
NtRp3371
(dp3372
g54
(dp3373
g74
g75
ssg63
g3367
sg56
(lp3374
S'wsgi.multiprocess'
p3375
asbag49
(g70
g51
NtRp3376
(dp3377
g54
(dp3378
g81
g82
ssg63
g3367
sg56
(lp3379
S':'
asbag49
(g70
g51
NtRp3380
(dp3381
g54
(dp3382
sg63
g3367
sg56
(lp3383
g49
(g50
g51
NtRp3384
(dp3385
g54
(dp3386
g62
I3
ssg63
g3380
sg56
(lp3387
g92
asbasbasbag49
(g65
g51
NtRp3388
(dp3389
g54
(dp3390
sg63
g2898
sg56
(lp3391
g49
(g70
g51
NtRp3392
(dp3393
g54
(dp3394
g74
g75
ssg63
g3388
sg56
(lp3395
S'wsgi.multithread'
p3396
asbag49
(g70
g51
NtRp3397
(dp3398
g54
(dp3399
g81
g82
ssg63
g3388
sg56
(lp3400
S':'
asbag49
(g70
g51
NtRp3401
(dp3402
g54
(dp3403
sg63
g3388
sg56
(lp3404
g49
(g50
g51
NtRp3405
(dp3406
g54
(dp3407
g62
I3
ssg63
g3401
sg56
(lp3408
g1260
asbasbasbag49
(g65
g51
NtRp3409
(dp3410
g54
(dp3411
sg63
g2898
sg56
(lp3412
g49
(g70
g51
NtRp3413
(dp3414
g54
(dp3415
g74
g75
ssg63
g3409
sg56
(lp3416
S'wsgi.run_once'
p3417
asbag49
(g70
g51
NtRp3418
(dp3419
g54
(dp3420
g81
g82
ssg63
g3409
sg56
(lp3421
S':'
asbag49
(g70
g51
NtRp3422
(dp3423
g54
(dp3424
sg63
g3409
sg56
(lp3425
g49
(g50
g51
NtRp3426
(dp3427
g54
(dp3428
g62
I3
ssg63
g3422
sg56
(lp3429
g92
asbasbasbag49
(g65
g51
NtRp3430
(dp3431
g54
(dp3432
sg63
g2898
sg56
(lp3433
g49
(g70
g51
NtRp3434
(dp3435
g54
(dp3436
g74
g75
ssg63
g3430
sg56
(lp3437
S'wsgi.url_scheme'
p3438
asbag49
(g70
g51
NtRp3439
(dp3440
g54
(dp3441
g81
g82
ssg63
g3430
sg56
(lp3442
S':'
asbag49
(g70
g51
NtRp3443
(dp3444
g54
(dp3445
sg63
g3430
sg56
(lp3446
g49
(g50
g51
NtRp3447
(dp3448
g54
(dp3449
g62
I3
ssg63
g3443
sg56
(lp3450
g2087
asbasbasbag49
(g65
g51
NtRp3451
(dp3452
g54
(dp3453
sg63
g2898
sg56
(lp3454
g49
(g70
g51
NtRp3455
(dp3456
g54
(dp3457
g74
g75
ssg63
g3451
sg56
(lp3458
S'wsgi.version'
p3459
asbag49
(g70
g51
NtRp3460
(dp3461
g54
(dp3462
g81
g82
ssg63
g3451
sg56
(lp3463
S':'
asbag49
(g70
g51
NtRp3464
(dp3465
g54
(dp3466
sg63
g3451
sg56
(lp3467
g49
(g50
g51
NtRp3468
(dp3469
g54
(dp3470
g62
I3
ssg63
g3464
sg56
(lp3471
S'1'
asbasbasbasbasbasbasbasbasbasbasbasbasbsS'frames'
p3472
(lp3473
(dp3474
S'file'
p3475
S'/home/mdipierro/web2py/gluon/restricted.py'
p3476
sS'dump'
p3477
(dp3478
sS'lnum'
p3479
I212
sS'lines'
p3480
(dp3481
sS'call'
p3482
S'(code=\'# coding: utf8\\n# try something like\\ndef show(): ...game.py")\\n\\nresponse._vars=response._caller(show)\\n\', environment={\'A\': <class \'gluon.html.A\'>, \'Auth\': <class \'gluon.tools.Auth\'>, \'B\': <class \'gluon.html.B\'>, \'BEAUTIFY\': <class \'gluon.html.BEAUTIFY\'>, \'BODY\': <class \'gluon.html.BODY\'>, \'BR\': <class \'gluon.html.BR\'>, \'BUTTON\': <class \'gluon.html.BUTTON\'>, \'CAT\': <class \'gluon.html.CAT\'>, \'CENTER\': <class \'gluon.html.CENTER\'>, \'CLEANUP\': <class \'gluon.validators.CLEANUP\'>, ...}, layer=\'/Users/zamechek/Downloads/web2py/web2py.app/Cont...Resources/applications/hellow/controllers/game.py\')'
p3483
sS'func'
p3484
S'restricted'
p3485
sa(dp3486
g3475
S'/Users/zamechek/Downloads/web2py/web2py.app/Contents/Resources/applications/hellow/controllers/game.py'
p3487
sg3477
(dp3488
sg3479
I9
sg3480
(dp3489
I1
S'# coding: utf8'
p3490
sI2
S'# try something like'
p3491
sI3
S'def show():'
p3492
sI4
S'    id = request.args[0]'
p3493
sI5
S'    game = db.game.id(id)'
p3494
sI6
S'    #user = game.auth_user'
p3495
sI7
S'    return game.id #dict(message="hello from game.py")'
p3496
ssg3482
S'()'
p3497
sg3484
S'<module>'
p3498
sa(dp3499
g3475
S'/home/mdipierro/web2py/gluon/globals.py'
p3500
sg3477
(dp3501
sg3479
I193
sg3480
(dp3502
sg3482
S'(f=<function show at 0xa103830>)'
p3503
sg3484
S'<lambda>'
p3504
sa(dp3505
g3475
S'/Users/zamechek/Downloads/web2py/web2py.app/Contents/Resources/applications/hellow/controllers/game.py'
p3506
sg3477
(dp3507
sg3479
I5
sg3480
(dp3508
I1
S'# coding: utf8'
p3509
sI2
S'# try something like'
p3510
sI3
S'def show():'
p3511
sI4
S'    id = request.args[0]'
p3512
sI5
S'    game = db.game.id(id)'
p3513
sI6
S'    #user = game.auth_user'
p3514
sI7
S'    return game.id #dict(message="hello from game.py")'
p3515
ssg3482
S'()'
p3516
sg3484
S'show'
p3517
sasS'pyver'
p3518
S'Python 2.5.1: /Users/zamechek/Downloads/web2py/web2py.app/Contents/MacOS/python'
p3519
sS'session'
p3520
g49
(g50
g51
NtRp3521
(dp3522
g54
(dp3523
sg56
(lp3524
g49
(g58
g51
NtRp3525
(dp3526
g54
(dp3527
g62
I5
ssg63
Nsg56
(lp3528
g49
(g65
g51
NtRp3529
(dp3530
g54
(dp3531
sg63
g3525
sg56
(lp3532
g49
(g70
g51
NtRp3533
(dp3534
g54
(dp3535
g74
g75
ssg63
g3529
sg56
(lp3536
S'last_orderby'
p3537
asbag49
(g70
g51
NtRp3538
(dp3539
g54
(dp3540
g81
g82
ssg63
g3529
sg56
(lp3541
S':'
asbag49
(g70
g51
NtRp3542
(dp3543
g54
(dp3544
sg63
g3529
sg56
(lp3545
g49
(g50
g51
NtRp3546
(dp3547
g54
(dp3548
g62
I5
ssg63
g3542
sg56
(lp3549
S'None'
p3550
asbasbasbag49
(g65
g51
NtRp3551
(dp3552
g54
(dp3553
sg63
g3525
sg56
(lp3554
g49
(g70
g51
NtRp3555
(dp3556
g54
(dp3557
g74
g75
ssg63
g3551
sg56
(lp3558
S'last_query'
p3559
asbag49
(g70
g51
NtRp3560
(dp3561
g54
(dp3562
g81
g82
ssg63
g3551
sg56
(lp3563
S':'
asbag49
(g70
g51
NtRp3564
(dp3565
g54
(dp3566
sg63
g3551
sg56
(lp3567
g49
(g50
g51
NtRp3568
(dp3569
g54
(dp3570
g62
I5
ssg63
g3564
sg56
(lp3571
S'db.game.id>0'
p3572
asbasbasbasbasbsS'etype'
p3573
S"<type 'exceptions.TypeError'>"
p3574
sS'date'
p3575
S'Mon Mar 25 13:19:36 2013'
p3576
sS'response'
p3577
g49
(g50
g51
NtRp3578
(dp3579
g54
(dp3580
sg56
(lp3581
g49
(g58
g51
NtRp3582
(dp3583
g54
(dp3584
g62
I5
ssg63
Nsg56
(lp3585
g49
(g65
g51
NtRp3586
(dp3587
g54
(dp3588
sg63
g3582
sg56
(lp3589
g49
(g70
g51
NtRp3590
(dp3591
g54
(dp3592
g74
g75
ssg63
g3586
sg56
(lp3593
g159
asbag49
(g70
g51
NtRp3594
(dp3595
g54
(dp3596
g81
g82
ssg63
g3586
sg56
(lp3597
S':'
asbag49
(g70
g51
NtRp3598
(dp3599
g54
(dp3600
sg63
g3586
sg56
(lp3601
g49
(g50
g51
NtRp3602
(dp3603
g54
(dp3604
g62
I5
ssg63
g3598
sg56
(lp3605
S'<cStringIO.StringO object at 0xb460800>'
p3606
asbasbasbag49
(g65
g51
NtRp3607
(dp3608
g54
(dp3609
sg63
g3582
sg56
(lp3610
g49
(g70
g51
NtRp3611
(dp3612
g54
(dp3613
g74
g75
ssg63
g3607
sg56
(lp3614
g247
asbag49
(g70
g51
NtRp3615
(dp3616
g54
(dp3617
g81
g82
ssg63
g3607
sg56
(lp3618
S':'
asbag49
(g70
g51
NtRp3619
(dp3620
g54
(dp3621
sg63
g3607
sg56
(lp3622
g49
(g50
g51
NtRp3623
(dp3624
g54
(dp3625
g62
I5
ssg63
g3619
sg56
(lp3626
g49
(g58
g51
NtRp3627
(dp3628
g54
(dp3629
g62
I4
ssg63
Nsg56
(lp3630
g49
(g65
g51
NtRp3631
(dp3632
g54
(dp3633
sg63
g3627
sg56
(lp3634
g49
(g70
g51
NtRp3635
(dp3636
g54
(dp3637
g74
g75
ssg63
g3631
sg56
(lp3638
S'session_id_hellow'
p3639
asbag49
(g70
g51
NtRp3640
(dp3641
g54
(dp3642
g81
g82
ssg63
g3631
sg56
(lp3643
S':'
asbag49
(g70
g51
NtRp3644
(dp3645
g54
(dp3646
sg63
g3631
sg56
(lp3647
g49
(g50
g51
NtRp3648
(dp3649
g54
(dp3650
g62
I4
ssg63
g3644
sg56
(lp3651
g624
ag49
(g58
g51
NtRp3652
(dp3653
g54
(dp3654
g62
I3
ssg63
Nsg56
(lp3655
g49
(g65
g51
NtRp3656
(dp3657
g54
(dp3658
sg63
g3652
sg56
(lp3659
g49
(g70
g51
NtRp3660
(dp3661
g54
(dp3662
g74
g75
ssg63
g3656
sg56
(lp3663
g298
asbag49
(g70
g51
NtRp3664
(dp3665
g54
(dp3666
g81
g82
ssg63
g3656
sg56
(lp3667
S':'
asbag49
(g70
g51
NtRp3668
(dp3669
g54
(dp3670
sg63
g3656
sg56
(lp3671
g49
(g50
g51
NtRp3672
(dp3673
g54
(dp3674
g62
I3
ssg63
g3668
sg56
(lp3675
S''
asbasbasbag49
(g65
g51
NtRp3676
(dp3677
g54
(dp3678
sg63
g3652
sg56
(lp3679
g49
(g70
g51
NtRp3680
(dp3681
g54
(dp3682
g74
g75
ssg63
g3676
sg56
(lp3683
g319
asbag49
(g70
g51
NtRp3684
(dp3685
g54
(dp3686
g81
g82
ssg63
g3676
sg56
(lp3687
S':'
asbag49
(g70
g51
NtRp3688
(dp3689
g54
(dp3690
sg63
g3676
sg56
(lp3691
g49
(g50
g51
NtRp3692
(dp3693
g54
(dp3694
g62
I3
ssg63
g3688
sg56
(lp3695
S''
asbasbasbag49
(g65
g51
NtRp3696
(dp3697
g54
(dp3698
sg63
g3652
sg56
(lp3699
g49
(g70
g51
NtRp3700
(dp3701
g54
(dp3702
g74
g75
ssg63
g3696
sg56
(lp3703
g340
asbag49
(g70
g51
NtRp3704
(dp3705
g54
(dp3706
g81
g82
ssg63
g3696
sg56
(lp3707
S':'
asbag49
(g70
g51
NtRp3708
(dp3709
g54
(dp3710
sg63
g3696
sg56
(lp3711
g49
(g50
g51
NtRp3712
(dp3713
g54
(dp3714
g62
I3
ssg63
g3708
sg56
(lp3715
S''
asbasbasbag49
(g65
g51
NtRp3716
(dp3717
g54
(dp3718
sg63
g3652
sg56
(lp3719
g49
(g70
g51
NtRp3720
(dp3721
g54
(dp3722
g74
g75
ssg63
g3716
sg56
(lp3723
g361
asbag49
(g70
g51
NtRp3724
(dp3725
g54
(dp3726
g81
g82
ssg63
g3716
sg56
(lp3727
S':'
asbag49
(g70
g51
NtRp3728
(dp3729
g54
(dp3730
sg63
g3716
sg56
(lp3731
g49
(g50
g51
NtRp3732
(dp3733
g54
(dp3734
g62
I3
ssg63
g3728
sg56
(lp3735
S''
asbasbasbag49
(g65
g51
NtRp3736
(dp3737
g54
(dp3738
sg63
g3652
sg56
(lp3739
g49
(g70
g51
NtRp3740
(dp3741
g54
(dp3742
g74
g75
ssg63
g3736
sg56
(lp3743
g382
asbag49
(g70
g51
NtRp3744
(dp3745
g54
(dp3746
g81
g82
ssg63
g3736
sg56
(lp3747
S':'
asbag49
(g70
g51
NtRp3748
(dp3749
g54
(dp3750
sg63
g3736
sg56
(lp3751
g49
(g50
g51
NtRp3752
(dp3753
g54
(dp3754
g62
I3
ssg63
g3748
sg56
(lp3755
S'/'
asbasbasbag49
(g65
g51
NtRp3756
(dp3757
g54
(dp3758
sg63
g3652
sg56
(lp3759
g49
(g70
g51
NtRp3760
(dp3761
g54
(dp3762
g74
g75
ssg63
g3756
sg56
(lp3763
g403
asbag49
(g70
g51
NtRp3764
(dp3765
g54
(dp3766
g81
g82
ssg63
g3756
sg56
(lp3767
S':'
asbag49
(g70
g51
NtRp3768
(dp3769
g54
(dp3770
sg63
g3756
sg56
(lp3771
g49
(g50
g51
NtRp3772
(dp3773
g54
(dp3774
g62
I3
ssg63
g3768
sg56
(lp3775
S''
asbasbasbag49
(g65
g51
NtRp3776
(dp3777
g54
(dp3778
sg63
g3652
sg56
(lp3779
g49
(g70
g51
NtRp3780
(dp3781
g54
(dp3782
g74
g75
ssg63
g3776
sg56
(lp3783
g424
asbag49
(g70
g51
NtRp3784
(dp3785
g54
(dp3786
g81
g82
ssg63
g3776
sg56
(lp3787
S':'
asbag49
(g70
g51
NtRp3788
(dp3789
g54
(dp3790
sg63
g3776
sg56
(lp3791
g49
(g50
g51
NtRp3792
(dp3793
g54
(dp3794
g62
I3
ssg63
g3788
sg56
(lp3795
S''
asbasbasbasbasbasbasbasbasbasbasbag49
(g65
g51
NtRp3796
(dp3797
g54
(dp3798
sg63
g3582
sg56
(lp3799
g49
(g70
g51
NtRp3800
(dp3801
g54
(dp3802
g74
g75
ssg63
g3796
sg56
(lp3803
S'delimiters'
p3804
asbag49
(g70
g51
NtRp3805
(dp3806
g54
(dp3807
g81
g82
ssg63
g3796
sg56
(lp3808
S':'
asbag49
(g70
g51
NtRp3809
(dp3810
g54
(dp3811
sg63
g3796
sg56
(lp3812
g49
(g50
g51
NtRp3813
(dp3814
g54
(dp3815
g62
I5
ssg63
g3809
sg56
(lp3816
g49
(g58
g51
NtRp3817
(dp3818
g54
(dp3819
g62
I4
ssg63
Nsg56
(lp3820
g49
(g65
g51
NtRp3821
(dp3822
g54
(dp3823
sg63
g3817
sg56
(lp3824
g49
(g70
g51
NtRp3825
(dp3826
g54
(dp3827
sg63
g3821
sg56
(lp3828
g49
(g50
g51
NtRp3829
(dp3830
g54
(dp3831
g62
I4
ssg63
g3825
sg56
(lp3832
S'{{'
p3833
asbasbasbag49
(g65
g51
NtRp3834
(dp3835
g54
(dp3836
sg63
g3817
sg56
(lp3837
g49
(g70
g51
NtRp3838
(dp3839
g54
(dp3840
sg63
g3834
sg56
(lp3841
g49
(g50
g51
NtRp3842
(dp3843
g54
(dp3844
g62
I4
ssg63
g3838
sg56
(lp3845
S'}}'
p3846
asbasbasbasbasbasbasbag49
(g65
g51
NtRp3847
(dp3848
g54
(dp3849
sg63
g3582
sg56
(lp3850
g49
(g70
g51
NtRp3851
(dp3852
g54
(dp3853
g74
g75
ssg63
g3847
sg56
(lp3854
S'files'
p3855
asbag49
(g70
g51
NtRp3856
(dp3857
g54
(dp3858
g81
g82
ssg63
g3847
sg56
(lp3859
S':'
asbag49
(g70
g51
NtRp3860
(dp3861
g54
(dp3862
sg63
g3847
sg56
(lp3863
g49
(g50
g51
NtRp3864
(dp3865
g54
(dp3866
g62
I5
ssg63
g3860
sg56
(lp3867
g49
(g58
g51
NtRp3868
(dp3869
g54
(dp3870
g62
I4
ssg63
Nsg56
(lp3871
sbasbasbasbag49
(g65
g51
NtRp3872
(dp3873
g54
(dp3874
sg63
g3582
sg56
(lp3875
g49
(g70
g51
NtRp3876
(dp3877
g54
(dp3878
g74
g75
ssg63
g3872
sg56
(lp3879
S'flash'
p3880
asbag49
(g70
g51
NtRp3881
(dp3882
g54
(dp3883
g81
g82
ssg63
g3872
sg56
(lp3884
S':'
asbag49
(g70
g51
NtRp3885
(dp3886
g54
(dp3887
sg63
g3872
sg56
(lp3888
g49
(g50
g51
NtRp3889
(dp3890
g54
(dp3891
g62
I5
ssg63
g3885
sg56
(lp3892
S''
asbasbasbag49
(g65
g51
NtRp3893
(dp3894
g54
(dp3895
sg63
g3582
sg56
(lp3896
g49
(g70
g51
NtRp3897
(dp3898
g54
(dp3899
g74
g75
ssg63
g3893
sg56
(lp3900
S'generic_patterns'
p3901
asbag49
(g70
g51
NtRp3902
(dp3903
g54
(dp3904
g81
g82
ssg63
g3893
sg56
(lp3905
S':'
asbag49
(g70
g51
NtRp3906
(dp3907
g54
(dp3908
sg63
g3893
sg56
(lp3909
g49
(g50
g51
NtRp3910
(dp3911
g54
(dp3912
g62
I5
ssg63
g3906
sg56
(lp3913
g49
(g58
g51
NtRp3914
(dp3915
g54
(dp3916
g62
I4
ssg63
Nsg56
(lp3917
g49
(g65
g51
NtRp3918
(dp3919
g54
(dp3920
sg63
g3914
sg56
(lp3921
g49
(g70
g51
NtRp3922
(dp3923
g54
(dp3924
sg63
g3918
sg56
(lp3925
g49
(g50
g51
NtRp3926
(dp3927
g54
(dp3928
g62
I4
ssg63
g3922
sg56
(lp3929
S'*'
asbasbasbasbasbasbasbag49
(g65
g51
NtRp3930
(dp3931
g54
(dp3932
sg63
g3582
sg56
(lp3933
g49
(g70
g51
NtRp3934
(dp3935
g54
(dp3936
g74
g75
ssg63
g3930
sg56
(lp3937
S'google_analytics_id'
p3938
asbag49
(g70
g51
NtRp3939
(dp3940
g54
(dp3941
g81
g82
ssg63
g3930
sg56
(lp3942
S':'
asbag49
(g70
g51
NtRp3943
(dp3944
g54
(dp3945
sg63
g3930
sg56
(lp3946
g49
(g50
g51
NtRp3947
(dp3948
g54
(dp3949
g62
I5
ssg63
g3943
sg56
(lp3950
S'None'
p3951
asbasbasbag49
(g65
g51
NtRp3952
(dp3953
g54
(dp3954
sg63
g3582
sg56
(lp3955
g49
(g70
g51
NtRp3956
(dp3957
g54
(dp3958
g74
g75
ssg63
g3952
sg56
(lp3959
S'headers'
p3960
asbag49
(g70
g51
NtRp3961
(dp3962
g54
(dp3963
g81
g82
ssg63
g3952
sg56
(lp3964
S':'
asbag49
(g70
g51
NtRp3965
(dp3966
g54
(dp3967
sg63
g3952
sg56
(lp3968
g49
(g50
g51
NtRp3969
(dp3970
g54
(dp3971
g62
I5
ssg63
g3965
sg56
(lp3972
g49
(g58
g51
NtRp3973
(dp3974
g54
(dp3975
g62
I4
ssg63
Nsg56
(lp3976
g49
(g65
g51
NtRp3977
(dp3978
g54
(dp3979
sg63
g3973
sg56
(lp3980
g49
(g70
g51
NtRp3981
(dp3982
g54
(dp3983
g74
g75
ssg63
g3977
sg56
(lp3984
S'X-Powered-By'
p3985
asbag49
(g70
g51
NtRp3986
(dp3987
g54
(dp3988
g81
g82
ssg63
g3977
sg56
(lp3989
S':'
asbag49
(g70
g51
NtRp3990
(dp3991
g54
(dp3992
sg63
g3977
sg56
(lp3993
g49
(g50
g51
NtRp3994
(dp3995
g54
(dp3996
g62
I4
ssg63
g3990
sg56
(lp3997
S'web2py'
p3998
asbasbasbasbasbasbasbag49
(g65
g51
NtRp3999
(dp4000
g54
(dp4001
sg63
g3582
sg56
(lp4002
g49
(g70
g51
NtRp4003
(dp4004
g54
(dp4005
g74
g75
ssg63
g3999
sg56
(lp4006
S'logo'
p4007
asbag49
(g70
g51
NtRp4008
(dp4009
g54
(dp4010
g81
g82
ssg63
g3999
sg56
(lp4011
S':'
asbag49
(g70
g51
NtRp4012
(dp4013
g54
(dp4014
sg63
g3999
sg56
(lp4015
g49
(g50
g51
NtRp4016
(dp4017
g54
(dp4018
g62
I5
ssg63
g4012
sg56
(lp4019
g49
(cgluon.html
A
p4020
g51
NtRp4021
(dp4022
g54
(dp4023
S'_class'
p4024
S'brand'
p4025
sS'_href'
p4026
S'http://www.web2py.com/'
p4027
ssg63
Nsg56
(lp4028
g49
(cgluon.html
B
p4029
g51
NtRp4030
(dp4031
g54
(dp4032
sg63
g4021
sg56
(lp4033
S'web'
p4034
ag49
(cgluon.html
SPAN
p4035
g51
NtRp4036
(dp4037
g54
(dp4038
sg63
g4030
sg56
(lp4039
I2
asbaS'py'
p4040
asbacgluon.html
XML_unpickle
p4041
(S's\r\x00\x00\x00&trade;&nbsp;'
tRp4042
asbasbasbasbag49
(g65
g51
NtRp4043
(dp4044
g54
(dp4045
sg63
g3582
sg56
(lp4046
g49
(g70
g51
NtRp4047
(dp4048
g54
(dp4049
g74
g75
ssg63
g4043
sg56
(lp4050
S'menu'
p4051
asbag49
(g70
g51
NtRp4052
(dp4053
g54
(dp4054
g81
g82
ssg63
g4043
sg56
(lp4055
S':'
asbag49
(g70
g51
NtRp4056
(dp4057
g54
(dp4058
sg63
g4043
sg56
(lp4059
g49
(g50
g51
NtRp4060
(dp4061
g54
(dp4062
g62
I5
ssg63
g4056
sg56
(lp4063
g49
(g58
g51
NtRp4064
(dp4065
g54
(dp4066
g62
I4
ssg63
Nsg56
(lp4067
g49
(g65
g51
NtRp4068
(dp4069
g54
(dp4070
sg63
g4064
sg56
(lp4071
g49
(g70
g51
NtRp4072
(dp4073
g54
(dp4074
sg63
g4068
sg56
(lp4075
g49
(g50
g51
NtRp4076
(dp4077
g54
(dp4078
g62
I4
ssg63
g4072
sg56
(lp4079
g49
(g58
g51
NtRp4080
(dp4081
g54
(dp4082
g62
I3
ssg63
Nsg56
(lp4083
g49
(g65
g51
NtRp4084
(dp4085
g54
(dp4086
sg63
g4080
sg56
(lp4087
g49
(g70
g51
NtRp4088
(dp4089
g54
(dp4090
sg63
g4084
sg56
(lp4091
g49
(g50
g51
NtRp4092
(dp4093
g54
(dp4094
g62
I3
ssg63
g4088
sg56
(lp4095
cgluon.languages
lazyT_unpickle
p4096
(S't\x04\x00\x00\x00Home'
tRp4097
asbasbasbag49
(g65
g51
NtRp4098
(dp4099
g54
(dp4100
sg63
g4080
sg56
(lp4101
g49
(g70
g51
NtRp4102
(dp4103
g54
(dp4104
sg63
g4098
sg56
(lp4105
g49
(g50
g51
NtRp4106
(dp4107
g54
(dp4108
g62
I3
ssg63
g4102
sg56
(lp4109
g92
asbasbasbag49
(g65
g51
NtRp4110
(dp4111
g54
(dp4112
sg63
g4080
sg56
(lp4113
g49
(g70
g51
NtRp4114
(dp4115
g54
(dp4116
sg63
g4110
sg56
(lp4117
g49
(g50
g51
NtRp4118
(dp4119
g54
(dp4120
g62
I3
ssg63
g4114
sg56
(lp4121
S'/hellow/default/index'
p4122
asbasbasbag49
(g65
g51
NtRp4123
(dp4124
g54
(dp4125
sg63
g4080
sg56
(lp4126
g49
(g70
g51
NtRp4127
(dp4128
g54
(dp4129
sg63
g4123
sg56
(lp4130
g49
(g50
g51
NtRp4131
(dp4132
g54
(dp4133
g62
I3
ssg63
g4127
sg56
(lp4134
g49
(g58
g51
NtRp4135
(dp4136
g54
(dp4137
g62
I2
ssg63
Nsg56
(lp4138
sbasbasbasbasbasbasbasbag49
(g65
g51
NtRp4139
(dp4140
g54
(dp4141
sg63
g4064
sg56
(lp4142
g49
(g70
g51
NtRp4143
(dp4144
g54
(dp4145
sg63
g4139
sg56
(lp4146
g49
(g50
g51
NtRp4147
(dp4148
g54
(dp4149
g62
I4
ssg63
g4143
sg56
(lp4150
g49
(g58
g51
NtRp4151
(dp4152
g54
(dp4153
g62
I3
ssg63
Nsg56
(lp4154
g49
(g65
g51
NtRp4155
(dp4156
g54
(dp4157
sg63
g4151
sg56
(lp4158
g49
(g70
g51
NtRp4159
(dp4160
g54
(dp4161
sg63
g4155
sg56
(lp4162
g49
(g50
g51
NtRp4163
(dp4164
g54
(dp4165
g62
I3
ssg63
g4159
sg56
(lp4166
g49
(g4035
g51
NtRp4167
(dp4168
g54
(dp4169
g4024
S'highlighted'
p4170
ssg63
Nsg56
(lp4171
g3998
asbasbasbasbag49
(g65
g51
NtRp4172
(dp4173
g54
(dp4174
sg63
g4151
sg56
(lp4175
g49
(g70
g51
NtRp4176
(dp4177
g54
(dp4178
sg63
g4172
sg56
(lp4179
g49
(g50
g51
NtRp4180
(dp4181
g54
(dp4182
g62
I3
ssg63
g4176
sg56
(lp4183
g92
asbasbasbag49
(g65
g51
NtRp4184
(dp4185
g54
(dp4186
sg63
g4151
sg56
(lp4187
g49
(g70
g51
NtRp4188
(dp4189
g54
(dp4190
sg63
g4184
sg56
(lp4191
g49
(g50
g51
NtRp4192
(dp4193
g54
(dp4194
g62
I3
ssg63
g4188
sg56
(lp4195
S'http://web2py.com'
p4196
asbasbasbag49
(g65
g51
NtRp4197
(dp4198
g54
(dp4199
sg63
g4151
sg56
(lp4200
g49
(g70
g51
NtRp4201
(dp4202
g54
(dp4203
sg63
g4197
sg56
(lp4204
g49
(g50
g51
NtRp4205
(dp4206
g54
(dp4207
g62
I3
ssg63
g4201
sg56
(lp4208
g49
(g58
g51
NtRp4209
(dp4210
g54
(dp4211
g62
I2
ssg63
Nsg56
(lp4212
g49
(g65
g51
NtRp4213
(dp4214
g54
(dp4215
sg63
g4209
sg56
(lp4216
g49
(g70
g51
NtRp4217
(dp4218
g54
(dp4219
sg63
g4213
sg56
(lp4220
g49
(g50
g51
NtRp4221
(dp4222
g54
(dp4223
g62
I2
ssg63
g4217
sg56
(lp4224
g49
(g58
g51
NtRp4225
(dp4226
g54
(dp4227
g62
I1
ssg63
Nsg56
(lp4228
g49
(g65
g51
NtRp4229
(dp4230
g54
(dp4231
sg63
g4225
sg56
(lp4232
g49
(g70
g51
NtRp4233
(dp4234
g54
(dp4235
sg63
g4229
sg56
(lp4236
g49
(g50
g51
NtRp4237
(dp4238
g54
(dp4239
g62
I1
ssg63
g4233
sg56
(lp4240
g4096
(S's\x08\x00\x00\x00My Sites'
tRp4241
asbasbasbag49
(g65
g51
NtRp4242
(dp4243
g54
(dp4244
sg63
g4225
sg56
(lp4245
g49
(g70
g51
NtRp4246
(dp4247
g54
(dp4248
sg63
g4242
sg56
(lp4249
g49
(g50
g51
NtRp4250
(dp4251
g54
(dp4252
g62
I1
ssg63
g4246
sg56
(lp4253
I00
asbasbasbag49
(g65
g51
NtRp4254
(dp4255
g54
(dp4256
sg63
g4225
sg56
(lp4257
g49
(g70
g51
NtRp4258
(dp4259
g54
(dp4260
sg63
g4254
sg56
(lp4261
g49
(g50
g51
NtRp4262
(dp4263
g54
(dp4264
g62
I1
ssg63
g4258
sg56
(lp4265
S'/admin/default/site'
p4266
asbasbasbasbasbasbasbag49
(g65
g51
NtRp4267
(dp4268
g54
(dp4269
sg63
g4209
sg56
(lp4270
g49
(g70
g51
NtRp4271
(dp4272
g54
(dp4273
sg63
g4267
sg56
(lp4274
g49
(g50
g51
NtRp4275
(dp4276
g54
(dp4277
g62
I2
ssg63
g4271
sg56
(lp4278
g49
(g58
g51
NtRp4279
(dp4280
g54
(dp4281
g62
I1
ssg63
Nsg56
(lp4282
g49
(g65
g51
NtRp4283
(dp4284
g54
(dp4285
sg63
g4279
sg56
(lp4286
g49
(g70
g51
NtRp4287
(dp4288
g54
(dp4289
sg63
g4283
sg56
(lp4290
g49
(g50
g51
NtRp4291
(dp4292
g54
(dp4293
g62
I1
ssg63
g4287
sg56
(lp4294
g4096
(S's\x08\x00\x00\x00This App'
tRp4295
asbasbasbag49
(g65
g51
NtRp4296
(dp4297
g54
(dp4298
sg63
g4279
sg56
(lp4299
g49
(g70
g51
NtRp4300
(dp4301
g54
(dp4302
sg63
g4296
sg56
(lp4303
g49
(g50
g51
NtRp4304
(dp4305
g54
(dp4306
g62
I1
ssg63
g4300
sg56
(lp4307
I00
asbasbasbag49
(g65
g51
NtRp4308
(dp4309
g54
(dp4310
sg63
g4279
sg56
(lp4311
g49
(g70
g51
NtRp4312
(dp4313
g54
(dp4314
sg63
g4308
sg56
(lp4315
g49
(g50
g51
NtRp4316
(dp4317
g54
(dp4318
g62
I1
ssg63
g4312
sg56
(lp4319
S'/admin/default/design/hellow'
p4320
asbasbasbag49
(g65
g51
NtRp4321
(dp4322
g54
(dp4323
sg63
g4279
sg56
(lp4324
g49
(g70
g51
NtRp4325
(dp4326
g54
(dp4327
sg63
g4321
sg56
(lp4328
g49
(g50
g51
NtRp4329
(dp4330
g54
(dp4331
g62
I1
ssg63
g4325
sg56
(lp4332
(lp4333
(g4096
(S't\n\x00\x00\x00Controller'
tRp4334
I00
S'/admin/default/edit/hellow/controllers/game.py'
tp4335
a(g4096
(S't\x04\x00\x00\x00View'
tRp4336
I00
S'/admin/default/edit/hellow/views/game/show.html'
tp4337
a(g4096
(S't\x06\x00\x00\x00Layout'
tRp4338
I00
S'/admin/default/edit/hellow/views/layout.html'
tp4339
a(g4096
(S't\n\x00\x00\x00Stylesheet'
tRp4340
I00
S'/admin/default/edit/hellow/static/css/web2py.css'
tp4341
a(g4096
(S's\x08\x00\x00\x00DB Model'
tRp4342
I00
S'/admin/default/edit/hellow/models/db.py'
tp4343
a(g4096
(S's\n\x00\x00\x00Menu Model'
tRp4344
I00
S'/admin/default/edit/hellow/models/menu.py'
tp4345
a(g4096
(S't\x08\x00\x00\x00Database'
tRp4346
I00
S'/hellow/appadmin/index'
tp4347
a(g4096
(S't\x06\x00\x00\x00Errors'
tRp4348
I00
S'/admin/default/errors/hellow'
tp4349
a(g4096
(S't\x05\x00\x00\x00About'
tRp4350
I00
S'/admin/default/about/hellow'
tp4351
aasbasbasbasbasbasbasbag49
(g65
g51
NtRp4352
(dp4353
g54
(dp4354
sg63
g4209
sg56
(lp4355
g49
(g70
g51
NtRp4356
(dp4357
g54
(dp4358
sg63
g4352
sg56
(lp4359
g49
(g50
g51
NtRp4360
(dp4361
g54
(dp4362
g62
I2
ssg63
g4356
sg56
(lp4363
g49
(g58
g51
NtRp4364
(dp4365
g54
(dp4366
g62
I1
ssg63
Nsg56
(lp4367
g49
(g65
g51
NtRp4368
(dp4369
g54
(dp4370
sg63
g4364
sg56
(lp4371
g49
(g70
g51
NtRp4372
(dp4373
g54
(dp4374
sg63
g4368
sg56
(lp4375
g49
(g50
g51
NtRp4376
(dp4377
g54
(dp4378
g62
I1
ssg63
g4372
sg56
(lp4379
S'web2py.com'
p4380
asbasbasbag49
(g65
g51
NtRp4381
(dp4382
g54
(dp4383
sg63
g4364
sg56
(lp4384
g49
(g70
g51
NtRp4385
(dp4386
g54
(dp4387
sg63
g4381
sg56
(lp4388
g49
(g50
g51
NtRp4389
(dp4390
g54
(dp4391
g62
I1
ssg63
g4385
sg56
(lp4392
I00
asbasbasbag49
(g65
g51
NtRp4393
(dp4394
g54
(dp4395
sg63
g4364
sg56
(lp4396
g49
(g70
g51
NtRp4397
(dp4398
g54
(dp4399
sg63
g4393
sg56
(lp4400
g49
(g50
g51
NtRp4401
(dp4402
g54
(dp4403
g62
I1
ssg63
g4397
sg56
(lp4404
S'http://www.web2py.com'
p4405
asbasbasbag49
(g65
g51
NtRp4406
(dp4407
g54
(dp4408
sg63
g4364
sg56
(lp4409
g49
(g70
g51
NtRp4410
(dp4411
g54
(dp4412
sg63
g4406
sg56
(lp4413
g49
(g50
g51
NtRp4414
(dp4415
g54
(dp4416
g62
I1
ssg63
g4410
sg56
(lp4417
(lp4418
(g4096
(S't\x08\x00\x00\x00Download'
tRp4419
I00
S'http://www.web2py.com/examples/default/download'
p4420
tp4421
a(g4096
(S't\x07\x00\x00\x00Support'
tRp4422
I00
S'http://www.web2py.com/examples/default/support'
p4423
tp4424
a(g4096
(S't\x04\x00\x00\x00Demo'
tRp4425
I00
S'http://web2py.com/demo_admin'
p4426
tp4427
a(g4096
(S's\x0e\x00\x00\x00Quick Examples'
tRp4428
I00
S'http://web2py.com/examples/default/examples'
p4429
tp4430
a(g4096
(S't\x03\x00\x00\x00FAQ'
tRp4431
I00
S'http://web2py.com/AlterEgo'
p4432
tp4433
a(g4096
(S't\x06\x00\x00\x00Videos'
tRp4434
I00
S'http://www.web2py.com/examples/default/videos/'
p4435
tp4436
a(g4096
(S's\x11\x00\x00\x00Free Applications'
tRp4437
I00
S'http://web2py.com/appliances'
p4438
tp4439
a(g4096
(S't\x07\x00\x00\x00Plugins'
tRp4440
I00
S'http://web2py.com/plugins'
p4441
tp4442
a(g4096
(S't\x07\x00\x00\x00Layouts'
tRp4443
I00
S'http://web2py.com/layouts'
p4444
tp4445
a(g4096
(S't\x07\x00\x00\x00Recipes'
tRp4446
I00
S'http://web2pyslices.com/'
p4447
tp4448
a(g4096
(S't\x08\x00\x00\x00Semantic'
tRp4449
I00
S'http://web2py.com/semantic'
p4450
tp4451
aasbasbasbasbasbasbasbag49
(g65
g51
NtRp4452
(dp4453
g54
(dp4454
sg63
g4209
sg56
(lp4455
g49
(g70
g51
NtRp4456
(dp4457
g54
(dp4458
sg63
g4452
sg56
(lp4459
g49
(g50
g51
NtRp4460
(dp4461
g54
(dp4462
g62
I2
ssg63
g4456
sg56
(lp4463
g49
(g58
g51
NtRp4464
(dp4465
g54
(dp4466
g62
I1
ssg63
Nsg56
(lp4467
g49
(g65
g51
NtRp4468
(dp4469
g54
(dp4470
sg63
g4464
sg56
(lp4471
g49
(g70
g51
NtRp4472
(dp4473
g54
(dp4474
sg63
g4468
sg56
(lp4475
g49
(g50
g51
NtRp4476
(dp4477
g54
(dp4478
g62
I1
ssg63
g4472
sg56
(lp4479
g4096
(S't\r\x00\x00\x00Documentation'
tRp4480
asbasbasbag49
(g65
g51
NtRp4481
(dp4482
g54
(dp4483
sg63
g4464
sg56
(lp4484
g49
(g70
g51
NtRp4485
(dp4486
g54
(dp4487
sg63
g4481
sg56
(lp4488
g49
(g50
g51
NtRp4489
(dp4490
g54
(dp4491
g62
I1
ssg63
g4485
sg56
(lp4492
I00
asbasbasbag49
(g65
g51
NtRp4493
(dp4494
g54
(dp4495
sg63
g4464
sg56
(lp4496
g49
(g70
g51
NtRp4497
(dp4498
g54
(dp4499
sg63
g4493
sg56
(lp4500
g49
(g50
g51
NtRp4501
(dp4502
g54
(dp4503
g62
I1
ssg63
g4497
sg56
(lp4504
S'http://www.web2py.com/book'
p4505
asbasbasbag49
(g65
g51
NtRp4506
(dp4507
g54
(dp4508
sg63
g4464
sg56
(lp4509
g49
(g70
g51
NtRp4510
(dp4511
g54
(dp4512
sg63
g4506
sg56
(lp4513
g49
(g50
g51
NtRp4514
(dp4515
g54
(dp4516
g62
I1
ssg63
g4510
sg56
(lp4517
(lp4518
(g4096
(S't\x07\x00\x00\x00Preface'
tRp4519
I00
S'http://www.web2py.com/book/default/chapter/00'
p4520
tp4521
a(g4096
(S't\x0c\x00\x00\x00Introduction'
tRp4522
I00
S'http://www.web2py.com/book/default/chapter/01'
p4523
tp4524
a(g4096
(S't\x06\x00\x00\x00Python'
tRp4525
I00
S'http://www.web2py.com/book/default/chapter/02'
p4526
tp4527
a(g4096
(S't\x08\x00\x00\x00Overview'
tRp4528
I00
S'http://www.web2py.com/book/default/chapter/03'
p4529
tp4530
a(g4096
(S's\x08\x00\x00\x00The Core'
tRp4531
I00
S'http://www.web2py.com/book/default/chapter/04'
p4532
tp4533
a(g4096
(S's\t\x00\x00\x00The Views'
tRp4534
I00
S'http://www.web2py.com/book/default/chapter/05'
p4535
tp4536
a(g4096
(S't\x08\x00\x00\x00Database'
tRp4537
I00
S'http://www.web2py.com/book/default/chapter/06'
p4538
tp4539
a(g4096
(S's\x14\x00\x00\x00Forms and Validators'
tRp4540
I00
S'http://www.web2py.com/book/default/chapter/07'
p4541
tp4542
a(g4096
(S's\r\x00\x00\x00Email and SMS'
tRp4543
I00
S'http://www.web2py.com/book/default/chapter/08'
p4544
tp4545
a(g4096
(S's\x0e\x00\x00\x00Access Control'
tRp4546
I00
S'http://www.web2py.com/book/default/chapter/09'
p4547
tp4548
a(g4096
(S't\x08\x00\x00\x00Services'
tRp4549
I00
S'http://www.web2py.com/book/default/chapter/10'
p4550
tp4551
a(g4096
(S's\x0c\x00\x00\x00Ajax Recipes'
tRp4552
I00
S'http://www.web2py.com/book/default/chapter/11'
p4553
tp4554
a(g4096
(S's\x16\x00\x00\x00Components and Plugins'
tRp4555
I00
S'http://www.web2py.com/book/default/chapter/12'
p4556
tp4557
a(g4096
(S's\x12\x00\x00\x00Deployment Recipes'
tRp4558
I00
S'http://www.web2py.com/book/default/chapter/13'
p4559
tp4560
a(g4096
(S's\r\x00\x00\x00Other Recipes'
tRp4561
I00
S'http://www.web2py.com/book/default/chapter/14'
p4562
tp4563
a(g4096
(S's\r\x00\x00\x00Buy this book'
tRp4564
I00
S'http://stores.lulu.com/web2py'
p4565
tp4566
aasbasbasbasbasbasbasbag49
(g65
g51
NtRp4567
(dp4568
g54
(dp4569
sg63
g4209
sg56
(lp4570
g49
(g70
g51
NtRp4571
(dp4572
g54
(dp4573
sg63
g4567
sg56
(lp4574
g49
(g50
g51
NtRp4575
(dp4576
g54
(dp4577
g62
I2
ssg63
g4571
sg56
(lp4578
g49
(g58
g51
NtRp4579
(dp4580
g54
(dp4581
g62
I1
ssg63
Nsg56
(lp4582
g49
(g65
g51
NtRp4583
(dp4584
g54
(dp4585
sg63
g4579
sg56
(lp4586
g49
(g70
g51
NtRp4587
(dp4588
g54
(dp4589
sg63
g4583
sg56
(lp4590
g49
(g50
g51
NtRp4591
(dp4592
g54
(dp4593
g62
I1
ssg63
g4587
sg56
(lp4594
g4096
(S't\t\x00\x00\x00Community'
tRp4595
asbasbasbag49
(g65
g51
NtRp4596
(dp4597
g54
(dp4598
sg63
g4579
sg56
(lp4599
g49
(g70
g51
NtRp4600
(dp4601
g54
(dp4602
sg63
g4596
sg56
(lp4603
g49
(g50
g51
NtRp4604
(dp4605
g54
(dp4606
g62
I1
ssg63
g4600
sg56
(lp4607
I00
asbasbasbag49
(g65
g51
NtRp4608
(dp4609
g54
(dp4610
sg63
g4579
sg56
(lp4611
g49
(g70
g51
NtRp4612
(dp4613
g54
(dp4614
sg63
g4608
sg56
(lp4615
g49
(g50
g51
NtRp4616
(dp4617
g54
(dp4618
g62
I1
ssg63
g4612
sg56
(lp4619
Nasbasbasbag49
(g65
g51
NtRp4620
(dp4621
g54
(dp4622
sg63
g4579
sg56
(lp4623
g49
(g70
g51
NtRp4624
(dp4625
g54
(dp4626
sg63
g4620
sg56
(lp4627
g49
(g50
g51
NtRp4628
(dp4629
g54
(dp4630
g62
I1
ssg63
g4624
sg56
(lp4631
(lp4632
(g4096
(S't\x06\x00\x00\x00Groups'
tRp4633
I00
S'http://www.web2py.com/examples/default/usergroups'
p4634
tp4635
a(g4096
(S't\x07\x00\x00\x00Twitter'
tRp4636
I00
S'http://twitter.com/web2py'
p4637
tp4638
a(g4096
(S's\t\x00\x00\x00Live Chat'
tRp4639
I00
S'http://webchat.freenode.net/?channels=web2py'
p4640
tp4641
aasbasbasbasbasbasbasbag49
(g65
g51
NtRp4642
(dp4643
g54
(dp4644
sg63
g4209
sg56
(lp4645
g49
(g70
g51
NtRp4646
(dp4647
g54
(dp4648
sg63
g4642
sg56
(lp4649
g49
(g50
g51
NtRp4650
(dp4651
g54
(dp4652
g62
I2
ssg63
g4646
sg56
(lp4653
g49
(g58
g51
NtRp4654
(dp4655
g54
(dp4656
g62
I1
ssg63
Nsg56
(lp4657
g49
(g65
g51
NtRp4658
(dp4659
g54
(dp4660
sg63
g4654
sg56
(lp4661
g49
(g70
g51
NtRp4662
(dp4663
g54
(dp4664
sg63
g4658
sg56
(lp4665
g49
(g50
g51
NtRp4666
(dp4667
g54
(dp4668
g62
I1
ssg63
g4662
sg56
(lp4669
g4096
(S't\x07\x00\x00\x00Plugins'
tRp4670
asbasbasbag49
(g65
g51
NtRp4671
(dp4672
g54
(dp4673
sg63
g4654
sg56
(lp4674
g49
(g70
g51
NtRp4675
(dp4676
g54
(dp4677
sg63
g4671
sg56
(lp4678
g49
(g50
g51
NtRp4679
(dp4680
g54
(dp4681
g62
I1
ssg63
g4675
sg56
(lp4682
I00
asbasbasbag49
(g65
g51
NtRp4683
(dp4684
g54
(dp4685
sg63
g4654
sg56
(lp4686
g49
(g70
g51
NtRp4687
(dp4688
g54
(dp4689
sg63
g4683
sg56
(lp4690
g49
(g50
g51
NtRp4691
(dp4692
g54
(dp4693
g62
I1
ssg63
g4687
sg56
(lp4694
Nasbasbasbag49
(g65
g51
NtRp4695
(dp4696
g54
(dp4697
sg63
g4654
sg56
(lp4698
g49
(g70
g51
NtRp4699
(dp4700
g54
(dp4701
sg63
g4695
sg56
(lp4702
g49
(g50
g51
NtRp4703
(dp4704
g54
(dp4705
g62
I1
ssg63
g4699
sg56
(lp4706
(lp4707
(S'plugin_wiki'
p4708
I00
S'http://web2py.com/examples/default/download'
p4709
tp4710
a(g4096
(S's\r\x00\x00\x00Other Plugins'
tRp4711
I00
g4441
tp4712
a(g4096
(S's\x0e\x00\x00\x00Layout Plugins'
tRp4713
I00
g4444
tp4714
aasbasbasbasbasbasbasbasbasbasbasbasbasbasbasbasbasbasbasbag49
(g65
g51
NtRp4715
(dp4716
g54
(dp4717
sg63
g3582
sg56
(lp4718
g49
(g70
g51
NtRp4719
(dp4720
g54
(dp4721
g74
g75
ssg63
g4715
sg56
(lp4722
S'meta'
p4723
asbag49
(g70
g51
NtRp4724
(dp4725
g54
(dp4726
g81
g82
ssg63
g4715
sg56
(lp4727
S':'
asbag49
(g70
g51
NtRp4728
(dp4729
g54
(dp4730
sg63
g4715
sg56
(lp4731
g49
(g50
g51
NtRp4732
(dp4733
g54
(dp4734
g62
I5
ssg63
g4728
sg56
(lp4735
g49
(g58
g51
NtRp4736
(dp4737
g54
(dp4738
g62
I4
ssg63
Nsg56
(lp4739
g49
(g65
g51
NtRp4740
(dp4741
g54
(dp4742
sg63
g4736
sg56
(lp4743
g49
(g70
g51
NtRp4744
(dp4745
g54
(dp4746
g74
g75
ssg63
g4740
sg56
(lp4747
S'author'
p4748
asbag49
(g70
g51
NtRp4749
(dp4750
g54
(dp4751
g81
g82
ssg63
g4740
sg56
(lp4752
S':'
asbag49
(g70
g51
NtRp4753
(dp4754
g54
(dp4755
sg63
g4740
sg56
(lp4756
g49
(g50
g51
NtRp4757
(dp4758
g54
(dp4759
g62
I4
ssg63
g4753
sg56
(lp4760
S'Your Name <you@example.com>'
p4761
asbasbasbag49
(g65
g51
NtRp4762
(dp4763
g54
(dp4764
sg63
g4736
sg56
(lp4765
g49
(g70
g51
NtRp4766
(dp4767
g54
(dp4768
g74
g75
ssg63
g4762
sg56
(lp4769
S'description'
p4770
asbag49
(g70
g51
NtRp4771
(dp4772
g54
(dp4773
g81
g82
ssg63
g4762
sg56
(lp4774
S':'
asbag49
(g70
g51
NtRp4775
(dp4776
g54
(dp4777
sg63
g4762
sg56
(lp4778
g49
(g50
g51
NtRp4779
(dp4780
g54
(dp4781
g62
I4
ssg63
g4775
sg56
(lp4782
S'a cool new app'
p4783
asbasbasbag49
(g65
g51
NtRp4784
(dp4785
g54
(dp4786
sg63
g4736
sg56
(lp4787
g49
(g70
g51
NtRp4788
(dp4789
g54
(dp4790
g74
g75
ssg63
g4784
sg56
(lp4791
S'generator'
p4792
asbag49
(g70
g51
NtRp4793
(dp4794
g54
(dp4795
g81
g82
ssg63
g4784
sg56
(lp4796
S':'
asbag49
(g70
g51
NtRp4797
(dp4798
g54
(dp4799
sg63
g4784
sg56
(lp4800
g49
(g50
g51
NtRp4801
(dp4802
g54
(dp4803
g62
I4
ssg63
g4797
sg56
(lp4804
S'Web2py Web Framework'
p4805
asbasbasbag49
(g65
g51
NtRp4806
(dp4807
g54
(dp4808
sg63
g4736
sg56
(lp4809
g49
(g70
g51
NtRp4810
(dp4811
g54
(dp4812
g74
g75
ssg63
g4806
sg56
(lp4813
S'keywords'
p4814
asbag49
(g70
g51
NtRp4815
(dp4816
g54
(dp4817
g81
g82
ssg63
g4806
sg56
(lp4818
S':'
asbag49
(g70
g51
NtRp4819
(dp4820
g54
(dp4821
sg63
g4806
sg56
(lp4822
g49
(g50
g51
NtRp4823
(dp4824
g54
(dp4825
g62
I4
ssg63
g4819
sg56
(lp4826
S'web2py, python, framework'
p4827
asbasbasbasbasbasbasbag49
(g65
g51
NtRp4828
(dp4829
g54
(dp4830
sg63
g3582
sg56
(lp4831
g49
(g70
g51
NtRp4832
(dp4833
g54
(dp4834
g74
g75
ssg63
g4828
sg56
(lp4835
S'models_to_run'
p4836
asbag49
(g70
g51
NtRp4837
(dp4838
g54
(dp4839
g81
g82
ssg63
g4828
sg56
(lp4840
S':'
asbag49
(g70
g51
NtRp4841
(dp4842
g54
(dp4843
sg63
g4828
sg56
(lp4844
g49
(g50
g51
NtRp4845
(dp4846
g54
(dp4847
g62
I5
ssg63
g4841
sg56
(lp4848
g49
(g58
g51
NtRp4849
(dp4850
g54
(dp4851
g62
I4
ssg63
Nsg56
(lp4852
g49
(g65
g51
NtRp4853
(dp4854
g54
(dp4855
sg63
g4849
sg56
(lp4856
g49
(g70
g51
NtRp4857
(dp4858
g54
(dp4859
sg63
g4853
sg56
(lp4860
g49
(g50
g51
NtRp4861
(dp4862
g54
(dp4863
g62
I4
ssg63
g4857
sg56
(lp4864
S'^\\w+\\.py$'
p4865
asbasbasbag49
(g65
g51
NtRp4866
(dp4867
g54
(dp4868
sg63
g4849
sg56
(lp4869
g49
(g70
g51
NtRp4870
(dp4871
g54
(dp4872
sg63
g4866
sg56
(lp4873
g49
(g50
g51
NtRp4874
(dp4875
g54
(dp4876
g62
I4
ssg63
g4870
sg56
(lp4877
S'^game/\\w+\\.py$'
p4878
asbasbasbag49
(g65
g51
NtRp4879
(dp4880
g54
(dp4881
sg63
g4849
sg56
(lp4882
g49
(g70
g51
NtRp4883
(dp4884
g54
(dp4885
sg63
g4879
sg56
(lp4886
g49
(g50
g51
NtRp4887
(dp4888
g54
(dp4889
g62
I4
ssg63
g4883
sg56
(lp4890
S'^game/show/\\w+\\.py$'
p4891
asbasbasbasbasbasbasbag49
(g65
g51
NtRp4892
(dp4893
g54
(dp4894
sg63
g3582
sg56
(lp4895
g49
(g70
g51
NtRp4896
(dp4897
g54
(dp4898
g74
g75
ssg63
g4892
sg56
(lp4899
S'postprocessing'
p4900
asbag49
(g70
g51
NtRp4901
(dp4902
g54
(dp4903
g81
g82
ssg63
g4892
sg56
(lp4904
S':'
asbag49
(g70
g51
NtRp4905
(dp4906
g54
(dp4907
sg63
g4892
sg56
(lp4908
g49
(g50
g51
NtRp4909
(dp4910
g54
(dp4911
g62
I5
ssg63
g4905
sg56
(lp4912
g49
(g58
g51
NtRp4913
(dp4914
g54
(dp4915
g62
I4
ssg63
Nsg56
(lp4916
sbasbasbasbag49
(g65
g51
NtRp4917
(dp4918
g54
(dp4919
sg63
g3582
sg56
(lp4920
g49
(g70
g51
NtRp4921
(dp4922
g54
(dp4923
g74
g75
ssg63
g4917
sg56
(lp4924
S'session_cookie_expires'
p4925
asbag49
(g70
g51
NtRp4926
(dp4927
g54
(dp4928
g81
g82
ssg63
g4917
sg56
(lp4929
S':'
asbag49
(g70
g51
NtRp4930
(dp4931
g54
(dp4932
sg63
g4917
sg56
(lp4933
g49
(g50
g51
NtRp4934
(dp4935
g54
(dp4936
g62
I5
ssg63
g4930
sg56
(lp4937
S'None'
p4938
asbasbasbag49
(g65
g51
NtRp4939
(dp4940
g54
(dp4941
sg63
g3582
sg56
(lp4942
g49
(g70
g51
NtRp4943
(dp4944
g54
(dp4945
g74
g75
ssg63
g4939
sg56
(lp4946
S'session_data_name'
p4947
asbag49
(g70
g51
NtRp4948
(dp4949
g54
(dp4950
g81
g82
ssg63
g4939
sg56
(lp4951
S':'
asbag49
(g70
g51
NtRp4952
(dp4953
g54
(dp4954
sg63
g4939
sg56
(lp4955
g49
(g50
g51
NtRp4956
(dp4957
g54
(dp4958
g62
I5
ssg63
g4952
sg56
(lp4959
S'session_data_hellow'
p4960
asbasbasbag49
(g65
g51
NtRp4961
(dp4962
g54
(dp4963
sg63
g3582
sg56
(lp4964
g49
(g70
g51
NtRp4965
(dp4966
g54
(dp4967
g74
g75
ssg63
g4961
sg56
(lp4968
S'session_file'
p4969
asbag49
(g70
g51
NtRp4970
(dp4971
g54
(dp4972
g81
g82
ssg63
g4961
sg56
(lp4973
S':'
asbag49
(g70
g51
NtRp4974
(dp4975
g54
(dp4976
sg63
g4961
sg56
(lp4977
g49
(g50
g51
NtRp4978
(dp4979
g54
(dp4980
g62
I5
ssg63
g4974
sg56
(lp4981
S"<open file '/Users/zamechek/Downloads/web2py/web2py.app/Contents/Resources/applications/hellow/sessions/127.0.0.1-f0c125e4-5d5e-4805-8c10-bdfc66367729', mode 'rb+' at 0xa39ff08>"
p4982
asbasbasbag49
(g65
g51
NtRp4983
(dp4984
g54
(dp4985
sg63
g3582
sg56
(lp4986
g49
(g70
g51
NtRp4987
(dp4988
g54
(dp4989
g74
g75
ssg63
g4983
sg56
(lp4990
S'session_filename'
p4991
asbag49
(g70
g51
NtRp4992
(dp4993
g54
(dp4994
g81
g82
ssg63
g4983
sg56
(lp4995
S':'
asbag49
(g70
g51
NtRp4996
(dp4997
g54
(dp4998
sg63
g4983
sg56
(lp4999
g49
(g50
g51
NtRp5000
(dp5001
g54
(dp5002
g62
I5
ssg63
g4996
sg56
(lp5003
S'/Users/zamechek/Downloads/web2py/web2py.app/Contents/Resources/applications/hellow/sessions/127.0.0.1-f0c125e4-5d5e-4805-8c10-bdfc66367729'
p5004
asbasbasbag49
(g65
g51
NtRp5005
(dp5006
g54
(dp5007
sg63
g3582
sg56
(lp5008
g49
(g70
g51
NtRp5009
(dp5010
g54
(dp5011
g74
g75
ssg63
g5005
sg56
(lp5012
S'session_id'
p5013
asbag49
(g70
g51
NtRp5014
(dp5015
g54
(dp5016
g81
g82
ssg63
g5005
sg56
(lp5017
S':'
asbag49
(g70
g51
NtRp5018
(dp5019
g54
(dp5020
sg63
g5005
sg56
(lp5021
g49
(g50
g51
NtRp5022
(dp5023
g54
(dp5024
g62
I5
ssg63
g5018
sg56
(lp5025
g624
asbasbasbag49
(g65
g51
NtRp5026
(dp5027
g54
(dp5028
sg63
g3582
sg56
(lp5029
g49
(g70
g51
NtRp5030
(dp5031
g54
(dp5032
g74
g75
ssg63
g5026
sg56
(lp5033
S'session_id_name'
p5034
asbag49
(g70
g51
NtRp5035
(dp5036
g54
(dp5037
g81
g82
ssg63
g5026
sg56
(lp5038
S':'
asbag49
(g70
g51
NtRp5039
(dp5040
g54
(dp5041
sg63
g5026
sg56
(lp5042
g49
(g50
g51
NtRp5043
(dp5044
g54
(dp5045
g62
I5
ssg63
g5039
sg56
(lp5046
g3639
asbasbasbag49
(g65
g51
NtRp5047
(dp5048
g54
(dp5049
sg63
g3582
sg56
(lp5050
g49
(g70
g51
NtRp5051
(dp5052
g54
(dp5053
g74
g75
ssg63
g5047
sg56
(lp5054
S'session_locked'
p5055
asbag49
(g70
g51
NtRp5056
(dp5057
g54
(dp5058
g81
g82
ssg63
g5047
sg56
(lp5059
S':'
asbag49
(g70
g51
NtRp5060
(dp5061
g54
(dp5062
sg63
g5047
sg56
(lp5063
g49
(g50
g51
NtRp5064
(dp5065
g54
(dp5066
g62
I5
ssg63
g5060
sg56
(lp5067
g1260
asbasbasbag49
(g65
g51
NtRp5068
(dp5069
g54
(dp5070
sg63
g3582
sg56
(lp5071
g49
(g70
g51
NtRp5072
(dp5073
g54
(dp5074
g74
g75
ssg63
g5068
sg56
(lp5075
S'session_new'
p5076
asbag49
(g70
g51
NtRp5077
(dp5078
g54
(dp5079
g81
g82
ssg63
g5068
sg56
(lp5080
S':'
asbag49
(g70
g51
NtRp5081
(dp5082
g54
(dp5083
sg63
g5068
sg56
(lp5084
g49
(g50
g51
NtRp5085
(dp5086
g54
(dp5087
g62
I5
ssg63
g5081
sg56
(lp5088
g92
asbasbasbag49
(g65
g51
NtRp5089
(dp5090
g54
(dp5091
sg63
g3582
sg56
(lp5092
g49
(g70
g51
NtRp5093
(dp5094
g54
(dp5095
g74
g75
ssg63
g5089
sg56
(lp5096
S'session_storage_type'
p5097
asbag49
(g70
g51
NtRp5098
(dp5099
g54
(dp5100
g81
g82
ssg63
g5089
sg56
(lp5101
S':'
asbag49
(g70
g51
NtRp5102
(dp5103
g54
(dp5104
sg63
g5089
sg56
(lp5105
g49
(g50
g51
NtRp5106
(dp5107
g54
(dp5108
g62
I5
ssg63
g5102
sg56
(lp5109
g3475
asbasbasbag49
(g65
g51
NtRp5110
(dp5111
g54
(dp5112
sg63
g3582
sg56
(lp5113
g49
(g70
g51
NtRp5114
(dp5115
g54
(dp5116
g74
g75
ssg63
g5110
sg56
(lp5117
S'status'
p5118
asbag49
(g70
g51
NtRp5119
(dp5120
g54
(dp5121
g81
g82
ssg63
g5110
sg56
(lp5122
S':'
asbag49
(g70
g51
NtRp5123
(dp5124
g54
(dp5125
sg63
g5110
sg56
(lp5126
g49
(g50
g51
NtRp5127
(dp5128
g54
(dp5129
g62
I5
ssg63
g5123
sg56
(lp5130
S'200'
p5131
asbasbasbag49
(g65
g51
NtRp5132
(dp5133
g54
(dp5134
sg63
g3582
sg56
(lp5135
g49
(g70
g51
NtRp5136
(dp5137
g54
(dp5138
g74
g75
ssg63
g5132
sg56
(lp5139
S'subtitle'
p5140
asbag49
(g70
g51
NtRp5141
(dp5142
g54
(dp5143
g81
g82
ssg63
g5132
sg56
(lp5144
S':'
asbag49
(g70
g51
NtRp5145
(dp5146
g54
(dp5147
sg63
g5132
sg56
(lp5148
g49
(g50
g51
NtRp5149
(dp5150
g54
(dp5151
g62
I5
ssg63
g5145
sg56
(lp5152
g4096
(S's\r\x00\x00\x00customize me!'
tRp5153
asbasbasbag49
(g65
g51
NtRp5154
(dp5155
g54
(dp5156
sg63
g3582
sg56
(lp5157
g49
(g70
g51
NtRp5158
(dp5159
g54
(dp5160
g74
g75
ssg63
g5154
sg56
(lp5161
S'title'
p5162
asbag49
(g70
g51
NtRp5163
(dp5164
g54
(dp5165
g81
g82
ssg63
g5154
sg56
(lp5166
S':'
asbag49
(g70
g51
NtRp5167
(dp5168
g54
(dp5169
sg63
g5154
sg56
(lp5170
g49
(g50
g51
NtRp5171
(dp5172
g54
(dp5173
g62
I5
ssg63
g5167
sg56
(lp5174
S'Hellow'
p5175
asbasbasbag49
(g65
g51
NtRp5176
(dp5177
g54
(dp5178
sg63
g3582
sg56
(lp5179
g49
(g70
g51
NtRp5180
(dp5181
g54
(dp5182
g74
g75
ssg63
g5176
sg56
(lp5183
S'view'
p5184
asbag49
(g70
g51
NtRp5185
(dp5186
g54
(dp5187
g81
g82
ssg63
g5176
sg56
(lp5188
S':'
asbag49
(g70
g51
NtRp5189
(dp5190
g54
(dp5191
sg63
g5176
sg56
(lp5192
g49
(g50
g51
NtRp5193
(dp5194
g54
(dp5195
g62
I5
ssg63
g5189
sg56
(lp5196
S'game/show.html'
p5197
asbasbasbasbasbsS'locals'
p5198
(dp5199
S'id'
p5200
S"'1'"
p5201
sssS'traceback'
p5202
S'Traceback (most recent call last):\n  File "/home/mdipierro/web2py/gluon/restricted.py", line 212, in restricted\n  File "/Users/zamechek/Downloads/web2py/web2py.app/Contents/Resources/applications/hellow/controllers/game.py", line 9, in <module>\n  File "/home/mdipierro/web2py/gluon/globals.py", line 193, in <lambda>\n  File "/Users/zamechek/Downloads/web2py/web2py.app/Contents/Resources/applications/hellow/controllers/game.py", line 5, in show\nTypeError: \'Field\' object is not callable\n'
p5203
s.