(dp1
S'output'
p2
S"<type 'exceptions.IndexError'> list index out of range"
p3
sS'layer'
p4
S'/Users/zamechek/Downloads/web2py/web2py.app/Contents/Resources/applications/hellow/controllers/slot.py'
p5
sS'code'
p6
S'# coding: utf8\n# try something like\nimport random\ndef index(): return dict(message="hello from slot.py")\n\ndef show():\n    id = request.args[0]\n    slot = db.slot(id)\n    return str(isWinner(slot.odd)) + " | "  + str(slot.odd)\n    \ndef isWinner(odd):\n    if odd > random.randint(0, 9):\n        return True\n    else: return False\n\nresponse._vars=response._caller(show)\n'
p7
sS'snapshot'
p8
(dp9
S'exception'
p10
(dp11
S'__hash__'
p12
S"<method-wrapper '__hash__' of exceptions.IndexError object at 0x9e19b98>"
p13
sS'__setattr__'
p14
S"<method-wrapper '__setattr__' of exceptions.IndexError object at 0x9e19b98>"
p15
sS'__reduce_ex__'
p16
S'<built-in method __reduce_ex__ of exceptions.IndexError object at 0x9e19b98>'
p17
sS'__getslice__'
p18
S"<method-wrapper '__getslice__' of exceptions.IndexError object at 0x9e19b98>"
p19
sS'__getitem__'
p20
S"<method-wrapper '__getitem__' of exceptions.IndexError object at 0x9e19b98>"
p21
sS'__setstate__'
p22
S'<built-in method __setstate__ of exceptions.IndexError object at 0x9e19b98>'
p23
sS'__reduce__'
p24
S'<built-in method __reduce__ of exceptions.IndexError object at 0x9e19b98>'
p25
sS'__str__'
p26
S"<method-wrapper '__str__' of exceptions.IndexError object at 0x9e19b98>"
p27
sS'args'
p28
S"('list index out of range',)"
p29
sS'__getattribute__'
p30
S"<method-wrapper '__getattribute__' of exceptions.IndexError object at 0x9e19b98>"
p31
sS'__class__'
p32
S"<type 'exceptions.IndexError'>"
p33
sS'__delattr__'
p34
S"<method-wrapper '__delattr__' of exceptions.IndexError object at 0x9e19b98>"
p35
sS'__repr__'
p36
S"<method-wrapper '__repr__' of exceptions.IndexError object at 0x9e19b98>"
p37
sS'__dict__'
p38
S'{}'
p39
sS'__doc__'
p40
S"'Sequence index out of range.'"
p41
sS'__init__'
p42
S"<method-wrapper '__init__' of exceptions.IndexError object at 0x9e19b98>"
p43
sS'__new__'
p44
S'<built-in method __new__ of type object at 0x5f90c0>'
p45
ssS'evalue'
p46
S'list index out of range'
p47
sS'request'
p48
ccopy_reg
_reconstructor
p49
(cgluon.html
BEAUTIFY
p50
c__builtin__
object
p51
NtRp52
(dp53
S'attributes'
p54
(dp55
sS'components'
p56
(lp57
g49
(cgluon.html
TABLE
p58
g51
NtRp59
(dp60
g54
(dp61
S'level'
p62
I5
ssS'parent'
p63
Nsg56
(lp64
g49
(cgluon.html
TR
p65
g51
NtRp66
(dp67
g54
(dp68
sg63
g59
sg56
(lp69
g49
(cgluon.html
TD
p70
g51
NtRp71
(dp72
g54
(dp73
S'_style'
p74
S'font-weight:bold;vertical-align:top'
p75
ssg63
g66
sg56
(lp76
S'ajax'
p77
asbag49
(g70
g51
NtRp78
(dp79
g54
(dp80
S'_valign'
p81
S'top'
p82
ssg63
g66
sg56
(lp83
S':'
asbag49
(g70
g51
NtRp84
(dp85
g54
(dp86
sg63
g66
sg56
(lp87
g49
(g50
g51
NtRp88
(dp89
g54
(dp90
g62
I5
ssg63
g84
sg56
(lp91
S'False'
p92
asbasbasbag49
(g65
g51
NtRp93
(dp94
g54
(dp95
sg63
g59
sg56
(lp96
g49
(g70
g51
NtRp97
(dp98
g54
(dp99
g74
g75
ssg63
g93
sg56
(lp100
S'application'
p101
asbag49
(g70
g51
NtRp102
(dp103
g54
(dp104
g81
g82
ssg63
g93
sg56
(lp105
S':'
asbag49
(g70
g51
NtRp106
(dp107
g54
(dp108
sg63
g93
sg56
(lp109
g49
(g50
g51
NtRp110
(dp111
g54
(dp112
g62
I5
ssg63
g106
sg56
(lp113
S'hellow'
p114
asbasbasbag49
(g65
g51
NtRp115
(dp116
g54
(dp117
sg63
g59
sg56
(lp118
g49
(g70
g51
NtRp119
(dp120
g54
(dp121
g74
g75
ssg63
g115
sg56
(lp122
g28
asbag49
(g70
g51
NtRp123
(dp124
g54
(dp125
g81
g82
ssg63
g115
sg56
(lp126
S':'
asbag49
(g70
g51
NtRp127
(dp128
g54
(dp129
sg63
g115
sg56
(lp130
g49
(g50
g51
NtRp131
(dp132
g54
(dp133
g62
I5
ssg63
g127
sg56
(lp134
g49
(g58
g51
NtRp135
(dp136
g54
(dp137
g62
I4
ssg63
Nsg56
(lp138
sbasbasbasbag49
(g65
g51
NtRp139
(dp140
g54
(dp141
sg63
g59
sg56
(lp142
g49
(g70
g51
NtRp143
(dp144
g54
(dp145
g74
g75
ssg63
g139
sg56
(lp146
S'body'
p147
asbag49
(g70
g51
NtRp148
(dp149
g54
(dp150
g81
g82
ssg63
g139
sg56
(lp151
S':'
asbag49
(g70
g51
NtRp152
(dp153
g54
(dp154
sg63
g139
sg56
(lp155
g49
(g50
g51
NtRp156
(dp157
g54
(dp158
g62
I5
ssg63
g152
sg56
(lp159
S'<cStringIO.StringO object at 0xa3dcf80>'
p160
asbasbasbag49
(g65
g51
NtRp161
(dp162
g54
(dp163
sg63
g59
sg56
(lp164
g49
(g70
g51
NtRp165
(dp166
g54
(dp167
g74
g75
ssg63
g161
sg56
(lp168
S'cid'
p169
asbag49
(g70
g51
NtRp170
(dp171
g54
(dp172
g81
g82
ssg63
g161
sg56
(lp173
S':'
asbag49
(g70
g51
NtRp174
(dp175
g54
(dp176
sg63
g161
sg56
(lp177
g49
(g50
g51
NtRp178
(dp179
g54
(dp180
g62
I5
ssg63
g174
sg56
(lp181
S'None'
p182
asbasbasbag49
(g65
g51
NtRp183
(dp184
g54
(dp185
sg63
g59
sg56
(lp186
g49
(g70
g51
NtRp187
(dp188
g54
(dp189
g74
g75
ssg63
g183
sg56
(lp190
S'client'
p191
asbag49
(g70
g51
NtRp192
(dp193
g54
(dp194
g81
g82
ssg63
g183
sg56
(lp195
S':'
asbag49
(g70
g51
NtRp196
(dp197
g54
(dp198
sg63
g183
sg56
(lp199
g49
(g50
g51
NtRp200
(dp201
g54
(dp202
g62
I5
ssg63
g196
sg56
(lp203
S'127.0.0.1'
p204
asbasbasbag49
(g65
g51
NtRp205
(dp206
g54
(dp207
sg63
g59
sg56
(lp208
g49
(g70
g51
NtRp209
(dp210
g54
(dp211
g74
g75
ssg63
g205
sg56
(lp212
S'controller'
p213
asbag49
(g70
g51
NtRp214
(dp215
g54
(dp216
g81
g82
ssg63
g205
sg56
(lp217
S':'
asbag49
(g70
g51
NtRp218
(dp219
g54
(dp220
sg63
g205
sg56
(lp221
g49
(g50
g51
NtRp222
(dp223
g54
(dp224
g62
I5
ssg63
g218
sg56
(lp225
S'slot'
p226
asbasbasbag49
(g65
g51
NtRp227
(dp228
g54
(dp229
sg63
g59
sg56
(lp230
g49
(g70
g51
NtRp231
(dp232
g54
(dp233
g74
g75
ssg63
g227
sg56
(lp234
S'cookies'
p235
asbag49
(g70
g51
NtRp236
(dp237
g54
(dp238
g81
g82
ssg63
g227
sg56
(lp239
S':'
asbag49
(g70
g51
NtRp240
(dp241
g54
(dp242
sg63
g227
sg56
(lp243
g49
(g50
g51
NtRp244
(dp245
g54
(dp246
g62
I5
ssg63
g240
sg56
(lp247
g49
(g58
g51
NtRp248
(dp249
g54
(dp250
g62
I4
ssg63
Nsg56
(lp251
g49
(g65
g51
NtRp252
(dp253
g54
(dp254
sg63
g248
sg56
(lp255
g49
(g70
g51
NtRp256
(dp257
g54
(dp258
g74
g75
ssg63
g252
sg56
(lp259
S'session_data_examples'
p260
asbag49
(g70
g51
NtRp261
(dp262
g54
(dp263
g81
g82
ssg63
g252
sg56
(lp264
S':'
asbag49
(g70
g51
NtRp265
(dp266
g54
(dp267
sg63
g252
sg56
(lp268
g49
(g50
g51
NtRp269
(dp270
g54
(dp271
g62
I4
ssg63
g265
sg56
(lp272
S'6590e93a92ae056071f3d5d23c5da718:8mcaYr3jD5OS9Hm5obiuGpOS1hqNCswQLIoFlRGZYdaR8FVZ84s0w9vMAEY5L6DK8gvTZcQowujTbbDj-ns3802lRCPwkkcburTr1lmHorC9hQtD5W0yZ89O_mdlKuHPlwEItXQ5_WAFut_RTkzpuyS0nQWmuEGxVuLk0DXc0ndh8WySsXoErgPnINq0aXqKzueVqcmNBWwB7tluAV8oSQyVVnjPajiXfmT2moAb3dPnaGC3yePavU4XAXO8FVarzcdAnZ4bnTo9uMJJvT2hL9oQVbtD8YY8yMHurMAdtIpf8wcGfXNr6SjFTzpMxYtAg1tv7XdXpUPETM1Ox80jE-qsgQd_Xr1FA049-xsoxpdA4EzMUoouiTJ995NWCOJNjo6VICpuSvfOJBlnOLd8aLxueLUtuyScbkLd2jOCQIsF2aV6hhIZWDXpJwlCKPkIckeaXaaHeE4EqTZR6N0JnA=='
p273
ag49
(g58
g51
NtRp274
(dp275
g54
(dp276
g62
I3
ssg63
Nsg56
(lp277
g49
(g65
g51
NtRp278
(dp279
g54
(dp280
sg63
g274
sg56
(lp281
g49
(g70
g51
NtRp282
(dp283
g54
(dp284
g74
g75
ssg63
g278
sg56
(lp285
S'comment'
p286
asbag49
(g70
g51
NtRp287
(dp288
g54
(dp289
g81
g82
ssg63
g278
sg56
(lp290
S':'
asbag49
(g70
g51
NtRp291
(dp292
g54
(dp293
sg63
g278
sg56
(lp294
g49
(g50
g51
NtRp295
(dp296
g54
(dp297
g62
I3
ssg63
g291
sg56
(lp298
S''
asbasbasbag49
(g65
g51
NtRp299
(dp300
g54
(dp301
sg63
g274
sg56
(lp302
g49
(g70
g51
NtRp303
(dp304
g54
(dp305
g74
g75
ssg63
g299
sg56
(lp306
S'domain'
p307
asbag49
(g70
g51
NtRp308
(dp309
g54
(dp310
g81
g82
ssg63
g299
sg56
(lp311
S':'
asbag49
(g70
g51
NtRp312
(dp313
g54
(dp314
sg63
g299
sg56
(lp315
g49
(g50
g51
NtRp316
(dp317
g54
(dp318
g62
I3
ssg63
g312
sg56
(lp319
S''
asbasbasbag49
(g65
g51
NtRp320
(dp321
g54
(dp322
sg63
g274
sg56
(lp323
g49
(g70
g51
NtRp324
(dp325
g54
(dp326
g74
g75
ssg63
g320
sg56
(lp327
S'expires'
p328
asbag49
(g70
g51
NtRp329
(dp330
g54
(dp331
g81
g82
ssg63
g320
sg56
(lp332
S':'
asbag49
(g70
g51
NtRp333
(dp334
g54
(dp335
sg63
g320
sg56
(lp336
g49
(g50
g51
NtRp337
(dp338
g54
(dp339
g62
I3
ssg63
g333
sg56
(lp340
S''
asbasbasbag49
(g65
g51
NtRp341
(dp342
g54
(dp343
sg63
g274
sg56
(lp344
g49
(g70
g51
NtRp345
(dp346
g54
(dp347
g74
g75
ssg63
g341
sg56
(lp348
S'max-age'
p349
asbag49
(g70
g51
NtRp350
(dp351
g54
(dp352
g81
g82
ssg63
g341
sg56
(lp353
S':'
asbag49
(g70
g51
NtRp354
(dp355
g54
(dp356
sg63
g341
sg56
(lp357
g49
(g50
g51
NtRp358
(dp359
g54
(dp360
g62
I3
ssg63
g354
sg56
(lp361
S''
asbasbasbag49
(g65
g51
NtRp362
(dp363
g54
(dp364
sg63
g274
sg56
(lp365
g49
(g70
g51
NtRp366
(dp367
g54
(dp368
g74
g75
ssg63
g362
sg56
(lp369
S'path'
p370
asbag49
(g70
g51
NtRp371
(dp372
g54
(dp373
g81
g82
ssg63
g362
sg56
(lp374
S':'
asbag49
(g70
g51
NtRp375
(dp376
g54
(dp377
sg63
g362
sg56
(lp378
g49
(g50
g51
NtRp379
(dp380
g54
(dp381
g62
I3
ssg63
g375
sg56
(lp382
S''
asbasbasbag49
(g65
g51
NtRp383
(dp384
g54
(dp385
sg63
g274
sg56
(lp386
g49
(g70
g51
NtRp387
(dp388
g54
(dp389
g74
g75
ssg63
g383
sg56
(lp390
S'secure'
p391
asbag49
(g70
g51
NtRp392
(dp393
g54
(dp394
g81
g82
ssg63
g383
sg56
(lp395
S':'
asbag49
(g70
g51
NtRp396
(dp397
g54
(dp398
sg63
g383
sg56
(lp399
g49
(g50
g51
NtRp400
(dp401
g54
(dp402
g62
I3
ssg63
g396
sg56
(lp403
S''
asbasbasbag49
(g65
g51
NtRp404
(dp405
g54
(dp406
sg63
g274
sg56
(lp407
g49
(g70
g51
NtRp408
(dp409
g54
(dp410
g74
g75
ssg63
g404
sg56
(lp411
S'version'
p412
asbag49
(g70
g51
NtRp413
(dp414
g54
(dp415
g81
g82
ssg63
g404
sg56
(lp416
S':'
asbag49
(g70
g51
NtRp417
(dp418
g54
(dp419
sg63
g404
sg56
(lp420
g49
(g50
g51
NtRp421
(dp422
g54
(dp423
g62
I3
ssg63
g417
sg56
(lp424
S''
asbasbasbasbasbasbasbag49
(g65
g51
NtRp425
(dp426
g54
(dp427
sg63
g248
sg56
(lp428
g49
(g70
g51
NtRp429
(dp430
g54
(dp431
g74
g75
ssg63
g425
sg56
(lp432
S'session_id_admin'
p433
asbag49
(g70
g51
NtRp434
(dp435
g54
(dp436
g81
g82
ssg63
g425
sg56
(lp437
S':'
asbag49
(g70
g51
NtRp438
(dp439
g54
(dp440
sg63
g425
sg56
(lp441
g49
(g50
g51
NtRp442
(dp443
g54
(dp444
g62
I4
ssg63
g438
sg56
(lp445
S'127.0.0.1-66a1de5b-ba15-4b30-ba06-132c9e7969c1'
p446
ag49
(g58
g51
NtRp447
(dp448
g54
(dp449
g62
I3
ssg63
Nsg56
(lp450
g49
(g65
g51
NtRp451
(dp452
g54
(dp453
sg63
g447
sg56
(lp454
g49
(g70
g51
NtRp455
(dp456
g54
(dp457
g74
g75
ssg63
g451
sg56
(lp458
g286
asbag49
(g70
g51
NtRp459
(dp460
g54
(dp461
g81
g82
ssg63
g451
sg56
(lp462
S':'
asbag49
(g70
g51
NtRp463
(dp464
g54
(dp465
sg63
g451
sg56
(lp466
g49
(g50
g51
NtRp467
(dp468
g54
(dp469
g62
I3
ssg63
g463
sg56
(lp470
S''
asbasbasbag49
(g65
g51
NtRp471
(dp472
g54
(dp473
sg63
g447
sg56
(lp474
g49
(g70
g51
NtRp475
(dp476
g54
(dp477
g74
g75
ssg63
g471
sg56
(lp478
g307
asbag49
(g70
g51
NtRp479
(dp480
g54
(dp481
g81
g82
ssg63
g471
sg56
(lp482
S':'
asbag49
(g70
g51
NtRp483
(dp484
g54
(dp485
sg63
g471
sg56
(lp486
g49
(g50
g51
NtRp487
(dp488
g54
(dp489
g62
I3
ssg63
g483
sg56
(lp490
S''
asbasbasbag49
(g65
g51
NtRp491
(dp492
g54
(dp493
sg63
g447
sg56
(lp494
g49
(g70
g51
NtRp495
(dp496
g54
(dp497
g74
g75
ssg63
g491
sg56
(lp498
g328
asbag49
(g70
g51
NtRp499
(dp500
g54
(dp501
g81
g82
ssg63
g491
sg56
(lp502
S':'
asbag49
(g70
g51
NtRp503
(dp504
g54
(dp505
sg63
g491
sg56
(lp506
g49
(g50
g51
NtRp507
(dp508
g54
(dp509
g62
I3
ssg63
g503
sg56
(lp510
S''
asbasbasbag49
(g65
g51
NtRp511
(dp512
g54
(dp513
sg63
g447
sg56
(lp514
g49
(g70
g51
NtRp515
(dp516
g54
(dp517
g74
g75
ssg63
g511
sg56
(lp518
g349
asbag49
(g70
g51
NtRp519
(dp520
g54
(dp521
g81
g82
ssg63
g511
sg56
(lp522
S':'
asbag49
(g70
g51
NtRp523
(dp524
g54
(dp525
sg63
g511
sg56
(lp526
g49
(g50
g51
NtRp527
(dp528
g54
(dp529
g62
I3
ssg63
g523
sg56
(lp530
S''
asbasbasbag49
(g65
g51
NtRp531
(dp532
g54
(dp533
sg63
g447
sg56
(lp534
g49
(g70
g51
NtRp535
(dp536
g54
(dp537
g74
g75
ssg63
g531
sg56
(lp538
g370
asbag49
(g70
g51
NtRp539
(dp540
g54
(dp541
g81
g82
ssg63
g531
sg56
(lp542
S':'
asbag49
(g70
g51
NtRp543
(dp544
g54
(dp545
sg63
g531
sg56
(lp546
g49
(g50
g51
NtRp547
(dp548
g54
(dp549
g62
I3
ssg63
g543
sg56
(lp550
S''
asbasbasbag49
(g65
g51
NtRp551
(dp552
g54
(dp553
sg63
g447
sg56
(lp554
g49
(g70
g51
NtRp555
(dp556
g54
(dp557
g74
g75
ssg63
g551
sg56
(lp558
g391
asbag49
(g70
g51
NtRp559
(dp560
g54
(dp561
g81
g82
ssg63
g551
sg56
(lp562
S':'
asbag49
(g70
g51
NtRp563
(dp564
g54
(dp565
sg63
g551
sg56
(lp566
g49
(g50
g51
NtRp567
(dp568
g54
(dp569
g62
I3
ssg63
g563
sg56
(lp570
S''
asbasbasbag49
(g65
g51
NtRp571
(dp572
g54
(dp573
sg63
g447
sg56
(lp574
g49
(g70
g51
NtRp575
(dp576
g54
(dp577
g74
g75
ssg63
g571
sg56
(lp578
g412
asbag49
(g70
g51
NtRp579
(dp580
g54
(dp581
g81
g82
ssg63
g571
sg56
(lp582
S':'
asbag49
(g70
g51
NtRp583
(dp584
g54
(dp585
sg63
g571
sg56
(lp586
g49
(g50
g51
NtRp587
(dp588
g54
(dp589
g62
I3
ssg63
g583
sg56
(lp590
S''
asbasbasbasbasbasbasbag49
(g65
g51
NtRp591
(dp592
g54
(dp593
sg63
g248
sg56
(lp594
g49
(g70
g51
NtRp595
(dp596
g54
(dp597
g74
g75
ssg63
g591
sg56
(lp598
S'session_id_hellow'
p599
asbag49
(g70
g51
NtRp600
(dp601
g54
(dp602
g81
g82
ssg63
g591
sg56
(lp603
S':'
asbag49
(g70
g51
NtRp604
(dp605
g54
(dp606
sg63
g591
sg56
(lp607
g49
(g50
g51
NtRp608
(dp609
g54
(dp610
g62
I4
ssg63
g604
sg56
(lp611
S'127.0.0.1-f0c125e4-5d5e-4805-8c10-bdfc66367729'
p612
ag49
(g58
g51
NtRp613
(dp614
g54
(dp615
g62
I3
ssg63
Nsg56
(lp616
g49
(g65
g51
NtRp617
(dp618
g54
(dp619
sg63
g613
sg56
(lp620
g49
(g70
g51
NtRp621
(dp622
g54
(dp623
g74
g75
ssg63
g617
sg56
(lp624
g286
asbag49
(g70
g51
NtRp625
(dp626
g54
(dp627
g81
g82
ssg63
g617
sg56
(lp628
S':'
asbag49
(g70
g51
NtRp629
(dp630
g54
(dp631
sg63
g617
sg56
(lp632
g49
(g50
g51
NtRp633
(dp634
g54
(dp635
g62
I3
ssg63
g629
sg56
(lp636
S''
asbasbasbag49
(g65
g51
NtRp637
(dp638
g54
(dp639
sg63
g613
sg56
(lp640
g49
(g70
g51
NtRp641
(dp642
g54
(dp643
g74
g75
ssg63
g637
sg56
(lp644
g307
asbag49
(g70
g51
NtRp645
(dp646
g54
(dp647
g81
g82
ssg63
g637
sg56
(lp648
S':'
asbag49
(g70
g51
NtRp649
(dp650
g54
(dp651
sg63
g637
sg56
(lp652
g49
(g50
g51
NtRp653
(dp654
g54
(dp655
g62
I3
ssg63
g649
sg56
(lp656
S''
asbasbasbag49
(g65
g51
NtRp657
(dp658
g54
(dp659
sg63
g613
sg56
(lp660
g49
(g70
g51
NtRp661
(dp662
g54
(dp663
g74
g75
ssg63
g657
sg56
(lp664
g328
asbag49
(g70
g51
NtRp665
(dp666
g54
(dp667
g81
g82
ssg63
g657
sg56
(lp668
S':'
asbag49
(g70
g51
NtRp669
(dp670
g54
(dp671
sg63
g657
sg56
(lp672
g49
(g50
g51
NtRp673
(dp674
g54
(dp675
g62
I3
ssg63
g669
sg56
(lp676
S''
asbasbasbag49
(g65
g51
NtRp677
(dp678
g54
(dp679
sg63
g613
sg56
(lp680
g49
(g70
g51
NtRp681
(dp682
g54
(dp683
g74
g75
ssg63
g677
sg56
(lp684
g349
asbag49
(g70
g51
NtRp685
(dp686
g54
(dp687
g81
g82
ssg63
g677
sg56
(lp688
S':'
asbag49
(g70
g51
NtRp689
(dp690
g54
(dp691
sg63
g677
sg56
(lp692
g49
(g50
g51
NtRp693
(dp694
g54
(dp695
g62
I3
ssg63
g689
sg56
(lp696
S''
asbasbasbag49
(g65
g51
NtRp697
(dp698
g54
(dp699
sg63
g613
sg56
(lp700
g49
(g70
g51
NtRp701
(dp702
g54
(dp703
g74
g75
ssg63
g697
sg56
(lp704
g370
asbag49
(g70
g51
NtRp705
(dp706
g54
(dp707
g81
g82
ssg63
g697
sg56
(lp708
S':'
asbag49
(g70
g51
NtRp709
(dp710
g54
(dp711
sg63
g697
sg56
(lp712
g49
(g50
g51
NtRp713
(dp714
g54
(dp715
g62
I3
ssg63
g709
sg56
(lp716
S''
asbasbasbag49
(g65
g51
NtRp717
(dp718
g54
(dp719
sg63
g613
sg56
(lp720
g49
(g70
g51
NtRp721
(dp722
g54
(dp723
g74
g75
ssg63
g717
sg56
(lp724
g391
asbag49
(g70
g51
NtRp725
(dp726
g54
(dp727
g81
g82
ssg63
g717
sg56
(lp728
S':'
asbag49
(g70
g51
NtRp729
(dp730
g54
(dp731
sg63
g717
sg56
(lp732
g49
(g50
g51
NtRp733
(dp734
g54
(dp735
g62
I3
ssg63
g729
sg56
(lp736
S''
asbasbasbag49
(g65
g51
NtRp737
(dp738
g54
(dp739
sg63
g613
sg56
(lp740
g49
(g70
g51
NtRp741
(dp742
g54
(dp743
g74
g75
ssg63
g737
sg56
(lp744
g412
asbag49
(g70
g51
NtRp745
(dp746
g54
(dp747
g81
g82
ssg63
g737
sg56
(lp748
S':'
asbag49
(g70
g51
NtRp749
(dp750
g54
(dp751
sg63
g737
sg56
(lp752
g49
(g50
g51
NtRp753
(dp754
g54
(dp755
g62
I3
ssg63
g749
sg56
(lp756
S''
asbasbasbasbasbasbasbag49
(g65
g51
NtRp757
(dp758
g54
(dp759
sg63
g248
sg56
(lp760
g49
(g70
g51
NtRp761
(dp762
g54
(dp763
g74
g75
ssg63
g757
sg56
(lp764
S'session_id_slots'
p765
asbag49
(g70
g51
NtRp766
(dp767
g54
(dp768
g81
g82
ssg63
g757
sg56
(lp769
S':'
asbag49
(g70
g51
NtRp770
(dp771
g54
(dp772
sg63
g757
sg56
(lp773
g49
(g50
g51
NtRp774
(dp775
g54
(dp776
g62
I4
ssg63
g770
sg56
(lp777
S'127.0.0.1-c959d0b0-1e49-49e4-b6ce-60b17dcbfd08'
p778
ag49
(g58
g51
NtRp779
(dp780
g54
(dp781
g62
I3
ssg63
Nsg56
(lp782
g49
(g65
g51
NtRp783
(dp784
g54
(dp785
sg63
g779
sg56
(lp786
g49
(g70
g51
NtRp787
(dp788
g54
(dp789
g74
g75
ssg63
g783
sg56
(lp790
g286
asbag49
(g70
g51
NtRp791
(dp792
g54
(dp793
g81
g82
ssg63
g783
sg56
(lp794
S':'
asbag49
(g70
g51
NtRp795
(dp796
g54
(dp797
sg63
g783
sg56
(lp798
g49
(g50
g51
NtRp799
(dp800
g54
(dp801
g62
I3
ssg63
g795
sg56
(lp802
S''
asbasbasbag49
(g65
g51
NtRp803
(dp804
g54
(dp805
sg63
g779
sg56
(lp806
g49
(g70
g51
NtRp807
(dp808
g54
(dp809
g74
g75
ssg63
g803
sg56
(lp810
g307
asbag49
(g70
g51
NtRp811
(dp812
g54
(dp813
g81
g82
ssg63
g803
sg56
(lp814
S':'
asbag49
(g70
g51
NtRp815
(dp816
g54
(dp817
sg63
g803
sg56
(lp818
g49
(g50
g51
NtRp819
(dp820
g54
(dp821
g62
I3
ssg63
g815
sg56
(lp822
S''
asbasbasbag49
(g65
g51
NtRp823
(dp824
g54
(dp825
sg63
g779
sg56
(lp826
g49
(g70
g51
NtRp827
(dp828
g54
(dp829
g74
g75
ssg63
g823
sg56
(lp830
g328
asbag49
(g70
g51
NtRp831
(dp832
g54
(dp833
g81
g82
ssg63
g823
sg56
(lp834
S':'
asbag49
(g70
g51
NtRp835
(dp836
g54
(dp837
sg63
g823
sg56
(lp838
g49
(g50
g51
NtRp839
(dp840
g54
(dp841
g62
I3
ssg63
g835
sg56
(lp842
S''
asbasbasbag49
(g65
g51
NtRp843
(dp844
g54
(dp845
sg63
g779
sg56
(lp846
g49
(g70
g51
NtRp847
(dp848
g54
(dp849
g74
g75
ssg63
g843
sg56
(lp850
g349
asbag49
(g70
g51
NtRp851
(dp852
g54
(dp853
g81
g82
ssg63
g843
sg56
(lp854
S':'
asbag49
(g70
g51
NtRp855
(dp856
g54
(dp857
sg63
g843
sg56
(lp858
g49
(g50
g51
NtRp859
(dp860
g54
(dp861
g62
I3
ssg63
g855
sg56
(lp862
S''
asbasbasbag49
(g65
g51
NtRp863
(dp864
g54
(dp865
sg63
g779
sg56
(lp866
g49
(g70
g51
NtRp867
(dp868
g54
(dp869
g74
g75
ssg63
g863
sg56
(lp870
g370
asbag49
(g70
g51
NtRp871
(dp872
g54
(dp873
g81
g82
ssg63
g863
sg56
(lp874
S':'
asbag49
(g70
g51
NtRp875
(dp876
g54
(dp877
sg63
g863
sg56
(lp878
g49
(g50
g51
NtRp879
(dp880
g54
(dp881
g62
I3
ssg63
g875
sg56
(lp882
S''
asbasbasbag49
(g65
g51
NtRp883
(dp884
g54
(dp885
sg63
g779
sg56
(lp886
g49
(g70
g51
NtRp887
(dp888
g54
(dp889
g74
g75
ssg63
g883
sg56
(lp890
g391
asbag49
(g70
g51
NtRp891
(dp892
g54
(dp893
g81
g82
ssg63
g883
sg56
(lp894
S':'
asbag49
(g70
g51
NtRp895
(dp896
g54
(dp897
sg63
g883
sg56
(lp898
g49
(g50
g51
NtRp899
(dp900
g54
(dp901
g62
I3
ssg63
g895
sg56
(lp902
S''
asbasbasbag49
(g65
g51
NtRp903
(dp904
g54
(dp905
sg63
g779
sg56
(lp906
g49
(g70
g51
NtRp907
(dp908
g54
(dp909
g74
g75
ssg63
g903
sg56
(lp910
g412
asbag49
(g70
g51
NtRp911
(dp912
g54
(dp913
g81
g82
ssg63
g903
sg56
(lp914
S':'
asbag49
(g70
g51
NtRp915
(dp916
g54
(dp917
sg63
g903
sg56
(lp918
g49
(g50
g51
NtRp919
(dp920
g54
(dp921
g62
I3
ssg63
g915
sg56
(lp922
S''
asbasbasbasbasbasbasbag49
(g65
g51
NtRp923
(dp924
g54
(dp925
sg63
g248
sg56
(lp926
g49
(g70
g51
NtRp927
(dp928
g54
(dp929
g74
g75
ssg63
g923
sg56
(lp930
S'session_id_welcome'
p931
asbag49
(g70
g51
NtRp932
(dp933
g54
(dp934
g81
g82
ssg63
g923
sg56
(lp935
S':'
asbag49
(g70
g51
NtRp936
(dp937
g54
(dp938
sg63
g923
sg56
(lp939
g49
(g50
g51
NtRp940
(dp941
g54
(dp942
g62
I4
ssg63
g936
sg56
(lp943
S'127.0.0.1-245d6654-272e-49f5-968f-2cbd15b43359'
p944
ag49
(g58
g51
NtRp945
(dp946
g54
(dp947
g62
I3
ssg63
Nsg56
(lp948
g49
(g65
g51
NtRp949
(dp950
g54
(dp951
sg63
g945
sg56
(lp952
g49
(g70
g51
NtRp953
(dp954
g54
(dp955
g74
g75
ssg63
g949
sg56
(lp956
g286
asbag49
(g70
g51
NtRp957
(dp958
g54
(dp959
g81
g82
ssg63
g949
sg56
(lp960
S':'
asbag49
(g70
g51
NtRp961
(dp962
g54
(dp963
sg63
g949
sg56
(lp964
g49
(g50
g51
NtRp965
(dp966
g54
(dp967
g62
I3
ssg63
g961
sg56
(lp968
S''
asbasbasbag49
(g65
g51
NtRp969
(dp970
g54
(dp971
sg63
g945
sg56
(lp972
g49
(g70
g51
NtRp973
(dp974
g54
(dp975
g74
g75
ssg63
g969
sg56
(lp976
g307
asbag49
(g70
g51
NtRp977
(dp978
g54
(dp979
g81
g82
ssg63
g969
sg56
(lp980
S':'
asbag49
(g70
g51
NtRp981
(dp982
g54
(dp983
sg63
g969
sg56
(lp984
g49
(g50
g51
NtRp985
(dp986
g54
(dp987
g62
I3
ssg63
g981
sg56
(lp988
S''
asbasbasbag49
(g65
g51
NtRp989
(dp990
g54
(dp991
sg63
g945
sg56
(lp992
g49
(g70
g51
NtRp993
(dp994
g54
(dp995
g74
g75
ssg63
g989
sg56
(lp996
g328
asbag49
(g70
g51
NtRp997
(dp998
g54
(dp999
g81
g82
ssg63
g989
sg56
(lp1000
S':'
asbag49
(g70
g51
NtRp1001
(dp1002
g54
(dp1003
sg63
g989
sg56
(lp1004
g49
(g50
g51
NtRp1005
(dp1006
g54
(dp1007
g62
I3
ssg63
g1001
sg56
(lp1008
S''
asbasbasbag49
(g65
g51
NtRp1009
(dp1010
g54
(dp1011
sg63
g945
sg56
(lp1012
g49
(g70
g51
NtRp1013
(dp1014
g54
(dp1015
g74
g75
ssg63
g1009
sg56
(lp1016
g349
asbag49
(g70
g51
NtRp1017
(dp1018
g54
(dp1019
g81
g82
ssg63
g1009
sg56
(lp1020
S':'
asbag49
(g70
g51
NtRp1021
(dp1022
g54
(dp1023
sg63
g1009
sg56
(lp1024
g49
(g50
g51
NtRp1025
(dp1026
g54
(dp1027
g62
I3
ssg63
g1021
sg56
(lp1028
S''
asbasbasbag49
(g65
g51
NtRp1029
(dp1030
g54
(dp1031
sg63
g945
sg56
(lp1032
g49
(g70
g51
NtRp1033
(dp1034
g54
(dp1035
g74
g75
ssg63
g1029
sg56
(lp1036
g370
asbag49
(g70
g51
NtRp1037
(dp1038
g54
(dp1039
g81
g82
ssg63
g1029
sg56
(lp1040
S':'
asbag49
(g70
g51
NtRp1041
(dp1042
g54
(dp1043
sg63
g1029
sg56
(lp1044
g49
(g50
g51
NtRp1045
(dp1046
g54
(dp1047
g62
I3
ssg63
g1041
sg56
(lp1048
S''
asbasbasbag49
(g65
g51
NtRp1049
(dp1050
g54
(dp1051
sg63
g945
sg56
(lp1052
g49
(g70
g51
NtRp1053
(dp1054
g54
(dp1055
g74
g75
ssg63
g1049
sg56
(lp1056
g391
asbag49
(g70
g51
NtRp1057
(dp1058
g54
(dp1059
g81
g82
ssg63
g1049
sg56
(lp1060
S':'
asbag49
(g70
g51
NtRp1061
(dp1062
g54
(dp1063
sg63
g1049
sg56
(lp1064
g49
(g50
g51
NtRp1065
(dp1066
g54
(dp1067
g62
I3
ssg63
g1061
sg56
(lp1068
S''
asbasbasbag49
(g65
g51
NtRp1069
(dp1070
g54
(dp1071
sg63
g945
sg56
(lp1072
g49
(g70
g51
NtRp1073
(dp1074
g54
(dp1075
g74
g75
ssg63
g1069
sg56
(lp1076
g412
asbag49
(g70
g51
NtRp1077
(dp1078
g54
(dp1079
g81
g82
ssg63
g1069
sg56
(lp1080
S':'
asbag49
(g70
g51
NtRp1081
(dp1082
g54
(dp1083
sg63
g1069
sg56
(lp1084
g49
(g50
g51
NtRp1085
(dp1086
g54
(dp1087
g62
I3
ssg63
g1081
sg56
(lp1088
S''
asbasbasbasbasbasbasbasbasbasbasbag49
(g65
g51
NtRp1089
(dp1090
g54
(dp1091
sg63
g59
sg56
(lp1092
g49
(g70
g51
NtRp1093
(dp1094
g54
(dp1095
g74
g75
ssg63
g1089
sg56
(lp1096
S'env'
p1097
asbag49
(g70
g51
NtRp1098
(dp1099
g54
(dp1100
g81
g82
ssg63
g1089
sg56
(lp1101
S':'
asbag49
(g70
g51
NtRp1102
(dp1103
g54
(dp1104
sg63
g1089
sg56
(lp1105
g49
(g50
g51
NtRp1106
(dp1107
g54
(dp1108
g62
I5
ssg63
g1102
sg56
(lp1109
g49
(g58
g51
NtRp1110
(dp1111
g54
(dp1112
g62
I4
ssg63
Nsg56
(lp1113
g49
(g65
g51
NtRp1114
(dp1115
g54
(dp1116
sg63
g1110
sg56
(lp1117
g49
(g70
g51
NtRp1118
(dp1119
g54
(dp1120
g74
g75
ssg63
g1114
sg56
(lp1121
S'app_folders'
p1122
asbag49
(g70
g51
NtRp1123
(dp1124
g54
(dp1125
g81
g82
ssg63
g1114
sg56
(lp1126
S':'
asbag49
(g70
g51
NtRp1127
(dp1128
g54
(dp1129
sg63
g1114
sg56
(lp1130
g49
(g50
g51
NtRp1131
(dp1132
g54
(dp1133
g62
I4
ssg63
g1127
sg56
(lp1134
S"set(['/Users/zamechek/Downloads/web2py/web2py.app/Contents/Resources/applications/examples/', '/Users/zamechek/Downloads/web2py/web2py.app/Contents/Resources/applications/hellow/', '/Users/zamechek/Downloads/web2py/web2py.app/Contents/Resources/applications/admin/', '/Users/zamechek/Downloads/web2py/web2py.app/Contents/Resources/applications/slots/', '/Users/zamechek/Downloads/web2py/web2py.app/Contents/Resources/applications/welcome/'])"
p1135
asbasbasbag49
(g65
g51
NtRp1136
(dp1137
g54
(dp1138
sg63
g1110
sg56
(lp1139
g49
(g70
g51
NtRp1140
(dp1141
g54
(dp1142
g74
g75
ssg63
g1136
sg56
(lp1143
S'applications_parent'
p1144
asbag49
(g70
g51
NtRp1145
(dp1146
g54
(dp1147
g81
g82
ssg63
g1136
sg56
(lp1148
S':'
asbag49
(g70
g51
NtRp1149
(dp1150
g54
(dp1151
sg63
g1136
sg56
(lp1152
g49
(g50
g51
NtRp1153
(dp1154
g54
(dp1155
g62
I4
ssg63
g1149
sg56
(lp1156
S'/Users/zamechek/Downloads/web2py/web2py.app/Contents/Resources'
p1157
asbasbasbag49
(g65
g51
NtRp1158
(dp1159
g54
(dp1160
sg63
g1110
sg56
(lp1161
g49
(g70
g51
NtRp1162
(dp1163
g54
(dp1164
g74
g75
ssg63
g1158
sg56
(lp1165
S'cmd_args'
p1166
asbag49
(g70
g51
NtRp1167
(dp1168
g54
(dp1169
g81
g82
ssg63
g1158
sg56
(lp1170
S':'
asbag49
(g70
g51
NtRp1171
(dp1172
g54
(dp1173
sg63
g1158
sg56
(lp1174
g49
(g50
g51
NtRp1175
(dp1176
g54
(dp1177
g62
I4
ssg63
g1171
sg56
(lp1178
g49
(g58
g51
NtRp1179
(dp1180
g54
(dp1181
g62
I3
ssg63
Nsg56
(lp1182
sbasbasbasbag49
(g65
g51
NtRp1183
(dp1184
g54
(dp1185
sg63
g1110
sg56
(lp1186
g49
(g70
g51
NtRp1187
(dp1188
g54
(dp1189
g74
g75
ssg63
g1183
sg56
(lp1190
S'cmd_options'
p1191
asbag49
(g70
g51
NtRp1192
(dp1193
g54
(dp1194
g81
g82
ssg63
g1183
sg56
(lp1195
S':'
asbag49
(g70
g51
NtRp1196
(dp1197
g54
(dp1198
sg63
g1183
sg56
(lp1199
g49
(g50
g51
NtRp1200
(dp1201
g54
(dp1202
g62
I4
ssg63
g1196
sg56
(lp1203
S"<Values at 0x32c8f58: {'verbose': False, 'ip': '127.0.0.1', 'with_scheduler': False, 'ips': ['130.91.151.157'], 'shutdown_timeout': 5, 'taskbar': False, 'port': 8000, 'maxthreads': None, 'softcron': False, 'server_name': 'hntvlan531.0924.wlan.wireless-pennnet.upenn.edu', 'bpython': False, 'nogui': False, 'pid_filename': 'httpserver.pid', 'extcron': False, 'runcron': False, 'run_system_tests': False, 'test': None, 'folder': '/Users/zamechek/Downloads/web2py/web2py.app/Contents/Resources', 'config': '', 'import_models': False, 'winservice': '', 'shell': None, 'run': '', 'log_filename': 'httpserver.log', 'debuglevel': 30, 'args': [''], 'socket_timeout': 5, 'ssl_ca_certificate': None, 'scheduler': None, 'profiler_filename': None, 'ssl_private_key': '', 'scheduler_groups': None, 'password': '<ask>', 'request_queue_size': 5, 'ssl_certificate': '', 'cronjob': False, 'numthreads': None, 'quiet': False, 'interfaces': None, 'minthreads': None, 'timeout': 10, 'plain': False, 'nobanner': False}>"
p1204
asbasbasbag49
(g65
g51
NtRp1205
(dp1206
g54
(dp1207
sg63
g1110
sg56
(lp1208
g49
(g70
g51
NtRp1209
(dp1210
g54
(dp1211
g74
g75
ssg63
g1205
sg56
(lp1212
S'db_sessions'
p1213
asbag49
(g70
g51
NtRp1214
(dp1215
g54
(dp1216
g81
g82
ssg63
g1205
sg56
(lp1217
S':'
asbag49
(g70
g51
NtRp1218
(dp1219
g54
(dp1220
sg63
g1205
sg56
(lp1221
g49
(g50
g51
NtRp1222
(dp1223
g54
(dp1224
g62
I4
ssg63
g1218
sg56
(lp1225
S'set([])'
p1226
asbasbasbag49
(g65
g51
NtRp1227
(dp1228
g54
(dp1229
sg63
g1110
sg56
(lp1230
g49
(g70
g51
NtRp1231
(dp1232
g54
(dp1233
g74
g75
ssg63
g1227
sg56
(lp1234
S'debugging'
p1235
asbag49
(g70
g51
NtRp1236
(dp1237
g54
(dp1238
g81
g82
ssg63
g1227
sg56
(lp1239
S':'
asbag49
(g70
g51
NtRp1240
(dp1241
g54
(dp1242
sg63
g1227
sg56
(lp1243
g49
(g50
g51
NtRp1244
(dp1245
g54
(dp1246
g62
I4
ssg63
g1240
sg56
(lp1247
S'True'
p1248
asbasbasbag49
(g65
g51
NtRp1249
(dp1250
g54
(dp1251
sg63
g1110
sg56
(lp1252
g49
(g70
g51
NtRp1253
(dp1254
g54
(dp1255
g74
g75
ssg63
g1249
sg56
(lp1256
S'gluon_parent'
p1257
asbag49
(g70
g51
NtRp1258
(dp1259
g54
(dp1260
g81
g82
ssg63
g1249
sg56
(lp1261
S':'
asbag49
(g70
g51
NtRp1262
(dp1263
g54
(dp1264
sg63
g1249
sg56
(lp1265
g49
(g50
g51
NtRp1266
(dp1267
g54
(dp1268
g62
I4
ssg63
g1262
sg56
(lp1269
S'/Users/zamechek/Downloads/web2py/web2py.app/Contents/Resources'
p1270
asbasbasbag49
(g65
g51
NtRp1271
(dp1272
g54
(dp1273
sg63
g1110
sg56
(lp1274
g49
(g70
g51
NtRp1275
(dp1276
g54
(dp1277
g74
g75
ssg63
g1271
sg56
(lp1278
S'http_accept_charset'
p1279
asbag49
(g70
g51
NtRp1280
(dp1281
g54
(dp1282
g81
g82
ssg63
g1271
sg56
(lp1283
S':'
asbag49
(g70
g51
NtRp1284
(dp1285
g54
(dp1286
sg63
g1271
sg56
(lp1287
g49
(g50
g51
NtRp1288
(dp1289
g54
(dp1290
g62
I4
ssg63
g1284
sg56
(lp1291
S'ISO-8859-1,utf-8;q=0.7,*;q=0.3'
p1292
asbasbasbag49
(g65
g51
NtRp1293
(dp1294
g54
(dp1295
sg63
g1110
sg56
(lp1296
g49
(g70
g51
NtRp1297
(dp1298
g54
(dp1299
g74
g75
ssg63
g1293
sg56
(lp1300
S'http_accept_encoding'
p1301
asbag49
(g70
g51
NtRp1302
(dp1303
g54
(dp1304
g81
g82
ssg63
g1293
sg56
(lp1305
S':'
asbag49
(g70
g51
NtRp1306
(dp1307
g54
(dp1308
sg63
g1293
sg56
(lp1309
g49
(g50
g51
NtRp1310
(dp1311
g54
(dp1312
g62
I4
ssg63
g1306
sg56
(lp1313
S'gzip,deflate,sdch'
p1314
asbasbasbag49
(g65
g51
NtRp1315
(dp1316
g54
(dp1317
sg63
g1110
sg56
(lp1318
g49
(g70
g51
NtRp1319
(dp1320
g54
(dp1321
g74
g75
ssg63
g1315
sg56
(lp1322
S'http_accept_language'
p1323
asbag49
(g70
g51
NtRp1324
(dp1325
g54
(dp1326
g81
g82
ssg63
g1315
sg56
(lp1327
S':'
asbag49
(g70
g51
NtRp1328
(dp1329
g54
(dp1330
sg63
g1315
sg56
(lp1331
g49
(g50
g51
NtRp1332
(dp1333
g54
(dp1334
g62
I4
ssg63
g1328
sg56
(lp1335
S'en-US,en;q=0.8'
p1336
asbasbasbag49
(g65
g51
NtRp1337
(dp1338
g54
(dp1339
sg63
g1110
sg56
(lp1340
g49
(g70
g51
NtRp1341
(dp1342
g54
(dp1343
g74
g75
ssg63
g1337
sg56
(lp1344
S'http_connection'
p1345
asbag49
(g70
g51
NtRp1346
(dp1347
g54
(dp1348
g81
g82
ssg63
g1337
sg56
(lp1349
S':'
asbag49
(g70
g51
NtRp1350
(dp1351
g54
(dp1352
sg63
g1337
sg56
(lp1353
g49
(g50
g51
NtRp1354
(dp1355
g54
(dp1356
g62
I4
ssg63
g1350
sg56
(lp1357
S'keep-alive'
p1358
asbasbasbag49
(g65
g51
NtRp1359
(dp1360
g54
(dp1361
sg63
g1110
sg56
(lp1362
g49
(g70
g51
NtRp1363
(dp1364
g54
(dp1365
g74
g75
ssg63
g1359
sg56
(lp1366
S'http_cookie'
p1367
asbag49
(g70
g51
NtRp1368
(dp1369
g54
(dp1370
g81
g82
ssg63
g1359
sg56
(lp1371
S':'
asbag49
(g70
g51
NtRp1372
(dp1373
g54
(dp1374
sg63
g1359
sg56
(lp1375
g49
(g50
g51
NtRp1376
(dp1377
g54
(dp1378
g62
I4
ssg63
g1372
sg56
(lp1379
S'session_id_welcome=127.0.0.1-245d6654-272e-49f5-968f-2cbd15b43359; session_id_slots=127.0.0.1-c959d0b0-1e49-49e4-b6ce-60b17dcbfd08; session_data_examples="6590e93a92ae056071f3d5d23c5da718:8mcaYr3jD5OS9Hm5obiuGpOS1hqNCswQLIoFlRGZYdaR8FVZ84s0w9vMAEY5L6DK8gvTZcQowujTbbDj-ns3802lRCPwkkcburTr1lmHorC9hQtD5W0yZ89O_mdlKuHPlwEItXQ5_WAFut_RTkzpuyS0nQWmuEGxVuLk0DXc0ndh8WySsXoErgPnINq0aXqKzueVqcmNBWwB7tluAV8oSQyVVnjPajiXfmT2moAb3dPnaGC3yePavU4XAXO8FVarzcdAnZ4bnTo9uMJJvT2hL9oQVbtD8YY8yMHurMAdtIpf8wcGfXNr6SjFTzpMxYtAg1tv7XdXpUPETM1Ox80jE-qsgQd_Xr1FA049-xsoxpdA4EzMUoouiTJ995NWCOJNjo6VICpuSvfOJBlnOLd8aLxueLUtuyScbkLd2jOCQIsF2aV6hhIZWDXpJwlCKPkIckeaXaaHeE4EqTZR6N0JnA=="; session_id_hellow=127.0.0.1-f0c125e4-5d5e-4805-8c10-bdfc66367729; session_id_admin=127.0.0.1-66a1de5b-ba15-4b30-ba06-132c9e7969c1'
p1380
asbasbasbag49
(g65
g51
NtRp1381
(dp1382
g54
(dp1383
sg63
g1110
sg56
(lp1384
g49
(g70
g51
NtRp1385
(dp1386
g54
(dp1387
g74
g75
ssg63
g1381
sg56
(lp1388
S'http_host'
p1389
asbag49
(g70
g51
NtRp1390
(dp1391
g54
(dp1392
g81
g82
ssg63
g1381
sg56
(lp1393
S':'
asbag49
(g70
g51
NtRp1394
(dp1395
g54
(dp1396
sg63
g1381
sg56
(lp1397
g49
(g50
g51
NtRp1398
(dp1399
g54
(dp1400
g62
I4
ssg63
g1394
sg56
(lp1401
S'127.0.0.1:8887'
p1402
asbasbasbag49
(g65
g51
NtRp1403
(dp1404
g54
(dp1405
sg63
g1110
sg56
(lp1406
g49
(g70
g51
NtRp1407
(dp1408
g54
(dp1409
g74
g75
ssg63
g1403
sg56
(lp1410
S'http_referer'
p1411
asbag49
(g70
g51
NtRp1412
(dp1413
g54
(dp1414
g81
g82
ssg63
g1403
sg56
(lp1415
S':'
asbag49
(g70
g51
NtRp1416
(dp1417
g54
(dp1418
sg63
g1403
sg56
(lp1419
g49
(g50
g51
NtRp1420
(dp1421
g54
(dp1422
g62
I4
ssg63
g1416
sg56
(lp1423
S'http://127.0.0.1:8887/admin/default/design/hellow'
p1424
asbasbasbag49
(g65
g51
NtRp1425
(dp1426
g54
(dp1427
sg63
g1110
sg56
(lp1428
g49
(g70
g51
NtRp1429
(dp1430
g54
(dp1431
g74
g75
ssg63
g1425
sg56
(lp1432
S'http_user_agent'
p1433
asbag49
(g70
g51
NtRp1434
(dp1435
g54
(dp1436
g81
g82
ssg63
g1425
sg56
(lp1437
S':'
asbag49
(g70
g51
NtRp1438
(dp1439
g54
(dp1440
sg63
g1425
sg56
(lp1441
g49
(g50
g51
NtRp1442
(dp1443
g54
(dp1444
g62
I4
ssg63
g1438
sg56
(lp1445
S'Mozilla/5.0 (Macintosh; Intel Mac OS X 10_8_3) AppleWebKit/537.22 (KHTML, like Gecko) Chrome/25.0.1364.172 Safari/537.22'
p1446
asbasbasbag49
(g65
g51
NtRp1447
(dp1448
g54
(dp1449
sg63
g1110
sg56
(lp1450
g49
(g70
g51
NtRp1451
(dp1452
g54
(dp1453
g74
g75
ssg63
g1447
sg56
(lp1454
S'is_jython'
p1455
asbag49
(g70
g51
NtRp1456
(dp1457
g54
(dp1458
g81
g82
ssg63
g1447
sg56
(lp1459
S':'
asbag49
(g70
g51
NtRp1460
(dp1461
g54
(dp1462
sg63
g1447
sg56
(lp1463
g49
(g50
g51
NtRp1464
(dp1465
g54
(dp1466
g62
I4
ssg63
g1460
sg56
(lp1467
g92
asbasbasbag49
(g65
g51
NtRp1468
(dp1469
g54
(dp1470
sg63
g1110
sg56
(lp1471
g49
(g70
g51
NtRp1472
(dp1473
g54
(dp1474
g74
g75
ssg63
g1468
sg56
(lp1475
S'is_pypy'
p1476
asbag49
(g70
g51
NtRp1477
(dp1478
g54
(dp1479
g81
g82
ssg63
g1468
sg56
(lp1480
S':'
asbag49
(g70
g51
NtRp1481
(dp1482
g54
(dp1483
sg63
g1468
sg56
(lp1484
g49
(g50
g51
NtRp1485
(dp1486
g54
(dp1487
g62
I4
ssg63
g1481
sg56
(lp1488
g92
asbasbasbag49
(g65
g51
NtRp1489
(dp1490
g54
(dp1491
sg63
g1110
sg56
(lp1492
g49
(g70
g51
NtRp1493
(dp1494
g54
(dp1495
g74
g75
ssg63
g1489
sg56
(lp1496
S'local_hosts'
p1497
asbag49
(g70
g51
NtRp1498
(dp1499
g54
(dp1500
g81
g82
ssg63
g1489
sg56
(lp1501
S':'
asbag49
(g70
g51
NtRp1502
(dp1503
g54
(dp1504
sg63
g1489
sg56
(lp1505
g49
(g50
g51
NtRp1506
(dp1507
g54
(dp1508
g62
I4
ssg63
g1502
sg56
(lp1509
g49
(g58
g51
NtRp1510
(dp1511
g54
(dp1512
g62
I3
ssg63
Nsg56
(lp1513
g49
(g65
g51
NtRp1514
(dp1515
g54
(dp1516
sg63
g1510
sg56
(lp1517
g49
(g70
g51
NtRp1518
(dp1519
g54
(dp1520
sg63
g1514
sg56
(lp1521
g49
(g50
g51
NtRp1522
(dp1523
g54
(dp1524
g62
I3
ssg63
g1518
sg56
(lp1525
S'130.91.151.157'
p1526
asbasbasbag49
(g65
g51
NtRp1527
(dp1528
g54
(dp1529
sg63
g1510
sg56
(lp1530
g49
(g70
g51
NtRp1531
(dp1532
g54
(dp1533
sg63
g1527
sg56
(lp1534
g49
(g50
g51
NtRp1535
(dp1536
g54
(dp1537
g62
I3
ssg63
g1531
sg56
(lp1538
S'::1'
p1539
asbasbasbag49
(g65
g51
NtRp1540
(dp1541
g54
(dp1542
sg63
g1510
sg56
(lp1543
g49
(g70
g51
NtRp1544
(dp1545
g54
(dp1546
sg63
g1540
sg56
(lp1547
g49
(g50
g51
NtRp1548
(dp1549
g54
(dp1550
g62
I3
ssg63
g1544
sg56
(lp1551
S'::ffff:127.0.0.1'
p1552
asbasbasbag49
(g65
g51
NtRp1553
(dp1554
g54
(dp1555
sg63
g1510
sg56
(lp1556
g49
(g70
g51
NtRp1557
(dp1558
g54
(dp1559
sg63
g1553
sg56
(lp1560
g49
(g50
g51
NtRp1561
(dp1562
g54
(dp1563
g62
I3
ssg63
g1557
sg56
(lp1564
S'127.0.0.1'
p1565
asbasbasbag49
(g65
g51
NtRp1566
(dp1567
g54
(dp1568
sg63
g1510
sg56
(lp1569
g49
(g70
g51
NtRp1570
(dp1571
g54
(dp1572
sg63
g1566
sg56
(lp1573
g49
(g50
g51
NtRp1574
(dp1575
g54
(dp1576
g62
I3
ssg63
g1570
sg56
(lp1577
S'hntvlan531.0924.wlan.wireless-pennnet.upenn.edu'
p1578
asbasbasbasbasbasbasbag49
(g65
g51
NtRp1579
(dp1580
g54
(dp1581
sg63
g1110
sg56
(lp1582
g49
(g70
g51
NtRp1583
(dp1584
g54
(dp1585
g74
g75
ssg63
g1579
sg56
(lp1586
S'path_info'
p1587
asbag49
(g70
g51
NtRp1588
(dp1589
g54
(dp1590
g81
g82
ssg63
g1579
sg56
(lp1591
S':'
asbag49
(g70
g51
NtRp1592
(dp1593
g54
(dp1594
sg63
g1579
sg56
(lp1595
g49
(g50
g51
NtRp1596
(dp1597
g54
(dp1598
g62
I4
ssg63
g1592
sg56
(lp1599
S'/hellow/slot/show'
p1600
asbasbasbag49
(g65
g51
NtRp1601
(dp1602
g54
(dp1603
sg63
g1110
sg56
(lp1604
g49
(g70
g51
NtRp1605
(dp1606
g54
(dp1607
g74
g75
ssg63
g1601
sg56
(lp1608
S'query_string'
p1609
asbag49
(g70
g51
NtRp1610
(dp1611
g54
(dp1612
g81
g82
ssg63
g1601
sg56
(lp1613
S':'
asbag49
(g70
g51
NtRp1614
(dp1615
g54
(dp1616
sg63
g1601
sg56
(lp1617
g49
(g50
g51
NtRp1618
(dp1619
g54
(dp1620
g62
I4
ssg63
g1614
sg56
(lp1621
S''
asbasbasbag49
(g65
g51
NtRp1622
(dp1623
g54
(dp1624
sg63
g1110
sg56
(lp1625
g49
(g70
g51
NtRp1626
(dp1627
g54
(dp1628
g74
g75
ssg63
g1622
sg56
(lp1629
S'remote_addr'
p1630
asbag49
(g70
g51
NtRp1631
(dp1632
g54
(dp1633
g81
g82
ssg63
g1622
sg56
(lp1634
S':'
asbag49
(g70
g51
NtRp1635
(dp1636
g54
(dp1637
sg63
g1622
sg56
(lp1638
g49
(g50
g51
NtRp1639
(dp1640
g54
(dp1641
g62
I4
ssg63
g1635
sg56
(lp1642
g204
asbasbasbag49
(g65
g51
NtRp1643
(dp1644
g54
(dp1645
sg63
g1110
sg56
(lp1646
g49
(g70
g51
NtRp1647
(dp1648
g54
(dp1649
g74
g75
ssg63
g1643
sg56
(lp1650
S'remote_port'
p1651
asbag49
(g70
g51
NtRp1652
(dp1653
g54
(dp1654
g81
g82
ssg63
g1643
sg56
(lp1655
S':'
asbag49
(g70
g51
NtRp1656
(dp1657
g54
(dp1658
sg63
g1643
sg56
(lp1659
g49
(g50
g51
NtRp1660
(dp1661
g54
(dp1662
g62
I4
ssg63
g1656
sg56
(lp1663
S'64648'
p1664
asbasbasbag49
(g65
g51
NtRp1665
(dp1666
g54
(dp1667
sg63
g1110
sg56
(lp1668
g49
(g70
g51
NtRp1669
(dp1670
g54
(dp1671
g74
g75
ssg63
g1665
sg56
(lp1672
S'request_method'
p1673
asbag49
(g70
g51
NtRp1674
(dp1675
g54
(dp1676
g81
g82
ssg63
g1665
sg56
(lp1677
S':'
asbag49
(g70
g51
NtRp1678
(dp1679
g54
(dp1680
sg63
g1665
sg56
(lp1681
g49
(g50
g51
NtRp1682
(dp1683
g54
(dp1684
g62
I4
ssg63
g1678
sg56
(lp1685
S'GET'
p1686
asbasbasbag49
(g65
g51
NtRp1687
(dp1688
g54
(dp1689
sg63
g1110
sg56
(lp1690
g49
(g70
g51
NtRp1691
(dp1692
g54
(dp1693
g74
g75
ssg63
g1687
sg56
(lp1694
S'request_uri'
p1695
asbag49
(g70
g51
NtRp1696
(dp1697
g54
(dp1698
g81
g82
ssg63
g1687
sg56
(lp1699
S':'
asbag49
(g70
g51
NtRp1700
(dp1701
g54
(dp1702
sg63
g1687
sg56
(lp1703
g49
(g50
g51
NtRp1704
(dp1705
g54
(dp1706
g62
I4
ssg63
g1700
sg56
(lp1707
g1600
asbasbasbag49
(g65
g51
NtRp1708
(dp1709
g54
(dp1710
sg63
g1110
sg56
(lp1711
g49
(g70
g51
NtRp1712
(dp1713
g54
(dp1714
g74
g75
ssg63
g1708
sg56
(lp1715
S'script_name'
p1716
asbag49
(g70
g51
NtRp1717
(dp1718
g54
(dp1719
g81
g82
ssg63
g1708
sg56
(lp1720
S':'
asbag49
(g70
g51
NtRp1721
(dp1722
g54
(dp1723
sg63
g1708
sg56
(lp1724
g49
(g50
g51
NtRp1725
(dp1726
g54
(dp1727
g62
I4
ssg63
g1721
sg56
(lp1728
S''
asbasbasbag49
(g65
g51
NtRp1729
(dp1730
g54
(dp1731
sg63
g1110
sg56
(lp1732
g49
(g70
g51
NtRp1733
(dp1734
g54
(dp1735
g74
g75
ssg63
g1729
sg56
(lp1736
S'server_name'
p1737
asbag49
(g70
g51
NtRp1738
(dp1739
g54
(dp1740
g81
g82
ssg63
g1729
sg56
(lp1741
S':'
asbag49
(g70
g51
NtRp1742
(dp1743
g54
(dp1744
sg63
g1729
sg56
(lp1745
g49
(g50
g51
NtRp1746
(dp1747
g54
(dp1748
g62
I4
ssg63
g1742
sg56
(lp1749
S'hntvlan531.0924.wlan.wireless-pennnet.upenn.edu'
p1750
asbasbasbag49
(g65
g51
NtRp1751
(dp1752
g54
(dp1753
sg63
g1110
sg56
(lp1754
g49
(g70
g51
NtRp1755
(dp1756
g54
(dp1757
g74
g75
ssg63
g1751
sg56
(lp1758
S'server_port'
p1759
asbag49
(g70
g51
NtRp1760
(dp1761
g54
(dp1762
g81
g82
ssg63
g1751
sg56
(lp1763
S':'
asbag49
(g70
g51
NtRp1764
(dp1765
g54
(dp1766
sg63
g1751
sg56
(lp1767
g49
(g50
g51
NtRp1768
(dp1769
g54
(dp1770
g62
I4
ssg63
g1764
sg56
(lp1771
S'8887'
p1772
asbasbasbag49
(g65
g51
NtRp1773
(dp1774
g54
(dp1775
sg63
g1110
sg56
(lp1776
g49
(g70
g51
NtRp1777
(dp1778
g54
(dp1779
g74
g75
ssg63
g1773
sg56
(lp1780
S'server_protocol'
p1781
asbag49
(g70
g51
NtRp1782
(dp1783
g54
(dp1784
g81
g82
ssg63
g1773
sg56
(lp1785
S':'
asbag49
(g70
g51
NtRp1786
(dp1787
g54
(dp1788
sg63
g1773
sg56
(lp1789
g49
(g50
g51
NtRp1790
(dp1791
g54
(dp1792
g62
I4
ssg63
g1786
sg56
(lp1793
S'HTTP/1.1'
p1794
asbasbasbag49
(g65
g51
NtRp1795
(dp1796
g54
(dp1797
sg63
g1110
sg56
(lp1798
g49
(g70
g51
NtRp1799
(dp1800
g54
(dp1801
g74
g75
ssg63
g1795
sg56
(lp1802
S'server_software'
p1803
asbag49
(g70
g51
NtRp1804
(dp1805
g54
(dp1806
g81
g82
ssg63
g1795
sg56
(lp1807
S':'
asbag49
(g70
g51
NtRp1808
(dp1809
g54
(dp1810
sg63
g1795
sg56
(lp1811
g49
(g50
g51
NtRp1812
(dp1813
g54
(dp1814
g62
I4
ssg63
g1808
sg56
(lp1815
S'Rocket 1.2.6'
p1816
asbasbasbag49
(g65
g51
NtRp1817
(dp1818
g54
(dp1819
sg63
g1110
sg56
(lp1820
g49
(g70
g51
NtRp1821
(dp1822
g54
(dp1823
g74
g75
ssg63
g1817
sg56
(lp1824
S'web2py_path'
p1825
asbag49
(g70
g51
NtRp1826
(dp1827
g54
(dp1828
g81
g82
ssg63
g1817
sg56
(lp1829
S':'
asbag49
(g70
g51
NtRp1830
(dp1831
g54
(dp1832
sg63
g1817
sg56
(lp1833
g49
(g50
g51
NtRp1834
(dp1835
g54
(dp1836
g62
I4
ssg63
g1830
sg56
(lp1837
g1157
asbasbasbag49
(g65
g51
NtRp1838
(dp1839
g54
(dp1840
sg63
g1110
sg56
(lp1841
g49
(g70
g51
NtRp1842
(dp1843
g54
(dp1844
g74
g75
ssg63
g1838
sg56
(lp1845
S'web2py_version'
p1846
asbag49
(g70
g51
NtRp1847
(dp1848
g54
(dp1849
g81
g82
ssg63
g1838
sg56
(lp1850
S':'
asbag49
(g70
g51
NtRp1851
(dp1852
g54
(dp1853
sg63
g1838
sg56
(lp1854
g49
(g50
g51
NtRp1855
(dp1856
g54
(dp1857
g62
I4
ssg63
g1851
sg56
(lp1858
g49
(g58
g51
NtRp1859
(dp1860
g54
(dp1861
g62
I3
ssg63
Nsg56
(lp1862
g49
(g65
g51
NtRp1863
(dp1864
g54
(dp1865
sg63
g1859
sg56
(lp1866
g49
(g70
g51
NtRp1867
(dp1868
g54
(dp1869
sg63
g1863
sg56
(lp1870
g49
(g50
g51
NtRp1871
(dp1872
g54
(dp1873
g62
I3
ssg63
g1867
sg56
(lp1874
S'2'
asbasbasbag49
(g65
g51
NtRp1875
(dp1876
g54
(dp1877
sg63
g1859
sg56
(lp1878
g49
(g70
g51
NtRp1879
(dp1880
g54
(dp1881
sg63
g1875
sg56
(lp1882
g49
(g50
g51
NtRp1883
(dp1884
g54
(dp1885
g62
I3
ssg63
g1879
sg56
(lp1886
S'4'
asbasbasbag49
(g65
g51
NtRp1887
(dp1888
g54
(dp1889
sg63
g1859
sg56
(lp1890
g49
(g70
g51
NtRp1891
(dp1892
g54
(dp1893
sg63
g1887
sg56
(lp1894
g49
(g50
g51
NtRp1895
(dp1896
g54
(dp1897
g62
I3
ssg63
g1891
sg56
(lp1898
S'5'
asbasbasbag49
(g65
g51
NtRp1899
(dp1900
g54
(dp1901
sg63
g1859
sg56
(lp1902
g49
(g70
g51
NtRp1903
(dp1904
g54
(dp1905
sg63
g1899
sg56
(lp1906
g49
(g50
g51
NtRp1907
(dp1908
g54
(dp1909
g62
I3
ssg63
g1903
sg56
(lp1910
S'stable'
p1911
asbasbasbag49
(g65
g51
NtRp1912
(dp1913
g54
(dp1914
sg63
g1859
sg56
(lp1915
g49
(g70
g51
NtRp1916
(dp1917
g54
(dp1918
sg63
g1912
sg56
(lp1919
g49
(g50
g51
NtRp1920
(dp1921
g54
(dp1922
g62
I3
ssg63
g1916
sg56
(lp1923
S'datetime.datetime(2013, 3, 18, 22, 46, 22)'
p1924
asbasbasbasbasbasbasbag49
(g65
g51
NtRp1925
(dp1926
g54
(dp1927
sg63
g1110
sg56
(lp1928
g49
(g70
g51
NtRp1929
(dp1930
g54
(dp1931
g74
g75
ssg63
g1925
sg56
(lp1932
S'wsgi_errors'
p1933
asbag49
(g70
g51
NtRp1934
(dp1935
g54
(dp1936
g81
g82
ssg63
g1925
sg56
(lp1937
S':'
asbag49
(g70
g51
NtRp1938
(dp1939
g54
(dp1940
sg63
g1925
sg56
(lp1941
g49
(g50
g51
NtRp1942
(dp1943
g54
(dp1944
g62
I4
ssg63
g1938
sg56
(lp1945
S"<open file '<stderr>', mode 'w' at 0x540b0>"
p1946
asbasbasbag49
(g65
g51
NtRp1947
(dp1948
g54
(dp1949
sg63
g1110
sg56
(lp1950
g49
(g70
g51
NtRp1951
(dp1952
g54
(dp1953
g74
g75
ssg63
g1947
sg56
(lp1954
S'wsgi_file_wrapper'
p1955
asbag49
(g70
g51
NtRp1956
(dp1957
g54
(dp1958
g81
g82
ssg63
g1947
sg56
(lp1959
S':'
asbag49
(g70
g51
NtRp1960
(dp1961
g54
(dp1962
sg63
g1947
sg56
(lp1963
g49
(g50
g51
NtRp1964
(dp1965
g54
(dp1966
g62
I4
ssg63
g1960
sg56
(lp1967
S'<class wsgiref.util.FileWrapper at 0x329d060>'
p1968
asbasbasbag49
(g65
g51
NtRp1969
(dp1970
g54
(dp1971
sg63
g1110
sg56
(lp1972
g49
(g70
g51
NtRp1973
(dp1974
g54
(dp1975
g74
g75
ssg63
g1969
sg56
(lp1976
S'wsgi_input'
p1977
asbag49
(g70
g51
NtRp1978
(dp1979
g54
(dp1980
g81
g82
ssg63
g1969
sg56
(lp1981
S':'
asbag49
(g70
g51
NtRp1982
(dp1983
g54
(dp1984
sg63
g1969
sg56
(lp1985
g49
(g50
g51
NtRp1986
(dp1987
g54
(dp1988
g62
I4
ssg63
g1982
sg56
(lp1989
S'<socket._fileobject object at 0xa4b7af0>'
p1990
asbasbasbag49
(g65
g51
NtRp1991
(dp1992
g54
(dp1993
sg63
g1110
sg56
(lp1994
g49
(g70
g51
NtRp1995
(dp1996
g54
(dp1997
g74
g75
ssg63
g1991
sg56
(lp1998
S'wsgi_multiprocess'
p1999
asbag49
(g70
g51
NtRp2000
(dp2001
g54
(dp2002
g81
g82
ssg63
g1991
sg56
(lp2003
S':'
asbag49
(g70
g51
NtRp2004
(dp2005
g54
(dp2006
sg63
g1991
sg56
(lp2007
g49
(g50
g51
NtRp2008
(dp2009
g54
(dp2010
g62
I4
ssg63
g2004
sg56
(lp2011
g92
asbasbasbag49
(g65
g51
NtRp2012
(dp2013
g54
(dp2014
sg63
g1110
sg56
(lp2015
g49
(g70
g51
NtRp2016
(dp2017
g54
(dp2018
g74
g75
ssg63
g2012
sg56
(lp2019
S'wsgi_multithread'
p2020
asbag49
(g70
g51
NtRp2021
(dp2022
g54
(dp2023
g81
g82
ssg63
g2012
sg56
(lp2024
S':'
asbag49
(g70
g51
NtRp2025
(dp2026
g54
(dp2027
sg63
g2012
sg56
(lp2028
g49
(g50
g51
NtRp2029
(dp2030
g54
(dp2031
g62
I4
ssg63
g2025
sg56
(lp2032
g1248
asbasbasbag49
(g65
g51
NtRp2033
(dp2034
g54
(dp2035
sg63
g1110
sg56
(lp2036
g49
(g70
g51
NtRp2037
(dp2038
g54
(dp2039
g74
g75
ssg63
g2033
sg56
(lp2040
S'wsgi_run_once'
p2041
asbag49
(g70
g51
NtRp2042
(dp2043
g54
(dp2044
g81
g82
ssg63
g2033
sg56
(lp2045
S':'
asbag49
(g70
g51
NtRp2046
(dp2047
g54
(dp2048
sg63
g2033
sg56
(lp2049
g49
(g50
g51
NtRp2050
(dp2051
g54
(dp2052
g62
I4
ssg63
g2046
sg56
(lp2053
g92
asbasbasbag49
(g65
g51
NtRp2054
(dp2055
g54
(dp2056
sg63
g1110
sg56
(lp2057
g49
(g70
g51
NtRp2058
(dp2059
g54
(dp2060
g74
g75
ssg63
g2054
sg56
(lp2061
S'wsgi_url_scheme'
p2062
asbag49
(g70
g51
NtRp2063
(dp2064
g54
(dp2065
g81
g82
ssg63
g2054
sg56
(lp2066
S':'
asbag49
(g70
g51
NtRp2067
(dp2068
g54
(dp2069
sg63
g2054
sg56
(lp2070
g49
(g50
g51
NtRp2071
(dp2072
g54
(dp2073
g62
I4
ssg63
g2067
sg56
(lp2074
S'http'
p2075
asbasbasbag49
(g65
g51
NtRp2076
(dp2077
g54
(dp2078
sg63
g1110
sg56
(lp2079
g49
(g70
g51
NtRp2080
(dp2081
g54
(dp2082
g74
g75
ssg63
g2076
sg56
(lp2083
S'wsgi_version'
p2084
asbag49
(g70
g51
NtRp2085
(dp2086
g54
(dp2087
g81
g82
ssg63
g2076
sg56
(lp2088
S':'
asbag49
(g70
g51
NtRp2089
(dp2090
g54
(dp2091
sg63
g2076
sg56
(lp2092
g49
(g50
g51
NtRp2093
(dp2094
g54
(dp2095
g62
I4
ssg63
g2089
sg56
(lp2096
g49
(g58
g51
NtRp2097
(dp2098
g54
(dp2099
g62
I3
ssg63
Nsg56
(lp2100
g49
(g65
g51
NtRp2101
(dp2102
g54
(dp2103
sg63
g2097
sg56
(lp2104
g49
(g70
g51
NtRp2105
(dp2106
g54
(dp2107
sg63
g2101
sg56
(lp2108
g49
(g50
g51
NtRp2109
(dp2110
g54
(dp2111
g62
I3
ssg63
g2105
sg56
(lp2112
S'1'
asbasbasbag49
(g65
g51
NtRp2113
(dp2114
g54
(dp2115
sg63
g2097
sg56
(lp2116
g49
(g70
g51
NtRp2117
(dp2118
g54
(dp2119
sg63
g2113
sg56
(lp2120
g49
(g50
g51
NtRp2121
(dp2122
g54
(dp2123
g62
I3
ssg63
g2117
sg56
(lp2124
S'0'
asbasbasbasbasbasbasbasbasbasbasbag49
(g65
g51
NtRp2125
(dp2126
g54
(dp2127
sg63
g59
sg56
(lp2128
g49
(g70
g51
NtRp2129
(dp2130
g54
(dp2131
g74
g75
ssg63
g2125
sg56
(lp2132
S'extension'
p2133
asbag49
(g70
g51
NtRp2134
(dp2135
g54
(dp2136
g81
g82
ssg63
g2125
sg56
(lp2137
S':'
asbag49
(g70
g51
NtRp2138
(dp2139
g54
(dp2140
sg63
g2125
sg56
(lp2141
g49
(g50
g51
NtRp2142
(dp2143
g54
(dp2144
g62
I5
ssg63
g2138
sg56
(lp2145
S'html'
p2146
asbasbasbag49
(g65
g51
NtRp2147
(dp2148
g54
(dp2149
sg63
g59
sg56
(lp2150
g49
(g70
g51
NtRp2151
(dp2152
g54
(dp2153
g74
g75
ssg63
g2147
sg56
(lp2154
S'folder'
p2155
asbag49
(g70
g51
NtRp2156
(dp2157
g54
(dp2158
g81
g82
ssg63
g2147
sg56
(lp2159
S':'
asbag49
(g70
g51
NtRp2160
(dp2161
g54
(dp2162
sg63
g2147
sg56
(lp2163
g49
(g50
g51
NtRp2164
(dp2165
g54
(dp2166
g62
I5
ssg63
g2160
sg56
(lp2167
S'/Users/zamechek/Downloads/web2py/web2py.app/Contents/Resources/applications/hellow/'
p2168
asbasbasbag49
(g65
g51
NtRp2169
(dp2170
g54
(dp2171
sg63
g59
sg56
(lp2172
g49
(g70
g51
NtRp2173
(dp2174
g54
(dp2175
g74
g75
ssg63
g2169
sg56
(lp2176
S'function'
p2177
asbag49
(g70
g51
NtRp2178
(dp2179
g54
(dp2180
g81
g82
ssg63
g2169
sg56
(lp2181
S':'
asbag49
(g70
g51
NtRp2182
(dp2183
g54
(dp2184
sg63
g2169
sg56
(lp2185
g49
(g50
g51
NtRp2186
(dp2187
g54
(dp2188
g62
I5
ssg63
g2182
sg56
(lp2189
S'show'
p2190
asbasbasbag49
(g65
g51
NtRp2191
(dp2192
g54
(dp2193
sg63
g59
sg56
(lp2194
g49
(g70
g51
NtRp2195
(dp2196
g54
(dp2197
g74
g75
ssg63
g2191
sg56
(lp2198
S'get_vars'
p2199
asbag49
(g70
g51
NtRp2200
(dp2201
g54
(dp2202
g81
g82
ssg63
g2191
sg56
(lp2203
S':'
asbag49
(g70
g51
NtRp2204
(dp2205
g54
(dp2206
sg63
g2191
sg56
(lp2207
g49
(g50
g51
NtRp2208
(dp2209
g54
(dp2210
g62
I5
ssg63
g2204
sg56
(lp2211
g49
(g58
g51
NtRp2212
(dp2213
g54
(dp2214
g62
I4
ssg63
Nsg56
(lp2215
sbasbasbasbag49
(g65
g51
NtRp2216
(dp2217
g54
(dp2218
sg63
g59
sg56
(lp2219
g49
(g70
g51
NtRp2220
(dp2221
g54
(dp2222
g74
g75
ssg63
g2216
sg56
(lp2223
S'global_settings'
p2224
asbag49
(g70
g51
NtRp2225
(dp2226
g54
(dp2227
g81
g82
ssg63
g2216
sg56
(lp2228
S':'
asbag49
(g70
g51
NtRp2229
(dp2230
g54
(dp2231
sg63
g2216
sg56
(lp2232
g49
(g50
g51
NtRp2233
(dp2234
g54
(dp2235
g62
I5
ssg63
g2229
sg56
(lp2236
g49
(g58
g51
NtRp2237
(dp2238
g54
(dp2239
g62
I4
ssg63
Nsg56
(lp2240
g49
(g65
g51
NtRp2241
(dp2242
g54
(dp2243
sg63
g2237
sg56
(lp2244
g49
(g70
g51
NtRp2245
(dp2246
g54
(dp2247
g74
g75
ssg63
g2241
sg56
(lp2248
g1122
asbag49
(g70
g51
NtRp2249
(dp2250
g54
(dp2251
g81
g82
ssg63
g2241
sg56
(lp2252
S':'
asbag49
(g70
g51
NtRp2253
(dp2254
g54
(dp2255
sg63
g2241
sg56
(lp2256
g49
(g50
g51
NtRp2257
(dp2258
g54
(dp2259
g62
I4
ssg63
g2253
sg56
(lp2260
S"set(['/Users/zamechek/Downloads/web2py/web2py.app/Contents/Resources/applications/examples/', '/Users/zamechek/Downloads/web2py/web2py.app/Contents/Resources/applications/hellow/', '/Users/zamechek/Downloads/web2py/web2py.app/Contents/Resources/applications/admin/', '/Users/zamechek/Downloads/web2py/web2py.app/Contents/Resources/applications/slots/', '/Users/zamechek/Downloads/web2py/web2py.app/Contents/Resources/applications/welcome/'])"
p2261
asbasbasbag49
(g65
g51
NtRp2262
(dp2263
g54
(dp2264
sg63
g2237
sg56
(lp2265
g49
(g70
g51
NtRp2266
(dp2267
g54
(dp2268
g74
g75
ssg63
g2262
sg56
(lp2269
g1144
asbag49
(g70
g51
NtRp2270
(dp2271
g54
(dp2272
g81
g82
ssg63
g2262
sg56
(lp2273
S':'
asbag49
(g70
g51
NtRp2274
(dp2275
g54
(dp2276
sg63
g2262
sg56
(lp2277
g49
(g50
g51
NtRp2278
(dp2279
g54
(dp2280
g62
I4
ssg63
g2274
sg56
(lp2281
g1157
asbasbasbag49
(g65
g51
NtRp2282
(dp2283
g54
(dp2284
sg63
g2237
sg56
(lp2285
g49
(g70
g51
NtRp2286
(dp2287
g54
(dp2288
g74
g75
ssg63
g2282
sg56
(lp2289
g1166
asbag49
(g70
g51
NtRp2290
(dp2291
g54
(dp2292
g81
g82
ssg63
g2282
sg56
(lp2293
S':'
asbag49
(g70
g51
NtRp2294
(dp2295
g54
(dp2296
sg63
g2282
sg56
(lp2297
g49
(g50
g51
NtRp2298
(dp2299
g54
(dp2300
g62
I4
ssg63
g2294
sg56
(lp2301
g49
(g58
g51
NtRp2302
(dp2303
g54
(dp2304
g62
I3
ssg63
Nsg56
(lp2305
sbasbasbasbag49
(g65
g51
NtRp2306
(dp2307
g54
(dp2308
sg63
g2237
sg56
(lp2309
g49
(g70
g51
NtRp2310
(dp2311
g54
(dp2312
g74
g75
ssg63
g2306
sg56
(lp2313
g1191
asbag49
(g70
g51
NtRp2314
(dp2315
g54
(dp2316
g81
g82
ssg63
g2306
sg56
(lp2317
S':'
asbag49
(g70
g51
NtRp2318
(dp2319
g54
(dp2320
sg63
g2306
sg56
(lp2321
g49
(g50
g51
NtRp2322
(dp2323
g54
(dp2324
g62
I4
ssg63
g2318
sg56
(lp2325
S"<Values at 0x32c8f58: {'verbose': False, 'ip': '127.0.0.1', 'with_scheduler': False, 'ips': ['130.91.151.157'], 'shutdown_timeout': 5, 'taskbar': False, 'port': 8000, 'maxthreads': None, 'softcron': False, 'server_name': 'hntvlan531.0924.wlan.wireless-pennnet.upenn.edu', 'bpython': False, 'nogui': False, 'pid_filename': 'httpserver.pid', 'extcron': False, 'runcron': False, 'run_system_tests': False, 'test': None, 'folder': '/Users/zamechek/Downloads/web2py/web2py.app/Contents/Resources', 'config': '', 'import_models': False, 'winservice': '', 'shell': None, 'run': '', 'log_filename': 'httpserver.log', 'debuglevel': 30, 'args': [''], 'socket_timeout': 5, 'ssl_ca_certificate': None, 'scheduler': None, 'profiler_filename': None, 'ssl_private_key': '', 'scheduler_groups': None, 'password': '<ask>', 'request_queue_size': 5, 'ssl_certificate': '', 'cronjob': False, 'numthreads': None, 'quiet': False, 'interfaces': None, 'minthreads': None, 'timeout': 10, 'plain': False, 'nobanner': False}>"
p2326
asbasbasbag49
(g65
g51
NtRp2327
(dp2328
g54
(dp2329
sg63
g2237
sg56
(lp2330
g49
(g70
g51
NtRp2331
(dp2332
g54
(dp2333
g74
g75
ssg63
g2327
sg56
(lp2334
g1213
asbag49
(g70
g51
NtRp2335
(dp2336
g54
(dp2337
g81
g82
ssg63
g2327
sg56
(lp2338
S':'
asbag49
(g70
g51
NtRp2339
(dp2340
g54
(dp2341
sg63
g2327
sg56
(lp2342
g49
(g50
g51
NtRp2343
(dp2344
g54
(dp2345
g62
I4
ssg63
g2339
sg56
(lp2346
S'set([])'
p2347
asbasbasbag49
(g65
g51
NtRp2348
(dp2349
g54
(dp2350
sg63
g2237
sg56
(lp2351
g49
(g70
g51
NtRp2352
(dp2353
g54
(dp2354
g74
g75
ssg63
g2348
sg56
(lp2355
g1235
asbag49
(g70
g51
NtRp2356
(dp2357
g54
(dp2358
g81
g82
ssg63
g2348
sg56
(lp2359
S':'
asbag49
(g70
g51
NtRp2360
(dp2361
g54
(dp2362
sg63
g2348
sg56
(lp2363
g49
(g50
g51
NtRp2364
(dp2365
g54
(dp2366
g62
I4
ssg63
g2360
sg56
(lp2367
g1248
asbasbasbag49
(g65
g51
NtRp2368
(dp2369
g54
(dp2370
sg63
g2237
sg56
(lp2371
g49
(g70
g51
NtRp2372
(dp2373
g54
(dp2374
g74
g75
ssg63
g2368
sg56
(lp2375
g1257
asbag49
(g70
g51
NtRp2376
(dp2377
g54
(dp2378
g81
g82
ssg63
g2368
sg56
(lp2379
S':'
asbag49
(g70
g51
NtRp2380
(dp2381
g54
(dp2382
sg63
g2368
sg56
(lp2383
g49
(g50
g51
NtRp2384
(dp2385
g54
(dp2386
g62
I4
ssg63
g2380
sg56
(lp2387
g1270
asbasbasbag49
(g65
g51
NtRp2388
(dp2389
g54
(dp2390
sg63
g2237
sg56
(lp2391
g49
(g70
g51
NtRp2392
(dp2393
g54
(dp2394
g74
g75
ssg63
g2388
sg56
(lp2395
g1455
asbag49
(g70
g51
NtRp2396
(dp2397
g54
(dp2398
g81
g82
ssg63
g2388
sg56
(lp2399
S':'
asbag49
(g70
g51
NtRp2400
(dp2401
g54
(dp2402
sg63
g2388
sg56
(lp2403
g49
(g50
g51
NtRp2404
(dp2405
g54
(dp2406
g62
I4
ssg63
g2400
sg56
(lp2407
g92
asbasbasbag49
(g65
g51
NtRp2408
(dp2409
g54
(dp2410
sg63
g2237
sg56
(lp2411
g49
(g70
g51
NtRp2412
(dp2413
g54
(dp2414
g74
g75
ssg63
g2408
sg56
(lp2415
g1476
asbag49
(g70
g51
NtRp2416
(dp2417
g54
(dp2418
g81
g82
ssg63
g2408
sg56
(lp2419
S':'
asbag49
(g70
g51
NtRp2420
(dp2421
g54
(dp2422
sg63
g2408
sg56
(lp2423
g49
(g50
g51
NtRp2424
(dp2425
g54
(dp2426
g62
I4
ssg63
g2420
sg56
(lp2427
g92
asbasbasbag49
(g65
g51
NtRp2428
(dp2429
g54
(dp2430
sg63
g2237
sg56
(lp2431
g49
(g70
g51
NtRp2432
(dp2433
g54
(dp2434
g74
g75
ssg63
g2428
sg56
(lp2435
g1497
asbag49
(g70
g51
NtRp2436
(dp2437
g54
(dp2438
g81
g82
ssg63
g2428
sg56
(lp2439
S':'
asbag49
(g70
g51
NtRp2440
(dp2441
g54
(dp2442
sg63
g2428
sg56
(lp2443
g49
(g50
g51
NtRp2444
(dp2445
g54
(dp2446
g62
I4
ssg63
g2440
sg56
(lp2447
g49
(g58
g51
NtRp2448
(dp2449
g54
(dp2450
g62
I3
ssg63
Nsg56
(lp2451
g49
(g65
g51
NtRp2452
(dp2453
g54
(dp2454
sg63
g2448
sg56
(lp2455
g49
(g70
g51
NtRp2456
(dp2457
g54
(dp2458
sg63
g2452
sg56
(lp2459
g49
(g50
g51
NtRp2460
(dp2461
g54
(dp2462
g62
I3
ssg63
g2456
sg56
(lp2463
g1526
asbasbasbag49
(g65
g51
NtRp2464
(dp2465
g54
(dp2466
sg63
g2448
sg56
(lp2467
g49
(g70
g51
NtRp2468
(dp2469
g54
(dp2470
sg63
g2464
sg56
(lp2471
g49
(g50
g51
NtRp2472
(dp2473
g54
(dp2474
g62
I3
ssg63
g2468
sg56
(lp2475
g1539
asbasbasbag49
(g65
g51
NtRp2476
(dp2477
g54
(dp2478
sg63
g2448
sg56
(lp2479
g49
(g70
g51
NtRp2480
(dp2481
g54
(dp2482
sg63
g2476
sg56
(lp2483
g49
(g50
g51
NtRp2484
(dp2485
g54
(dp2486
g62
I3
ssg63
g2480
sg56
(lp2487
g1552
asbasbasbag49
(g65
g51
NtRp2488
(dp2489
g54
(dp2490
sg63
g2448
sg56
(lp2491
g49
(g70
g51
NtRp2492
(dp2493
g54
(dp2494
sg63
g2488
sg56
(lp2495
g49
(g50
g51
NtRp2496
(dp2497
g54
(dp2498
g62
I3
ssg63
g2492
sg56
(lp2499
g1565
asbasbasbag49
(g65
g51
NtRp2500
(dp2501
g54
(dp2502
sg63
g2448
sg56
(lp2503
g49
(g70
g51
NtRp2504
(dp2505
g54
(dp2506
sg63
g2500
sg56
(lp2507
g49
(g50
g51
NtRp2508
(dp2509
g54
(dp2510
g62
I3
ssg63
g2504
sg56
(lp2511
g1578
asbasbasbasbasbasbasbag49
(g65
g51
NtRp2512
(dp2513
g54
(dp2514
sg63
g2237
sg56
(lp2515
g49
(g70
g51
NtRp2516
(dp2517
g54
(dp2518
g74
g75
ssg63
g2512
sg56
(lp2519
g1846
asbag49
(g70
g51
NtRp2520
(dp2521
g54
(dp2522
g81
g82
ssg63
g2512
sg56
(lp2523
S':'
asbag49
(g70
g51
NtRp2524
(dp2525
g54
(dp2526
sg63
g2512
sg56
(lp2527
g49
(g50
g51
NtRp2528
(dp2529
g54
(dp2530
g62
I4
ssg63
g2524
sg56
(lp2531
g49
(g58
g51
NtRp2532
(dp2533
g54
(dp2534
g62
I3
ssg63
Nsg56
(lp2535
g49
(g65
g51
NtRp2536
(dp2537
g54
(dp2538
sg63
g2532
sg56
(lp2539
g49
(g70
g51
NtRp2540
(dp2541
g54
(dp2542
sg63
g2536
sg56
(lp2543
g49
(g50
g51
NtRp2544
(dp2545
g54
(dp2546
g62
I3
ssg63
g2540
sg56
(lp2547
S'2'
asbasbasbag49
(g65
g51
NtRp2548
(dp2549
g54
(dp2550
sg63
g2532
sg56
(lp2551
g49
(g70
g51
NtRp2552
(dp2553
g54
(dp2554
sg63
g2548
sg56
(lp2555
g49
(g50
g51
NtRp2556
(dp2557
g54
(dp2558
g62
I3
ssg63
g2552
sg56
(lp2559
S'4'
asbasbasbag49
(g65
g51
NtRp2560
(dp2561
g54
(dp2562
sg63
g2532
sg56
(lp2563
g49
(g70
g51
NtRp2564
(dp2565
g54
(dp2566
sg63
g2560
sg56
(lp2567
g49
(g50
g51
NtRp2568
(dp2569
g54
(dp2570
g62
I3
ssg63
g2564
sg56
(lp2571
S'5'
asbasbasbag49
(g65
g51
NtRp2572
(dp2573
g54
(dp2574
sg63
g2532
sg56
(lp2575
g49
(g70
g51
NtRp2576
(dp2577
g54
(dp2578
sg63
g2572
sg56
(lp2579
g49
(g50
g51
NtRp2580
(dp2581
g54
(dp2582
g62
I3
ssg63
g2576
sg56
(lp2583
g1911
asbasbasbag49
(g65
g51
NtRp2584
(dp2585
g54
(dp2586
sg63
g2532
sg56
(lp2587
g49
(g70
g51
NtRp2588
(dp2589
g54
(dp2590
sg63
g2584
sg56
(lp2591
g49
(g50
g51
NtRp2592
(dp2593
g54
(dp2594
g62
I3
ssg63
g2588
sg56
(lp2595
S'datetime.datetime(2013, 3, 18, 22, 46, 22)'
p2596
asbasbasbasbasbasbasbasbasbasbasbag49
(g65
g51
NtRp2597
(dp2598
g54
(dp2599
sg63
g59
sg56
(lp2600
g49
(g70
g51
NtRp2601
(dp2602
g54
(dp2603
g74
g75
ssg63
g2597
sg56
(lp2604
S'is_https'
p2605
asbag49
(g70
g51
NtRp2606
(dp2607
g54
(dp2608
g81
g82
ssg63
g2597
sg56
(lp2609
S':'
asbag49
(g70
g51
NtRp2610
(dp2611
g54
(dp2612
sg63
g2597
sg56
(lp2613
g49
(g50
g51
NtRp2614
(dp2615
g54
(dp2616
g62
I5
ssg63
g2610
sg56
(lp2617
g92
asbasbasbag49
(g65
g51
NtRp2618
(dp2619
g54
(dp2620
sg63
g59
sg56
(lp2621
g49
(g70
g51
NtRp2622
(dp2623
g54
(dp2624
g74
g75
ssg63
g2618
sg56
(lp2625
S'is_local'
p2626
asbag49
(g70
g51
NtRp2627
(dp2628
g54
(dp2629
g81
g82
ssg63
g2618
sg56
(lp2630
S':'
asbag49
(g70
g51
NtRp2631
(dp2632
g54
(dp2633
sg63
g2618
sg56
(lp2634
g49
(g50
g51
NtRp2635
(dp2636
g54
(dp2637
g62
I5
ssg63
g2631
sg56
(lp2638
g1248
asbasbasbag49
(g65
g51
NtRp2639
(dp2640
g54
(dp2641
sg63
g59
sg56
(lp2642
g49
(g70
g51
NtRp2643
(dp2644
g54
(dp2645
g74
g75
ssg63
g2639
sg56
(lp2646
S'is_restful'
p2647
asbag49
(g70
g51
NtRp2648
(dp2649
g54
(dp2650
g81
g82
ssg63
g2639
sg56
(lp2651
S':'
asbag49
(g70
g51
NtRp2652
(dp2653
g54
(dp2654
sg63
g2639
sg56
(lp2655
g49
(g50
g51
NtRp2656
(dp2657
g54
(dp2658
g62
I5
ssg63
g2652
sg56
(lp2659
g92
asbasbasbag49
(g65
g51
NtRp2660
(dp2661
g54
(dp2662
sg63
g59
sg56
(lp2663
g49
(g70
g51
NtRp2664
(dp2665
g54
(dp2666
g74
g75
ssg63
g2660
sg56
(lp2667
S'now'
p2668
asbag49
(g70
g51
NtRp2669
(dp2670
g54
(dp2671
g81
g82
ssg63
g2660
sg56
(lp2672
S':'
asbag49
(g70
g51
NtRp2673
(dp2674
g54
(dp2675
sg63
g2660
sg56
(lp2676
g49
(g50
g51
NtRp2677
(dp2678
g54
(dp2679
g62
I5
ssg63
g2673
sg56
(lp2680
S'datetime.datetime(2013, 3, 25, 12, 39, 59, 99821)'
p2681
asbasbasbag49
(g65
g51
NtRp2682
(dp2683
g54
(dp2684
sg63
g59
sg56
(lp2685
g49
(g70
g51
NtRp2686
(dp2687
g54
(dp2688
g74
g75
ssg63
g2682
sg56
(lp2689
S'post_vars'
p2690
asbag49
(g70
g51
NtRp2691
(dp2692
g54
(dp2693
g81
g82
ssg63
g2682
sg56
(lp2694
S':'
asbag49
(g70
g51
NtRp2695
(dp2696
g54
(dp2697
sg63
g2682
sg56
(lp2698
g49
(g50
g51
NtRp2699
(dp2700
g54
(dp2701
g62
I5
ssg63
g2695
sg56
(lp2702
g49
(g58
g51
NtRp2703
(dp2704
g54
(dp2705
g62
I4
ssg63
Nsg56
(lp2706
sbasbasbasbag49
(g65
g51
NtRp2707
(dp2708
g54
(dp2709
sg63
g59
sg56
(lp2710
g49
(g70
g51
NtRp2711
(dp2712
g54
(dp2713
g74
g75
ssg63
g2707
sg56
(lp2714
S'raw_args'
p2715
asbag49
(g70
g51
NtRp2716
(dp2717
g54
(dp2718
g81
g82
ssg63
g2707
sg56
(lp2719
S':'
asbag49
(g70
g51
NtRp2720
(dp2721
g54
(dp2722
sg63
g2707
sg56
(lp2723
g49
(g50
g51
NtRp2724
(dp2725
g54
(dp2726
g62
I5
ssg63
g2720
sg56
(lp2727
S''
asbasbasbag49
(g65
g51
NtRp2728
(dp2729
g54
(dp2730
sg63
g59
sg56
(lp2731
g49
(g70
g51
NtRp2732
(dp2733
g54
(dp2734
g74
g75
ssg63
g2728
sg56
(lp2735
S'raw_extension'
p2736
asbag49
(g70
g51
NtRp2737
(dp2738
g54
(dp2739
g81
g82
ssg63
g2728
sg56
(lp2740
S':'
asbag49
(g70
g51
NtRp2741
(dp2742
g54
(dp2743
sg63
g2728
sg56
(lp2744
g49
(g50
g51
NtRp2745
(dp2746
g54
(dp2747
g62
I5
ssg63
g2741
sg56
(lp2748
S'None'
p2749
asbasbasbag49
(g65
g51
NtRp2750
(dp2751
g54
(dp2752
sg63
g59
sg56
(lp2753
g49
(g70
g51
NtRp2754
(dp2755
g54
(dp2756
g74
g75
ssg63
g2750
sg56
(lp2757
S'url'
p2758
asbag49
(g70
g51
NtRp2759
(dp2760
g54
(dp2761
g81
g82
ssg63
g2750
sg56
(lp2762
S':'
asbag49
(g70
g51
NtRp2763
(dp2764
g54
(dp2765
sg63
g2750
sg56
(lp2766
g49
(g50
g51
NtRp2767
(dp2768
g54
(dp2769
g62
I5
ssg63
g2763
sg56
(lp2770
g1600
asbasbasbag49
(g65
g51
NtRp2771
(dp2772
g54
(dp2773
sg63
g59
sg56
(lp2774
g49
(g70
g51
NtRp2775
(dp2776
g54
(dp2777
g74
g75
ssg63
g2771
sg56
(lp2778
S'utcnow'
p2779
asbag49
(g70
g51
NtRp2780
(dp2781
g54
(dp2782
g81
g82
ssg63
g2771
sg56
(lp2783
S':'
asbag49
(g70
g51
NtRp2784
(dp2785
g54
(dp2786
sg63
g2771
sg56
(lp2787
g49
(g50
g51
NtRp2788
(dp2789
g54
(dp2790
g62
I5
ssg63
g2784
sg56
(lp2791
S'datetime.datetime(2013, 3, 25, 16, 39, 59, 99833)'
p2792
asbasbasbag49
(g65
g51
NtRp2793
(dp2794
g54
(dp2795
sg63
g59
sg56
(lp2796
g49
(g70
g51
NtRp2797
(dp2798
g54
(dp2799
g74
g75
ssg63
g2793
sg56
(lp2800
S'uuid'
p2801
asbag49
(g70
g51
NtRp2802
(dp2803
g54
(dp2804
g81
g82
ssg63
g2793
sg56
(lp2805
S':'
asbag49
(g70
g51
NtRp2806
(dp2807
g54
(dp2808
sg63
g2793
sg56
(lp2809
g49
(g50
g51
NtRp2810
(dp2811
g54
(dp2812
g62
I5
ssg63
g2806
sg56
(lp2813
S'hellow/127.0.0.1.2013-03-25.12-39-59.061ffc63-7e90-4c74-a215-a1e90267bc10'
p2814
asbasbasbag49
(g65
g51
NtRp2815
(dp2816
g54
(dp2817
sg63
g59
sg56
(lp2818
g49
(g70
g51
NtRp2819
(dp2820
g54
(dp2821
g74
g75
ssg63
g2815
sg56
(lp2822
S'vars'
p2823
asbag49
(g70
g51
NtRp2824
(dp2825
g54
(dp2826
g81
g82
ssg63
g2815
sg56
(lp2827
S':'
asbag49
(g70
g51
NtRp2828
(dp2829
g54
(dp2830
sg63
g2815
sg56
(lp2831
g49
(g50
g51
NtRp2832
(dp2833
g54
(dp2834
g62
I5
ssg63
g2828
sg56
(lp2835
g49
(g58
g51
NtRp2836
(dp2837
g54
(dp2838
g62
I4
ssg63
Nsg56
(lp2839
sbasbasbasbag49
(g65
g51
NtRp2840
(dp2841
g54
(dp2842
sg63
g59
sg56
(lp2843
g49
(g70
g51
NtRp2844
(dp2845
g54
(dp2846
g74
g75
ssg63
g2840
sg56
(lp2847
S'wsgi'
p2848
asbag49
(g70
g51
NtRp2849
(dp2850
g54
(dp2851
g81
g82
ssg63
g2840
sg56
(lp2852
S':'
asbag49
(g70
g51
NtRp2853
(dp2854
g54
(dp2855
sg63
g2840
sg56
(lp2856
g49
(g50
g51
NtRp2857
(dp2858
g54
(dp2859
g62
I5
ssg63
g2853
sg56
(lp2860
g49
(g58
g51
NtRp2861
(dp2862
g54
(dp2863
g62
I4
ssg63
Nsg56
(lp2864
g49
(g65
g51
NtRp2865
(dp2866
g54
(dp2867
sg63
g2861
sg56
(lp2868
g49
(g70
g51
NtRp2869
(dp2870
g54
(dp2871
g74
g75
ssg63
g2865
sg56
(lp2872
S'environ'
p2873
asbag49
(g70
g51
NtRp2874
(dp2875
g54
(dp2876
g81
g82
ssg63
g2865
sg56
(lp2877
S':'
asbag49
(g70
g51
NtRp2878
(dp2879
g54
(dp2880
sg63
g2865
sg56
(lp2881
g49
(g50
g51
NtRp2882
(dp2883
g54
(dp2884
g62
I4
ssg63
g2878
sg56
(lp2885
g49
(g58
g51
NtRp2886
(dp2887
g54
(dp2888
g62
I3
ssg63
Nsg56
(lp2889
g49
(g65
g51
NtRp2890
(dp2891
g54
(dp2892
sg63
g2886
sg56
(lp2893
g49
(g70
g51
NtRp2894
(dp2895
g54
(dp2896
g74
g75
ssg63
g2890
sg56
(lp2897
S'HTTP_ACCEPT_CHARSET'
p2898
asbag49
(g70
g51
NtRp2899
(dp2900
g54
(dp2901
g81
g82
ssg63
g2890
sg56
(lp2902
S':'
asbag49
(g70
g51
NtRp2903
(dp2904
g54
(dp2905
sg63
g2890
sg56
(lp2906
g49
(g50
g51
NtRp2907
(dp2908
g54
(dp2909
g62
I3
ssg63
g2903
sg56
(lp2910
g1292
asbasbasbag49
(g65
g51
NtRp2911
(dp2912
g54
(dp2913
sg63
g2886
sg56
(lp2914
g49
(g70
g51
NtRp2915
(dp2916
g54
(dp2917
g74
g75
ssg63
g2911
sg56
(lp2918
S'HTTP_ACCEPT_ENCODING'
p2919
asbag49
(g70
g51
NtRp2920
(dp2921
g54
(dp2922
g81
g82
ssg63
g2911
sg56
(lp2923
S':'
asbag49
(g70
g51
NtRp2924
(dp2925
g54
(dp2926
sg63
g2911
sg56
(lp2927
g49
(g50
g51
NtRp2928
(dp2929
g54
(dp2930
g62
I3
ssg63
g2924
sg56
(lp2931
g1314
asbasbasbag49
(g65
g51
NtRp2932
(dp2933
g54
(dp2934
sg63
g2886
sg56
(lp2935
g49
(g70
g51
NtRp2936
(dp2937
g54
(dp2938
g74
g75
ssg63
g2932
sg56
(lp2939
S'HTTP_ACCEPT_LANGUAGE'
p2940
asbag49
(g70
g51
NtRp2941
(dp2942
g54
(dp2943
g81
g82
ssg63
g2932
sg56
(lp2944
S':'
asbag49
(g70
g51
NtRp2945
(dp2946
g54
(dp2947
sg63
g2932
sg56
(lp2948
g49
(g50
g51
NtRp2949
(dp2950
g54
(dp2951
g62
I3
ssg63
g2945
sg56
(lp2952
g1336
asbasbasbag49
(g65
g51
NtRp2953
(dp2954
g54
(dp2955
sg63
g2886
sg56
(lp2956
g49
(g70
g51
NtRp2957
(dp2958
g54
(dp2959
g74
g75
ssg63
g2953
sg56
(lp2960
S'HTTP_CONNECTION'
p2961
asbag49
(g70
g51
NtRp2962
(dp2963
g54
(dp2964
g81
g82
ssg63
g2953
sg56
(lp2965
S':'
asbag49
(g70
g51
NtRp2966
(dp2967
g54
(dp2968
sg63
g2953
sg56
(lp2969
g49
(g50
g51
NtRp2970
(dp2971
g54
(dp2972
g62
I3
ssg63
g2966
sg56
(lp2973
g1358
asbasbasbag49
(g65
g51
NtRp2974
(dp2975
g54
(dp2976
sg63
g2886
sg56
(lp2977
g49
(g70
g51
NtRp2978
(dp2979
g54
(dp2980
g74
g75
ssg63
g2974
sg56
(lp2981
S'HTTP_COOKIE'
p2982
asbag49
(g70
g51
NtRp2983
(dp2984
g54
(dp2985
g81
g82
ssg63
g2974
sg56
(lp2986
S':'
asbag49
(g70
g51
NtRp2987
(dp2988
g54
(dp2989
sg63
g2974
sg56
(lp2990
g49
(g50
g51
NtRp2991
(dp2992
g54
(dp2993
g62
I3
ssg63
g2987
sg56
(lp2994
g1380
asbasbasbag49
(g65
g51
NtRp2995
(dp2996
g54
(dp2997
sg63
g2886
sg56
(lp2998
g49
(g70
g51
NtRp2999
(dp3000
g54
(dp3001
g74
g75
ssg63
g2995
sg56
(lp3002
S'HTTP_HOST'
p3003
asbag49
(g70
g51
NtRp3004
(dp3005
g54
(dp3006
g81
g82
ssg63
g2995
sg56
(lp3007
S':'
asbag49
(g70
g51
NtRp3008
(dp3009
g54
(dp3010
sg63
g2995
sg56
(lp3011
g49
(g50
g51
NtRp3012
(dp3013
g54
(dp3014
g62
I3
ssg63
g3008
sg56
(lp3015
g1402
asbasbasbag49
(g65
g51
NtRp3016
(dp3017
g54
(dp3018
sg63
g2886
sg56
(lp3019
g49
(g70
g51
NtRp3020
(dp3021
g54
(dp3022
g74
g75
ssg63
g3016
sg56
(lp3023
S'HTTP_REFERER'
p3024
asbag49
(g70
g51
NtRp3025
(dp3026
g54
(dp3027
g81
g82
ssg63
g3016
sg56
(lp3028
S':'
asbag49
(g70
g51
NtRp3029
(dp3030
g54
(dp3031
sg63
g3016
sg56
(lp3032
g49
(g50
g51
NtRp3033
(dp3034
g54
(dp3035
g62
I3
ssg63
g3029
sg56
(lp3036
g1424
asbasbasbag49
(g65
g51
NtRp3037
(dp3038
g54
(dp3039
sg63
g2886
sg56
(lp3040
g49
(g70
g51
NtRp3041
(dp3042
g54
(dp3043
g74
g75
ssg63
g3037
sg56
(lp3044
S'HTTP_USER_AGENT'
p3045
asbag49
(g70
g51
NtRp3046
(dp3047
g54
(dp3048
g81
g82
ssg63
g3037
sg56
(lp3049
S':'
asbag49
(g70
g51
NtRp3050
(dp3051
g54
(dp3052
sg63
g3037
sg56
(lp3053
g49
(g50
g51
NtRp3054
(dp3055
g54
(dp3056
g62
I3
ssg63
g3050
sg56
(lp3057
g1446
asbasbasbag49
(g65
g51
NtRp3058
(dp3059
g54
(dp3060
sg63
g2886
sg56
(lp3061
g49
(g70
g51
NtRp3062
(dp3063
g54
(dp3064
g74
g75
ssg63
g3058
sg56
(lp3065
S'PATH_INFO'
p3066
asbag49
(g70
g51
NtRp3067
(dp3068
g54
(dp3069
g81
g82
ssg63
g3058
sg56
(lp3070
S':'
asbag49
(g70
g51
NtRp3071
(dp3072
g54
(dp3073
sg63
g3058
sg56
(lp3074
g49
(g50
g51
NtRp3075
(dp3076
g54
(dp3077
g62
I3
ssg63
g3071
sg56
(lp3078
g1600
asbasbasbag49
(g65
g51
NtRp3079
(dp3080
g54
(dp3081
sg63
g2886
sg56
(lp3082
g49
(g70
g51
NtRp3083
(dp3084
g54
(dp3085
g74
g75
ssg63
g3079
sg56
(lp3086
S'QUERY_STRING'
p3087
asbag49
(g70
g51
NtRp3088
(dp3089
g54
(dp3090
g81
g82
ssg63
g3079
sg56
(lp3091
S':'
asbag49
(g70
g51
NtRp3092
(dp3093
g54
(dp3094
sg63
g3079
sg56
(lp3095
g49
(g50
g51
NtRp3096
(dp3097
g54
(dp3098
g62
I3
ssg63
g3092
sg56
(lp3099
S''
asbasbasbag49
(g65
g51
NtRp3100
(dp3101
g54
(dp3102
sg63
g2886
sg56
(lp3103
g49
(g70
g51
NtRp3104
(dp3105
g54
(dp3106
g74
g75
ssg63
g3100
sg56
(lp3107
S'REMOTE_ADDR'
p3108
asbag49
(g70
g51
NtRp3109
(dp3110
g54
(dp3111
g81
g82
ssg63
g3100
sg56
(lp3112
S':'
asbag49
(g70
g51
NtRp3113
(dp3114
g54
(dp3115
sg63
g3100
sg56
(lp3116
g49
(g50
g51
NtRp3117
(dp3118
g54
(dp3119
g62
I3
ssg63
g3113
sg56
(lp3120
g204
asbasbasbag49
(g65
g51
NtRp3121
(dp3122
g54
(dp3123
sg63
g2886
sg56
(lp3124
g49
(g70
g51
NtRp3125
(dp3126
g54
(dp3127
g74
g75
ssg63
g3121
sg56
(lp3128
S'REMOTE_PORT'
p3129
asbag49
(g70
g51
NtRp3130
(dp3131
g54
(dp3132
g81
g82
ssg63
g3121
sg56
(lp3133
S':'
asbag49
(g70
g51
NtRp3134
(dp3135
g54
(dp3136
sg63
g3121
sg56
(lp3137
g49
(g50
g51
NtRp3138
(dp3139
g54
(dp3140
g62
I3
ssg63
g3134
sg56
(lp3141
g1664
asbasbasbag49
(g65
g51
NtRp3142
(dp3143
g54
(dp3144
sg63
g2886
sg56
(lp3145
g49
(g70
g51
NtRp3146
(dp3147
g54
(dp3148
g74
g75
ssg63
g3142
sg56
(lp3149
S'REQUEST_METHOD'
p3150
asbag49
(g70
g51
NtRp3151
(dp3152
g54
(dp3153
g81
g82
ssg63
g3142
sg56
(lp3154
S':'
asbag49
(g70
g51
NtRp3155
(dp3156
g54
(dp3157
sg63
g3142
sg56
(lp3158
g49
(g50
g51
NtRp3159
(dp3160
g54
(dp3161
g62
I3
ssg63
g3155
sg56
(lp3162
g1686
asbasbasbag49
(g65
g51
NtRp3163
(dp3164
g54
(dp3165
sg63
g2886
sg56
(lp3166
g49
(g70
g51
NtRp3167
(dp3168
g54
(dp3169
g74
g75
ssg63
g3163
sg56
(lp3170
S'REQUEST_URI'
p3171
asbag49
(g70
g51
NtRp3172
(dp3173
g54
(dp3174
g81
g82
ssg63
g3163
sg56
(lp3175
S':'
asbag49
(g70
g51
NtRp3176
(dp3177
g54
(dp3178
sg63
g3163
sg56
(lp3179
g49
(g50
g51
NtRp3180
(dp3181
g54
(dp3182
g62
I3
ssg63
g3176
sg56
(lp3183
g1600
asbasbasbag49
(g65
g51
NtRp3184
(dp3185
g54
(dp3186
sg63
g2886
sg56
(lp3187
g49
(g70
g51
NtRp3188
(dp3189
g54
(dp3190
g74
g75
ssg63
g3184
sg56
(lp3191
S'SCRIPT_NAME'
p3192
asbag49
(g70
g51
NtRp3193
(dp3194
g54
(dp3195
g81
g82
ssg63
g3184
sg56
(lp3196
S':'
asbag49
(g70
g51
NtRp3197
(dp3198
g54
(dp3199
sg63
g3184
sg56
(lp3200
g49
(g50
g51
NtRp3201
(dp3202
g54
(dp3203
g62
I3
ssg63
g3197
sg56
(lp3204
S''
asbasbasbag49
(g65
g51
NtRp3205
(dp3206
g54
(dp3207
sg63
g2886
sg56
(lp3208
g49
(g70
g51
NtRp3209
(dp3210
g54
(dp3211
g74
g75
ssg63
g3205
sg56
(lp3212
S'SERVER_NAME'
p3213
asbag49
(g70
g51
NtRp3214
(dp3215
g54
(dp3216
g81
g82
ssg63
g3205
sg56
(lp3217
S':'
asbag49
(g70
g51
NtRp3218
(dp3219
g54
(dp3220
sg63
g3205
sg56
(lp3221
g49
(g50
g51
NtRp3222
(dp3223
g54
(dp3224
g62
I3
ssg63
g3218
sg56
(lp3225
g1750
asbasbasbag49
(g65
g51
NtRp3226
(dp3227
g54
(dp3228
sg63
g2886
sg56
(lp3229
g49
(g70
g51
NtRp3230
(dp3231
g54
(dp3232
g74
g75
ssg63
g3226
sg56
(lp3233
S'SERVER_PORT'
p3234
asbag49
(g70
g51
NtRp3235
(dp3236
g54
(dp3237
g81
g82
ssg63
g3226
sg56
(lp3238
S':'
asbag49
(g70
g51
NtRp3239
(dp3240
g54
(dp3241
sg63
g3226
sg56
(lp3242
g49
(g50
g51
NtRp3243
(dp3244
g54
(dp3245
g62
I3
ssg63
g3239
sg56
(lp3246
g1772
asbasbasbag49
(g65
g51
NtRp3247
(dp3248
g54
(dp3249
sg63
g2886
sg56
(lp3250
g49
(g70
g51
NtRp3251
(dp3252
g54
(dp3253
g74
g75
ssg63
g3247
sg56
(lp3254
S'SERVER_PROTOCOL'
p3255
asbag49
(g70
g51
NtRp3256
(dp3257
g54
(dp3258
g81
g82
ssg63
g3247
sg56
(lp3259
S':'
asbag49
(g70
g51
NtRp3260
(dp3261
g54
(dp3262
sg63
g3247
sg56
(lp3263
g49
(g50
g51
NtRp3264
(dp3265
g54
(dp3266
g62
I3
ssg63
g3260
sg56
(lp3267
g1794
asbasbasbag49
(g65
g51
NtRp3268
(dp3269
g54
(dp3270
sg63
g2886
sg56
(lp3271
g49
(g70
g51
NtRp3272
(dp3273
g54
(dp3274
g74
g75
ssg63
g3268
sg56
(lp3275
S'SERVER_SOFTWARE'
p3276
asbag49
(g70
g51
NtRp3277
(dp3278
g54
(dp3279
g81
g82
ssg63
g3268
sg56
(lp3280
S':'
asbag49
(g70
g51
NtRp3281
(dp3282
g54
(dp3283
sg63
g3268
sg56
(lp3284
g49
(g50
g51
NtRp3285
(dp3286
g54
(dp3287
g62
I3
ssg63
g3281
sg56
(lp3288
g1816
asbasbasbag49
(g65
g51
NtRp3289
(dp3290
g54
(dp3291
sg63
g2886
sg56
(lp3292
g49
(g70
g51
NtRp3293
(dp3294
g54
(dp3295
g74
g75
ssg63
g3289
sg56
(lp3296
S'wsgi.errors'
p3297
asbag49
(g70
g51
NtRp3298
(dp3299
g54
(dp3300
g81
g82
ssg63
g3289
sg56
(lp3301
S':'
asbag49
(g70
g51
NtRp3302
(dp3303
g54
(dp3304
sg63
g3289
sg56
(lp3305
g49
(g50
g51
NtRp3306
(dp3307
g54
(dp3308
g62
I3
ssg63
g3302
sg56
(lp3309
S"<open file '<stderr>', mode 'w' at 0x540b0>"
p3310
asbasbasbag49
(g65
g51
NtRp3311
(dp3312
g54
(dp3313
sg63
g2886
sg56
(lp3314
g49
(g70
g51
NtRp3315
(dp3316
g54
(dp3317
g74
g75
ssg63
g3311
sg56
(lp3318
S'wsgi.file_wrapper'
p3319
asbag49
(g70
g51
NtRp3320
(dp3321
g54
(dp3322
g81
g82
ssg63
g3311
sg56
(lp3323
S':'
asbag49
(g70
g51
NtRp3324
(dp3325
g54
(dp3326
sg63
g3311
sg56
(lp3327
g49
(g50
g51
NtRp3328
(dp3329
g54
(dp3330
g62
I3
ssg63
g3324
sg56
(lp3331
S'<class wsgiref.util.FileWrapper at 0x329d060>'
p3332
asbasbasbag49
(g65
g51
NtRp3333
(dp3334
g54
(dp3335
sg63
g2886
sg56
(lp3336
g49
(g70
g51
NtRp3337
(dp3338
g54
(dp3339
g74
g75
ssg63
g3333
sg56
(lp3340
S'wsgi.input'
p3341
asbag49
(g70
g51
NtRp3342
(dp3343
g54
(dp3344
g81
g82
ssg63
g3333
sg56
(lp3345
S':'
asbag49
(g70
g51
NtRp3346
(dp3347
g54
(dp3348
sg63
g3333
sg56
(lp3349
g49
(g50
g51
NtRp3350
(dp3351
g54
(dp3352
g62
I3
ssg63
g3346
sg56
(lp3353
S'<cStringIO.StringO object at 0xa3dcf80>'
p3354
asbasbasbag49
(g65
g51
NtRp3355
(dp3356
g54
(dp3357
sg63
g2886
sg56
(lp3358
g49
(g70
g51
NtRp3359
(dp3360
g54
(dp3361
g74
g75
ssg63
g3355
sg56
(lp3362
S'wsgi.multiprocess'
p3363
asbag49
(g70
g51
NtRp3364
(dp3365
g54
(dp3366
g81
g82
ssg63
g3355
sg56
(lp3367
S':'
asbag49
(g70
g51
NtRp3368
(dp3369
g54
(dp3370
sg63
g3355
sg56
(lp3371
g49
(g50
g51
NtRp3372
(dp3373
g54
(dp3374
g62
I3
ssg63
g3368
sg56
(lp3375
g92
asbasbasbag49
(g65
g51
NtRp3376
(dp3377
g54
(dp3378
sg63
g2886
sg56
(lp3379
g49
(g70
g51
NtRp3380
(dp3381
g54
(dp3382
g74
g75
ssg63
g3376
sg56
(lp3383
S'wsgi.multithread'
p3384
asbag49
(g70
g51
NtRp3385
(dp3386
g54
(dp3387
g81
g82
ssg63
g3376
sg56
(lp3388
S':'
asbag49
(g70
g51
NtRp3389
(dp3390
g54
(dp3391
sg63
g3376
sg56
(lp3392
g49
(g50
g51
NtRp3393
(dp3394
g54
(dp3395
g62
I3
ssg63
g3389
sg56
(lp3396
g1248
asbasbasbag49
(g65
g51
NtRp3397
(dp3398
g54
(dp3399
sg63
g2886
sg56
(lp3400
g49
(g70
g51
NtRp3401
(dp3402
g54
(dp3403
g74
g75
ssg63
g3397
sg56
(lp3404
S'wsgi.run_once'
p3405
asbag49
(g70
g51
NtRp3406
(dp3407
g54
(dp3408
g81
g82
ssg63
g3397
sg56
(lp3409
S':'
asbag49
(g70
g51
NtRp3410
(dp3411
g54
(dp3412
sg63
g3397
sg56
(lp3413
g49
(g50
g51
NtRp3414
(dp3415
g54
(dp3416
g62
I3
ssg63
g3410
sg56
(lp3417
g92
asbasbasbag49
(g65
g51
NtRp3418
(dp3419
g54
(dp3420
sg63
g2886
sg56
(lp3421
g49
(g70
g51
NtRp3422
(dp3423
g54
(dp3424
g74
g75
ssg63
g3418
sg56
(lp3425
S'wsgi.url_scheme'
p3426
asbag49
(g70
g51
NtRp3427
(dp3428
g54
(dp3429
g81
g82
ssg63
g3418
sg56
(lp3430
S':'
asbag49
(g70
g51
NtRp3431
(dp3432
g54
(dp3433
sg63
g3418
sg56
(lp3434
g49
(g50
g51
NtRp3435
(dp3436
g54
(dp3437
g62
I3
ssg63
g3431
sg56
(lp3438
g2075
asbasbasbag49
(g65
g51
NtRp3439
(dp3440
g54
(dp3441
sg63
g2886
sg56
(lp3442
g49
(g70
g51
NtRp3443
(dp3444
g54
(dp3445
g74
g75
ssg63
g3439
sg56
(lp3446
S'wsgi.version'
p3447
asbag49
(g70
g51
NtRp3448
(dp3449
g54
(dp3450
g81
g82
ssg63
g3439
sg56
(lp3451
S':'
asbag49
(g70
g51
NtRp3452
(dp3453
g54
(dp3454
sg63
g3439
sg56
(lp3455
g49
(g50
g51
NtRp3456
(dp3457
g54
(dp3458
g62
I3
ssg63
g3452
sg56
(lp3459
S'1'
asbasbasbasbasbasbasbasbasbasbasbasbasbsS'frames'
p3460
(lp3461
(dp3462
S'file'
p3463
S'/home/mdipierro/web2py/gluon/restricted.py'
p3464
sS'dump'
p3465
(dp3466
sS'lnum'
p3467
I212
sS'lines'
p3468
(dp3469
sS'call'
p3470
S"(code='# coding: utf8\\n# try something like\\nimport rando...urn False\\n\\nresponse._vars=response._caller(show)\\n', environment={'A': <class 'gluon.html.A'>, 'Auth': <class 'gluon.tools.Auth'>, 'B': <class 'gluon.html.B'>, 'BEAUTIFY': <class 'gluon.html.BEAUTIFY'>, 'BODY': <class 'gluon.html.BODY'>, 'BR': <class 'gluon.html.BR'>, 'BUTTON': <class 'gluon.html.BUTTON'>, 'CAT': <class 'gluon.html.CAT'>, 'CENTER': <class 'gluon.html.CENTER'>, 'CLEANUP': <class 'gluon.validators.CLEANUP'>, ...}, layer='/Users/zamechek/Downloads/web2py/web2py.app/Cont...Resources/applications/hellow/controllers/slot.py')"
p3471
sS'func'
p3472
S'restricted'
p3473
sa(dp3474
g3463
S'/Users/zamechek/Downloads/web2py/web2py.app/Contents/Resources/applications/hellow/controllers/slot.py'
p3475
sg3465
(dp3476
sg3467
I16
sg3468
(dp3477
I5
S''
sI6
S'def show():'
p3478
sI7
S'    id = request.args[0]'
p3479
sI8
S'    slot = db.slot(id)'
p3480
sI9
S'    return str(isWinner(slot.odd)) + " | "  + str(slot.odd)'
p3481
sI10
S''
sI11
S'def isWinner(odd):'
p3482
sI12
S'    if odd > random.randint(0, 9):'
p3483
sI13
S'        return True'
p3484
sI14
S'    else: return False'
p3485
ssg3470
S'()'
p3486
sg3472
S'<module>'
p3487
sa(dp3488
g3463
S'/home/mdipierro/web2py/gluon/globals.py'
p3489
sg3465
(dp3490
sg3467
I193
sg3468
(dp3491
sg3470
S'(f=<function show at 0xa263230>)'
p3492
sg3472
S'<lambda>'
p3493
sa(dp3494
g3463
S'/Users/zamechek/Downloads/web2py/web2py.app/Contents/Resources/applications/hellow/controllers/slot.py'
p3495
sg3465
(dp3496
sg3467
I7
sg3468
(dp3497
I2
S'# try something like'
p3498
sI3
S'import random'
p3499
sI4
S'def index(): return dict(message="hello from slot.py")'
p3500
sI5
S''
sI6
S'def show():'
p3501
sI7
S'    id = request.args[0]'
p3502
sI8
S'    slot = db.slot(id)'
p3503
sI9
S'    return str(isWinner(slot.odd)) + " | "  + str(slot.odd)'
p3504
sI10
S''
sI11
S'def isWinner(odd):'
p3505
ssg3470
S'()'
p3506
sg3472
S'show'
p3507
sasS'pyver'
p3508
S'Python 2.5.1: /Users/zamechek/Downloads/web2py/web2py.app/Contents/MacOS/python'
p3509
sS'session'
p3510
g49
(g50
g51
NtRp3511
(dp3512
g54
(dp3513
sg56
(lp3514
g49
(g58
g51
NtRp3515
(dp3516
g54
(dp3517
g62
I5
ssg63
Nsg56
(lp3518
g49
(g65
g51
NtRp3519
(dp3520
g54
(dp3521
sg63
g3515
sg56
(lp3522
g49
(g70
g51
NtRp3523
(dp3524
g54
(dp3525
g74
g75
ssg63
g3519
sg56
(lp3526
S'last_orderby'
p3527
asbag49
(g70
g51
NtRp3528
(dp3529
g54
(dp3530
g81
g82
ssg63
g3519
sg56
(lp3531
S':'
asbag49
(g70
g51
NtRp3532
(dp3533
g54
(dp3534
sg63
g3519
sg56
(lp3535
g49
(g50
g51
NtRp3536
(dp3537
g54
(dp3538
g62
I5
ssg63
g3532
sg56
(lp3539
S'None'
p3540
asbasbasbag49
(g65
g51
NtRp3541
(dp3542
g54
(dp3543
sg63
g3515
sg56
(lp3544
g49
(g70
g51
NtRp3545
(dp3546
g54
(dp3547
g74
g75
ssg63
g3541
sg56
(lp3548
S'last_query'
p3549
asbag49
(g70
g51
NtRp3550
(dp3551
g54
(dp3552
g81
g82
ssg63
g3541
sg56
(lp3553
S':'
asbag49
(g70
g51
NtRp3554
(dp3555
g54
(dp3556
sg63
g3541
sg56
(lp3557
g49
(g50
g51
NtRp3558
(dp3559
g54
(dp3560
g62
I5
ssg63
g3554
sg56
(lp3561
S'db.slot.id>0'
p3562
asbasbasbasbasbsS'etype'
p3563
S"<type 'exceptions.IndexError'>"
p3564
sS'date'
p3565
S'Mon Mar 25 12:39:59 2013'
p3566
sS'response'
p3567
g49
(g50
g51
NtRp3568
(dp3569
g54
(dp3570
sg56
(lp3571
g49
(g58
g51
NtRp3572
(dp3573
g54
(dp3574
g62
I5
ssg63
Nsg56
(lp3575
g49
(g65
g51
NtRp3576
(dp3577
g54
(dp3578
sg63
g3572
sg56
(lp3579
g49
(g70
g51
NtRp3580
(dp3581
g54
(dp3582
g74
g75
ssg63
g3576
sg56
(lp3583
g147
asbag49
(g70
g51
NtRp3584
(dp3585
g54
(dp3586
g81
g82
ssg63
g3576
sg56
(lp3587
S':'
asbag49
(g70
g51
NtRp3588
(dp3589
g54
(dp3590
sg63
g3576
sg56
(lp3591
g49
(g50
g51
NtRp3592
(dp3593
g54
(dp3594
g62
I5
ssg63
g3588
sg56
(lp3595
S'<cStringIO.StringO object at 0xa76f980>'
p3596
asbasbasbag49
(g65
g51
NtRp3597
(dp3598
g54
(dp3599
sg63
g3572
sg56
(lp3600
g49
(g70
g51
NtRp3601
(dp3602
g54
(dp3603
g74
g75
ssg63
g3597
sg56
(lp3604
g235
asbag49
(g70
g51
NtRp3605
(dp3606
g54
(dp3607
g81
g82
ssg63
g3597
sg56
(lp3608
S':'
asbag49
(g70
g51
NtRp3609
(dp3610
g54
(dp3611
sg63
g3597
sg56
(lp3612
g49
(g50
g51
NtRp3613
(dp3614
g54
(dp3615
g62
I5
ssg63
g3609
sg56
(lp3616
g49
(g58
g51
NtRp3617
(dp3618
g54
(dp3619
g62
I4
ssg63
Nsg56
(lp3620
g49
(g65
g51
NtRp3621
(dp3622
g54
(dp3623
sg63
g3617
sg56
(lp3624
g49
(g70
g51
NtRp3625
(dp3626
g54
(dp3627
g74
g75
ssg63
g3621
sg56
(lp3628
S'session_id_hellow'
p3629
asbag49
(g70
g51
NtRp3630
(dp3631
g54
(dp3632
g81
g82
ssg63
g3621
sg56
(lp3633
S':'
asbag49
(g70
g51
NtRp3634
(dp3635
g54
(dp3636
sg63
g3621
sg56
(lp3637
g49
(g50
g51
NtRp3638
(dp3639
g54
(dp3640
g62
I4
ssg63
g3634
sg56
(lp3641
g612
ag49
(g58
g51
NtRp3642
(dp3643
g54
(dp3644
g62
I3
ssg63
Nsg56
(lp3645
g49
(g65
g51
NtRp3646
(dp3647
g54
(dp3648
sg63
g3642
sg56
(lp3649
g49
(g70
g51
NtRp3650
(dp3651
g54
(dp3652
g74
g75
ssg63
g3646
sg56
(lp3653
g286
asbag49
(g70
g51
NtRp3654
(dp3655
g54
(dp3656
g81
g82
ssg63
g3646
sg56
(lp3657
S':'
asbag49
(g70
g51
NtRp3658
(dp3659
g54
(dp3660
sg63
g3646
sg56
(lp3661
g49
(g50
g51
NtRp3662
(dp3663
g54
(dp3664
g62
I3
ssg63
g3658
sg56
(lp3665
S''
asbasbasbag49
(g65
g51
NtRp3666
(dp3667
g54
(dp3668
sg63
g3642
sg56
(lp3669
g49
(g70
g51
NtRp3670
(dp3671
g54
(dp3672
g74
g75
ssg63
g3666
sg56
(lp3673
g307
asbag49
(g70
g51
NtRp3674
(dp3675
g54
(dp3676
g81
g82
ssg63
g3666
sg56
(lp3677
S':'
asbag49
(g70
g51
NtRp3678
(dp3679
g54
(dp3680
sg63
g3666
sg56
(lp3681
g49
(g50
g51
NtRp3682
(dp3683
g54
(dp3684
g62
I3
ssg63
g3678
sg56
(lp3685
S''
asbasbasbag49
(g65
g51
NtRp3686
(dp3687
g54
(dp3688
sg63
g3642
sg56
(lp3689
g49
(g70
g51
NtRp3690
(dp3691
g54
(dp3692
g74
g75
ssg63
g3686
sg56
(lp3693
g328
asbag49
(g70
g51
NtRp3694
(dp3695
g54
(dp3696
g81
g82
ssg63
g3686
sg56
(lp3697
S':'
asbag49
(g70
g51
NtRp3698
(dp3699
g54
(dp3700
sg63
g3686
sg56
(lp3701
g49
(g50
g51
NtRp3702
(dp3703
g54
(dp3704
g62
I3
ssg63
g3698
sg56
(lp3705
S''
asbasbasbag49
(g65
g51
NtRp3706
(dp3707
g54
(dp3708
sg63
g3642
sg56
(lp3709
g49
(g70
g51
NtRp3710
(dp3711
g54
(dp3712
g74
g75
ssg63
g3706
sg56
(lp3713
g349
asbag49
(g70
g51
NtRp3714
(dp3715
g54
(dp3716
g81
g82
ssg63
g3706
sg56
(lp3717
S':'
asbag49
(g70
g51
NtRp3718
(dp3719
g54
(dp3720
sg63
g3706
sg56
(lp3721
g49
(g50
g51
NtRp3722
(dp3723
g54
(dp3724
g62
I3
ssg63
g3718
sg56
(lp3725
S''
asbasbasbag49
(g65
g51
NtRp3726
(dp3727
g54
(dp3728
sg63
g3642
sg56
(lp3729
g49
(g70
g51
NtRp3730
(dp3731
g54
(dp3732
g74
g75
ssg63
g3726
sg56
(lp3733
g370
asbag49
(g70
g51
NtRp3734
(dp3735
g54
(dp3736
g81
g82
ssg63
g3726
sg56
(lp3737
S':'
asbag49
(g70
g51
NtRp3738
(dp3739
g54
(dp3740
sg63
g3726
sg56
(lp3741
g49
(g50
g51
NtRp3742
(dp3743
g54
(dp3744
g62
I3
ssg63
g3738
sg56
(lp3745
S'/'
asbasbasbag49
(g65
g51
NtRp3746
(dp3747
g54
(dp3748
sg63
g3642
sg56
(lp3749
g49
(g70
g51
NtRp3750
(dp3751
g54
(dp3752
g74
g75
ssg63
g3746
sg56
(lp3753
g391
asbag49
(g70
g51
NtRp3754
(dp3755
g54
(dp3756
g81
g82
ssg63
g3746
sg56
(lp3757
S':'
asbag49
(g70
g51
NtRp3758
(dp3759
g54
(dp3760
sg63
g3746
sg56
(lp3761
g49
(g50
g51
NtRp3762
(dp3763
g54
(dp3764
g62
I3
ssg63
g3758
sg56
(lp3765
S''
asbasbasbag49
(g65
g51
NtRp3766
(dp3767
g54
(dp3768
sg63
g3642
sg56
(lp3769
g49
(g70
g51
NtRp3770
(dp3771
g54
(dp3772
g74
g75
ssg63
g3766
sg56
(lp3773
g412
asbag49
(g70
g51
NtRp3774
(dp3775
g54
(dp3776
g81
g82
ssg63
g3766
sg56
(lp3777
S':'
asbag49
(g70
g51
NtRp3778
(dp3779
g54
(dp3780
sg63
g3766
sg56
(lp3781
g49
(g50
g51
NtRp3782
(dp3783
g54
(dp3784
g62
I3
ssg63
g3778
sg56
(lp3785
S''
asbasbasbasbasbasbasbasbasbasbasbag49
(g65
g51
NtRp3786
(dp3787
g54
(dp3788
sg63
g3572
sg56
(lp3789
g49
(g70
g51
NtRp3790
(dp3791
g54
(dp3792
g74
g75
ssg63
g3786
sg56
(lp3793
S'delimiters'
p3794
asbag49
(g70
g51
NtRp3795
(dp3796
g54
(dp3797
g81
g82
ssg63
g3786
sg56
(lp3798
S':'
asbag49
(g70
g51
NtRp3799
(dp3800
g54
(dp3801
sg63
g3786
sg56
(lp3802
g49
(g50
g51
NtRp3803
(dp3804
g54
(dp3805
g62
I5
ssg63
g3799
sg56
(lp3806
g49
(g58
g51
NtRp3807
(dp3808
g54
(dp3809
g62
I4
ssg63
Nsg56
(lp3810
g49
(g65
g51
NtRp3811
(dp3812
g54
(dp3813
sg63
g3807
sg56
(lp3814
g49
(g70
g51
NtRp3815
(dp3816
g54
(dp3817
sg63
g3811
sg56
(lp3818
g49
(g50
g51
NtRp3819
(dp3820
g54
(dp3821
g62
I4
ssg63
g3815
sg56
(lp3822
S'{{'
p3823
asbasbasbag49
(g65
g51
NtRp3824
(dp3825
g54
(dp3826
sg63
g3807
sg56
(lp3827
g49
(g70
g51
NtRp3828
(dp3829
g54
(dp3830
sg63
g3824
sg56
(lp3831
g49
(g50
g51
NtRp3832
(dp3833
g54
(dp3834
g62
I4
ssg63
g3828
sg56
(lp3835
S'}}'
p3836
asbasbasbasbasbasbasbag49
(g65
g51
NtRp3837
(dp3838
g54
(dp3839
sg63
g3572
sg56
(lp3840
g49
(g70
g51
NtRp3841
(dp3842
g54
(dp3843
g74
g75
ssg63
g3837
sg56
(lp3844
S'files'
p3845
asbag49
(g70
g51
NtRp3846
(dp3847
g54
(dp3848
g81
g82
ssg63
g3837
sg56
(lp3849
S':'
asbag49
(g70
g51
NtRp3850
(dp3851
g54
(dp3852
sg63
g3837
sg56
(lp3853
g49
(g50
g51
NtRp3854
(dp3855
g54
(dp3856
g62
I5
ssg63
g3850
sg56
(lp3857
g49
(g58
g51
NtRp3858
(dp3859
g54
(dp3860
g62
I4
ssg63
Nsg56
(lp3861
sbasbasbasbag49
(g65
g51
NtRp3862
(dp3863
g54
(dp3864
sg63
g3572
sg56
(lp3865
g49
(g70
g51
NtRp3866
(dp3867
g54
(dp3868
g74
g75
ssg63
g3862
sg56
(lp3869
S'flash'
p3870
asbag49
(g70
g51
NtRp3871
(dp3872
g54
(dp3873
g81
g82
ssg63
g3862
sg56
(lp3874
S':'
asbag49
(g70
g51
NtRp3875
(dp3876
g54
(dp3877
sg63
g3862
sg56
(lp3878
g49
(g50
g51
NtRp3879
(dp3880
g54
(dp3881
g62
I5
ssg63
g3875
sg56
(lp3882
S''
asbasbasbag49
(g65
g51
NtRp3883
(dp3884
g54
(dp3885
sg63
g3572
sg56
(lp3886
g49
(g70
g51
NtRp3887
(dp3888
g54
(dp3889
g74
g75
ssg63
g3883
sg56
(lp3890
S'generic_patterns'
p3891
asbag49
(g70
g51
NtRp3892
(dp3893
g54
(dp3894
g81
g82
ssg63
g3883
sg56
(lp3895
S':'
asbag49
(g70
g51
NtRp3896
(dp3897
g54
(dp3898
sg63
g3883
sg56
(lp3899
g49
(g50
g51
NtRp3900
(dp3901
g54
(dp3902
g62
I5
ssg63
g3896
sg56
(lp3903
g49
(g58
g51
NtRp3904
(dp3905
g54
(dp3906
g62
I4
ssg63
Nsg56
(lp3907
g49
(g65
g51
NtRp3908
(dp3909
g54
(dp3910
sg63
g3904
sg56
(lp3911
g49
(g70
g51
NtRp3912
(dp3913
g54
(dp3914
sg63
g3908
sg56
(lp3915
g49
(g50
g51
NtRp3916
(dp3917
g54
(dp3918
g62
I4
ssg63
g3912
sg56
(lp3919
S'*'
asbasbasbasbasbasbasbag49
(g65
g51
NtRp3920
(dp3921
g54
(dp3922
sg63
g3572
sg56
(lp3923
g49
(g70
g51
NtRp3924
(dp3925
g54
(dp3926
g74
g75
ssg63
g3920
sg56
(lp3927
S'google_analytics_id'
p3928
asbag49
(g70
g51
NtRp3929
(dp3930
g54
(dp3931
g81
g82
ssg63
g3920
sg56
(lp3932
S':'
asbag49
(g70
g51
NtRp3933
(dp3934
g54
(dp3935
sg63
g3920
sg56
(lp3936
g49
(g50
g51
NtRp3937
(dp3938
g54
(dp3939
g62
I5
ssg63
g3933
sg56
(lp3940
S'None'
p3941
asbasbasbag49
(g65
g51
NtRp3942
(dp3943
g54
(dp3944
sg63
g3572
sg56
(lp3945
g49
(g70
g51
NtRp3946
(dp3947
g54
(dp3948
g74
g75
ssg63
g3942
sg56
(lp3949
S'headers'
p3950
asbag49
(g70
g51
NtRp3951
(dp3952
g54
(dp3953
g81
g82
ssg63
g3942
sg56
(lp3954
S':'
asbag49
(g70
g51
NtRp3955
(dp3956
g54
(dp3957
sg63
g3942
sg56
(lp3958
g49
(g50
g51
NtRp3959
(dp3960
g54
(dp3961
g62
I5
ssg63
g3955
sg56
(lp3962
g49
(g58
g51
NtRp3963
(dp3964
g54
(dp3965
g62
I4
ssg63
Nsg56
(lp3966
g49
(g65
g51
NtRp3967
(dp3968
g54
(dp3969
sg63
g3963
sg56
(lp3970
g49
(g70
g51
NtRp3971
(dp3972
g54
(dp3973
g74
g75
ssg63
g3967
sg56
(lp3974
S'X-Powered-By'
p3975
asbag49
(g70
g51
NtRp3976
(dp3977
g54
(dp3978
g81
g82
ssg63
g3967
sg56
(lp3979
S':'
asbag49
(g70
g51
NtRp3980
(dp3981
g54
(dp3982
sg63
g3967
sg56
(lp3983
g49
(g50
g51
NtRp3984
(dp3985
g54
(dp3986
g62
I4
ssg63
g3980
sg56
(lp3987
S'web2py'
p3988
asbasbasbasbasbasbasbag49
(g65
g51
NtRp3989
(dp3990
g54
(dp3991
sg63
g3572
sg56
(lp3992
g49
(g70
g51
NtRp3993
(dp3994
g54
(dp3995
g74
g75
ssg63
g3989
sg56
(lp3996
S'logo'
p3997
asbag49
(g70
g51
NtRp3998
(dp3999
g54
(dp4000
g81
g82
ssg63
g3989
sg56
(lp4001
S':'
asbag49
(g70
g51
NtRp4002
(dp4003
g54
(dp4004
sg63
g3989
sg56
(lp4005
g49
(g50
g51
NtRp4006
(dp4007
g54
(dp4008
g62
I5
ssg63
g4002
sg56
(lp4009
g49
(cgluon.html
A
p4010
g51
NtRp4011
(dp4012
g54
(dp4013
S'_class'
p4014
S'brand'
p4015
sS'_href'
p4016
S'http://www.web2py.com/'
p4017
ssg63
Nsg56
(lp4018
g49
(cgluon.html
B
p4019
g51
NtRp4020
(dp4021
g54
(dp4022
sg63
g4011
sg56
(lp4023
S'web'
p4024
ag49
(cgluon.html
SPAN
p4025
g51
NtRp4026
(dp4027
g54
(dp4028
sg63
g4020
sg56
(lp4029
I2
asbaS'py'
p4030
asbacgluon.html
XML_unpickle
p4031
(S's\r\x00\x00\x00&trade;&nbsp;'
tRp4032
asbasbasbasbag49
(g65
g51
NtRp4033
(dp4034
g54
(dp4035
sg63
g3572
sg56
(lp4036
g49
(g70
g51
NtRp4037
(dp4038
g54
(dp4039
g74
g75
ssg63
g4033
sg56
(lp4040
S'menu'
p4041
asbag49
(g70
g51
NtRp4042
(dp4043
g54
(dp4044
g81
g82
ssg63
g4033
sg56
(lp4045
S':'
asbag49
(g70
g51
NtRp4046
(dp4047
g54
(dp4048
sg63
g4033
sg56
(lp4049
g49
(g50
g51
NtRp4050
(dp4051
g54
(dp4052
g62
I5
ssg63
g4046
sg56
(lp4053
g49
(g58
g51
NtRp4054
(dp4055
g54
(dp4056
g62
I4
ssg63
Nsg56
(lp4057
g49
(g65
g51
NtRp4058
(dp4059
g54
(dp4060
sg63
g4054
sg56
(lp4061
g49
(g70
g51
NtRp4062
(dp4063
g54
(dp4064
sg63
g4058
sg56
(lp4065
g49
(g50
g51
NtRp4066
(dp4067
g54
(dp4068
g62
I4
ssg63
g4062
sg56
(lp4069
g49
(g58
g51
NtRp4070
(dp4071
g54
(dp4072
g62
I3
ssg63
Nsg56
(lp4073
g49
(g65
g51
NtRp4074
(dp4075
g54
(dp4076
sg63
g4070
sg56
(lp4077
g49
(g70
g51
NtRp4078
(dp4079
g54
(dp4080
sg63
g4074
sg56
(lp4081
g49
(g50
g51
NtRp4082
(dp4083
g54
(dp4084
g62
I3
ssg63
g4078
sg56
(lp4085
cgluon.languages
lazyT_unpickle
p4086
(S't\x04\x00\x00\x00Home'
tRp4087
asbasbasbag49
(g65
g51
NtRp4088
(dp4089
g54
(dp4090
sg63
g4070
sg56
(lp4091
g49
(g70
g51
NtRp4092
(dp4093
g54
(dp4094
sg63
g4088
sg56
(lp4095
g49
(g50
g51
NtRp4096
(dp4097
g54
(dp4098
g62
I3
ssg63
g4092
sg56
(lp4099
g92
asbasbasbag49
(g65
g51
NtRp4100
(dp4101
g54
(dp4102
sg63
g4070
sg56
(lp4103
g49
(g70
g51
NtRp4104
(dp4105
g54
(dp4106
sg63
g4100
sg56
(lp4107
g49
(g50
g51
NtRp4108
(dp4109
g54
(dp4110
g62
I3
ssg63
g4104
sg56
(lp4111
S'/hellow/default/index'
p4112
asbasbasbag49
(g65
g51
NtRp4113
(dp4114
g54
(dp4115
sg63
g4070
sg56
(lp4116
g49
(g70
g51
NtRp4117
(dp4118
g54
(dp4119
sg63
g4113
sg56
(lp4120
g49
(g50
g51
NtRp4121
(dp4122
g54
(dp4123
g62
I3
ssg63
g4117
sg56
(lp4124
g49
(g58
g51
NtRp4125
(dp4126
g54
(dp4127
g62
I2
ssg63
Nsg56
(lp4128
sbasbasbasbasbasbasbasbag49
(g65
g51
NtRp4129
(dp4130
g54
(dp4131
sg63
g4054
sg56
(lp4132
g49
(g70
g51
NtRp4133
(dp4134
g54
(dp4135
sg63
g4129
sg56
(lp4136
g49
(g50
g51
NtRp4137
(dp4138
g54
(dp4139
g62
I4
ssg63
g4133
sg56
(lp4140
g49
(g58
g51
NtRp4141
(dp4142
g54
(dp4143
g62
I3
ssg63
Nsg56
(lp4144
g49
(g65
g51
NtRp4145
(dp4146
g54
(dp4147
sg63
g4141
sg56
(lp4148
g49
(g70
g51
NtRp4149
(dp4150
g54
(dp4151
sg63
g4145
sg56
(lp4152
g49
(g50
g51
NtRp4153
(dp4154
g54
(dp4155
g62
I3
ssg63
g4149
sg56
(lp4156
g49
(g4025
g51
NtRp4157
(dp4158
g54
(dp4159
g4014
S'highlighted'
p4160
ssg63
Nsg56
(lp4161
g3988
asbasbasbasbag49
(g65
g51
NtRp4162
(dp4163
g54
(dp4164
sg63
g4141
sg56
(lp4165
g49
(g70
g51
NtRp4166
(dp4167
g54
(dp4168
sg63
g4162
sg56
(lp4169
g49
(g50
g51
NtRp4170
(dp4171
g54
(dp4172
g62
I3
ssg63
g4166
sg56
(lp4173
g92
asbasbasbag49
(g65
g51
NtRp4174
(dp4175
g54
(dp4176
sg63
g4141
sg56
(lp4177
g49
(g70
g51
NtRp4178
(dp4179
g54
(dp4180
sg63
g4174
sg56
(lp4181
g49
(g50
g51
NtRp4182
(dp4183
g54
(dp4184
g62
I3
ssg63
g4178
sg56
(lp4185
S'http://web2py.com'
p4186
asbasbasbag49
(g65
g51
NtRp4187
(dp4188
g54
(dp4189
sg63
g4141
sg56
(lp4190
g49
(g70
g51
NtRp4191
(dp4192
g54
(dp4193
sg63
g4187
sg56
(lp4194
g49
(g50
g51
NtRp4195
(dp4196
g54
(dp4197
g62
I3
ssg63
g4191
sg56
(lp4198
g49
(g58
g51
NtRp4199
(dp4200
g54
(dp4201
g62
I2
ssg63
Nsg56
(lp4202
g49
(g65
g51
NtRp4203
(dp4204
g54
(dp4205
sg63
g4199
sg56
(lp4206
g49
(g70
g51
NtRp4207
(dp4208
g54
(dp4209
sg63
g4203
sg56
(lp4210
g49
(g50
g51
NtRp4211
(dp4212
g54
(dp4213
g62
I2
ssg63
g4207
sg56
(lp4214
g49
(g58
g51
NtRp4215
(dp4216
g54
(dp4217
g62
I1
ssg63
Nsg56
(lp4218
g49
(g65
g51
NtRp4219
(dp4220
g54
(dp4221
sg63
g4215
sg56
(lp4222
g49
(g70
g51
NtRp4223
(dp4224
g54
(dp4225
sg63
g4219
sg56
(lp4226
g49
(g50
g51
NtRp4227
(dp4228
g54
(dp4229
g62
I1
ssg63
g4223
sg56
(lp4230
g4086
(S's\x08\x00\x00\x00My Sites'
tRp4231
asbasbasbag49
(g65
g51
NtRp4232
(dp4233
g54
(dp4234
sg63
g4215
sg56
(lp4235
g49
(g70
g51
NtRp4236
(dp4237
g54
(dp4238
sg63
g4232
sg56
(lp4239
g49
(g50
g51
NtRp4240
(dp4241
g54
(dp4242
g62
I1
ssg63
g4236
sg56
(lp4243
I00
asbasbasbag49
(g65
g51
NtRp4244
(dp4245
g54
(dp4246
sg63
g4215
sg56
(lp4247
g49
(g70
g51
NtRp4248
(dp4249
g54
(dp4250
sg63
g4244
sg56
(lp4251
g49
(g50
g51
NtRp4252
(dp4253
g54
(dp4254
g62
I1
ssg63
g4248
sg56
(lp4255
S'/admin/default/site'
p4256
asbasbasbasbasbasbasbag49
(g65
g51
NtRp4257
(dp4258
g54
(dp4259
sg63
g4199
sg56
(lp4260
g49
(g70
g51
NtRp4261
(dp4262
g54
(dp4263
sg63
g4257
sg56
(lp4264
g49
(g50
g51
NtRp4265
(dp4266
g54
(dp4267
g62
I2
ssg63
g4261
sg56
(lp4268
g49
(g58
g51
NtRp4269
(dp4270
g54
(dp4271
g62
I1
ssg63
Nsg56
(lp4272
g49
(g65
g51
NtRp4273
(dp4274
g54
(dp4275
sg63
g4269
sg56
(lp4276
g49
(g70
g51
NtRp4277
(dp4278
g54
(dp4279
sg63
g4273
sg56
(lp4280
g49
(g50
g51
NtRp4281
(dp4282
g54
(dp4283
g62
I1
ssg63
g4277
sg56
(lp4284
g4086
(S's\x08\x00\x00\x00This App'
tRp4285
asbasbasbag49
(g65
g51
NtRp4286
(dp4287
g54
(dp4288
sg63
g4269
sg56
(lp4289
g49
(g70
g51
NtRp4290
(dp4291
g54
(dp4292
sg63
g4286
sg56
(lp4293
g49
(g50
g51
NtRp4294
(dp4295
g54
(dp4296
g62
I1
ssg63
g4290
sg56
(lp4297
I00
asbasbasbag49
(g65
g51
NtRp4298
(dp4299
g54
(dp4300
sg63
g4269
sg56
(lp4301
g49
(g70
g51
NtRp4302
(dp4303
g54
(dp4304
sg63
g4298
sg56
(lp4305
g49
(g50
g51
NtRp4306
(dp4307
g54
(dp4308
g62
I1
ssg63
g4302
sg56
(lp4309
S'/admin/default/design/hellow'
p4310
asbasbasbag49
(g65
g51
NtRp4311
(dp4312
g54
(dp4313
sg63
g4269
sg56
(lp4314
g49
(g70
g51
NtRp4315
(dp4316
g54
(dp4317
sg63
g4311
sg56
(lp4318
g49
(g50
g51
NtRp4319
(dp4320
g54
(dp4321
g62
I1
ssg63
g4315
sg56
(lp4322
(lp4323
(g4086
(S't\n\x00\x00\x00Controller'
tRp4324
I00
S'/admin/default/edit/hellow/controllers/slot.py'
tp4325
a(g4086
(S't\x04\x00\x00\x00View'
tRp4326
I00
S'/admin/default/edit/hellow/views/slot/show.html'
tp4327
a(g4086
(S't\x06\x00\x00\x00Layout'
tRp4328
I00
S'/admin/default/edit/hellow/views/layout.html'
tp4329
a(g4086
(S't\n\x00\x00\x00Stylesheet'
tRp4330
I00
S'/admin/default/edit/hellow/static/css/web2py.css'
tp4331
a(g4086
(S's\x08\x00\x00\x00DB Model'
tRp4332
I00
S'/admin/default/edit/hellow/models/db.py'
tp4333
a(g4086
(S's\n\x00\x00\x00Menu Model'
tRp4334
I00
S'/admin/default/edit/hellow/models/menu.py'
tp4335
a(g4086
(S't\x08\x00\x00\x00Database'
tRp4336
I00
S'/hellow/appadmin/index'
tp4337
a(g4086
(S't\x06\x00\x00\x00Errors'
tRp4338
I00
S'/admin/default/errors/hellow'
tp4339
a(g4086
(S't\x05\x00\x00\x00About'
tRp4340
I00
S'/admin/default/about/hellow'
tp4341
aasbasbasbasbasbasbasbag49
(g65
g51
NtRp4342
(dp4343
g54
(dp4344
sg63
g4199
sg56
(lp4345
g49
(g70
g51
NtRp4346
(dp4347
g54
(dp4348
sg63
g4342
sg56
(lp4349
g49
(g50
g51
NtRp4350
(dp4351
g54
(dp4352
g62
I2
ssg63
g4346
sg56
(lp4353
g49
(g58
g51
NtRp4354
(dp4355
g54
(dp4356
g62
I1
ssg63
Nsg56
(lp4357
g49
(g65
g51
NtRp4358
(dp4359
g54
(dp4360
sg63
g4354
sg56
(lp4361
g49
(g70
g51
NtRp4362
(dp4363
g54
(dp4364
sg63
g4358
sg56
(lp4365
g49
(g50
g51
NtRp4366
(dp4367
g54
(dp4368
g62
I1
ssg63
g4362
sg56
(lp4369
S'web2py.com'
p4370
asbasbasbag49
(g65
g51
NtRp4371
(dp4372
g54
(dp4373
sg63
g4354
sg56
(lp4374
g49
(g70
g51
NtRp4375
(dp4376
g54
(dp4377
sg63
g4371
sg56
(lp4378
g49
(g50
g51
NtRp4379
(dp4380
g54
(dp4381
g62
I1
ssg63
g4375
sg56
(lp4382
I00
asbasbasbag49
(g65
g51
NtRp4383
(dp4384
g54
(dp4385
sg63
g4354
sg56
(lp4386
g49
(g70
g51
NtRp4387
(dp4388
g54
(dp4389
sg63
g4383
sg56
(lp4390
g49
(g50
g51
NtRp4391
(dp4392
g54
(dp4393
g62
I1
ssg63
g4387
sg56
(lp4394
S'http://www.web2py.com'
p4395
asbasbasbag49
(g65
g51
NtRp4396
(dp4397
g54
(dp4398
sg63
g4354
sg56
(lp4399
g49
(g70
g51
NtRp4400
(dp4401
g54
(dp4402
sg63
g4396
sg56
(lp4403
g49
(g50
g51
NtRp4404
(dp4405
g54
(dp4406
g62
I1
ssg63
g4400
sg56
(lp4407
(lp4408
(g4086
(S't\x08\x00\x00\x00Download'
tRp4409
I00
S'http://www.web2py.com/examples/default/download'
p4410
tp4411
a(g4086
(S't\x07\x00\x00\x00Support'
tRp4412
I00
S'http://www.web2py.com/examples/default/support'
p4413
tp4414
a(g4086
(S't\x04\x00\x00\x00Demo'
tRp4415
I00
S'http://web2py.com/demo_admin'
p4416
tp4417
a(g4086
(S's\x0e\x00\x00\x00Quick Examples'
tRp4418
I00
S'http://web2py.com/examples/default/examples'
p4419
tp4420
a(g4086
(S't\x03\x00\x00\x00FAQ'
tRp4421
I00
S'http://web2py.com/AlterEgo'
p4422
tp4423
a(g4086
(S't\x06\x00\x00\x00Videos'
tRp4424
I00
S'http://www.web2py.com/examples/default/videos/'
p4425
tp4426
a(g4086
(S's\x11\x00\x00\x00Free Applications'
tRp4427
I00
S'http://web2py.com/appliances'
p4428
tp4429
a(g4086
(S't\x07\x00\x00\x00Plugins'
tRp4430
I00
S'http://web2py.com/plugins'
p4431
tp4432
a(g4086
(S't\x07\x00\x00\x00Layouts'
tRp4433
I00
S'http://web2py.com/layouts'
p4434
tp4435
a(g4086
(S't\x07\x00\x00\x00Recipes'
tRp4436
I00
S'http://web2pyslices.com/'
p4437
tp4438
a(g4086
(S't\x08\x00\x00\x00Semantic'
tRp4439
I00
S'http://web2py.com/semantic'
p4440
tp4441
aasbasbasbasbasbasbasbag49
(g65
g51
NtRp4442
(dp4443
g54
(dp4444
sg63
g4199
sg56
(lp4445
g49
(g70
g51
NtRp4446
(dp4447
g54
(dp4448
sg63
g4442
sg56
(lp4449
g49
(g50
g51
NtRp4450
(dp4451
g54
(dp4452
g62
I2
ssg63
g4446
sg56
(lp4453
g49
(g58
g51
NtRp4454
(dp4455
g54
(dp4456
g62
I1
ssg63
Nsg56
(lp4457
g49
(g65
g51
NtRp4458
(dp4459
g54
(dp4460
sg63
g4454
sg56
(lp4461
g49
(g70
g51
NtRp4462
(dp4463
g54
(dp4464
sg63
g4458
sg56
(lp4465
g49
(g50
g51
NtRp4466
(dp4467
g54
(dp4468
g62
I1
ssg63
g4462
sg56
(lp4469
g4086
(S't\r\x00\x00\x00Documentation'
tRp4470
asbasbasbag49
(g65
g51
NtRp4471
(dp4472
g54
(dp4473
sg63
g4454
sg56
(lp4474
g49
(g70
g51
NtRp4475
(dp4476
g54
(dp4477
sg63
g4471
sg56
(lp4478
g49
(g50
g51
NtRp4479
(dp4480
g54
(dp4481
g62
I1
ssg63
g4475
sg56
(lp4482
I00
asbasbasbag49
(g65
g51
NtRp4483
(dp4484
g54
(dp4485
sg63
g4454
sg56
(lp4486
g49
(g70
g51
NtRp4487
(dp4488
g54
(dp4489
sg63
g4483
sg56
(lp4490
g49
(g50
g51
NtRp4491
(dp4492
g54
(dp4493
g62
I1
ssg63
g4487
sg56
(lp4494
S'http://www.web2py.com/book'
p4495
asbasbasbag49
(g65
g51
NtRp4496
(dp4497
g54
(dp4498
sg63
g4454
sg56
(lp4499
g49
(g70
g51
NtRp4500
(dp4501
g54
(dp4502
sg63
g4496
sg56
(lp4503
g49
(g50
g51
NtRp4504
(dp4505
g54
(dp4506
g62
I1
ssg63
g4500
sg56
(lp4507
(lp4508
(g4086
(S't\x07\x00\x00\x00Preface'
tRp4509
I00
S'http://www.web2py.com/book/default/chapter/00'
p4510
tp4511
a(g4086
(S't\x0c\x00\x00\x00Introduction'
tRp4512
I00
S'http://www.web2py.com/book/default/chapter/01'
p4513
tp4514
a(g4086
(S't\x06\x00\x00\x00Python'
tRp4515
I00
S'http://www.web2py.com/book/default/chapter/02'
p4516
tp4517
a(g4086
(S't\x08\x00\x00\x00Overview'
tRp4518
I00
S'http://www.web2py.com/book/default/chapter/03'
p4519
tp4520
a(g4086
(S's\x08\x00\x00\x00The Core'
tRp4521
I00
S'http://www.web2py.com/book/default/chapter/04'
p4522
tp4523
a(g4086
(S's\t\x00\x00\x00The Views'
tRp4524
I00
S'http://www.web2py.com/book/default/chapter/05'
p4525
tp4526
a(g4086
(S't\x08\x00\x00\x00Database'
tRp4527
I00
S'http://www.web2py.com/book/default/chapter/06'
p4528
tp4529
a(g4086
(S's\x14\x00\x00\x00Forms and Validators'
tRp4530
I00
S'http://www.web2py.com/book/default/chapter/07'
p4531
tp4532
a(g4086
(S's\r\x00\x00\x00Email and SMS'
tRp4533
I00
S'http://www.web2py.com/book/default/chapter/08'
p4534
tp4535
a(g4086
(S's\x0e\x00\x00\x00Access Control'
tRp4536
I00
S'http://www.web2py.com/book/default/chapter/09'
p4537
tp4538
a(g4086
(S't\x08\x00\x00\x00Services'
tRp4539
I00
S'http://www.web2py.com/book/default/chapter/10'
p4540
tp4541
a(g4086
(S's\x0c\x00\x00\x00Ajax Recipes'
tRp4542
I00
S'http://www.web2py.com/book/default/chapter/11'
p4543
tp4544
a(g4086
(S's\x16\x00\x00\x00Components and Plugins'
tRp4545
I00
S'http://www.web2py.com/book/default/chapter/12'
p4546
tp4547
a(g4086
(S's\x12\x00\x00\x00Deployment Recipes'
tRp4548
I00
S'http://www.web2py.com/book/default/chapter/13'
p4549
tp4550
a(g4086
(S's\r\x00\x00\x00Other Recipes'
tRp4551
I00
S'http://www.web2py.com/book/default/chapter/14'
p4552
tp4553
a(g4086
(S's\r\x00\x00\x00Buy this book'
tRp4554
I00
S'http://stores.lulu.com/web2py'
p4555
tp4556
aasbasbasbasbasbasbasbag49
(g65
g51
NtRp4557
(dp4558
g54
(dp4559
sg63
g4199
sg56
(lp4560
g49
(g70
g51
NtRp4561
(dp4562
g54
(dp4563
sg63
g4557
sg56
(lp4564
g49
(g50
g51
NtRp4565
(dp4566
g54
(dp4567
g62
I2
ssg63
g4561
sg56
(lp4568
g49
(g58
g51
NtRp4569
(dp4570
g54
(dp4571
g62
I1
ssg63
Nsg56
(lp4572
g49
(g65
g51
NtRp4573
(dp4574
g54
(dp4575
sg63
g4569
sg56
(lp4576
g49
(g70
g51
NtRp4577
(dp4578
g54
(dp4579
sg63
g4573
sg56
(lp4580
g49
(g50
g51
NtRp4581
(dp4582
g54
(dp4583
g62
I1
ssg63
g4577
sg56
(lp4584
g4086
(S't\t\x00\x00\x00Community'
tRp4585
asbasbasbag49
(g65
g51
NtRp4586
(dp4587
g54
(dp4588
sg63
g4569
sg56
(lp4589
g49
(g70
g51
NtRp4590
(dp4591
g54
(dp4592
sg63
g4586
sg56
(lp4593
g49
(g50
g51
NtRp4594
(dp4595
g54
(dp4596
g62
I1
ssg63
g4590
sg56
(lp4597
I00
asbasbasbag49
(g65
g51
NtRp4598
(dp4599
g54
(dp4600
sg63
g4569
sg56
(lp4601
g49
(g70
g51
NtRp4602
(dp4603
g54
(dp4604
sg63
g4598
sg56
(lp4605
g49
(g50
g51
NtRp4606
(dp4607
g54
(dp4608
g62
I1
ssg63
g4602
sg56
(lp4609
Nasbasbasbag49
(g65
g51
NtRp4610
(dp4611
g54
(dp4612
sg63
g4569
sg56
(lp4613
g49
(g70
g51
NtRp4614
(dp4615
g54
(dp4616
sg63
g4610
sg56
(lp4617
g49
(g50
g51
NtRp4618
(dp4619
g54
(dp4620
g62
I1
ssg63
g4614
sg56
(lp4621
(lp4622
(g4086
(S't\x06\x00\x00\x00Groups'
tRp4623
I00
S'http://www.web2py.com/examples/default/usergroups'
p4624
tp4625
a(g4086
(S't\x07\x00\x00\x00Twitter'
tRp4626
I00
S'http://twitter.com/web2py'
p4627
tp4628
a(g4086
(S's\t\x00\x00\x00Live Chat'
tRp4629
I00
S'http://webchat.freenode.net/?channels=web2py'
p4630
tp4631
aasbasbasbasbasbasbasbag49
(g65
g51
NtRp4632
(dp4633
g54
(dp4634
sg63
g4199
sg56
(lp4635
g49
(g70
g51
NtRp4636
(dp4637
g54
(dp4638
sg63
g4632
sg56
(lp4639
g49
(g50
g51
NtRp4640
(dp4641
g54
(dp4642
g62
I2
ssg63
g4636
sg56
(lp4643
g49
(g58
g51
NtRp4644
(dp4645
g54
(dp4646
g62
I1
ssg63
Nsg56
(lp4647
g49
(g65
g51
NtRp4648
(dp4649
g54
(dp4650
sg63
g4644
sg56
(lp4651
g49
(g70
g51
NtRp4652
(dp4653
g54
(dp4654
sg63
g4648
sg56
(lp4655
g49
(g50
g51
NtRp4656
(dp4657
g54
(dp4658
g62
I1
ssg63
g4652
sg56
(lp4659
g4086
(S't\x07\x00\x00\x00Plugins'
tRp4660
asbasbasbag49
(g65
g51
NtRp4661
(dp4662
g54
(dp4663
sg63
g4644
sg56
(lp4664
g49
(g70
g51
NtRp4665
(dp4666
g54
(dp4667
sg63
g4661
sg56
(lp4668
g49
(g50
g51
NtRp4669
(dp4670
g54
(dp4671
g62
I1
ssg63
g4665
sg56
(lp4672
I00
asbasbasbag49
(g65
g51
NtRp4673
(dp4674
g54
(dp4675
sg63
g4644
sg56
(lp4676
g49
(g70
g51
NtRp4677
(dp4678
g54
(dp4679
sg63
g4673
sg56
(lp4680
g49
(g50
g51
NtRp4681
(dp4682
g54
(dp4683
g62
I1
ssg63
g4677
sg56
(lp4684
Nasbasbasbag49
(g65
g51
NtRp4685
(dp4686
g54
(dp4687
sg63
g4644
sg56
(lp4688
g49
(g70
g51
NtRp4689
(dp4690
g54
(dp4691
sg63
g4685
sg56
(lp4692
g49
(g50
g51
NtRp4693
(dp4694
g54
(dp4695
g62
I1
ssg63
g4689
sg56
(lp4696
(lp4697
(S'plugin_wiki'
p4698
I00
S'http://web2py.com/examples/default/download'
p4699
tp4700
a(g4086
(S's\r\x00\x00\x00Other Plugins'
tRp4701
I00
g4431
tp4702
a(g4086
(S's\x0e\x00\x00\x00Layout Plugins'
tRp4703
I00
g4434
tp4704
aasbasbasbasbasbasbasbasbasbasbasbasbasbasbasbasbasbasbasbag49
(g65
g51
NtRp4705
(dp4706
g54
(dp4707
sg63
g3572
sg56
(lp4708
g49
(g70
g51
NtRp4709
(dp4710
g54
(dp4711
g74
g75
ssg63
g4705
sg56
(lp4712
S'meta'
p4713
asbag49
(g70
g51
NtRp4714
(dp4715
g54
(dp4716
g81
g82
ssg63
g4705
sg56
(lp4717
S':'
asbag49
(g70
g51
NtRp4718
(dp4719
g54
(dp4720
sg63
g4705
sg56
(lp4721
g49
(g50
g51
NtRp4722
(dp4723
g54
(dp4724
g62
I5
ssg63
g4718
sg56
(lp4725
g49
(g58
g51
NtRp4726
(dp4727
g54
(dp4728
g62
I4
ssg63
Nsg56
(lp4729
g49
(g65
g51
NtRp4730
(dp4731
g54
(dp4732
sg63
g4726
sg56
(lp4733
g49
(g70
g51
NtRp4734
(dp4735
g54
(dp4736
g74
g75
ssg63
g4730
sg56
(lp4737
S'author'
p4738
asbag49
(g70
g51
NtRp4739
(dp4740
g54
(dp4741
g81
g82
ssg63
g4730
sg56
(lp4742
S':'
asbag49
(g70
g51
NtRp4743
(dp4744
g54
(dp4745
sg63
g4730
sg56
(lp4746
g49
(g50
g51
NtRp4747
(dp4748
g54
(dp4749
g62
I4
ssg63
g4743
sg56
(lp4750
S'Your Name <you@example.com>'
p4751
asbasbasbag49
(g65
g51
NtRp4752
(dp4753
g54
(dp4754
sg63
g4726
sg56
(lp4755
g49
(g70
g51
NtRp4756
(dp4757
g54
(dp4758
g74
g75
ssg63
g4752
sg56
(lp4759
S'description'
p4760
asbag49
(g70
g51
NtRp4761
(dp4762
g54
(dp4763
g81
g82
ssg63
g4752
sg56
(lp4764
S':'
asbag49
(g70
g51
NtRp4765
(dp4766
g54
(dp4767
sg63
g4752
sg56
(lp4768
g49
(g50
g51
NtRp4769
(dp4770
g54
(dp4771
g62
I4
ssg63
g4765
sg56
(lp4772
S'a cool new app'
p4773
asbasbasbag49
(g65
g51
NtRp4774
(dp4775
g54
(dp4776
sg63
g4726
sg56
(lp4777
g49
(g70
g51
NtRp4778
(dp4779
g54
(dp4780
g74
g75
ssg63
g4774
sg56
(lp4781
S'generator'
p4782
asbag49
(g70
g51
NtRp4783
(dp4784
g54
(dp4785
g81
g82
ssg63
g4774
sg56
(lp4786
S':'
asbag49
(g70
g51
NtRp4787
(dp4788
g54
(dp4789
sg63
g4774
sg56
(lp4790
g49
(g50
g51
NtRp4791
(dp4792
g54
(dp4793
g62
I4
ssg63
g4787
sg56
(lp4794
S'Web2py Web Framework'
p4795
asbasbasbag49
(g65
g51
NtRp4796
(dp4797
g54
(dp4798
sg63
g4726
sg56
(lp4799
g49
(g70
g51
NtRp4800
(dp4801
g54
(dp4802
g74
g75
ssg63
g4796
sg56
(lp4803
S'keywords'
p4804
asbag49
(g70
g51
NtRp4805
(dp4806
g54
(dp4807
g81
g82
ssg63
g4796
sg56
(lp4808
S':'
asbag49
(g70
g51
NtRp4809
(dp4810
g54
(dp4811
sg63
g4796
sg56
(lp4812
g49
(g50
g51
NtRp4813
(dp4814
g54
(dp4815
g62
I4
ssg63
g4809
sg56
(lp4816
S'web2py, python, framework'
p4817
asbasbasbasbasbasbasbag49
(g65
g51
NtRp4818
(dp4819
g54
(dp4820
sg63
g3572
sg56
(lp4821
g49
(g70
g51
NtRp4822
(dp4823
g54
(dp4824
g74
g75
ssg63
g4818
sg56
(lp4825
S'models_to_run'
p4826
asbag49
(g70
g51
NtRp4827
(dp4828
g54
(dp4829
g81
g82
ssg63
g4818
sg56
(lp4830
S':'
asbag49
(g70
g51
NtRp4831
(dp4832
g54
(dp4833
sg63
g4818
sg56
(lp4834
g49
(g50
g51
NtRp4835
(dp4836
g54
(dp4837
g62
I5
ssg63
g4831
sg56
(lp4838
g49
(g58
g51
NtRp4839
(dp4840
g54
(dp4841
g62
I4
ssg63
Nsg56
(lp4842
g49
(g65
g51
NtRp4843
(dp4844
g54
(dp4845
sg63
g4839
sg56
(lp4846
g49
(g70
g51
NtRp4847
(dp4848
g54
(dp4849
sg63
g4843
sg56
(lp4850
g49
(g50
g51
NtRp4851
(dp4852
g54
(dp4853
g62
I4
ssg63
g4847
sg56
(lp4854
S'^\\w+\\.py$'
p4855
asbasbasbag49
(g65
g51
NtRp4856
(dp4857
g54
(dp4858
sg63
g4839
sg56
(lp4859
g49
(g70
g51
NtRp4860
(dp4861
g54
(dp4862
sg63
g4856
sg56
(lp4863
g49
(g50
g51
NtRp4864
(dp4865
g54
(dp4866
g62
I4
ssg63
g4860
sg56
(lp4867
S'^slot/\\w+\\.py$'
p4868
asbasbasbag49
(g65
g51
NtRp4869
(dp4870
g54
(dp4871
sg63
g4839
sg56
(lp4872
g49
(g70
g51
NtRp4873
(dp4874
g54
(dp4875
sg63
g4869
sg56
(lp4876
g49
(g50
g51
NtRp4877
(dp4878
g54
(dp4879
g62
I4
ssg63
g4873
sg56
(lp4880
S'^slot/show/\\w+\\.py$'
p4881
asbasbasbasbasbasbasbag49
(g65
g51
NtRp4882
(dp4883
g54
(dp4884
sg63
g3572
sg56
(lp4885
g49
(g70
g51
NtRp4886
(dp4887
g54
(dp4888
g74
g75
ssg63
g4882
sg56
(lp4889
S'postprocessing'
p4890
asbag49
(g70
g51
NtRp4891
(dp4892
g54
(dp4893
g81
g82
ssg63
g4882
sg56
(lp4894
S':'
asbag49
(g70
g51
NtRp4895
(dp4896
g54
(dp4897
sg63
g4882
sg56
(lp4898
g49
(g50
g51
NtRp4899
(dp4900
g54
(dp4901
g62
I5
ssg63
g4895
sg56
(lp4902
g49
(g58
g51
NtRp4903
(dp4904
g54
(dp4905
g62
I4
ssg63
Nsg56
(lp4906
sbasbasbasbag49
(g65
g51
NtRp4907
(dp4908
g54
(dp4909
sg63
g3572
sg56
(lp4910
g49
(g70
g51
NtRp4911
(dp4912
g54
(dp4913
g74
g75
ssg63
g4907
sg56
(lp4914
S'session_cookie_expires'
p4915
asbag49
(g70
g51
NtRp4916
(dp4917
g54
(dp4918
g81
g82
ssg63
g4907
sg56
(lp4919
S':'
asbag49
(g70
g51
NtRp4920
(dp4921
g54
(dp4922
sg63
g4907
sg56
(lp4923
g49
(g50
g51
NtRp4924
(dp4925
g54
(dp4926
g62
I5
ssg63
g4920
sg56
(lp4927
S'None'
p4928
asbasbasbag49
(g65
g51
NtRp4929
(dp4930
g54
(dp4931
sg63
g3572
sg56
(lp4932
g49
(g70
g51
NtRp4933
(dp4934
g54
(dp4935
g74
g75
ssg63
g4929
sg56
(lp4936
S'session_data_name'
p4937
asbag49
(g70
g51
NtRp4938
(dp4939
g54
(dp4940
g81
g82
ssg63
g4929
sg56
(lp4941
S':'
asbag49
(g70
g51
NtRp4942
(dp4943
g54
(dp4944
sg63
g4929
sg56
(lp4945
g49
(g50
g51
NtRp4946
(dp4947
g54
(dp4948
g62
I5
ssg63
g4942
sg56
(lp4949
S'session_data_hellow'
p4950
asbasbasbag49
(g65
g51
NtRp4951
(dp4952
g54
(dp4953
sg63
g3572
sg56
(lp4954
g49
(g70
g51
NtRp4955
(dp4956
g54
(dp4957
g74
g75
ssg63
g4951
sg56
(lp4958
S'session_file'
p4959
asbag49
(g70
g51
NtRp4960
(dp4961
g54
(dp4962
g81
g82
ssg63
g4951
sg56
(lp4963
S':'
asbag49
(g70
g51
NtRp4964
(dp4965
g54
(dp4966
sg63
g4951
sg56
(lp4967
g49
(g50
g51
NtRp4968
(dp4969
g54
(dp4970
g62
I5
ssg63
g4964
sg56
(lp4971
S"<open file '/Users/zamechek/Downloads/web2py/web2py.app/Contents/Resources/applications/hellow/sessions/127.0.0.1-f0c125e4-5d5e-4805-8c10-bdfc66367729', mode 'rb+' at 0xa81a7b8>"
p4972
asbasbasbag49
(g65
g51
NtRp4973
(dp4974
g54
(dp4975
sg63
g3572
sg56
(lp4976
g49
(g70
g51
NtRp4977
(dp4978
g54
(dp4979
g74
g75
ssg63
g4973
sg56
(lp4980
S'session_filename'
p4981
asbag49
(g70
g51
NtRp4982
(dp4983
g54
(dp4984
g81
g82
ssg63
g4973
sg56
(lp4985
S':'
asbag49
(g70
g51
NtRp4986
(dp4987
g54
(dp4988
sg63
g4973
sg56
(lp4989
g49
(g50
g51
NtRp4990
(dp4991
g54
(dp4992
g62
I5
ssg63
g4986
sg56
(lp4993
S'/Users/zamechek/Downloads/web2py/web2py.app/Contents/Resources/applications/hellow/sessions/127.0.0.1-f0c125e4-5d5e-4805-8c10-bdfc66367729'
p4994
asbasbasbag49
(g65
g51
NtRp4995
(dp4996
g54
(dp4997
sg63
g3572
sg56
(lp4998
g49
(g70
g51
NtRp4999
(dp5000
g54
(dp5001
g74
g75
ssg63
g4995
sg56
(lp5002
S'session_id'
p5003
asbag49
(g70
g51
NtRp5004
(dp5005
g54
(dp5006
g81
g82
ssg63
g4995
sg56
(lp5007
S':'
asbag49
(g70
g51
NtRp5008
(dp5009
g54
(dp5010
sg63
g4995
sg56
(lp5011
g49
(g50
g51
NtRp5012
(dp5013
g54
(dp5014
g62
I5
ssg63
g5008
sg56
(lp5015
g612
asbasbasbag49
(g65
g51
NtRp5016
(dp5017
g54
(dp5018
sg63
g3572
sg56
(lp5019
g49
(g70
g51
NtRp5020
(dp5021
g54
(dp5022
g74
g75
ssg63
g5016
sg56
(lp5023
S'session_id_name'
p5024
asbag49
(g70
g51
NtRp5025
(dp5026
g54
(dp5027
g81
g82
ssg63
g5016
sg56
(lp5028
S':'
asbag49
(g70
g51
NtRp5029
(dp5030
g54
(dp5031
sg63
g5016
sg56
(lp5032
g49
(g50
g51
NtRp5033
(dp5034
g54
(dp5035
g62
I5
ssg63
g5029
sg56
(lp5036
g3629
asbasbasbag49
(g65
g51
NtRp5037
(dp5038
g54
(dp5039
sg63
g3572
sg56
(lp5040
g49
(g70
g51
NtRp5041
(dp5042
g54
(dp5043
g74
g75
ssg63
g5037
sg56
(lp5044
S'session_locked'
p5045
asbag49
(g70
g51
NtRp5046
(dp5047
g54
(dp5048
g81
g82
ssg63
g5037
sg56
(lp5049
S':'
asbag49
(g70
g51
NtRp5050
(dp5051
g54
(dp5052
sg63
g5037
sg56
(lp5053
g49
(g50
g51
NtRp5054
(dp5055
g54
(dp5056
g62
I5
ssg63
g5050
sg56
(lp5057
g1248
asbasbasbag49
(g65
g51
NtRp5058
(dp5059
g54
(dp5060
sg63
g3572
sg56
(lp5061
g49
(g70
g51
NtRp5062
(dp5063
g54
(dp5064
g74
g75
ssg63
g5058
sg56
(lp5065
S'session_new'
p5066
asbag49
(g70
g51
NtRp5067
(dp5068
g54
(dp5069
g81
g82
ssg63
g5058
sg56
(lp5070
S':'
asbag49
(g70
g51
NtRp5071
(dp5072
g54
(dp5073
sg63
g5058
sg56
(lp5074
g49
(g50
g51
NtRp5075
(dp5076
g54
(dp5077
g62
I5
ssg63
g5071
sg56
(lp5078
g92
asbasbasbag49
(g65
g51
NtRp5079
(dp5080
g54
(dp5081
sg63
g3572
sg56
(lp5082
g49
(g70
g51
NtRp5083
(dp5084
g54
(dp5085
g74
g75
ssg63
g5079
sg56
(lp5086
S'session_storage_type'
p5087
asbag49
(g70
g51
NtRp5088
(dp5089
g54
(dp5090
g81
g82
ssg63
g5079
sg56
(lp5091
S':'
asbag49
(g70
g51
NtRp5092
(dp5093
g54
(dp5094
sg63
g5079
sg56
(lp5095
g49
(g50
g51
NtRp5096
(dp5097
g54
(dp5098
g62
I5
ssg63
g5092
sg56
(lp5099
g3463
asbasbasbag49
(g65
g51
NtRp5100
(dp5101
g54
(dp5102
sg63
g3572
sg56
(lp5103
g49
(g70
g51
NtRp5104
(dp5105
g54
(dp5106
g74
g75
ssg63
g5100
sg56
(lp5107
S'status'
p5108
asbag49
(g70
g51
NtRp5109
(dp5110
g54
(dp5111
g81
g82
ssg63
g5100
sg56
(lp5112
S':'
asbag49
(g70
g51
NtRp5113
(dp5114
g54
(dp5115
sg63
g5100
sg56
(lp5116
g49
(g50
g51
NtRp5117
(dp5118
g54
(dp5119
g62
I5
ssg63
g5113
sg56
(lp5120
S'200'
p5121
asbasbasbag49
(g65
g51
NtRp5122
(dp5123
g54
(dp5124
sg63
g3572
sg56
(lp5125
g49
(g70
g51
NtRp5126
(dp5127
g54
(dp5128
g74
g75
ssg63
g5122
sg56
(lp5129
S'subtitle'
p5130
asbag49
(g70
g51
NtRp5131
(dp5132
g54
(dp5133
g81
g82
ssg63
g5122
sg56
(lp5134
S':'
asbag49
(g70
g51
NtRp5135
(dp5136
g54
(dp5137
sg63
g5122
sg56
(lp5138
g49
(g50
g51
NtRp5139
(dp5140
g54
(dp5141
g62
I5
ssg63
g5135
sg56
(lp5142
g4086
(S's\r\x00\x00\x00customize me!'
tRp5143
asbasbasbag49
(g65
g51
NtRp5144
(dp5145
g54
(dp5146
sg63
g3572
sg56
(lp5147
g49
(g70
g51
NtRp5148
(dp5149
g54
(dp5150
g74
g75
ssg63
g5144
sg56
(lp5151
S'title'
p5152
asbag49
(g70
g51
NtRp5153
(dp5154
g54
(dp5155
g81
g82
ssg63
g5144
sg56
(lp5156
S':'
asbag49
(g70
g51
NtRp5157
(dp5158
g54
(dp5159
sg63
g5144
sg56
(lp5160
g49
(g50
g51
NtRp5161
(dp5162
g54
(dp5163
g62
I5
ssg63
g5157
sg56
(lp5164
S'Hellow'
p5165
asbasbasbag49
(g65
g51
NtRp5166
(dp5167
g54
(dp5168
sg63
g3572
sg56
(lp5169
g49
(g70
g51
NtRp5170
(dp5171
g54
(dp5172
g74
g75
ssg63
g5166
sg56
(lp5173
S'view'
p5174
asbag49
(g70
g51
NtRp5175
(dp5176
g54
(dp5177
g81
g82
ssg63
g5166
sg56
(lp5178
S':'
asbag49
(g70
g51
NtRp5179
(dp5180
g54
(dp5181
sg63
g5166
sg56
(lp5182
g49
(g50
g51
NtRp5183
(dp5184
g54
(dp5185
g62
I5
ssg63
g5179
sg56
(lp5186
S'slot/show.html'
p5187
asbasbasbasbasbsS'locals'
p5188
(dp5189
ssS'traceback'
p5190
S'Traceback (most recent call last):\n  File "/home/mdipierro/web2py/gluon/restricted.py", line 212, in restricted\n  File "/Users/zamechek/Downloads/web2py/web2py.app/Contents/Resources/applications/hellow/controllers/slot.py", line 16, in <module>\n  File "/home/mdipierro/web2py/gluon/globals.py", line 193, in <lambda>\n  File "/Users/zamechek/Downloads/web2py/web2py.app/Contents/Resources/applications/hellow/controllers/slot.py", line 7, in show\nIndexError: list index out of range\n'
p5191
s.