(dp1
S'output'
p2
S"<type 'exceptions.AttributeError'> 'module' object has no attribute 'now'"
p3
sS'layer'
p4
S'/Users/zamechek/Downloads/web2py/web2py.app/Contents/Resources/applications/hellow/controllers/game.py'
p5
sS'code'
p6
S'# coding: utf8\n# try something like\nimport random\nimport datetime\ndef show():\n    id = request.args[0]\n    game = db.game(id)\n    auth_user = (game.auth_user)\n    \n    query=((db.game.id==db.game_slots.game)&(db.slot.id==db.game_slots.slot))\n    #game_and_slots=(db.game.id==db.game_slots.game)&(db.slot.id==db.game_slots.slot)\n    rows = db(query).select(db.slot.id, db.slot.odds)\n    \n    otherForm = form_from_factory(rows, game, id)\n    return dict(name=auth_user.first_name.capitalize() + " " + auth_user.last_name.capitalize(), balance = game.balance, slots = rows, gameid = id, otherForm=otherForm)\n    \ndef form_from_factory(rows , game, id):\n    game_and_slots=db((db.game.id==db.game_slots.game)&(db.slot.id==db.game_slots.slot))\n    otherForm = SQLFORM.factory(\n        Field(\'bet\', requires=IS_NOT_EMPTY()),\n        Field(\'slot\', requires=IS_IN_DB(game_and_slots, \'slot.id\'), widget=SQLFORM.widgets.radio.widget))\n    if otherForm.process().accepted:\n        mybet = int(otherForm.vars.bet)\n        currentBalance =  int(game.balance)\n        remainingBalance = isWinner(int(otherForm.vars.slot), mybet, currentBalance)\n        game.update_record(balance=str(remainingBalance))\n        db.user_action.insert(game = game, auth_user = game.auth_user, slot = otherForm.vars.slot, bet = mybet, winning = currentBalance, odds = otherForm.vars.slot, datetime = datetime.now())\n        \n\n    elif otherForm.errors:\n        response.flash = \'form has errors\'\n    return otherForm\n    \ndef isWinner(odds, bet, balance):\n    if(random.randint(1, 10) > odds):\n        response.flash = \'You won\'\n        return bet + balance\n    else:\n        response.flash = \'You lost\'\n        return balance - bet\n\nresponse._vars=response._caller(show)\n'
p7
sS'snapshot'
p8
(dp9
S'exception'
p10
(dp11
S'__hash__'
p12
S"<method-wrapper '__hash__' of exceptions.AttributeError object at 0x95e7a58>"
p13
sS'__setattr__'
p14
S"<method-wrapper '__setattr__' of exceptions.AttributeError object at 0x95e7a58>"
p15
sS'__reduce_ex__'
p16
S'<built-in method __reduce_ex__ of exceptions.AttributeError object at 0x95e7a58>'
p17
sS'__getslice__'
p18
S"<method-wrapper '__getslice__' of exceptions.AttributeError object at 0x95e7a58>"
p19
sS'__getitem__'
p20
S"<method-wrapper '__getitem__' of exceptions.AttributeError object at 0x95e7a58>"
p21
sS'__setstate__'
p22
S'<built-in method __setstate__ of exceptions.AttributeError object at 0x95e7a58>'
p23
sS'__reduce__'
p24
S'<built-in method __reduce__ of exceptions.AttributeError object at 0x95e7a58>'
p25
sS'__str__'
p26
S"<method-wrapper '__str__' of exceptions.AttributeError object at 0x95e7a58>"
p27
sS'args'
p28
S'("\'module\' object has no attribute \'now\'",)'
p29
sS'__getattribute__'
p30
S"<method-wrapper '__getattribute__' of exceptions.AttributeError object at 0x95e7a58>"
p31
sS'__class__'
p32
S"<type 'exceptions.AttributeError'>"
p33
sS'__delattr__'
p34
S"<method-wrapper '__delattr__' of exceptions.AttributeError object at 0x95e7a58>"
p35
sS'__repr__'
p36
S"<method-wrapper '__repr__' of exceptions.AttributeError object at 0x95e7a58>"
p37
sS'__dict__'
p38
S'{}'
p39
sS'__doc__'
p40
S"'Attribute not found.'"
p41
sS'__init__'
p42
S"<method-wrapper '__init__' of exceptions.AttributeError object at 0x95e7a58>"
p43
sS'__new__'
p44
S'<built-in method __new__ of type object at 0x5f94a0>'
p45
ssS'evalue'
p46
S"'module' object has no attribute 'now'"
p47
sS'request'
p48
ccopy_reg
_reconstructor
p49
(cgluon.html
BEAUTIFY
p50
c__builtin__
object
p51
NtRp52
(dp53
S'attributes'
p54
(dp55
sS'components'
p56
(lp57
g49
(cgluon.html
TABLE
p58
g51
NtRp59
(dp60
g54
(dp61
S'level'
p62
I5
ssS'parent'
p63
Nsg56
(lp64
g49
(cgluon.html
TR
p65
g51
NtRp66
(dp67
g54
(dp68
sg63
g59
sg56
(lp69
g49
(cgluon.html
TD
p70
g51
NtRp71
(dp72
g54
(dp73
S'_style'
p74
S'font-weight:bold;vertical-align:top'
p75
ssg63
g66
sg56
(lp76
S'ajax'
p77
asbag49
(g70
g51
NtRp78
(dp79
g54
(dp80
S'_valign'
p81
S'top'
p82
ssg63
g66
sg56
(lp83
S':'
asbag49
(g70
g51
NtRp84
(dp85
g54
(dp86
sg63
g66
sg56
(lp87
g49
(g50
g51
NtRp88
(dp89
g54
(dp90
g62
I5
ssg63
g84
sg56
(lp91
S'False'
p92
asbasbasbag49
(g65
g51
NtRp93
(dp94
g54
(dp95
sg63
g59
sg56
(lp96
g49
(g70
g51
NtRp97
(dp98
g54
(dp99
g74
g75
ssg63
g93
sg56
(lp100
S'application'
p101
asbag49
(g70
g51
NtRp102
(dp103
g54
(dp104
g81
g82
ssg63
g93
sg56
(lp105
S':'
asbag49
(g70
g51
NtRp106
(dp107
g54
(dp108
sg63
g93
sg56
(lp109
g49
(g50
g51
NtRp110
(dp111
g54
(dp112
g62
I5
ssg63
g106
sg56
(lp113
S'hellow'
p114
asbasbasbag49
(g65
g51
NtRp115
(dp116
g54
(dp117
sg63
g59
sg56
(lp118
g49
(g70
g51
NtRp119
(dp120
g54
(dp121
g74
g75
ssg63
g115
sg56
(lp122
g28
asbag49
(g70
g51
NtRp123
(dp124
g54
(dp125
g81
g82
ssg63
g115
sg56
(lp126
S':'
asbag49
(g70
g51
NtRp127
(dp128
g54
(dp129
sg63
g115
sg56
(lp130
g49
(g50
g51
NtRp131
(dp132
g54
(dp133
g62
I5
ssg63
g127
sg56
(lp134
g49
(g58
g51
NtRp135
(dp136
g54
(dp137
g62
I4
ssg63
Nsg56
(lp138
g49
(g65
g51
NtRp139
(dp140
g54
(dp141
sg63
g135
sg56
(lp142
g49
(g70
g51
NtRp143
(dp144
g54
(dp145
sg63
g139
sg56
(lp146
g49
(g50
g51
NtRp147
(dp148
g54
(dp149
g62
I4
ssg63
g143
sg56
(lp150
S'1'
asbasbasbasbasbasbasbag49
(g65
g51
NtRp151
(dp152
g54
(dp153
sg63
g59
sg56
(lp154
g49
(g70
g51
NtRp155
(dp156
g54
(dp157
g74
g75
ssg63
g151
sg56
(lp158
S'body'
p159
asbag49
(g70
g51
NtRp160
(dp161
g54
(dp162
g81
g82
ssg63
g151
sg56
(lp163
S':'
asbag49
(g70
g51
NtRp164
(dp165
g54
(dp166
sg63
g151
sg56
(lp167
g49
(g50
g51
NtRp168
(dp169
g54
(dp170
g62
I5
ssg63
g164
sg56
(lp171
S"<open file '<fdopen>', mode 'w+b' at 0x92bc0f8>"
p172
asbasbasbag49
(g65
g51
NtRp173
(dp174
g54
(dp175
sg63
g59
sg56
(lp176
g49
(g70
g51
NtRp177
(dp178
g54
(dp179
g74
g75
ssg63
g173
sg56
(lp180
S'cid'
p181
asbag49
(g70
g51
NtRp182
(dp183
g54
(dp184
g81
g82
ssg63
g173
sg56
(lp185
S':'
asbag49
(g70
g51
NtRp186
(dp187
g54
(dp188
sg63
g173
sg56
(lp189
g49
(g50
g51
NtRp190
(dp191
g54
(dp192
g62
I5
ssg63
g186
sg56
(lp193
S'None'
p194
asbasbasbag49
(g65
g51
NtRp195
(dp196
g54
(dp197
sg63
g59
sg56
(lp198
g49
(g70
g51
NtRp199
(dp200
g54
(dp201
g74
g75
ssg63
g195
sg56
(lp202
S'client'
p203
asbag49
(g70
g51
NtRp204
(dp205
g54
(dp206
g81
g82
ssg63
g195
sg56
(lp207
S':'
asbag49
(g70
g51
NtRp208
(dp209
g54
(dp210
sg63
g195
sg56
(lp211
g49
(g50
g51
NtRp212
(dp213
g54
(dp214
g62
I5
ssg63
g208
sg56
(lp215
S'127.0.0.1'
p216
asbasbasbag49
(g65
g51
NtRp217
(dp218
g54
(dp219
sg63
g59
sg56
(lp220
g49
(g70
g51
NtRp221
(dp222
g54
(dp223
g74
g75
ssg63
g217
sg56
(lp224
S'controller'
p225
asbag49
(g70
g51
NtRp226
(dp227
g54
(dp228
g81
g82
ssg63
g217
sg56
(lp229
S':'
asbag49
(g70
g51
NtRp230
(dp231
g54
(dp232
sg63
g217
sg56
(lp233
g49
(g50
g51
NtRp234
(dp235
g54
(dp236
g62
I5
ssg63
g230
sg56
(lp237
S'game'
p238
asbasbasbag49
(g65
g51
NtRp239
(dp240
g54
(dp241
sg63
g59
sg56
(lp242
g49
(g70
g51
NtRp243
(dp244
g54
(dp245
g74
g75
ssg63
g239
sg56
(lp246
S'cookies'
p247
asbag49
(g70
g51
NtRp248
(dp249
g54
(dp250
g81
g82
ssg63
g239
sg56
(lp251
S':'
asbag49
(g70
g51
NtRp252
(dp253
g54
(dp254
sg63
g239
sg56
(lp255
g49
(g50
g51
NtRp256
(dp257
g54
(dp258
g62
I5
ssg63
g252
sg56
(lp259
g49
(g58
g51
NtRp260
(dp261
g54
(dp262
g62
I4
ssg63
Nsg56
(lp263
g49
(g65
g51
NtRp264
(dp265
g54
(dp266
sg63
g260
sg56
(lp267
g49
(g70
g51
NtRp268
(dp269
g54
(dp270
g74
g75
ssg63
g264
sg56
(lp271
S'session_id_admin'
p272
asbag49
(g70
g51
NtRp273
(dp274
g54
(dp275
g81
g82
ssg63
g264
sg56
(lp276
S':'
asbag49
(g70
g51
NtRp277
(dp278
g54
(dp279
sg63
g264
sg56
(lp280
g49
(g50
g51
NtRp281
(dp282
g54
(dp283
g62
I4
ssg63
g277
sg56
(lp284
S'127.0.0.1-bf448199-cadc-41e3-b1a7-bed302e89a3e'
p285
ag49
(g58
g51
NtRp286
(dp287
g54
(dp288
g62
I3
ssg63
Nsg56
(lp289
g49
(g65
g51
NtRp290
(dp291
g54
(dp292
sg63
g286
sg56
(lp293
g49
(g70
g51
NtRp294
(dp295
g54
(dp296
g74
g75
ssg63
g290
sg56
(lp297
S'comment'
p298
asbag49
(g70
g51
NtRp299
(dp300
g54
(dp301
g81
g82
ssg63
g290
sg56
(lp302
S':'
asbag49
(g70
g51
NtRp303
(dp304
g54
(dp305
sg63
g290
sg56
(lp306
g49
(g50
g51
NtRp307
(dp308
g54
(dp309
g62
I3
ssg63
g303
sg56
(lp310
S''
asbasbasbag49
(g65
g51
NtRp311
(dp312
g54
(dp313
sg63
g286
sg56
(lp314
g49
(g70
g51
NtRp315
(dp316
g54
(dp317
g74
g75
ssg63
g311
sg56
(lp318
S'domain'
p319
asbag49
(g70
g51
NtRp320
(dp321
g54
(dp322
g81
g82
ssg63
g311
sg56
(lp323
S':'
asbag49
(g70
g51
NtRp324
(dp325
g54
(dp326
sg63
g311
sg56
(lp327
g49
(g50
g51
NtRp328
(dp329
g54
(dp330
g62
I3
ssg63
g324
sg56
(lp331
S''
asbasbasbag49
(g65
g51
NtRp332
(dp333
g54
(dp334
sg63
g286
sg56
(lp335
g49
(g70
g51
NtRp336
(dp337
g54
(dp338
g74
g75
ssg63
g332
sg56
(lp339
S'expires'
p340
asbag49
(g70
g51
NtRp341
(dp342
g54
(dp343
g81
g82
ssg63
g332
sg56
(lp344
S':'
asbag49
(g70
g51
NtRp345
(dp346
g54
(dp347
sg63
g332
sg56
(lp348
g49
(g50
g51
NtRp349
(dp350
g54
(dp351
g62
I3
ssg63
g345
sg56
(lp352
S''
asbasbasbag49
(g65
g51
NtRp353
(dp354
g54
(dp355
sg63
g286
sg56
(lp356
g49
(g70
g51
NtRp357
(dp358
g54
(dp359
g74
g75
ssg63
g353
sg56
(lp360
S'max-age'
p361
asbag49
(g70
g51
NtRp362
(dp363
g54
(dp364
g81
g82
ssg63
g353
sg56
(lp365
S':'
asbag49
(g70
g51
NtRp366
(dp367
g54
(dp368
sg63
g353
sg56
(lp369
g49
(g50
g51
NtRp370
(dp371
g54
(dp372
g62
I3
ssg63
g366
sg56
(lp373
S''
asbasbasbag49
(g65
g51
NtRp374
(dp375
g54
(dp376
sg63
g286
sg56
(lp377
g49
(g70
g51
NtRp378
(dp379
g54
(dp380
g74
g75
ssg63
g374
sg56
(lp381
S'path'
p382
asbag49
(g70
g51
NtRp383
(dp384
g54
(dp385
g81
g82
ssg63
g374
sg56
(lp386
S':'
asbag49
(g70
g51
NtRp387
(dp388
g54
(dp389
sg63
g374
sg56
(lp390
g49
(g50
g51
NtRp391
(dp392
g54
(dp393
g62
I3
ssg63
g387
sg56
(lp394
S''
asbasbasbag49
(g65
g51
NtRp395
(dp396
g54
(dp397
sg63
g286
sg56
(lp398
g49
(g70
g51
NtRp399
(dp400
g54
(dp401
g74
g75
ssg63
g395
sg56
(lp402
S'secure'
p403
asbag49
(g70
g51
NtRp404
(dp405
g54
(dp406
g81
g82
ssg63
g395
sg56
(lp407
S':'
asbag49
(g70
g51
NtRp408
(dp409
g54
(dp410
sg63
g395
sg56
(lp411
g49
(g50
g51
NtRp412
(dp413
g54
(dp414
g62
I3
ssg63
g408
sg56
(lp415
S''
asbasbasbag49
(g65
g51
NtRp416
(dp417
g54
(dp418
sg63
g286
sg56
(lp419
g49
(g70
g51
NtRp420
(dp421
g54
(dp422
g74
g75
ssg63
g416
sg56
(lp423
S'version'
p424
asbag49
(g70
g51
NtRp425
(dp426
g54
(dp427
g81
g82
ssg63
g416
sg56
(lp428
S':'
asbag49
(g70
g51
NtRp429
(dp430
g54
(dp431
sg63
g416
sg56
(lp432
g49
(g50
g51
NtRp433
(dp434
g54
(dp435
g62
I3
ssg63
g429
sg56
(lp436
S''
asbasbasbasbasbasbasbag49
(g65
g51
NtRp437
(dp438
g54
(dp439
sg63
g260
sg56
(lp440
g49
(g70
g51
NtRp441
(dp442
g54
(dp443
g74
g75
ssg63
g437
sg56
(lp444
S'session_id_hellow'
p445
asbag49
(g70
g51
NtRp446
(dp447
g54
(dp448
g81
g82
ssg63
g437
sg56
(lp449
S':'
asbag49
(g70
g51
NtRp450
(dp451
g54
(dp452
sg63
g437
sg56
(lp453
g49
(g50
g51
NtRp454
(dp455
g54
(dp456
g62
I4
ssg63
g450
sg56
(lp457
S'127.0.0.1-bbea59f2-333e-4593-a45c-2c44a5133d77'
p458
ag49
(g58
g51
NtRp459
(dp460
g54
(dp461
g62
I3
ssg63
Nsg56
(lp462
g49
(g65
g51
NtRp463
(dp464
g54
(dp465
sg63
g459
sg56
(lp466
g49
(g70
g51
NtRp467
(dp468
g54
(dp469
g74
g75
ssg63
g463
sg56
(lp470
g298
asbag49
(g70
g51
NtRp471
(dp472
g54
(dp473
g81
g82
ssg63
g463
sg56
(lp474
S':'
asbag49
(g70
g51
NtRp475
(dp476
g54
(dp477
sg63
g463
sg56
(lp478
g49
(g50
g51
NtRp479
(dp480
g54
(dp481
g62
I3
ssg63
g475
sg56
(lp482
S''
asbasbasbag49
(g65
g51
NtRp483
(dp484
g54
(dp485
sg63
g459
sg56
(lp486
g49
(g70
g51
NtRp487
(dp488
g54
(dp489
g74
g75
ssg63
g483
sg56
(lp490
g319
asbag49
(g70
g51
NtRp491
(dp492
g54
(dp493
g81
g82
ssg63
g483
sg56
(lp494
S':'
asbag49
(g70
g51
NtRp495
(dp496
g54
(dp497
sg63
g483
sg56
(lp498
g49
(g50
g51
NtRp499
(dp500
g54
(dp501
g62
I3
ssg63
g495
sg56
(lp502
S''
asbasbasbag49
(g65
g51
NtRp503
(dp504
g54
(dp505
sg63
g459
sg56
(lp506
g49
(g70
g51
NtRp507
(dp508
g54
(dp509
g74
g75
ssg63
g503
sg56
(lp510
g340
asbag49
(g70
g51
NtRp511
(dp512
g54
(dp513
g81
g82
ssg63
g503
sg56
(lp514
S':'
asbag49
(g70
g51
NtRp515
(dp516
g54
(dp517
sg63
g503
sg56
(lp518
g49
(g50
g51
NtRp519
(dp520
g54
(dp521
g62
I3
ssg63
g515
sg56
(lp522
S''
asbasbasbag49
(g65
g51
NtRp523
(dp524
g54
(dp525
sg63
g459
sg56
(lp526
g49
(g70
g51
NtRp527
(dp528
g54
(dp529
g74
g75
ssg63
g523
sg56
(lp530
g361
asbag49
(g70
g51
NtRp531
(dp532
g54
(dp533
g81
g82
ssg63
g523
sg56
(lp534
S':'
asbag49
(g70
g51
NtRp535
(dp536
g54
(dp537
sg63
g523
sg56
(lp538
g49
(g50
g51
NtRp539
(dp540
g54
(dp541
g62
I3
ssg63
g535
sg56
(lp542
S''
asbasbasbag49
(g65
g51
NtRp543
(dp544
g54
(dp545
sg63
g459
sg56
(lp546
g49
(g70
g51
NtRp547
(dp548
g54
(dp549
g74
g75
ssg63
g543
sg56
(lp550
g382
asbag49
(g70
g51
NtRp551
(dp552
g54
(dp553
g81
g82
ssg63
g543
sg56
(lp554
S':'
asbag49
(g70
g51
NtRp555
(dp556
g54
(dp557
sg63
g543
sg56
(lp558
g49
(g50
g51
NtRp559
(dp560
g54
(dp561
g62
I3
ssg63
g555
sg56
(lp562
S''
asbasbasbag49
(g65
g51
NtRp563
(dp564
g54
(dp565
sg63
g459
sg56
(lp566
g49
(g70
g51
NtRp567
(dp568
g54
(dp569
g74
g75
ssg63
g563
sg56
(lp570
g403
asbag49
(g70
g51
NtRp571
(dp572
g54
(dp573
g81
g82
ssg63
g563
sg56
(lp574
S':'
asbag49
(g70
g51
NtRp575
(dp576
g54
(dp577
sg63
g563
sg56
(lp578
g49
(g50
g51
NtRp579
(dp580
g54
(dp581
g62
I3
ssg63
g575
sg56
(lp582
S''
asbasbasbag49
(g65
g51
NtRp583
(dp584
g54
(dp585
sg63
g459
sg56
(lp586
g49
(g70
g51
NtRp587
(dp588
g54
(dp589
g74
g75
ssg63
g583
sg56
(lp590
g424
asbag49
(g70
g51
NtRp591
(dp592
g54
(dp593
g81
g82
ssg63
g583
sg56
(lp594
S':'
asbag49
(g70
g51
NtRp595
(dp596
g54
(dp597
sg63
g583
sg56
(lp598
g49
(g50
g51
NtRp599
(dp600
g54
(dp601
g62
I3
ssg63
g595
sg56
(lp602
S''
asbasbasbasbasbasbasbag49
(g65
g51
NtRp603
(dp604
g54
(dp605
sg63
g260
sg56
(lp606
g49
(g70
g51
NtRp607
(dp608
g54
(dp609
g74
g75
ssg63
g603
sg56
(lp610
S'session_id_welcome'
p611
asbag49
(g70
g51
NtRp612
(dp613
g54
(dp614
g81
g82
ssg63
g603
sg56
(lp615
S':'
asbag49
(g70
g51
NtRp616
(dp617
g54
(dp618
sg63
g603
sg56
(lp619
g49
(g50
g51
NtRp620
(dp621
g54
(dp622
g62
I4
ssg63
g616
sg56
(lp623
S'127.0.0.1-dfebfa33-25aa-4072-bce4-08f7e89e2d04'
p624
ag49
(g58
g51
NtRp625
(dp626
g54
(dp627
g62
I3
ssg63
Nsg56
(lp628
g49
(g65
g51
NtRp629
(dp630
g54
(dp631
sg63
g625
sg56
(lp632
g49
(g70
g51
NtRp633
(dp634
g54
(dp635
g74
g75
ssg63
g629
sg56
(lp636
g298
asbag49
(g70
g51
NtRp637
(dp638
g54
(dp639
g81
g82
ssg63
g629
sg56
(lp640
S':'
asbag49
(g70
g51
NtRp641
(dp642
g54
(dp643
sg63
g629
sg56
(lp644
g49
(g50
g51
NtRp645
(dp646
g54
(dp647
g62
I3
ssg63
g641
sg56
(lp648
S''
asbasbasbag49
(g65
g51
NtRp649
(dp650
g54
(dp651
sg63
g625
sg56
(lp652
g49
(g70
g51
NtRp653
(dp654
g54
(dp655
g74
g75
ssg63
g649
sg56
(lp656
g319
asbag49
(g70
g51
NtRp657
(dp658
g54
(dp659
g81
g82
ssg63
g649
sg56
(lp660
S':'
asbag49
(g70
g51
NtRp661
(dp662
g54
(dp663
sg63
g649
sg56
(lp664
g49
(g50
g51
NtRp665
(dp666
g54
(dp667
g62
I3
ssg63
g661
sg56
(lp668
S''
asbasbasbag49
(g65
g51
NtRp669
(dp670
g54
(dp671
sg63
g625
sg56
(lp672
g49
(g70
g51
NtRp673
(dp674
g54
(dp675
g74
g75
ssg63
g669
sg56
(lp676
g340
asbag49
(g70
g51
NtRp677
(dp678
g54
(dp679
g81
g82
ssg63
g669
sg56
(lp680
S':'
asbag49
(g70
g51
NtRp681
(dp682
g54
(dp683
sg63
g669
sg56
(lp684
g49
(g50
g51
NtRp685
(dp686
g54
(dp687
g62
I3
ssg63
g681
sg56
(lp688
S''
asbasbasbag49
(g65
g51
NtRp689
(dp690
g54
(dp691
sg63
g625
sg56
(lp692
g49
(g70
g51
NtRp693
(dp694
g54
(dp695
g74
g75
ssg63
g689
sg56
(lp696
g361
asbag49
(g70
g51
NtRp697
(dp698
g54
(dp699
g81
g82
ssg63
g689
sg56
(lp700
S':'
asbag49
(g70
g51
NtRp701
(dp702
g54
(dp703
sg63
g689
sg56
(lp704
g49
(g50
g51
NtRp705
(dp706
g54
(dp707
g62
I3
ssg63
g701
sg56
(lp708
S''
asbasbasbag49
(g65
g51
NtRp709
(dp710
g54
(dp711
sg63
g625
sg56
(lp712
g49
(g70
g51
NtRp713
(dp714
g54
(dp715
g74
g75
ssg63
g709
sg56
(lp716
g382
asbag49
(g70
g51
NtRp717
(dp718
g54
(dp719
g81
g82
ssg63
g709
sg56
(lp720
S':'
asbag49
(g70
g51
NtRp721
(dp722
g54
(dp723
sg63
g709
sg56
(lp724
g49
(g50
g51
NtRp725
(dp726
g54
(dp727
g62
I3
ssg63
g721
sg56
(lp728
S''
asbasbasbag49
(g65
g51
NtRp729
(dp730
g54
(dp731
sg63
g625
sg56
(lp732
g49
(g70
g51
NtRp733
(dp734
g54
(dp735
g74
g75
ssg63
g729
sg56
(lp736
g403
asbag49
(g70
g51
NtRp737
(dp738
g54
(dp739
g81
g82
ssg63
g729
sg56
(lp740
S':'
asbag49
(g70
g51
NtRp741
(dp742
g54
(dp743
sg63
g729
sg56
(lp744
g49
(g50
g51
NtRp745
(dp746
g54
(dp747
g62
I3
ssg63
g741
sg56
(lp748
S''
asbasbasbag49
(g65
g51
NtRp749
(dp750
g54
(dp751
sg63
g625
sg56
(lp752
g49
(g70
g51
NtRp753
(dp754
g54
(dp755
g74
g75
ssg63
g749
sg56
(lp756
g424
asbag49
(g70
g51
NtRp757
(dp758
g54
(dp759
g81
g82
ssg63
g749
sg56
(lp760
S':'
asbag49
(g70
g51
NtRp761
(dp762
g54
(dp763
sg63
g749
sg56
(lp764
g49
(g50
g51
NtRp765
(dp766
g54
(dp767
g62
I3
ssg63
g761
sg56
(lp768
S''
asbasbasbasbasbasbasbasbasbasbasbag49
(g65
g51
NtRp769
(dp770
g54
(dp771
sg63
g59
sg56
(lp772
g49
(g70
g51
NtRp773
(dp774
g54
(dp775
g74
g75
ssg63
g769
sg56
(lp776
S'env'
p777
asbag49
(g70
g51
NtRp778
(dp779
g54
(dp780
g81
g82
ssg63
g769
sg56
(lp781
S':'
asbag49
(g70
g51
NtRp782
(dp783
g54
(dp784
sg63
g769
sg56
(lp785
g49
(g50
g51
NtRp786
(dp787
g54
(dp788
g62
I5
ssg63
g782
sg56
(lp789
g49
(g58
g51
NtRp790
(dp791
g54
(dp792
g62
I4
ssg63
Nsg56
(lp793
g49
(g65
g51
NtRp794
(dp795
g54
(dp796
sg63
g790
sg56
(lp797
g49
(g70
g51
NtRp798
(dp799
g54
(dp800
g74
g75
ssg63
g794
sg56
(lp801
S'app_folders'
p802
asbag49
(g70
g51
NtRp803
(dp804
g54
(dp805
g81
g82
ssg63
g794
sg56
(lp806
S':'
asbag49
(g70
g51
NtRp807
(dp808
g54
(dp809
sg63
g794
sg56
(lp810
g49
(g50
g51
NtRp811
(dp812
g54
(dp813
g62
I4
ssg63
g807
sg56
(lp814
S"set(['/Users/zamechek/Downloads/web2py/web2py.app/Contents/Resources/applications/hellow/', '/Users/zamechek/Downloads/web2py/web2py.app/Contents/Resources/applications/admin/', '/Users/zamechek/Downloads/web2py/web2py.app/Contents/Resources/applications/welcome/'])"
p815
asbasbasbag49
(g65
g51
NtRp816
(dp817
g54
(dp818
sg63
g790
sg56
(lp819
g49
(g70
g51
NtRp820
(dp821
g54
(dp822
g74
g75
ssg63
g816
sg56
(lp823
S'applications_parent'
p824
asbag49
(g70
g51
NtRp825
(dp826
g54
(dp827
g81
g82
ssg63
g816
sg56
(lp828
S':'
asbag49
(g70
g51
NtRp829
(dp830
g54
(dp831
sg63
g816
sg56
(lp832
g49
(g50
g51
NtRp833
(dp834
g54
(dp835
g62
I4
ssg63
g829
sg56
(lp836
S'/Users/zamechek/Downloads/web2py/web2py.app/Contents/Resources'
p837
asbasbasbag49
(g65
g51
NtRp838
(dp839
g54
(dp840
sg63
g790
sg56
(lp841
g49
(g70
g51
NtRp842
(dp843
g54
(dp844
g74
g75
ssg63
g838
sg56
(lp845
S'cmd_args'
p846
asbag49
(g70
g51
NtRp847
(dp848
g54
(dp849
g81
g82
ssg63
g838
sg56
(lp850
S':'
asbag49
(g70
g51
NtRp851
(dp852
g54
(dp853
sg63
g838
sg56
(lp854
g49
(g50
g51
NtRp855
(dp856
g54
(dp857
g62
I4
ssg63
g851
sg56
(lp858
g49
(g58
g51
NtRp859
(dp860
g54
(dp861
g62
I3
ssg63
Nsg56
(lp862
sbasbasbasbag49
(g65
g51
NtRp863
(dp864
g54
(dp865
sg63
g790
sg56
(lp866
g49
(g70
g51
NtRp867
(dp868
g54
(dp869
g74
g75
ssg63
g863
sg56
(lp870
S'cmd_options'
p871
asbag49
(g70
g51
NtRp872
(dp873
g54
(dp874
g81
g82
ssg63
g863
sg56
(lp875
S':'
asbag49
(g70
g51
NtRp876
(dp877
g54
(dp878
sg63
g863
sg56
(lp879
g49
(g50
g51
NtRp880
(dp881
g54
(dp882
g62
I4
ssg63
g876
sg56
(lp883
S"<Values at 0x478bf58: {'verbose': False, 'ip': '127.0.0.1', 'with_scheduler': False, 'ips': ['130.91.149.119'], 'shutdown_timeout': 5, 'taskbar': False, 'port': 8000, 'maxthreads': None, 'softcron': False, 'server_name': 'hntvlan5310374.wlan.sas.upenn.edu', 'bpython': False, 'nogui': False, 'pid_filename': 'httpserver.pid', 'extcron': False, 'runcron': False, 'run_system_tests': False, 'test': None, 'folder': '/Users/zamechek/Downloads/web2py/web2py.app/Contents/Resources', 'config': '', 'import_models': False, 'winservice': '', 'shell': None, 'run': '', 'log_filename': 'httpserver.log', 'debuglevel': 30, 'args': [''], 'socket_timeout': 5, 'ssl_ca_certificate': None, 'scheduler': None, 'profiler_filename': None, 'ssl_private_key': '', 'scheduler_groups': None, 'password': '<ask>', 'request_queue_size': 5, 'ssl_certificate': '', 'cronjob': False, 'numthreads': None, 'quiet': False, 'interfaces': None, 'minthreads': None, 'timeout': 10, 'plain': False, 'nobanner': False}>"
p884
asbasbasbag49
(g65
g51
NtRp885
(dp886
g54
(dp887
sg63
g790
sg56
(lp888
g49
(g70
g51
NtRp889
(dp890
g54
(dp891
g74
g75
ssg63
g885
sg56
(lp892
S'content_length'
p893
asbag49
(g70
g51
NtRp894
(dp895
g54
(dp896
g81
g82
ssg63
g885
sg56
(lp897
S':'
asbag49
(g70
g51
NtRp898
(dp899
g54
(dp900
sg63
g885
sg56
(lp901
g49
(g50
g51
NtRp902
(dp903
g54
(dp904
g62
I4
ssg63
g898
sg56
(lp905
S'470'
p906
asbasbasbag49
(g65
g51
NtRp907
(dp908
g54
(dp909
sg63
g790
sg56
(lp910
g49
(g70
g51
NtRp911
(dp912
g54
(dp913
g74
g75
ssg63
g907
sg56
(lp914
S'content_type'
p915
asbag49
(g70
g51
NtRp916
(dp917
g54
(dp918
g81
g82
ssg63
g907
sg56
(lp919
S':'
asbag49
(g70
g51
NtRp920
(dp921
g54
(dp922
sg63
g907
sg56
(lp923
g49
(g50
g51
NtRp924
(dp925
g54
(dp926
g62
I4
ssg63
g920
sg56
(lp927
S'multipart/form-data; boundary=----WebKitFormBoundaryxZ7Hg892Wri55q2H'
p928
asbasbasbag49
(g65
g51
NtRp929
(dp930
g54
(dp931
sg63
g790
sg56
(lp932
g49
(g70
g51
NtRp933
(dp934
g54
(dp935
g74
g75
ssg63
g929
sg56
(lp936
S'db_sessions'
p937
asbag49
(g70
g51
NtRp938
(dp939
g54
(dp940
g81
g82
ssg63
g929
sg56
(lp941
S':'
asbag49
(g70
g51
NtRp942
(dp943
g54
(dp944
sg63
g929
sg56
(lp945
g49
(g50
g51
NtRp946
(dp947
g54
(dp948
g62
I4
ssg63
g942
sg56
(lp949
S'set([])'
p950
asbasbasbag49
(g65
g51
NtRp951
(dp952
g54
(dp953
sg63
g790
sg56
(lp954
g49
(g70
g51
NtRp955
(dp956
g54
(dp957
g74
g75
ssg63
g951
sg56
(lp958
S'debugging'
p959
asbag49
(g70
g51
NtRp960
(dp961
g54
(dp962
g81
g82
ssg63
g951
sg56
(lp963
S':'
asbag49
(g70
g51
NtRp964
(dp965
g54
(dp966
sg63
g951
sg56
(lp967
g49
(g50
g51
NtRp968
(dp969
g54
(dp970
g62
I4
ssg63
g964
sg56
(lp971
S'True'
p972
asbasbasbag49
(g65
g51
NtRp973
(dp974
g54
(dp975
sg63
g790
sg56
(lp976
g49
(g70
g51
NtRp977
(dp978
g54
(dp979
g74
g75
ssg63
g973
sg56
(lp980
S'gluon_parent'
p981
asbag49
(g70
g51
NtRp982
(dp983
g54
(dp984
g81
g82
ssg63
g973
sg56
(lp985
S':'
asbag49
(g70
g51
NtRp986
(dp987
g54
(dp988
sg63
g973
sg56
(lp989
g49
(g50
g51
NtRp990
(dp991
g54
(dp992
g62
I4
ssg63
g986
sg56
(lp993
S'/Users/zamechek/Downloads/web2py/web2py.app/Contents/Resources'
p994
asbasbasbag49
(g65
g51
NtRp995
(dp996
g54
(dp997
sg63
g790
sg56
(lp998
g49
(g70
g51
NtRp999
(dp1000
g54
(dp1001
g74
g75
ssg63
g995
sg56
(lp1002
S'http_accept'
p1003
asbag49
(g70
g51
NtRp1004
(dp1005
g54
(dp1006
g81
g82
ssg63
g995
sg56
(lp1007
S':'
asbag49
(g70
g51
NtRp1008
(dp1009
g54
(dp1010
sg63
g995
sg56
(lp1011
g49
(g50
g51
NtRp1012
(dp1013
g54
(dp1014
g62
I4
ssg63
g1008
sg56
(lp1015
S'text/html,application/xhtml+xml,application/xml;q=0.9,*/*;q=0.8'
p1016
asbasbasbag49
(g65
g51
NtRp1017
(dp1018
g54
(dp1019
sg63
g790
sg56
(lp1020
g49
(g70
g51
NtRp1021
(dp1022
g54
(dp1023
g74
g75
ssg63
g1017
sg56
(lp1024
S'http_accept_charset'
p1025
asbag49
(g70
g51
NtRp1026
(dp1027
g54
(dp1028
g81
g82
ssg63
g1017
sg56
(lp1029
S':'
asbag49
(g70
g51
NtRp1030
(dp1031
g54
(dp1032
sg63
g1017
sg56
(lp1033
g49
(g50
g51
NtRp1034
(dp1035
g54
(dp1036
g62
I4
ssg63
g1030
sg56
(lp1037
S'ISO-8859-1,utf-8;q=0.7,*;q=0.3'
p1038
asbasbasbag49
(g65
g51
NtRp1039
(dp1040
g54
(dp1041
sg63
g790
sg56
(lp1042
g49
(g70
g51
NtRp1043
(dp1044
g54
(dp1045
g74
g75
ssg63
g1039
sg56
(lp1046
S'http_accept_encoding'
p1047
asbag49
(g70
g51
NtRp1048
(dp1049
g54
(dp1050
g81
g82
ssg63
g1039
sg56
(lp1051
S':'
asbag49
(g70
g51
NtRp1052
(dp1053
g54
(dp1054
sg63
g1039
sg56
(lp1055
g49
(g50
g51
NtRp1056
(dp1057
g54
(dp1058
g62
I4
ssg63
g1052
sg56
(lp1059
S'gzip,deflate,sdch'
p1060
asbasbasbag49
(g65
g51
NtRp1061
(dp1062
g54
(dp1063
sg63
g790
sg56
(lp1064
g49
(g70
g51
NtRp1065
(dp1066
g54
(dp1067
g74
g75
ssg63
g1061
sg56
(lp1068
S'http_accept_language'
p1069
asbag49
(g70
g51
NtRp1070
(dp1071
g54
(dp1072
g81
g82
ssg63
g1061
sg56
(lp1073
S':'
asbag49
(g70
g51
NtRp1074
(dp1075
g54
(dp1076
sg63
g1061
sg56
(lp1077
g49
(g50
g51
NtRp1078
(dp1079
g54
(dp1080
g62
I4
ssg63
g1074
sg56
(lp1081
S'en-US,en;q=0.8'
p1082
asbasbasbag49
(g65
g51
NtRp1083
(dp1084
g54
(dp1085
sg63
g790
sg56
(lp1086
g49
(g70
g51
NtRp1087
(dp1088
g54
(dp1089
g74
g75
ssg63
g1083
sg56
(lp1090
S'http_cache_control'
p1091
asbag49
(g70
g51
NtRp1092
(dp1093
g54
(dp1094
g81
g82
ssg63
g1083
sg56
(lp1095
S':'
asbag49
(g70
g51
NtRp1096
(dp1097
g54
(dp1098
sg63
g1083
sg56
(lp1099
g49
(g50
g51
NtRp1100
(dp1101
g54
(dp1102
g62
I4
ssg63
g1096
sg56
(lp1103
S'max-age=0'
p1104
asbasbasbag49
(g65
g51
NtRp1105
(dp1106
g54
(dp1107
sg63
g790
sg56
(lp1108
g49
(g70
g51
NtRp1109
(dp1110
g54
(dp1111
g74
g75
ssg63
g1105
sg56
(lp1112
S'http_connection'
p1113
asbag49
(g70
g51
NtRp1114
(dp1115
g54
(dp1116
g81
g82
ssg63
g1105
sg56
(lp1117
S':'
asbag49
(g70
g51
NtRp1118
(dp1119
g54
(dp1120
sg63
g1105
sg56
(lp1121
g49
(g50
g51
NtRp1122
(dp1123
g54
(dp1124
g62
I4
ssg63
g1118
sg56
(lp1125
S'keep-alive'
p1126
asbasbasbag49
(g65
g51
NtRp1127
(dp1128
g54
(dp1129
sg63
g790
sg56
(lp1130
g49
(g70
g51
NtRp1131
(dp1132
g54
(dp1133
g74
g75
ssg63
g1127
sg56
(lp1134
S'http_content_length'
p1135
asbag49
(g70
g51
NtRp1136
(dp1137
g54
(dp1138
g81
g82
ssg63
g1127
sg56
(lp1139
S':'
asbag49
(g70
g51
NtRp1140
(dp1141
g54
(dp1142
sg63
g1127
sg56
(lp1143
g49
(g50
g51
NtRp1144
(dp1145
g54
(dp1146
g62
I4
ssg63
g1140
sg56
(lp1147
g906
asbasbasbag49
(g65
g51
NtRp1148
(dp1149
g54
(dp1150
sg63
g790
sg56
(lp1151
g49
(g70
g51
NtRp1152
(dp1153
g54
(dp1154
g74
g75
ssg63
g1148
sg56
(lp1155
S'http_content_type'
p1156
asbag49
(g70
g51
NtRp1157
(dp1158
g54
(dp1159
g81
g82
ssg63
g1148
sg56
(lp1160
S':'
asbag49
(g70
g51
NtRp1161
(dp1162
g54
(dp1163
sg63
g1148
sg56
(lp1164
g49
(g50
g51
NtRp1165
(dp1166
g54
(dp1167
g62
I4
ssg63
g1161
sg56
(lp1168
g928
asbasbasbag49
(g65
g51
NtRp1169
(dp1170
g54
(dp1171
sg63
g790
sg56
(lp1172
g49
(g70
g51
NtRp1173
(dp1174
g54
(dp1175
g74
g75
ssg63
g1169
sg56
(lp1176
S'http_cookie'
p1177
asbag49
(g70
g51
NtRp1178
(dp1179
g54
(dp1180
g81
g82
ssg63
g1169
sg56
(lp1181
S':'
asbag49
(g70
g51
NtRp1182
(dp1183
g54
(dp1184
sg63
g1169
sg56
(lp1185
g49
(g50
g51
NtRp1186
(dp1187
g54
(dp1188
g62
I4
ssg63
g1182
sg56
(lp1189
S'_define_session=BAh7CEkiD3Nlc3Npb25faWQGOgZFRkkiJTVmM2YzOTE4ZmYyNzY4ZDRjYjY5YjcyOGNkZTAxODEwBjsAVEkiEF9jc3JmX3Rva2VuBjsARkkiMVY4MTBXWE1hdGNGUGR0ZzhxeStGc3FiajlCNzB6UkpqcHZUalZJNjRFNms9BjsARkkiGXdhcmRlbi51c2VyLnVzZXIua2V5BjsAVFsISSIJVXNlcgY7AEZbBmkGSSIiJDJhJDEwJGxpeDBzN29QMk5ocFJWZUl4RXZ4WXUGOwBU--36fb82eb40ee1558fc8e56b5bce1c04bba1a6c00; _bs_session=BAh7B0kiD3Nlc3Npb25faWQGOgZFRkkiJWFhOTlmNjdkODEzYjIwNGMyNGUwMTZmNjlkMDBjMjlhBjsAVEkiEF9jc3JmX3Rva2VuBjsARkkiMUJjek16b0JSUDluYk5MekI0YlNTMklPb2Q3V3pNQzJXcHQ1enY1RDgrT3c9BjsARg%3D%3D--80cc0f5e6211d60923eda39a15903de5a280521a; _table_session=BAh7B0kiD3Nlc3Npb25faWQGOgZFRkkiJTdhZTA3MzFhMGMxM2Q4YTAxZGQ3ZTNlMDM2ODIwOWY3BjsAVEkiEF9jc3JmX3Rva2VuBjsARkkiMWxKWVRtT3hGU3dxT0tnbmJ1OG1iL3FXSW9jWVRJdnZhZHJmNTN2b1BqR2M9BjsARg%3D%3D--a8b8801fe97e379d91991be9a0d21a60f46bc09e; _usertable_session=BAh7CEkiD3Nlc3Npb25faWQGOgZFRkkiJTRmY2NiMWMyOTE1ZThhYzE1MzVlYmU3ODMxZjdhM2NmBjsAVEkiEF9jc3JmX3Rva2VuBjsARkkiMXlibkQxRk5wVVFFU05OcDVxMEQvUURSZWRJQVlRY1JwYTdoSkRucEtlYXc9BjsARkkiCmZsYXNoBjsARm86JUFjdGlvbkRpc3BhdGNoOjpGbGFzaDo6Rmxhc2hIYXNoCToKQHVzZWRvOghTZXQGOgpAaGFzaHsAOgxAY2xvc2VkRjoNQGZsYXNoZXN7BjoLbm90aWNlSSItRmllbGQgcmVsYXRpb24gd2FzIHN1Y2Nlc3NmdWxseSBjcmVhdGVkLgY7AEY6CUBub3cw--c455129d4f2ca1e085c6ad184fd200aecc0b7061; _tbls_session=BAh7B0kiD3Nlc3Npb25faWQGOgZFRkkiJWY5MmM2Mzk2ZWQ0M2ZlODZkN2E5YjMxYmViOTU4NTI2BjsAVEkiEF9jc3JmX3Rva2VuBjsARkkiMVZjemQ4UGhpZXhnaEhnOUE2alRCRmdGSXFBclViMFhwQlo5Ulg2VTRhdFk9BjsARg%3D%3D--53586c2b8499a2c56c427cd8b8e3de116331bd4d; _typel_session=BAh7CEkiD3Nlc3Npb25faWQGOgZFRkkiJWQzMjkxZGExNGY5ZTQzNzIzZTk5MWZmZTM0NDY2NTFiBjsAVEkiEF9jc3JmX3Rva2VuBjsARkkiMWM5cVg1c3pKalpQSjd3Yk5lanQ5alpjZW4zRmNOVXdQS29YNExGOXJIUWM9BjsARkkiGXdhcmRlbi51c2VyLnVzZXIua2V5BjsAVFsISSIJVXNlcgY7AEZbBmkGSSIiJDJhJDEwJEVybm5aY0RTdm9sRjRETENhdjRveGUGOwBU--df06a9ed1ab2763964f111c2534c9f2a3630c12c; _ampersand_factory_session=BAh7CUkiD3Nlc3Npb25faWQGOgZFRkkiJWI2NTFmMThjZDNkMWU4NTNhNmI4OWU1MjNhYjMyZmQ0BjsAVEkiDWluc3RhbmNlBjsARmkGSSIQX2NzcmZfdG9rZW4GOwBGSSIxTEtBZER3MFlQQUV6Nmh1NW95TG4vUTFGcFdXa1ozWTVJaUx5aXh4ZndTVT0GOwBGSSIbd2FyZGVuLnVzZXIud29ya2VyLmtleQY7AFRbCEkiC1dvcmtlcgY7AEZbBmkGSSIiJDJhJDEwJGlEdndMRmhzQXB5eE1tLnhjMFM2di4GOwBU--e6bc7e5d4e945842bb7862fd547d433b3c7bfdcb; _lang_session=BAh7B0kiD3Nlc3Npb25faWQGOgZFRkkiJTY2YzI4YTY5NDkzNzE1ZGIzYzUwNWM3ZDg2ZmY1MWNiBjsAVEkiEF9jc3JmX3Rva2VuBjsARkkiMVdVczNjYnUvY2tZaHFvMVlwLy9zemdCcFliUytKdTlUTGZ3M1RIUlI3aHc9BjsARg%3D%3D--52f16b665cb4cfc5b54cea21c7b082ab6b75b1bf; session_id_welcome=127.0.0.1-dfebfa33-25aa-4072-bce4-08f7e89e2d04; session_id_admin=127.0.0.1-bf448199-cadc-41e3-b1a7-bed302e89a3e; session_id_hellow=127.0.0.1-bbea59f2-333e-4593-a45c-2c44a5133d77'
p1190
asbasbasbag49
(g65
g51
NtRp1191
(dp1192
g54
(dp1193
sg63
g790
sg56
(lp1194
g49
(g70
g51
NtRp1195
(dp1196
g54
(dp1197
g74
g75
ssg63
g1191
sg56
(lp1198
S'http_host'
p1199
asbag49
(g70
g51
NtRp1200
(dp1201
g54
(dp1202
g81
g82
ssg63
g1191
sg56
(lp1203
S':'
asbag49
(g70
g51
NtRp1204
(dp1205
g54
(dp1206
sg63
g1191
sg56
(lp1207
g49
(g50
g51
NtRp1208
(dp1209
g54
(dp1210
g62
I4
ssg63
g1204
sg56
(lp1211
S'localhost:8887'
p1212
asbasbasbag49
(g65
g51
NtRp1213
(dp1214
g54
(dp1215
sg63
g790
sg56
(lp1216
g49
(g70
g51
NtRp1217
(dp1218
g54
(dp1219
g74
g75
ssg63
g1213
sg56
(lp1220
S'http_origin'
p1221
asbag49
(g70
g51
NtRp1222
(dp1223
g54
(dp1224
g81
g82
ssg63
g1213
sg56
(lp1225
S':'
asbag49
(g70
g51
NtRp1226
(dp1227
g54
(dp1228
sg63
g1213
sg56
(lp1229
g49
(g50
g51
NtRp1230
(dp1231
g54
(dp1232
g62
I4
ssg63
g1226
sg56
(lp1233
S'http://localhost:8887'
p1234
asbasbasbag49
(g65
g51
NtRp1235
(dp1236
g54
(dp1237
sg63
g790
sg56
(lp1238
g49
(g70
g51
NtRp1239
(dp1240
g54
(dp1241
g74
g75
ssg63
g1235
sg56
(lp1242
S'http_referer'
p1243
asbag49
(g70
g51
NtRp1244
(dp1245
g54
(dp1246
g81
g82
ssg63
g1235
sg56
(lp1247
S':'
asbag49
(g70
g51
NtRp1248
(dp1249
g54
(dp1250
sg63
g1235
sg56
(lp1251
g49
(g50
g51
NtRp1252
(dp1253
g54
(dp1254
g62
I4
ssg63
g1248
sg56
(lp1255
S'http://localhost:8887/hellow/game/show/1'
p1256
asbasbasbag49
(g65
g51
NtRp1257
(dp1258
g54
(dp1259
sg63
g790
sg56
(lp1260
g49
(g70
g51
NtRp1261
(dp1262
g54
(dp1263
g74
g75
ssg63
g1257
sg56
(lp1264
S'http_user_agent'
p1265
asbag49
(g70
g51
NtRp1266
(dp1267
g54
(dp1268
g81
g82
ssg63
g1257
sg56
(lp1269
S':'
asbag49
(g70
g51
NtRp1270
(dp1271
g54
(dp1272
sg63
g1257
sg56
(lp1273
g49
(g50
g51
NtRp1274
(dp1275
g54
(dp1276
g62
I4
ssg63
g1270
sg56
(lp1277
S'Mozilla/5.0 (Macintosh; Intel Mac OS X 10_8_3) AppleWebKit/537.22 (KHTML, like Gecko) Chrome/25.0.1364.172 Safari/537.22'
p1278
asbasbasbag49
(g65
g51
NtRp1279
(dp1280
g54
(dp1281
sg63
g790
sg56
(lp1282
g49
(g70
g51
NtRp1283
(dp1284
g54
(dp1285
g74
g75
ssg63
g1279
sg56
(lp1286
S'is_jython'
p1287
asbag49
(g70
g51
NtRp1288
(dp1289
g54
(dp1290
g81
g82
ssg63
g1279
sg56
(lp1291
S':'
asbag49
(g70
g51
NtRp1292
(dp1293
g54
(dp1294
sg63
g1279
sg56
(lp1295
g49
(g50
g51
NtRp1296
(dp1297
g54
(dp1298
g62
I4
ssg63
g1292
sg56
(lp1299
g92
asbasbasbag49
(g65
g51
NtRp1300
(dp1301
g54
(dp1302
sg63
g790
sg56
(lp1303
g49
(g70
g51
NtRp1304
(dp1305
g54
(dp1306
g74
g75
ssg63
g1300
sg56
(lp1307
S'is_pypy'
p1308
asbag49
(g70
g51
NtRp1309
(dp1310
g54
(dp1311
g81
g82
ssg63
g1300
sg56
(lp1312
S':'
asbag49
(g70
g51
NtRp1313
(dp1314
g54
(dp1315
sg63
g1300
sg56
(lp1316
g49
(g50
g51
NtRp1317
(dp1318
g54
(dp1319
g62
I4
ssg63
g1313
sg56
(lp1320
g92
asbasbasbag49
(g65
g51
NtRp1321
(dp1322
g54
(dp1323
sg63
g790
sg56
(lp1324
g49
(g70
g51
NtRp1325
(dp1326
g54
(dp1327
g74
g75
ssg63
g1321
sg56
(lp1328
S'local_hosts'
p1329
asbag49
(g70
g51
NtRp1330
(dp1331
g54
(dp1332
g81
g82
ssg63
g1321
sg56
(lp1333
S':'
asbag49
(g70
g51
NtRp1334
(dp1335
g54
(dp1336
sg63
g1321
sg56
(lp1337
g49
(g50
g51
NtRp1338
(dp1339
g54
(dp1340
g62
I4
ssg63
g1334
sg56
(lp1341
g49
(g58
g51
NtRp1342
(dp1343
g54
(dp1344
g62
I3
ssg63
Nsg56
(lp1345
g49
(g65
g51
NtRp1346
(dp1347
g54
(dp1348
sg63
g1342
sg56
(lp1349
g49
(g70
g51
NtRp1350
(dp1351
g54
(dp1352
sg63
g1346
sg56
(lp1353
g49
(g50
g51
NtRp1354
(dp1355
g54
(dp1356
g62
I3
ssg63
g1350
sg56
(lp1357
S'::1'
p1358
asbasbasbag49
(g65
g51
NtRp1359
(dp1360
g54
(dp1361
sg63
g1342
sg56
(lp1362
g49
(g70
g51
NtRp1363
(dp1364
g54
(dp1365
sg63
g1359
sg56
(lp1366
g49
(g50
g51
NtRp1367
(dp1368
g54
(dp1369
g62
I3
ssg63
g1363
sg56
(lp1370
S'130.91.149.119'
p1371
asbasbasbag49
(g65
g51
NtRp1372
(dp1373
g54
(dp1374
sg63
g1342
sg56
(lp1375
g49
(g70
g51
NtRp1376
(dp1377
g54
(dp1378
sg63
g1372
sg56
(lp1379
g49
(g50
g51
NtRp1380
(dp1381
g54
(dp1382
g62
I3
ssg63
g1376
sg56
(lp1383
S'::ffff:127.0.0.1'
p1384
asbasbasbag49
(g65
g51
NtRp1385
(dp1386
g54
(dp1387
sg63
g1342
sg56
(lp1388
g49
(g70
g51
NtRp1389
(dp1390
g54
(dp1391
sg63
g1385
sg56
(lp1392
g49
(g50
g51
NtRp1393
(dp1394
g54
(dp1395
g62
I3
ssg63
g1389
sg56
(lp1396
S'127.0.0.1'
p1397
asbasbasbag49
(g65
g51
NtRp1398
(dp1399
g54
(dp1400
sg63
g1342
sg56
(lp1401
g49
(g70
g51
NtRp1402
(dp1403
g54
(dp1404
sg63
g1398
sg56
(lp1405
g49
(g50
g51
NtRp1406
(dp1407
g54
(dp1408
g62
I3
ssg63
g1402
sg56
(lp1409
S'hntvlan5310374.wlan.sas.upenn.edu'
p1410
asbasbasbasbasbasbasbag49
(g65
g51
NtRp1411
(dp1412
g54
(dp1413
sg63
g790
sg56
(lp1414
g49
(g70
g51
NtRp1415
(dp1416
g54
(dp1417
g74
g75
ssg63
g1411
sg56
(lp1418
S'path_info'
p1419
asbag49
(g70
g51
NtRp1420
(dp1421
g54
(dp1422
g81
g82
ssg63
g1411
sg56
(lp1423
S':'
asbag49
(g70
g51
NtRp1424
(dp1425
g54
(dp1426
sg63
g1411
sg56
(lp1427
g49
(g50
g51
NtRp1428
(dp1429
g54
(dp1430
g62
I4
ssg63
g1424
sg56
(lp1431
S'/hellow/game/show/1'
p1432
asbasbasbag49
(g65
g51
NtRp1433
(dp1434
g54
(dp1435
sg63
g790
sg56
(lp1436
g49
(g70
g51
NtRp1437
(dp1438
g54
(dp1439
g74
g75
ssg63
g1433
sg56
(lp1440
S'query_string'
p1441
asbag49
(g70
g51
NtRp1442
(dp1443
g54
(dp1444
g81
g82
ssg63
g1433
sg56
(lp1445
S':'
asbag49
(g70
g51
NtRp1446
(dp1447
g54
(dp1448
sg63
g1433
sg56
(lp1449
g49
(g50
g51
NtRp1450
(dp1451
g54
(dp1452
g62
I4
ssg63
g1446
sg56
(lp1453
S''
asbasbasbag49
(g65
g51
NtRp1454
(dp1455
g54
(dp1456
sg63
g790
sg56
(lp1457
g49
(g70
g51
NtRp1458
(dp1459
g54
(dp1460
g74
g75
ssg63
g1454
sg56
(lp1461
S'remote_addr'
p1462
asbag49
(g70
g51
NtRp1463
(dp1464
g54
(dp1465
g81
g82
ssg63
g1454
sg56
(lp1466
S':'
asbag49
(g70
g51
NtRp1467
(dp1468
g54
(dp1469
sg63
g1454
sg56
(lp1470
g49
(g50
g51
NtRp1471
(dp1472
g54
(dp1473
g62
I4
ssg63
g1467
sg56
(lp1474
g216
asbasbasbag49
(g65
g51
NtRp1475
(dp1476
g54
(dp1477
sg63
g790
sg56
(lp1478
g49
(g70
g51
NtRp1479
(dp1480
g54
(dp1481
g74
g75
ssg63
g1475
sg56
(lp1482
S'remote_port'
p1483
asbag49
(g70
g51
NtRp1484
(dp1485
g54
(dp1486
g81
g82
ssg63
g1475
sg56
(lp1487
S':'
asbag49
(g70
g51
NtRp1488
(dp1489
g54
(dp1490
sg63
g1475
sg56
(lp1491
g49
(g50
g51
NtRp1492
(dp1493
g54
(dp1494
g62
I4
ssg63
g1488
sg56
(lp1495
S'60449'
p1496
asbasbasbag49
(g65
g51
NtRp1497
(dp1498
g54
(dp1499
sg63
g790
sg56
(lp1500
g49
(g70
g51
NtRp1501
(dp1502
g54
(dp1503
g74
g75
ssg63
g1497
sg56
(lp1504
S'request_method'
p1505
asbag49
(g70
g51
NtRp1506
(dp1507
g54
(dp1508
g81
g82
ssg63
g1497
sg56
(lp1509
S':'
asbag49
(g70
g51
NtRp1510
(dp1511
g54
(dp1512
sg63
g1497
sg56
(lp1513
g49
(g50
g51
NtRp1514
(dp1515
g54
(dp1516
g62
I4
ssg63
g1510
sg56
(lp1517
S'POST'
p1518
asbasbasbag49
(g65
g51
NtRp1519
(dp1520
g54
(dp1521
sg63
g790
sg56
(lp1522
g49
(g70
g51
NtRp1523
(dp1524
g54
(dp1525
g74
g75
ssg63
g1519
sg56
(lp1526
S'request_uri'
p1527
asbag49
(g70
g51
NtRp1528
(dp1529
g54
(dp1530
g81
g82
ssg63
g1519
sg56
(lp1531
S':'
asbag49
(g70
g51
NtRp1532
(dp1533
g54
(dp1534
sg63
g1519
sg56
(lp1535
g49
(g50
g51
NtRp1536
(dp1537
g54
(dp1538
g62
I4
ssg63
g1532
sg56
(lp1539
g1432
asbasbasbag49
(g65
g51
NtRp1540
(dp1541
g54
(dp1542
sg63
g790
sg56
(lp1543
g49
(g70
g51
NtRp1544
(dp1545
g54
(dp1546
g74
g75
ssg63
g1540
sg56
(lp1547
S'script_name'
p1548
asbag49
(g70
g51
NtRp1549
(dp1550
g54
(dp1551
g81
g82
ssg63
g1540
sg56
(lp1552
S':'
asbag49
(g70
g51
NtRp1553
(dp1554
g54
(dp1555
sg63
g1540
sg56
(lp1556
g49
(g50
g51
NtRp1557
(dp1558
g54
(dp1559
g62
I4
ssg63
g1553
sg56
(lp1560
S''
asbasbasbag49
(g65
g51
NtRp1561
(dp1562
g54
(dp1563
sg63
g790
sg56
(lp1564
g49
(g70
g51
NtRp1565
(dp1566
g54
(dp1567
g74
g75
ssg63
g1561
sg56
(lp1568
S'server_name'
p1569
asbag49
(g70
g51
NtRp1570
(dp1571
g54
(dp1572
g81
g82
ssg63
g1561
sg56
(lp1573
S':'
asbag49
(g70
g51
NtRp1574
(dp1575
g54
(dp1576
sg63
g1561
sg56
(lp1577
g49
(g50
g51
NtRp1578
(dp1579
g54
(dp1580
g62
I4
ssg63
g1574
sg56
(lp1581
S'hntvlan5310374.wlan.sas.upenn.edu'
p1582
asbasbasbag49
(g65
g51
NtRp1583
(dp1584
g54
(dp1585
sg63
g790
sg56
(lp1586
g49
(g70
g51
NtRp1587
(dp1588
g54
(dp1589
g74
g75
ssg63
g1583
sg56
(lp1590
S'server_port'
p1591
asbag49
(g70
g51
NtRp1592
(dp1593
g54
(dp1594
g81
g82
ssg63
g1583
sg56
(lp1595
S':'
asbag49
(g70
g51
NtRp1596
(dp1597
g54
(dp1598
sg63
g1583
sg56
(lp1599
g49
(g50
g51
NtRp1600
(dp1601
g54
(dp1602
g62
I4
ssg63
g1596
sg56
(lp1603
S'8887'
p1604
asbasbasbag49
(g65
g51
NtRp1605
(dp1606
g54
(dp1607
sg63
g790
sg56
(lp1608
g49
(g70
g51
NtRp1609
(dp1610
g54
(dp1611
g74
g75
ssg63
g1605
sg56
(lp1612
S'server_protocol'
p1613
asbag49
(g70
g51
NtRp1614
(dp1615
g54
(dp1616
g81
g82
ssg63
g1605
sg56
(lp1617
S':'
asbag49
(g70
g51
NtRp1618
(dp1619
g54
(dp1620
sg63
g1605
sg56
(lp1621
g49
(g50
g51
NtRp1622
(dp1623
g54
(dp1624
g62
I4
ssg63
g1618
sg56
(lp1625
S'HTTP/1.1'
p1626
asbasbasbag49
(g65
g51
NtRp1627
(dp1628
g54
(dp1629
sg63
g790
sg56
(lp1630
g49
(g70
g51
NtRp1631
(dp1632
g54
(dp1633
g74
g75
ssg63
g1627
sg56
(lp1634
S'server_software'
p1635
asbag49
(g70
g51
NtRp1636
(dp1637
g54
(dp1638
g81
g82
ssg63
g1627
sg56
(lp1639
S':'
asbag49
(g70
g51
NtRp1640
(dp1641
g54
(dp1642
sg63
g1627
sg56
(lp1643
g49
(g50
g51
NtRp1644
(dp1645
g54
(dp1646
g62
I4
ssg63
g1640
sg56
(lp1647
S'Rocket 1.2.6'
p1648
asbasbasbag49
(g65
g51
NtRp1649
(dp1650
g54
(dp1651
sg63
g790
sg56
(lp1652
g49
(g70
g51
NtRp1653
(dp1654
g54
(dp1655
g74
g75
ssg63
g1649
sg56
(lp1656
S'web2py_path'
p1657
asbag49
(g70
g51
NtRp1658
(dp1659
g54
(dp1660
g81
g82
ssg63
g1649
sg56
(lp1661
S':'
asbag49
(g70
g51
NtRp1662
(dp1663
g54
(dp1664
sg63
g1649
sg56
(lp1665
g49
(g50
g51
NtRp1666
(dp1667
g54
(dp1668
g62
I4
ssg63
g1662
sg56
(lp1669
g837
asbasbasbag49
(g65
g51
NtRp1670
(dp1671
g54
(dp1672
sg63
g790
sg56
(lp1673
g49
(g70
g51
NtRp1674
(dp1675
g54
(dp1676
g74
g75
ssg63
g1670
sg56
(lp1677
S'web2py_version'
p1678
asbag49
(g70
g51
NtRp1679
(dp1680
g54
(dp1681
g81
g82
ssg63
g1670
sg56
(lp1682
S':'
asbag49
(g70
g51
NtRp1683
(dp1684
g54
(dp1685
sg63
g1670
sg56
(lp1686
g49
(g50
g51
NtRp1687
(dp1688
g54
(dp1689
g62
I4
ssg63
g1683
sg56
(lp1690
g49
(g58
g51
NtRp1691
(dp1692
g54
(dp1693
g62
I3
ssg63
Nsg56
(lp1694
g49
(g65
g51
NtRp1695
(dp1696
g54
(dp1697
sg63
g1691
sg56
(lp1698
g49
(g70
g51
NtRp1699
(dp1700
g54
(dp1701
sg63
g1695
sg56
(lp1702
g49
(g50
g51
NtRp1703
(dp1704
g54
(dp1705
g62
I3
ssg63
g1699
sg56
(lp1706
S'2'
asbasbasbag49
(g65
g51
NtRp1707
(dp1708
g54
(dp1709
sg63
g1691
sg56
(lp1710
g49
(g70
g51
NtRp1711
(dp1712
g54
(dp1713
sg63
g1707
sg56
(lp1714
g49
(g50
g51
NtRp1715
(dp1716
g54
(dp1717
g62
I3
ssg63
g1711
sg56
(lp1718
S'4'
asbasbasbag49
(g65
g51
NtRp1719
(dp1720
g54
(dp1721
sg63
g1691
sg56
(lp1722
g49
(g70
g51
NtRp1723
(dp1724
g54
(dp1725
sg63
g1719
sg56
(lp1726
g49
(g50
g51
NtRp1727
(dp1728
g54
(dp1729
g62
I3
ssg63
g1723
sg56
(lp1730
S'5'
asbasbasbag49
(g65
g51
NtRp1731
(dp1732
g54
(dp1733
sg63
g1691
sg56
(lp1734
g49
(g70
g51
NtRp1735
(dp1736
g54
(dp1737
sg63
g1731
sg56
(lp1738
g49
(g50
g51
NtRp1739
(dp1740
g54
(dp1741
g62
I3
ssg63
g1735
sg56
(lp1742
S'stable'
p1743
asbasbasbag49
(g65
g51
NtRp1744
(dp1745
g54
(dp1746
sg63
g1691
sg56
(lp1747
g49
(g70
g51
NtRp1748
(dp1749
g54
(dp1750
sg63
g1744
sg56
(lp1751
g49
(g50
g51
NtRp1752
(dp1753
g54
(dp1754
g62
I3
ssg63
g1748
sg56
(lp1755
S'datetime.datetime(2013, 3, 18, 22, 46, 22)'
p1756
asbasbasbasbasbasbasbag49
(g65
g51
NtRp1757
(dp1758
g54
(dp1759
sg63
g790
sg56
(lp1760
g49
(g70
g51
NtRp1761
(dp1762
g54
(dp1763
g74
g75
ssg63
g1757
sg56
(lp1764
S'wsgi_errors'
p1765
asbag49
(g70
g51
NtRp1766
(dp1767
g54
(dp1768
g81
g82
ssg63
g1757
sg56
(lp1769
S':'
asbag49
(g70
g51
NtRp1770
(dp1771
g54
(dp1772
sg63
g1757
sg56
(lp1773
g49
(g50
g51
NtRp1774
(dp1775
g54
(dp1776
g62
I4
ssg63
g1770
sg56
(lp1777
S"<open file '<stderr>', mode 'w' at 0x540b0>"
p1778
asbasbasbag49
(g65
g51
NtRp1779
(dp1780
g54
(dp1781
sg63
g790
sg56
(lp1782
g49
(g70
g51
NtRp1783
(dp1784
g54
(dp1785
g74
g75
ssg63
g1779
sg56
(lp1786
S'wsgi_file_wrapper'
p1787
asbag49
(g70
g51
NtRp1788
(dp1789
g54
(dp1790
g81
g82
ssg63
g1779
sg56
(lp1791
S':'
asbag49
(g70
g51
NtRp1792
(dp1793
g54
(dp1794
sg63
g1779
sg56
(lp1795
g49
(g50
g51
NtRp1796
(dp1797
g54
(dp1798
g62
I4
ssg63
g1792
sg56
(lp1799
S'<class wsgiref.util.FileWrapper at 0x4761060>'
p1800
asbasbasbag49
(g65
g51
NtRp1801
(dp1802
g54
(dp1803
sg63
g790
sg56
(lp1804
g49
(g70
g51
NtRp1805
(dp1806
g54
(dp1807
g74
g75
ssg63
g1801
sg56
(lp1808
S'wsgi_input'
p1809
asbag49
(g70
g51
NtRp1810
(dp1811
g54
(dp1812
g81
g82
ssg63
g1801
sg56
(lp1813
S':'
asbag49
(g70
g51
NtRp1814
(dp1815
g54
(dp1816
sg63
g1801
sg56
(lp1817
g49
(g50
g51
NtRp1818
(dp1819
g54
(dp1820
g62
I4
ssg63
g1814
sg56
(lp1821
S'<socket._fileobject object at 0x71c8bb0>'
p1822
asbasbasbag49
(g65
g51
NtRp1823
(dp1824
g54
(dp1825
sg63
g790
sg56
(lp1826
g49
(g70
g51
NtRp1827
(dp1828
g54
(dp1829
g74
g75
ssg63
g1823
sg56
(lp1830
S'wsgi_multiprocess'
p1831
asbag49
(g70
g51
NtRp1832
(dp1833
g54
(dp1834
g81
g82
ssg63
g1823
sg56
(lp1835
S':'
asbag49
(g70
g51
NtRp1836
(dp1837
g54
(dp1838
sg63
g1823
sg56
(lp1839
g49
(g50
g51
NtRp1840
(dp1841
g54
(dp1842
g62
I4
ssg63
g1836
sg56
(lp1843
g92
asbasbasbag49
(g65
g51
NtRp1844
(dp1845
g54
(dp1846
sg63
g790
sg56
(lp1847
g49
(g70
g51
NtRp1848
(dp1849
g54
(dp1850
g74
g75
ssg63
g1844
sg56
(lp1851
S'wsgi_multithread'
p1852
asbag49
(g70
g51
NtRp1853
(dp1854
g54
(dp1855
g81
g82
ssg63
g1844
sg56
(lp1856
S':'
asbag49
(g70
g51
NtRp1857
(dp1858
g54
(dp1859
sg63
g1844
sg56
(lp1860
g49
(g50
g51
NtRp1861
(dp1862
g54
(dp1863
g62
I4
ssg63
g1857
sg56
(lp1864
g972
asbasbasbag49
(g65
g51
NtRp1865
(dp1866
g54
(dp1867
sg63
g790
sg56
(lp1868
g49
(g70
g51
NtRp1869
(dp1870
g54
(dp1871
g74
g75
ssg63
g1865
sg56
(lp1872
S'wsgi_run_once'
p1873
asbag49
(g70
g51
NtRp1874
(dp1875
g54
(dp1876
g81
g82
ssg63
g1865
sg56
(lp1877
S':'
asbag49
(g70
g51
NtRp1878
(dp1879
g54
(dp1880
sg63
g1865
sg56
(lp1881
g49
(g50
g51
NtRp1882
(dp1883
g54
(dp1884
g62
I4
ssg63
g1878
sg56
(lp1885
g92
asbasbasbag49
(g65
g51
NtRp1886
(dp1887
g54
(dp1888
sg63
g790
sg56
(lp1889
g49
(g70
g51
NtRp1890
(dp1891
g54
(dp1892
g74
g75
ssg63
g1886
sg56
(lp1893
S'wsgi_url_scheme'
p1894
asbag49
(g70
g51
NtRp1895
(dp1896
g54
(dp1897
g81
g82
ssg63
g1886
sg56
(lp1898
S':'
asbag49
(g70
g51
NtRp1899
(dp1900
g54
(dp1901
sg63
g1886
sg56
(lp1902
g49
(g50
g51
NtRp1903
(dp1904
g54
(dp1905
g62
I4
ssg63
g1899
sg56
(lp1906
S'http'
p1907
asbasbasbag49
(g65
g51
NtRp1908
(dp1909
g54
(dp1910
sg63
g790
sg56
(lp1911
g49
(g70
g51
NtRp1912
(dp1913
g54
(dp1914
g74
g75
ssg63
g1908
sg56
(lp1915
S'wsgi_version'
p1916
asbag49
(g70
g51
NtRp1917
(dp1918
g54
(dp1919
g81
g82
ssg63
g1908
sg56
(lp1920
S':'
asbag49
(g70
g51
NtRp1921
(dp1922
g54
(dp1923
sg63
g1908
sg56
(lp1924
g49
(g50
g51
NtRp1925
(dp1926
g54
(dp1927
g62
I4
ssg63
g1921
sg56
(lp1928
g49
(g58
g51
NtRp1929
(dp1930
g54
(dp1931
g62
I3
ssg63
Nsg56
(lp1932
g49
(g65
g51
NtRp1933
(dp1934
g54
(dp1935
sg63
g1929
sg56
(lp1936
g49
(g70
g51
NtRp1937
(dp1938
g54
(dp1939
sg63
g1933
sg56
(lp1940
g49
(g50
g51
NtRp1941
(dp1942
g54
(dp1943
g62
I3
ssg63
g1937
sg56
(lp1944
S'1'
asbasbasbag49
(g65
g51
NtRp1945
(dp1946
g54
(dp1947
sg63
g1929
sg56
(lp1948
g49
(g70
g51
NtRp1949
(dp1950
g54
(dp1951
sg63
g1945
sg56
(lp1952
g49
(g50
g51
NtRp1953
(dp1954
g54
(dp1955
g62
I3
ssg63
g1949
sg56
(lp1956
S'0'
asbasbasbasbasbasbasbasbasbasbasbag49
(g65
g51
NtRp1957
(dp1958
g54
(dp1959
sg63
g59
sg56
(lp1960
g49
(g70
g51
NtRp1961
(dp1962
g54
(dp1963
g74
g75
ssg63
g1957
sg56
(lp1964
S'extension'
p1965
asbag49
(g70
g51
NtRp1966
(dp1967
g54
(dp1968
g81
g82
ssg63
g1957
sg56
(lp1969
S':'
asbag49
(g70
g51
NtRp1970
(dp1971
g54
(dp1972
sg63
g1957
sg56
(lp1973
g49
(g50
g51
NtRp1974
(dp1975
g54
(dp1976
g62
I5
ssg63
g1970
sg56
(lp1977
S'html'
p1978
asbasbasbag49
(g65
g51
NtRp1979
(dp1980
g54
(dp1981
sg63
g59
sg56
(lp1982
g49
(g70
g51
NtRp1983
(dp1984
g54
(dp1985
g74
g75
ssg63
g1979
sg56
(lp1986
S'folder'
p1987
asbag49
(g70
g51
NtRp1988
(dp1989
g54
(dp1990
g81
g82
ssg63
g1979
sg56
(lp1991
S':'
asbag49
(g70
g51
NtRp1992
(dp1993
g54
(dp1994
sg63
g1979
sg56
(lp1995
g49
(g50
g51
NtRp1996
(dp1997
g54
(dp1998
g62
I5
ssg63
g1992
sg56
(lp1999
S'/Users/zamechek/Downloads/web2py/web2py.app/Contents/Resources/applications/hellow/'
p2000
asbasbasbag49
(g65
g51
NtRp2001
(dp2002
g54
(dp2003
sg63
g59
sg56
(lp2004
g49
(g70
g51
NtRp2005
(dp2006
g54
(dp2007
g74
g75
ssg63
g2001
sg56
(lp2008
S'function'
p2009
asbag49
(g70
g51
NtRp2010
(dp2011
g54
(dp2012
g81
g82
ssg63
g2001
sg56
(lp2013
S':'
asbag49
(g70
g51
NtRp2014
(dp2015
g54
(dp2016
sg63
g2001
sg56
(lp2017
g49
(g50
g51
NtRp2018
(dp2019
g54
(dp2020
g62
I5
ssg63
g2014
sg56
(lp2021
S'show'
p2022
asbasbasbag49
(g65
g51
NtRp2023
(dp2024
g54
(dp2025
sg63
g59
sg56
(lp2026
g49
(g70
g51
NtRp2027
(dp2028
g54
(dp2029
g74
g75
ssg63
g2023
sg56
(lp2030
S'get_vars'
p2031
asbag49
(g70
g51
NtRp2032
(dp2033
g54
(dp2034
g81
g82
ssg63
g2023
sg56
(lp2035
S':'
asbag49
(g70
g51
NtRp2036
(dp2037
g54
(dp2038
sg63
g2023
sg56
(lp2039
g49
(g50
g51
NtRp2040
(dp2041
g54
(dp2042
g62
I5
ssg63
g2036
sg56
(lp2043
g49
(g58
g51
NtRp2044
(dp2045
g54
(dp2046
g62
I4
ssg63
Nsg56
(lp2047
sbasbasbasbag49
(g65
g51
NtRp2048
(dp2049
g54
(dp2050
sg63
g59
sg56
(lp2051
g49
(g70
g51
NtRp2052
(dp2053
g54
(dp2054
g74
g75
ssg63
g2048
sg56
(lp2055
S'global_settings'
p2056
asbag49
(g70
g51
NtRp2057
(dp2058
g54
(dp2059
g81
g82
ssg63
g2048
sg56
(lp2060
S':'
asbag49
(g70
g51
NtRp2061
(dp2062
g54
(dp2063
sg63
g2048
sg56
(lp2064
g49
(g50
g51
NtRp2065
(dp2066
g54
(dp2067
g62
I5
ssg63
g2061
sg56
(lp2068
g49
(g58
g51
NtRp2069
(dp2070
g54
(dp2071
g62
I4
ssg63
Nsg56
(lp2072
g49
(g65
g51
NtRp2073
(dp2074
g54
(dp2075
sg63
g2069
sg56
(lp2076
g49
(g70
g51
NtRp2077
(dp2078
g54
(dp2079
g74
g75
ssg63
g2073
sg56
(lp2080
g802
asbag49
(g70
g51
NtRp2081
(dp2082
g54
(dp2083
g81
g82
ssg63
g2073
sg56
(lp2084
S':'
asbag49
(g70
g51
NtRp2085
(dp2086
g54
(dp2087
sg63
g2073
sg56
(lp2088
g49
(g50
g51
NtRp2089
(dp2090
g54
(dp2091
g62
I4
ssg63
g2085
sg56
(lp2092
S"set(['/Users/zamechek/Downloads/web2py/web2py.app/Contents/Resources/applications/hellow/', '/Users/zamechek/Downloads/web2py/web2py.app/Contents/Resources/applications/admin/', '/Users/zamechek/Downloads/web2py/web2py.app/Contents/Resources/applications/welcome/'])"
p2093
asbasbasbag49
(g65
g51
NtRp2094
(dp2095
g54
(dp2096
sg63
g2069
sg56
(lp2097
g49
(g70
g51
NtRp2098
(dp2099
g54
(dp2100
g74
g75
ssg63
g2094
sg56
(lp2101
g824
asbag49
(g70
g51
NtRp2102
(dp2103
g54
(dp2104
g81
g82
ssg63
g2094
sg56
(lp2105
S':'
asbag49
(g70
g51
NtRp2106
(dp2107
g54
(dp2108
sg63
g2094
sg56
(lp2109
g49
(g50
g51
NtRp2110
(dp2111
g54
(dp2112
g62
I4
ssg63
g2106
sg56
(lp2113
g837
asbasbasbag49
(g65
g51
NtRp2114
(dp2115
g54
(dp2116
sg63
g2069
sg56
(lp2117
g49
(g70
g51
NtRp2118
(dp2119
g54
(dp2120
g74
g75
ssg63
g2114
sg56
(lp2121
g846
asbag49
(g70
g51
NtRp2122
(dp2123
g54
(dp2124
g81
g82
ssg63
g2114
sg56
(lp2125
S':'
asbag49
(g70
g51
NtRp2126
(dp2127
g54
(dp2128
sg63
g2114
sg56
(lp2129
g49
(g50
g51
NtRp2130
(dp2131
g54
(dp2132
g62
I4
ssg63
g2126
sg56
(lp2133
g49
(g58
g51
NtRp2134
(dp2135
g54
(dp2136
g62
I3
ssg63
Nsg56
(lp2137
sbasbasbasbag49
(g65
g51
NtRp2138
(dp2139
g54
(dp2140
sg63
g2069
sg56
(lp2141
g49
(g70
g51
NtRp2142
(dp2143
g54
(dp2144
g74
g75
ssg63
g2138
sg56
(lp2145
g871
asbag49
(g70
g51
NtRp2146
(dp2147
g54
(dp2148
g81
g82
ssg63
g2138
sg56
(lp2149
S':'
asbag49
(g70
g51
NtRp2150
(dp2151
g54
(dp2152
sg63
g2138
sg56
(lp2153
g49
(g50
g51
NtRp2154
(dp2155
g54
(dp2156
g62
I4
ssg63
g2150
sg56
(lp2157
S"<Values at 0x478bf58: {'verbose': False, 'ip': '127.0.0.1', 'with_scheduler': False, 'ips': ['130.91.149.119'], 'shutdown_timeout': 5, 'taskbar': False, 'port': 8000, 'maxthreads': None, 'softcron': False, 'server_name': 'hntvlan5310374.wlan.sas.upenn.edu', 'bpython': False, 'nogui': False, 'pid_filename': 'httpserver.pid', 'extcron': False, 'runcron': False, 'run_system_tests': False, 'test': None, 'folder': '/Users/zamechek/Downloads/web2py/web2py.app/Contents/Resources', 'config': '', 'import_models': False, 'winservice': '', 'shell': None, 'run': '', 'log_filename': 'httpserver.log', 'debuglevel': 30, 'args': [''], 'socket_timeout': 5, 'ssl_ca_certificate': None, 'scheduler': None, 'profiler_filename': None, 'ssl_private_key': '', 'scheduler_groups': None, 'password': '<ask>', 'request_queue_size': 5, 'ssl_certificate': '', 'cronjob': False, 'numthreads': None, 'quiet': False, 'interfaces': None, 'minthreads': None, 'timeout': 10, 'plain': False, 'nobanner': False}>"
p2158
asbasbasbag49
(g65
g51
NtRp2159
(dp2160
g54
(dp2161
sg63
g2069
sg56
(lp2162
g49
(g70
g51
NtRp2163
(dp2164
g54
(dp2165
g74
g75
ssg63
g2159
sg56
(lp2166
g937
asbag49
(g70
g51
NtRp2167
(dp2168
g54
(dp2169
g81
g82
ssg63
g2159
sg56
(lp2170
S':'
asbag49
(g70
g51
NtRp2171
(dp2172
g54
(dp2173
sg63
g2159
sg56
(lp2174
g49
(g50
g51
NtRp2175
(dp2176
g54
(dp2177
g62
I4
ssg63
g2171
sg56
(lp2178
S'set([])'
p2179
asbasbasbag49
(g65
g51
NtRp2180
(dp2181
g54
(dp2182
sg63
g2069
sg56
(lp2183
g49
(g70
g51
NtRp2184
(dp2185
g54
(dp2186
g74
g75
ssg63
g2180
sg56
(lp2187
g959
asbag49
(g70
g51
NtRp2188
(dp2189
g54
(dp2190
g81
g82
ssg63
g2180
sg56
(lp2191
S':'
asbag49
(g70
g51
NtRp2192
(dp2193
g54
(dp2194
sg63
g2180
sg56
(lp2195
g49
(g50
g51
NtRp2196
(dp2197
g54
(dp2198
g62
I4
ssg63
g2192
sg56
(lp2199
g972
asbasbasbag49
(g65
g51
NtRp2200
(dp2201
g54
(dp2202
sg63
g2069
sg56
(lp2203
g49
(g70
g51
NtRp2204
(dp2205
g54
(dp2206
g74
g75
ssg63
g2200
sg56
(lp2207
g981
asbag49
(g70
g51
NtRp2208
(dp2209
g54
(dp2210
g81
g82
ssg63
g2200
sg56
(lp2211
S':'
asbag49
(g70
g51
NtRp2212
(dp2213
g54
(dp2214
sg63
g2200
sg56
(lp2215
g49
(g50
g51
NtRp2216
(dp2217
g54
(dp2218
g62
I4
ssg63
g2212
sg56
(lp2219
g994
asbasbasbag49
(g65
g51
NtRp2220
(dp2221
g54
(dp2222
sg63
g2069
sg56
(lp2223
g49
(g70
g51
NtRp2224
(dp2225
g54
(dp2226
g74
g75
ssg63
g2220
sg56
(lp2227
g1287
asbag49
(g70
g51
NtRp2228
(dp2229
g54
(dp2230
g81
g82
ssg63
g2220
sg56
(lp2231
S':'
asbag49
(g70
g51
NtRp2232
(dp2233
g54
(dp2234
sg63
g2220
sg56
(lp2235
g49
(g50
g51
NtRp2236
(dp2237
g54
(dp2238
g62
I4
ssg63
g2232
sg56
(lp2239
g92
asbasbasbag49
(g65
g51
NtRp2240
(dp2241
g54
(dp2242
sg63
g2069
sg56
(lp2243
g49
(g70
g51
NtRp2244
(dp2245
g54
(dp2246
g74
g75
ssg63
g2240
sg56
(lp2247
g1308
asbag49
(g70
g51
NtRp2248
(dp2249
g54
(dp2250
g81
g82
ssg63
g2240
sg56
(lp2251
S':'
asbag49
(g70
g51
NtRp2252
(dp2253
g54
(dp2254
sg63
g2240
sg56
(lp2255
g49
(g50
g51
NtRp2256
(dp2257
g54
(dp2258
g62
I4
ssg63
g2252
sg56
(lp2259
g92
asbasbasbag49
(g65
g51
NtRp2260
(dp2261
g54
(dp2262
sg63
g2069
sg56
(lp2263
g49
(g70
g51
NtRp2264
(dp2265
g54
(dp2266
g74
g75
ssg63
g2260
sg56
(lp2267
g1329
asbag49
(g70
g51
NtRp2268
(dp2269
g54
(dp2270
g81
g82
ssg63
g2260
sg56
(lp2271
S':'
asbag49
(g70
g51
NtRp2272
(dp2273
g54
(dp2274
sg63
g2260
sg56
(lp2275
g49
(g50
g51
NtRp2276
(dp2277
g54
(dp2278
g62
I4
ssg63
g2272
sg56
(lp2279
g49
(g58
g51
NtRp2280
(dp2281
g54
(dp2282
g62
I3
ssg63
Nsg56
(lp2283
g49
(g65
g51
NtRp2284
(dp2285
g54
(dp2286
sg63
g2280
sg56
(lp2287
g49
(g70
g51
NtRp2288
(dp2289
g54
(dp2290
sg63
g2284
sg56
(lp2291
g49
(g50
g51
NtRp2292
(dp2293
g54
(dp2294
g62
I3
ssg63
g2288
sg56
(lp2295
g1358
asbasbasbag49
(g65
g51
NtRp2296
(dp2297
g54
(dp2298
sg63
g2280
sg56
(lp2299
g49
(g70
g51
NtRp2300
(dp2301
g54
(dp2302
sg63
g2296
sg56
(lp2303
g49
(g50
g51
NtRp2304
(dp2305
g54
(dp2306
g62
I3
ssg63
g2300
sg56
(lp2307
g1371
asbasbasbag49
(g65
g51
NtRp2308
(dp2309
g54
(dp2310
sg63
g2280
sg56
(lp2311
g49
(g70
g51
NtRp2312
(dp2313
g54
(dp2314
sg63
g2308
sg56
(lp2315
g49
(g50
g51
NtRp2316
(dp2317
g54
(dp2318
g62
I3
ssg63
g2312
sg56
(lp2319
g1384
asbasbasbag49
(g65
g51
NtRp2320
(dp2321
g54
(dp2322
sg63
g2280
sg56
(lp2323
g49
(g70
g51
NtRp2324
(dp2325
g54
(dp2326
sg63
g2320
sg56
(lp2327
g49
(g50
g51
NtRp2328
(dp2329
g54
(dp2330
g62
I3
ssg63
g2324
sg56
(lp2331
g1397
asbasbasbag49
(g65
g51
NtRp2332
(dp2333
g54
(dp2334
sg63
g2280
sg56
(lp2335
g49
(g70
g51
NtRp2336
(dp2337
g54
(dp2338
sg63
g2332
sg56
(lp2339
g49
(g50
g51
NtRp2340
(dp2341
g54
(dp2342
g62
I3
ssg63
g2336
sg56
(lp2343
g1410
asbasbasbasbasbasbasbag49
(g65
g51
NtRp2344
(dp2345
g54
(dp2346
sg63
g2069
sg56
(lp2347
g49
(g70
g51
NtRp2348
(dp2349
g54
(dp2350
g74
g75
ssg63
g2344
sg56
(lp2351
g1678
asbag49
(g70
g51
NtRp2352
(dp2353
g54
(dp2354
g81
g82
ssg63
g2344
sg56
(lp2355
S':'
asbag49
(g70
g51
NtRp2356
(dp2357
g54
(dp2358
sg63
g2344
sg56
(lp2359
g49
(g50
g51
NtRp2360
(dp2361
g54
(dp2362
g62
I4
ssg63
g2356
sg56
(lp2363
g49
(g58
g51
NtRp2364
(dp2365
g54
(dp2366
g62
I3
ssg63
Nsg56
(lp2367
g49
(g65
g51
NtRp2368
(dp2369
g54
(dp2370
sg63
g2364
sg56
(lp2371
g49
(g70
g51
NtRp2372
(dp2373
g54
(dp2374
sg63
g2368
sg56
(lp2375
g49
(g50
g51
NtRp2376
(dp2377
g54
(dp2378
g62
I3
ssg63
g2372
sg56
(lp2379
S'2'
asbasbasbag49
(g65
g51
NtRp2380
(dp2381
g54
(dp2382
sg63
g2364
sg56
(lp2383
g49
(g70
g51
NtRp2384
(dp2385
g54
(dp2386
sg63
g2380
sg56
(lp2387
g49
(g50
g51
NtRp2388
(dp2389
g54
(dp2390
g62
I3
ssg63
g2384
sg56
(lp2391
S'4'
asbasbasbag49
(g65
g51
NtRp2392
(dp2393
g54
(dp2394
sg63
g2364
sg56
(lp2395
g49
(g70
g51
NtRp2396
(dp2397
g54
(dp2398
sg63
g2392
sg56
(lp2399
g49
(g50
g51
NtRp2400
(dp2401
g54
(dp2402
g62
I3
ssg63
g2396
sg56
(lp2403
S'5'
asbasbasbag49
(g65
g51
NtRp2404
(dp2405
g54
(dp2406
sg63
g2364
sg56
(lp2407
g49
(g70
g51
NtRp2408
(dp2409
g54
(dp2410
sg63
g2404
sg56
(lp2411
g49
(g50
g51
NtRp2412
(dp2413
g54
(dp2414
g62
I3
ssg63
g2408
sg56
(lp2415
g1743
asbasbasbag49
(g65
g51
NtRp2416
(dp2417
g54
(dp2418
sg63
g2364
sg56
(lp2419
g49
(g70
g51
NtRp2420
(dp2421
g54
(dp2422
sg63
g2416
sg56
(lp2423
g49
(g50
g51
NtRp2424
(dp2425
g54
(dp2426
g62
I3
ssg63
g2420
sg56
(lp2427
S'datetime.datetime(2013, 3, 18, 22, 46, 22)'
p2428
asbasbasbasbasbasbasbasbasbasbasbag49
(g65
g51
NtRp2429
(dp2430
g54
(dp2431
sg63
g59
sg56
(lp2432
g49
(g70
g51
NtRp2433
(dp2434
g54
(dp2435
g74
g75
ssg63
g2429
sg56
(lp2436
S'is_https'
p2437
asbag49
(g70
g51
NtRp2438
(dp2439
g54
(dp2440
g81
g82
ssg63
g2429
sg56
(lp2441
S':'
asbag49
(g70
g51
NtRp2442
(dp2443
g54
(dp2444
sg63
g2429
sg56
(lp2445
g49
(g50
g51
NtRp2446
(dp2447
g54
(dp2448
g62
I5
ssg63
g2442
sg56
(lp2449
g92
asbasbasbag49
(g65
g51
NtRp2450
(dp2451
g54
(dp2452
sg63
g59
sg56
(lp2453
g49
(g70
g51
NtRp2454
(dp2455
g54
(dp2456
g74
g75
ssg63
g2450
sg56
(lp2457
S'is_local'
p2458
asbag49
(g70
g51
NtRp2459
(dp2460
g54
(dp2461
g81
g82
ssg63
g2450
sg56
(lp2462
S':'
asbag49
(g70
g51
NtRp2463
(dp2464
g54
(dp2465
sg63
g2450
sg56
(lp2466
g49
(g50
g51
NtRp2467
(dp2468
g54
(dp2469
g62
I5
ssg63
g2463
sg56
(lp2470
g972
asbasbasbag49
(g65
g51
NtRp2471
(dp2472
g54
(dp2473
sg63
g59
sg56
(lp2474
g49
(g70
g51
NtRp2475
(dp2476
g54
(dp2477
g74
g75
ssg63
g2471
sg56
(lp2478
S'is_restful'
p2479
asbag49
(g70
g51
NtRp2480
(dp2481
g54
(dp2482
g81
g82
ssg63
g2471
sg56
(lp2483
S':'
asbag49
(g70
g51
NtRp2484
(dp2485
g54
(dp2486
sg63
g2471
sg56
(lp2487
g49
(g50
g51
NtRp2488
(dp2489
g54
(dp2490
g62
I5
ssg63
g2484
sg56
(lp2491
g92
asbasbasbag49
(g65
g51
NtRp2492
(dp2493
g54
(dp2494
sg63
g59
sg56
(lp2495
g49
(g70
g51
NtRp2496
(dp2497
g54
(dp2498
g74
g75
ssg63
g2492
sg56
(lp2499
S'now'
p2500
asbag49
(g70
g51
NtRp2501
(dp2502
g54
(dp2503
g81
g82
ssg63
g2492
sg56
(lp2504
S':'
asbag49
(g70
g51
NtRp2505
(dp2506
g54
(dp2507
sg63
g2492
sg56
(lp2508
g49
(g50
g51
NtRp2509
(dp2510
g54
(dp2511
g62
I5
ssg63
g2505
sg56
(lp2512
S'datetime.datetime(2013, 3, 28, 14, 32, 32, 905375)'
p2513
asbasbasbag49
(g65
g51
NtRp2514
(dp2515
g54
(dp2516
sg63
g59
sg56
(lp2517
g49
(g70
g51
NtRp2518
(dp2519
g54
(dp2520
g74
g75
ssg63
g2514
sg56
(lp2521
S'post_vars'
p2522
asbag49
(g70
g51
NtRp2523
(dp2524
g54
(dp2525
g81
g82
ssg63
g2514
sg56
(lp2526
S':'
asbag49
(g70
g51
NtRp2527
(dp2528
g54
(dp2529
sg63
g2514
sg56
(lp2530
g49
(g50
g51
NtRp2531
(dp2532
g54
(dp2533
g62
I5
ssg63
g2527
sg56
(lp2534
g49
(g58
g51
NtRp2535
(dp2536
g54
(dp2537
g62
I4
ssg63
Nsg56
(lp2538
g49
(g65
g51
NtRp2539
(dp2540
g54
(dp2541
sg63
g2535
sg56
(lp2542
g49
(g70
g51
NtRp2543
(dp2544
g54
(dp2545
g74
g75
ssg63
g2539
sg56
(lp2546
S'bet'
p2547
asbag49
(g70
g51
NtRp2548
(dp2549
g54
(dp2550
g81
g82
ssg63
g2539
sg56
(lp2551
S':'
asbag49
(g70
g51
NtRp2552
(dp2553
g54
(dp2554
sg63
g2539
sg56
(lp2555
g49
(g50
g51
NtRp2556
(dp2557
g54
(dp2558
g62
I4
ssg63
g2552
sg56
(lp2559
S'18'
p2560
asbasbasbag49
(g65
g51
NtRp2561
(dp2562
g54
(dp2563
sg63
g2535
sg56
(lp2564
g49
(g70
g51
NtRp2565
(dp2566
g54
(dp2567
g74
g75
ssg63
g2561
sg56
(lp2568
S'slot'
p2569
asbag49
(g70
g51
NtRp2570
(dp2571
g54
(dp2572
g81
g82
ssg63
g2561
sg56
(lp2573
S':'
asbag49
(g70
g51
NtRp2574
(dp2575
g54
(dp2576
sg63
g2561
sg56
(lp2577
g49
(g50
g51
NtRp2578
(dp2579
g54
(dp2580
g62
I4
ssg63
g2574
sg56
(lp2581
S'1'
asbasbasbasbasbasbasbag49
(g65
g51
NtRp2582
(dp2583
g54
(dp2584
sg63
g59
sg56
(lp2585
g49
(g70
g51
NtRp2586
(dp2587
g54
(dp2588
g74
g75
ssg63
g2582
sg56
(lp2589
S'raw_args'
p2590
asbag49
(g70
g51
NtRp2591
(dp2592
g54
(dp2593
g81
g82
ssg63
g2582
sg56
(lp2594
S':'
asbag49
(g70
g51
NtRp2595
(dp2596
g54
(dp2597
sg63
g2582
sg56
(lp2598
g49
(g50
g51
NtRp2599
(dp2600
g54
(dp2601
g62
I5
ssg63
g2595
sg56
(lp2602
S'1'
asbasbasbag49
(g65
g51
NtRp2603
(dp2604
g54
(dp2605
sg63
g59
sg56
(lp2606
g49
(g70
g51
NtRp2607
(dp2608
g54
(dp2609
g74
g75
ssg63
g2603
sg56
(lp2610
S'raw_extension'
p2611
asbag49
(g70
g51
NtRp2612
(dp2613
g54
(dp2614
g81
g82
ssg63
g2603
sg56
(lp2615
S':'
asbag49
(g70
g51
NtRp2616
(dp2617
g54
(dp2618
sg63
g2603
sg56
(lp2619
g49
(g50
g51
NtRp2620
(dp2621
g54
(dp2622
g62
I5
ssg63
g2616
sg56
(lp2623
S'None'
p2624
asbasbasbag49
(g65
g51
NtRp2625
(dp2626
g54
(dp2627
sg63
g59
sg56
(lp2628
g49
(g70
g51
NtRp2629
(dp2630
g54
(dp2631
g74
g75
ssg63
g2625
sg56
(lp2632
S'url'
p2633
asbag49
(g70
g51
NtRp2634
(dp2635
g54
(dp2636
g81
g82
ssg63
g2625
sg56
(lp2637
S':'
asbag49
(g70
g51
NtRp2638
(dp2639
g54
(dp2640
sg63
g2625
sg56
(lp2641
g49
(g50
g51
NtRp2642
(dp2643
g54
(dp2644
g62
I5
ssg63
g2638
sg56
(lp2645
g1432
asbasbasbag49
(g65
g51
NtRp2646
(dp2647
g54
(dp2648
sg63
g59
sg56
(lp2649
g49
(g70
g51
NtRp2650
(dp2651
g54
(dp2652
g74
g75
ssg63
g2646
sg56
(lp2653
S'utcnow'
p2654
asbag49
(g70
g51
NtRp2655
(dp2656
g54
(dp2657
g81
g82
ssg63
g2646
sg56
(lp2658
S':'
asbag49
(g70
g51
NtRp2659
(dp2660
g54
(dp2661
sg63
g2646
sg56
(lp2662
g49
(g50
g51
NtRp2663
(dp2664
g54
(dp2665
g62
I5
ssg63
g2659
sg56
(lp2666
S'datetime.datetime(2013, 3, 28, 18, 32, 32, 905386)'
p2667
asbasbasbag49
(g65
g51
NtRp2668
(dp2669
g54
(dp2670
sg63
g59
sg56
(lp2671
g49
(g70
g51
NtRp2672
(dp2673
g54
(dp2674
g74
g75
ssg63
g2668
sg56
(lp2675
S'uuid'
p2676
asbag49
(g70
g51
NtRp2677
(dp2678
g54
(dp2679
g81
g82
ssg63
g2668
sg56
(lp2680
S':'
asbag49
(g70
g51
NtRp2681
(dp2682
g54
(dp2683
sg63
g2668
sg56
(lp2684
g49
(g50
g51
NtRp2685
(dp2686
g54
(dp2687
g62
I5
ssg63
g2681
sg56
(lp2688
S'hellow/127.0.0.1.2013-03-28.14-32-32.3d943169-c337-44d0-bd35-55ba9ab8621f'
p2689
asbasbasbag49
(g65
g51
NtRp2690
(dp2691
g54
(dp2692
sg63
g59
sg56
(lp2693
g49
(g70
g51
NtRp2694
(dp2695
g54
(dp2696
g74
g75
ssg63
g2690
sg56
(lp2697
S'vars'
p2698
asbag49
(g70
g51
NtRp2699
(dp2700
g54
(dp2701
g81
g82
ssg63
g2690
sg56
(lp2702
S':'
asbag49
(g70
g51
NtRp2703
(dp2704
g54
(dp2705
sg63
g2690
sg56
(lp2706
g49
(g50
g51
NtRp2707
(dp2708
g54
(dp2709
g62
I5
ssg63
g2703
sg56
(lp2710
g49
(g58
g51
NtRp2711
(dp2712
g54
(dp2713
g62
I4
ssg63
Nsg56
(lp2714
g49
(g65
g51
NtRp2715
(dp2716
g54
(dp2717
sg63
g2711
sg56
(lp2718
g49
(g70
g51
NtRp2719
(dp2720
g54
(dp2721
g74
g75
ssg63
g2715
sg56
(lp2722
g2547
asbag49
(g70
g51
NtRp2723
(dp2724
g54
(dp2725
g81
g82
ssg63
g2715
sg56
(lp2726
S':'
asbag49
(g70
g51
NtRp2727
(dp2728
g54
(dp2729
sg63
g2715
sg56
(lp2730
g49
(g50
g51
NtRp2731
(dp2732
g54
(dp2733
g62
I4
ssg63
g2727
sg56
(lp2734
g2560
asbasbasbag49
(g65
g51
NtRp2735
(dp2736
g54
(dp2737
sg63
g2711
sg56
(lp2738
g49
(g70
g51
NtRp2739
(dp2740
g54
(dp2741
g74
g75
ssg63
g2735
sg56
(lp2742
g2569
asbag49
(g70
g51
NtRp2743
(dp2744
g54
(dp2745
g81
g82
ssg63
g2735
sg56
(lp2746
S':'
asbag49
(g70
g51
NtRp2747
(dp2748
g54
(dp2749
sg63
g2735
sg56
(lp2750
g49
(g50
g51
NtRp2751
(dp2752
g54
(dp2753
g62
I4
ssg63
g2747
sg56
(lp2754
S'1'
asbasbasbasbasbasbasbag49
(g65
g51
NtRp2755
(dp2756
g54
(dp2757
sg63
g59
sg56
(lp2758
g49
(g70
g51
NtRp2759
(dp2760
g54
(dp2761
g74
g75
ssg63
g2755
sg56
(lp2762
S'wsgi'
p2763
asbag49
(g70
g51
NtRp2764
(dp2765
g54
(dp2766
g81
g82
ssg63
g2755
sg56
(lp2767
S':'
asbag49
(g70
g51
NtRp2768
(dp2769
g54
(dp2770
sg63
g2755
sg56
(lp2771
g49
(g50
g51
NtRp2772
(dp2773
g54
(dp2774
g62
I5
ssg63
g2768
sg56
(lp2775
g49
(g58
g51
NtRp2776
(dp2777
g54
(dp2778
g62
I4
ssg63
Nsg56
(lp2779
g49
(g65
g51
NtRp2780
(dp2781
g54
(dp2782
sg63
g2776
sg56
(lp2783
g49
(g70
g51
NtRp2784
(dp2785
g54
(dp2786
g74
g75
ssg63
g2780
sg56
(lp2787
S'environ'
p2788
asbag49
(g70
g51
NtRp2789
(dp2790
g54
(dp2791
g81
g82
ssg63
g2780
sg56
(lp2792
S':'
asbag49
(g70
g51
NtRp2793
(dp2794
g54
(dp2795
sg63
g2780
sg56
(lp2796
g49
(g50
g51
NtRp2797
(dp2798
g54
(dp2799
g62
I4
ssg63
g2793
sg56
(lp2800
g49
(g58
g51
NtRp2801
(dp2802
g54
(dp2803
g62
I3
ssg63
Nsg56
(lp2804
g49
(g65
g51
NtRp2805
(dp2806
g54
(dp2807
sg63
g2801
sg56
(lp2808
g49
(g70
g51
NtRp2809
(dp2810
g54
(dp2811
g74
g75
ssg63
g2805
sg56
(lp2812
S'CONTENT_LENGTH'
p2813
asbag49
(g70
g51
NtRp2814
(dp2815
g54
(dp2816
g81
g82
ssg63
g2805
sg56
(lp2817
S':'
asbag49
(g70
g51
NtRp2818
(dp2819
g54
(dp2820
sg63
g2805
sg56
(lp2821
g49
(g50
g51
NtRp2822
(dp2823
g54
(dp2824
g62
I3
ssg63
g2818
sg56
(lp2825
g906
asbasbasbag49
(g65
g51
NtRp2826
(dp2827
g54
(dp2828
sg63
g2801
sg56
(lp2829
g49
(g70
g51
NtRp2830
(dp2831
g54
(dp2832
g74
g75
ssg63
g2826
sg56
(lp2833
S'CONTENT_TYPE'
p2834
asbag49
(g70
g51
NtRp2835
(dp2836
g54
(dp2837
g81
g82
ssg63
g2826
sg56
(lp2838
S':'
asbag49
(g70
g51
NtRp2839
(dp2840
g54
(dp2841
sg63
g2826
sg56
(lp2842
g49
(g50
g51
NtRp2843
(dp2844
g54
(dp2845
g62
I3
ssg63
g2839
sg56
(lp2846
g928
asbasbasbag49
(g65
g51
NtRp2847
(dp2848
g54
(dp2849
sg63
g2801
sg56
(lp2850
g49
(g70
g51
NtRp2851
(dp2852
g54
(dp2853
g74
g75
ssg63
g2847
sg56
(lp2854
S'HTTP_ACCEPT'
p2855
asbag49
(g70
g51
NtRp2856
(dp2857
g54
(dp2858
g81
g82
ssg63
g2847
sg56
(lp2859
S':'
asbag49
(g70
g51
NtRp2860
(dp2861
g54
(dp2862
sg63
g2847
sg56
(lp2863
g49
(g50
g51
NtRp2864
(dp2865
g54
(dp2866
g62
I3
ssg63
g2860
sg56
(lp2867
g1016
asbasbasbag49
(g65
g51
NtRp2868
(dp2869
g54
(dp2870
sg63
g2801
sg56
(lp2871
g49
(g70
g51
NtRp2872
(dp2873
g54
(dp2874
g74
g75
ssg63
g2868
sg56
(lp2875
S'HTTP_ACCEPT_CHARSET'
p2876
asbag49
(g70
g51
NtRp2877
(dp2878
g54
(dp2879
g81
g82
ssg63
g2868
sg56
(lp2880
S':'
asbag49
(g70
g51
NtRp2881
(dp2882
g54
(dp2883
sg63
g2868
sg56
(lp2884
g49
(g50
g51
NtRp2885
(dp2886
g54
(dp2887
g62
I3
ssg63
g2881
sg56
(lp2888
g1038
asbasbasbag49
(g65
g51
NtRp2889
(dp2890
g54
(dp2891
sg63
g2801
sg56
(lp2892
g49
(g70
g51
NtRp2893
(dp2894
g54
(dp2895
g74
g75
ssg63
g2889
sg56
(lp2896
S'HTTP_ACCEPT_ENCODING'
p2897
asbag49
(g70
g51
NtRp2898
(dp2899
g54
(dp2900
g81
g82
ssg63
g2889
sg56
(lp2901
S':'
asbag49
(g70
g51
NtRp2902
(dp2903
g54
(dp2904
sg63
g2889
sg56
(lp2905
g49
(g50
g51
NtRp2906
(dp2907
g54
(dp2908
g62
I3
ssg63
g2902
sg56
(lp2909
g1060
asbasbasbag49
(g65
g51
NtRp2910
(dp2911
g54
(dp2912
sg63
g2801
sg56
(lp2913
g49
(g70
g51
NtRp2914
(dp2915
g54
(dp2916
g74
g75
ssg63
g2910
sg56
(lp2917
S'HTTP_ACCEPT_LANGUAGE'
p2918
asbag49
(g70
g51
NtRp2919
(dp2920
g54
(dp2921
g81
g82
ssg63
g2910
sg56
(lp2922
S':'
asbag49
(g70
g51
NtRp2923
(dp2924
g54
(dp2925
sg63
g2910
sg56
(lp2926
g49
(g50
g51
NtRp2927
(dp2928
g54
(dp2929
g62
I3
ssg63
g2923
sg56
(lp2930
g1082
asbasbasbag49
(g65
g51
NtRp2931
(dp2932
g54
(dp2933
sg63
g2801
sg56
(lp2934
g49
(g70
g51
NtRp2935
(dp2936
g54
(dp2937
g74
g75
ssg63
g2931
sg56
(lp2938
S'HTTP_CACHE_CONTROL'
p2939
asbag49
(g70
g51
NtRp2940
(dp2941
g54
(dp2942
g81
g82
ssg63
g2931
sg56
(lp2943
S':'
asbag49
(g70
g51
NtRp2944
(dp2945
g54
(dp2946
sg63
g2931
sg56
(lp2947
g49
(g50
g51
NtRp2948
(dp2949
g54
(dp2950
g62
I3
ssg63
g2944
sg56
(lp2951
g1104
asbasbasbag49
(g65
g51
NtRp2952
(dp2953
g54
(dp2954
sg63
g2801
sg56
(lp2955
g49
(g70
g51
NtRp2956
(dp2957
g54
(dp2958
g74
g75
ssg63
g2952
sg56
(lp2959
S'HTTP_CONNECTION'
p2960
asbag49
(g70
g51
NtRp2961
(dp2962
g54
(dp2963
g81
g82
ssg63
g2952
sg56
(lp2964
S':'
asbag49
(g70
g51
NtRp2965
(dp2966
g54
(dp2967
sg63
g2952
sg56
(lp2968
g49
(g50
g51
NtRp2969
(dp2970
g54
(dp2971
g62
I3
ssg63
g2965
sg56
(lp2972
g1126
asbasbasbag49
(g65
g51
NtRp2973
(dp2974
g54
(dp2975
sg63
g2801
sg56
(lp2976
g49
(g70
g51
NtRp2977
(dp2978
g54
(dp2979
g74
g75
ssg63
g2973
sg56
(lp2980
S'HTTP_CONTENT_LENGTH'
p2981
asbag49
(g70
g51
NtRp2982
(dp2983
g54
(dp2984
g81
g82
ssg63
g2973
sg56
(lp2985
S':'
asbag49
(g70
g51
NtRp2986
(dp2987
g54
(dp2988
sg63
g2973
sg56
(lp2989
g49
(g50
g51
NtRp2990
(dp2991
g54
(dp2992
g62
I3
ssg63
g2986
sg56
(lp2993
g906
asbasbasbag49
(g65
g51
NtRp2994
(dp2995
g54
(dp2996
sg63
g2801
sg56
(lp2997
g49
(g70
g51
NtRp2998
(dp2999
g54
(dp3000
g74
g75
ssg63
g2994
sg56
(lp3001
S'HTTP_CONTENT_TYPE'
p3002
asbag49
(g70
g51
NtRp3003
(dp3004
g54
(dp3005
g81
g82
ssg63
g2994
sg56
(lp3006
S':'
asbag49
(g70
g51
NtRp3007
(dp3008
g54
(dp3009
sg63
g2994
sg56
(lp3010
g49
(g50
g51
NtRp3011
(dp3012
g54
(dp3013
g62
I3
ssg63
g3007
sg56
(lp3014
g928
asbasbasbag49
(g65
g51
NtRp3015
(dp3016
g54
(dp3017
sg63
g2801
sg56
(lp3018
g49
(g70
g51
NtRp3019
(dp3020
g54
(dp3021
g74
g75
ssg63
g3015
sg56
(lp3022
S'HTTP_COOKIE'
p3023
asbag49
(g70
g51
NtRp3024
(dp3025
g54
(dp3026
g81
g82
ssg63
g3015
sg56
(lp3027
S':'
asbag49
(g70
g51
NtRp3028
(dp3029
g54
(dp3030
sg63
g3015
sg56
(lp3031
g49
(g50
g51
NtRp3032
(dp3033
g54
(dp3034
g62
I3
ssg63
g3028
sg56
(lp3035
g1190
asbasbasbag49
(g65
g51
NtRp3036
(dp3037
g54
(dp3038
sg63
g2801
sg56
(lp3039
g49
(g70
g51
NtRp3040
(dp3041
g54
(dp3042
g74
g75
ssg63
g3036
sg56
(lp3043
S'HTTP_HOST'
p3044
asbag49
(g70
g51
NtRp3045
(dp3046
g54
(dp3047
g81
g82
ssg63
g3036
sg56
(lp3048
S':'
asbag49
(g70
g51
NtRp3049
(dp3050
g54
(dp3051
sg63
g3036
sg56
(lp3052
g49
(g50
g51
NtRp3053
(dp3054
g54
(dp3055
g62
I3
ssg63
g3049
sg56
(lp3056
g1212
asbasbasbag49
(g65
g51
NtRp3057
(dp3058
g54
(dp3059
sg63
g2801
sg56
(lp3060
g49
(g70
g51
NtRp3061
(dp3062
g54
(dp3063
g74
g75
ssg63
g3057
sg56
(lp3064
S'HTTP_ORIGIN'
p3065
asbag49
(g70
g51
NtRp3066
(dp3067
g54
(dp3068
g81
g82
ssg63
g3057
sg56
(lp3069
S':'
asbag49
(g70
g51
NtRp3070
(dp3071
g54
(dp3072
sg63
g3057
sg56
(lp3073
g49
(g50
g51
NtRp3074
(dp3075
g54
(dp3076
g62
I3
ssg63
g3070
sg56
(lp3077
g1234
asbasbasbag49
(g65
g51
NtRp3078
(dp3079
g54
(dp3080
sg63
g2801
sg56
(lp3081
g49
(g70
g51
NtRp3082
(dp3083
g54
(dp3084
g74
g75
ssg63
g3078
sg56
(lp3085
S'HTTP_REFERER'
p3086
asbag49
(g70
g51
NtRp3087
(dp3088
g54
(dp3089
g81
g82
ssg63
g3078
sg56
(lp3090
S':'
asbag49
(g70
g51
NtRp3091
(dp3092
g54
(dp3093
sg63
g3078
sg56
(lp3094
g49
(g50
g51
NtRp3095
(dp3096
g54
(dp3097
g62
I3
ssg63
g3091
sg56
(lp3098
g1256
asbasbasbag49
(g65
g51
NtRp3099
(dp3100
g54
(dp3101
sg63
g2801
sg56
(lp3102
g49
(g70
g51
NtRp3103
(dp3104
g54
(dp3105
g74
g75
ssg63
g3099
sg56
(lp3106
S'HTTP_USER_AGENT'
p3107
asbag49
(g70
g51
NtRp3108
(dp3109
g54
(dp3110
g81
g82
ssg63
g3099
sg56
(lp3111
S':'
asbag49
(g70
g51
NtRp3112
(dp3113
g54
(dp3114
sg63
g3099
sg56
(lp3115
g49
(g50
g51
NtRp3116
(dp3117
g54
(dp3118
g62
I3
ssg63
g3112
sg56
(lp3119
g1278
asbasbasbag49
(g65
g51
NtRp3120
(dp3121
g54
(dp3122
sg63
g2801
sg56
(lp3123
g49
(g70
g51
NtRp3124
(dp3125
g54
(dp3126
g74
g75
ssg63
g3120
sg56
(lp3127
S'PATH_INFO'
p3128
asbag49
(g70
g51
NtRp3129
(dp3130
g54
(dp3131
g81
g82
ssg63
g3120
sg56
(lp3132
S':'
asbag49
(g70
g51
NtRp3133
(dp3134
g54
(dp3135
sg63
g3120
sg56
(lp3136
g49
(g50
g51
NtRp3137
(dp3138
g54
(dp3139
g62
I3
ssg63
g3133
sg56
(lp3140
g1432
asbasbasbag49
(g65
g51
NtRp3141
(dp3142
g54
(dp3143
sg63
g2801
sg56
(lp3144
g49
(g70
g51
NtRp3145
(dp3146
g54
(dp3147
g74
g75
ssg63
g3141
sg56
(lp3148
S'QUERY_STRING'
p3149
asbag49
(g70
g51
NtRp3150
(dp3151
g54
(dp3152
g81
g82
ssg63
g3141
sg56
(lp3153
S':'
asbag49
(g70
g51
NtRp3154
(dp3155
g54
(dp3156
sg63
g3141
sg56
(lp3157
g49
(g50
g51
NtRp3158
(dp3159
g54
(dp3160
g62
I3
ssg63
g3154
sg56
(lp3161
S''
asbasbasbag49
(g65
g51
NtRp3162
(dp3163
g54
(dp3164
sg63
g2801
sg56
(lp3165
g49
(g70
g51
NtRp3166
(dp3167
g54
(dp3168
g74
g75
ssg63
g3162
sg56
(lp3169
S'REMOTE_ADDR'
p3170
asbag49
(g70
g51
NtRp3171
(dp3172
g54
(dp3173
g81
g82
ssg63
g3162
sg56
(lp3174
S':'
asbag49
(g70
g51
NtRp3175
(dp3176
g54
(dp3177
sg63
g3162
sg56
(lp3178
g49
(g50
g51
NtRp3179
(dp3180
g54
(dp3181
g62
I3
ssg63
g3175
sg56
(lp3182
g216
asbasbasbag49
(g65
g51
NtRp3183
(dp3184
g54
(dp3185
sg63
g2801
sg56
(lp3186
g49
(g70
g51
NtRp3187
(dp3188
g54
(dp3189
g74
g75
ssg63
g3183
sg56
(lp3190
S'REMOTE_PORT'
p3191
asbag49
(g70
g51
NtRp3192
(dp3193
g54
(dp3194
g81
g82
ssg63
g3183
sg56
(lp3195
S':'
asbag49
(g70
g51
NtRp3196
(dp3197
g54
(dp3198
sg63
g3183
sg56
(lp3199
g49
(g50
g51
NtRp3200
(dp3201
g54
(dp3202
g62
I3
ssg63
g3196
sg56
(lp3203
g1496
asbasbasbag49
(g65
g51
NtRp3204
(dp3205
g54
(dp3206
sg63
g2801
sg56
(lp3207
g49
(g70
g51
NtRp3208
(dp3209
g54
(dp3210
g74
g75
ssg63
g3204
sg56
(lp3211
S'REQUEST_METHOD'
p3212
asbag49
(g70
g51
NtRp3213
(dp3214
g54
(dp3215
g81
g82
ssg63
g3204
sg56
(lp3216
S':'
asbag49
(g70
g51
NtRp3217
(dp3218
g54
(dp3219
sg63
g3204
sg56
(lp3220
g49
(g50
g51
NtRp3221
(dp3222
g54
(dp3223
g62
I3
ssg63
g3217
sg56
(lp3224
g1518
asbasbasbag49
(g65
g51
NtRp3225
(dp3226
g54
(dp3227
sg63
g2801
sg56
(lp3228
g49
(g70
g51
NtRp3229
(dp3230
g54
(dp3231
g74
g75
ssg63
g3225
sg56
(lp3232
S'REQUEST_URI'
p3233
asbag49
(g70
g51
NtRp3234
(dp3235
g54
(dp3236
g81
g82
ssg63
g3225
sg56
(lp3237
S':'
asbag49
(g70
g51
NtRp3238
(dp3239
g54
(dp3240
sg63
g3225
sg56
(lp3241
g49
(g50
g51
NtRp3242
(dp3243
g54
(dp3244
g62
I3
ssg63
g3238
sg56
(lp3245
g1432
asbasbasbag49
(g65
g51
NtRp3246
(dp3247
g54
(dp3248
sg63
g2801
sg56
(lp3249
g49
(g70
g51
NtRp3250
(dp3251
g54
(dp3252
g74
g75
ssg63
g3246
sg56
(lp3253
S'SCRIPT_NAME'
p3254
asbag49
(g70
g51
NtRp3255
(dp3256
g54
(dp3257
g81
g82
ssg63
g3246
sg56
(lp3258
S':'
asbag49
(g70
g51
NtRp3259
(dp3260
g54
(dp3261
sg63
g3246
sg56
(lp3262
g49
(g50
g51
NtRp3263
(dp3264
g54
(dp3265
g62
I3
ssg63
g3259
sg56
(lp3266
S''
asbasbasbag49
(g65
g51
NtRp3267
(dp3268
g54
(dp3269
sg63
g2801
sg56
(lp3270
g49
(g70
g51
NtRp3271
(dp3272
g54
(dp3273
g74
g75
ssg63
g3267
sg56
(lp3274
S'SERVER_NAME'
p3275
asbag49
(g70
g51
NtRp3276
(dp3277
g54
(dp3278
g81
g82
ssg63
g3267
sg56
(lp3279
S':'
asbag49
(g70
g51
NtRp3280
(dp3281
g54
(dp3282
sg63
g3267
sg56
(lp3283
g49
(g50
g51
NtRp3284
(dp3285
g54
(dp3286
g62
I3
ssg63
g3280
sg56
(lp3287
g1582
asbasbasbag49
(g65
g51
NtRp3288
(dp3289
g54
(dp3290
sg63
g2801
sg56
(lp3291
g49
(g70
g51
NtRp3292
(dp3293
g54
(dp3294
g74
g75
ssg63
g3288
sg56
(lp3295
S'SERVER_PORT'
p3296
asbag49
(g70
g51
NtRp3297
(dp3298
g54
(dp3299
g81
g82
ssg63
g3288
sg56
(lp3300
S':'
asbag49
(g70
g51
NtRp3301
(dp3302
g54
(dp3303
sg63
g3288
sg56
(lp3304
g49
(g50
g51
NtRp3305
(dp3306
g54
(dp3307
g62
I3
ssg63
g3301
sg56
(lp3308
g1604
asbasbasbag49
(g65
g51
NtRp3309
(dp3310
g54
(dp3311
sg63
g2801
sg56
(lp3312
g49
(g70
g51
NtRp3313
(dp3314
g54
(dp3315
g74
g75
ssg63
g3309
sg56
(lp3316
S'SERVER_PROTOCOL'
p3317
asbag49
(g70
g51
NtRp3318
(dp3319
g54
(dp3320
g81
g82
ssg63
g3309
sg56
(lp3321
S':'
asbag49
(g70
g51
NtRp3322
(dp3323
g54
(dp3324
sg63
g3309
sg56
(lp3325
g49
(g50
g51
NtRp3326
(dp3327
g54
(dp3328
g62
I3
ssg63
g3322
sg56
(lp3329
g1626
asbasbasbag49
(g65
g51
NtRp3330
(dp3331
g54
(dp3332
sg63
g2801
sg56
(lp3333
g49
(g70
g51
NtRp3334
(dp3335
g54
(dp3336
g74
g75
ssg63
g3330
sg56
(lp3337
S'SERVER_SOFTWARE'
p3338
asbag49
(g70
g51
NtRp3339
(dp3340
g54
(dp3341
g81
g82
ssg63
g3330
sg56
(lp3342
S':'
asbag49
(g70
g51
NtRp3343
(dp3344
g54
(dp3345
sg63
g3330
sg56
(lp3346
g49
(g50
g51
NtRp3347
(dp3348
g54
(dp3349
g62
I3
ssg63
g3343
sg56
(lp3350
g1648
asbasbasbag49
(g65
g51
NtRp3351
(dp3352
g54
(dp3353
sg63
g2801
sg56
(lp3354
g49
(g70
g51
NtRp3355
(dp3356
g54
(dp3357
g74
g75
ssg63
g3351
sg56
(lp3358
S'wsgi.errors'
p3359
asbag49
(g70
g51
NtRp3360
(dp3361
g54
(dp3362
g81
g82
ssg63
g3351
sg56
(lp3363
S':'
asbag49
(g70
g51
NtRp3364
(dp3365
g54
(dp3366
sg63
g3351
sg56
(lp3367
g49
(g50
g51
NtRp3368
(dp3369
g54
(dp3370
g62
I3
ssg63
g3364
sg56
(lp3371
S"<open file '<stderr>', mode 'w' at 0x540b0>"
p3372
asbasbasbag49
(g65
g51
NtRp3373
(dp3374
g54
(dp3375
sg63
g2801
sg56
(lp3376
g49
(g70
g51
NtRp3377
(dp3378
g54
(dp3379
g74
g75
ssg63
g3373
sg56
(lp3380
S'wsgi.file_wrapper'
p3381
asbag49
(g70
g51
NtRp3382
(dp3383
g54
(dp3384
g81
g82
ssg63
g3373
sg56
(lp3385
S':'
asbag49
(g70
g51
NtRp3386
(dp3387
g54
(dp3388
sg63
g3373
sg56
(lp3389
g49
(g50
g51
NtRp3390
(dp3391
g54
(dp3392
g62
I3
ssg63
g3386
sg56
(lp3393
S'<class wsgiref.util.FileWrapper at 0x4761060>'
p3394
asbasbasbag49
(g65
g51
NtRp3395
(dp3396
g54
(dp3397
sg63
g2801
sg56
(lp3398
g49
(g70
g51
NtRp3399
(dp3400
g54
(dp3401
g74
g75
ssg63
g3395
sg56
(lp3402
S'wsgi.input'
p3403
asbag49
(g70
g51
NtRp3404
(dp3405
g54
(dp3406
g81
g82
ssg63
g3395
sg56
(lp3407
S':'
asbag49
(g70
g51
NtRp3408
(dp3409
g54
(dp3410
sg63
g3395
sg56
(lp3411
g49
(g50
g51
NtRp3412
(dp3413
g54
(dp3414
g62
I3
ssg63
g3408
sg56
(lp3415
S"<open file '<fdopen>', mode 'w+b' at 0x92bc0f8>"
p3416
asbasbasbag49
(g65
g51
NtRp3417
(dp3418
g54
(dp3419
sg63
g2801
sg56
(lp3420
g49
(g70
g51
NtRp3421
(dp3422
g54
(dp3423
g74
g75
ssg63
g3417
sg56
(lp3424
S'wsgi.multiprocess'
p3425
asbag49
(g70
g51
NtRp3426
(dp3427
g54
(dp3428
g81
g82
ssg63
g3417
sg56
(lp3429
S':'
asbag49
(g70
g51
NtRp3430
(dp3431
g54
(dp3432
sg63
g3417
sg56
(lp3433
g49
(g50
g51
NtRp3434
(dp3435
g54
(dp3436
g62
I3
ssg63
g3430
sg56
(lp3437
g92
asbasbasbag49
(g65
g51
NtRp3438
(dp3439
g54
(dp3440
sg63
g2801
sg56
(lp3441
g49
(g70
g51
NtRp3442
(dp3443
g54
(dp3444
g74
g75
ssg63
g3438
sg56
(lp3445
S'wsgi.multithread'
p3446
asbag49
(g70
g51
NtRp3447
(dp3448
g54
(dp3449
g81
g82
ssg63
g3438
sg56
(lp3450
S':'
asbag49
(g70
g51
NtRp3451
(dp3452
g54
(dp3453
sg63
g3438
sg56
(lp3454
g49
(g50
g51
NtRp3455
(dp3456
g54
(dp3457
g62
I3
ssg63
g3451
sg56
(lp3458
g972
asbasbasbag49
(g65
g51
NtRp3459
(dp3460
g54
(dp3461
sg63
g2801
sg56
(lp3462
g49
(g70
g51
NtRp3463
(dp3464
g54
(dp3465
g74
g75
ssg63
g3459
sg56
(lp3466
S'wsgi.run_once'
p3467
asbag49
(g70
g51
NtRp3468
(dp3469
g54
(dp3470
g81
g82
ssg63
g3459
sg56
(lp3471
S':'
asbag49
(g70
g51
NtRp3472
(dp3473
g54
(dp3474
sg63
g3459
sg56
(lp3475
g49
(g50
g51
NtRp3476
(dp3477
g54
(dp3478
g62
I3
ssg63
g3472
sg56
(lp3479
g92
asbasbasbag49
(g65
g51
NtRp3480
(dp3481
g54
(dp3482
sg63
g2801
sg56
(lp3483
g49
(g70
g51
NtRp3484
(dp3485
g54
(dp3486
g74
g75
ssg63
g3480
sg56
(lp3487
S'wsgi.url_scheme'
p3488
asbag49
(g70
g51
NtRp3489
(dp3490
g54
(dp3491
g81
g82
ssg63
g3480
sg56
(lp3492
S':'
asbag49
(g70
g51
NtRp3493
(dp3494
g54
(dp3495
sg63
g3480
sg56
(lp3496
g49
(g50
g51
NtRp3497
(dp3498
g54
(dp3499
g62
I3
ssg63
g3493
sg56
(lp3500
g1907
asbasbasbag49
(g65
g51
NtRp3501
(dp3502
g54
(dp3503
sg63
g2801
sg56
(lp3504
g49
(g70
g51
NtRp3505
(dp3506
g54
(dp3507
g74
g75
ssg63
g3501
sg56
(lp3508
S'wsgi.version'
p3509
asbag49
(g70
g51
NtRp3510
(dp3511
g54
(dp3512
g81
g82
ssg63
g3501
sg56
(lp3513
S':'
asbag49
(g70
g51
NtRp3514
(dp3515
g54
(dp3516
sg63
g3501
sg56
(lp3517
g49
(g50
g51
NtRp3518
(dp3519
g54
(dp3520
g62
I3
ssg63
g3514
sg56
(lp3521
S'1'
asbasbasbasbasbasbasbasbasbasbasbasbasbsS'frames'
p3522
(lp3523
(dp3524
S'file'
p3525
S'/home/mdipierro/web2py/gluon/restricted.py'
p3526
sS'dump'
p3527
(dp3528
sS'lnum'
p3529
I212
sS'lines'
p3530
(dp3531
sS'call'
p3532
S"(code='# coding: utf8\\n# try something like\\nimport rando...nce - bet\\n\\nresponse._vars=response._caller(show)\\n', environment={'A': <class 'gluon.html.A'>, 'Auth': <class 'gluon.tools.Auth'>, 'B': <class 'gluon.html.B'>, 'BEAUTIFY': <class 'gluon.html.BEAUTIFY'>, 'BODY': <class 'gluon.html.BODY'>, 'BR': <class 'gluon.html.BR'>, 'BUTTON': <class 'gluon.html.BUTTON'>, 'CAT': <class 'gluon.html.CAT'>, 'CENTER': <class 'gluon.html.CENTER'>, 'CLEANUP': <class 'gluon.validators.CLEANUP'>, ...}, layer='/Users/zamechek/Downloads/web2py/web2py.app/Cont...Resources/applications/hellow/controllers/game.py')"
p3533
sS'func'
p3534
S'restricted'
p3535
sa(dp3536
g3525
S'/Users/zamechek/Downloads/web2py/web2py.app/Contents/Resources/applications/hellow/controllers/game.py'
p3537
sg3527
(dp3538
sg3529
I42
sg3530
(dp3539
I32
S'    return otherForm'
p3540
sI33
S''
sI34
S'def isWinner(odds, bet, balance):'
p3541
sI35
S'    if(random.randint(1, 10) > odds):'
p3542
sI36
S"        response.flash = 'You won'"
p3543
sI37
S'        return bet + balance'
p3544
sI38
S'    else:'
p3545
sI39
S"        response.flash = 'You lost'"
p3546
sI40
S'        return balance - bet'
p3547
sI31
S"        response.flash = 'form has errors'"
p3548
ssg3532
S'()'
p3549
sg3534
S'<module>'
p3550
sa(dp3551
g3525
S'/home/mdipierro/web2py/gluon/globals.py'
p3552
sg3527
(dp3553
sg3529
I193
sg3530
(dp3554
sg3532
S'(f=<function show at 0x6e94330>)'
p3555
sg3534
S'<lambda>'
p3556
sa(dp3557
g3525
S'/Users/zamechek/Downloads/web2py/web2py.app/Contents/Resources/applications/hellow/controllers/game.py'
p3558
sg3527
(dp3559
sg3529
I14
sg3530
(dp3560
I9
S''
sI10
S'    query=((db.game.id==db.game_slots.game)&(db.slot.id==db.game_slots.slot))'
p3561
sI11
S'    #game_and_slots=(db.game.id==db.game_slots.game)&(db.slot.id==db.game_slots.slot)'
p3562
sI12
S'    rows = db(query).select(db.slot.id, db.slot.odds)'
p3563
sI13
S''
sI14
S'    otherForm = form_from_factory(rows, game, id)'
p3564
sI15
S'    return dict(name=auth_user.first_name.capitalize() + " " + auth_user.last_name.capitalize(), balance = game.balance, slots = rows, gameid = id, otherForm=otherForm)'
p3565
sI16
S''
sI17
S'def form_from_factory(rows , game, id):'
p3566
sI18
S'    game_and_slots=db((db.game.id==db.game_slots.game)&(db.slot.id==db.game_slots.slot))'
p3567
ssg3532
S'()'
p3568
sg3534
S'show'
p3569
sa(dp3570
g3525
S'/Users/zamechek/Downloads/web2py/web2py.app/Contents/Resources/applications/hellow/controllers/game.py'
p3571
sg3527
(dp3572
sg3529
I27
sg3530
(dp3573
I22
S'    if otherForm.process().accepted:'
p3574
sI23
S'        mybet = int(otherForm.vars.bet)'
p3575
sI24
S'        currentBalance =  int(game.balance)'
p3576
sI25
S'        remainingBalance = isWinner(int(otherForm.vars.slot), mybet, currentBalance)'
p3577
sI26
S'        game.update_record(balance=str(remainingBalance))'
p3578
sI27
S'        db.user_action.insert(game = game, auth_user = game.auth_user, slot = otherForm.vars.slot, bet = mybet, winning = currentBalance, odds = otherForm.vars.slot, datetime = datetime.now())'
p3579
sI28
S''
sI29
S''
sI30
S'    elif otherForm.errors:'
p3580
sI31
S"        response.flash = 'form has errors'"
p3581
ssg3532
S"(rows=<Rows (3)>, game=<Row {'auth_user': 1, 'balance': '100', 'id': 1}>, id='1')"
p3582
sg3534
S'form_from_factory'
p3583
sasS'pyver'
p3584
S'Python 2.5.1: /Users/zamechek/Downloads/web2py/web2py.app/Contents/MacOS/python'
p3585
sS'session'
p3586
g49
(g50
g51
NtRp3587
(dp3588
g54
(dp3589
sg56
(lp3590
g49
(g58
g51
NtRp3591
(dp3592
g54
(dp3593
g62
I5
ssg63
Nsg56
(lp3594
g49
(g65
g51
NtRp3595
(dp3596
g54
(dp3597
sg63
g3591
sg56
(lp3598
g49
(g70
g51
NtRp3599
(dp3600
g54
(dp3601
g74
g75
ssg63
g3595
sg56
(lp3602
S'auth'
p3603
asbag49
(g70
g51
NtRp3604
(dp3605
g54
(dp3606
g81
g82
ssg63
g3595
sg56
(lp3607
S':'
asbag49
(g70
g51
NtRp3608
(dp3609
g54
(dp3610
sg63
g3595
sg56
(lp3611
g49
(g50
g51
NtRp3612
(dp3613
g54
(dp3614
g62
I5
ssg63
g3608
sg56
(lp3615
g49
(g58
g51
NtRp3616
(dp3617
g54
(dp3618
g62
I4
ssg63
Nsg56
(lp3619
g49
(g65
g51
NtRp3620
(dp3621
g54
(dp3622
sg63
g3616
sg56
(lp3623
g49
(g70
g51
NtRp3624
(dp3625
g54
(dp3626
g74
g75
ssg63
g3620
sg56
(lp3627
S'expiration'
p3628
asbag49
(g70
g51
NtRp3629
(dp3630
g54
(dp3631
g81
g82
ssg63
g3620
sg56
(lp3632
S':'
asbag49
(g70
g51
NtRp3633
(dp3634
g54
(dp3635
sg63
g3620
sg56
(lp3636
g49
(g50
g51
NtRp3637
(dp3638
g54
(dp3639
g62
I4
ssg63
g3633
sg56
(lp3640
S'3600'
p3641
asbasbasbag49
(g65
g51
NtRp3642
(dp3643
g54
(dp3644
sg63
g3616
sg56
(lp3645
g49
(g70
g51
NtRp3646
(dp3647
g54
(dp3648
g74
g75
ssg63
g3642
sg56
(lp3649
S'hmac_key'
p3650
asbag49
(g70
g51
NtRp3651
(dp3652
g54
(dp3653
g81
g82
ssg63
g3642
sg56
(lp3654
S':'
asbag49
(g70
g51
NtRp3655
(dp3656
g54
(dp3657
sg63
g3642
sg56
(lp3658
g49
(g50
g51
NtRp3659
(dp3660
g54
(dp3661
g62
I4
ssg63
g3655
sg56
(lp3662
S'dfce88b4-e79e-4475-bdab-968fb69963d5'
p3663
asbasbasbag49
(g65
g51
NtRp3664
(dp3665
g54
(dp3666
sg63
g3616
sg56
(lp3667
g49
(g70
g51
NtRp3668
(dp3669
g54
(dp3670
g74
g75
ssg63
g3664
sg56
(lp3671
S'last_visit'
p3672
asbag49
(g70
g51
NtRp3673
(dp3674
g54
(dp3675
g81
g82
ssg63
g3664
sg56
(lp3676
S':'
asbag49
(g70
g51
NtRp3677
(dp3678
g54
(dp3679
sg63
g3664
sg56
(lp3680
g49
(g50
g51
NtRp3681
(dp3682
g54
(dp3683
g62
I4
ssg63
g3677
sg56
(lp3684
S'datetime.datetime(2013, 3, 28, 14, 28, 5, 88735)'
p3685
asbasbasbag49
(g65
g51
NtRp3686
(dp3687
g54
(dp3688
sg63
g3616
sg56
(lp3689
g49
(g70
g51
NtRp3690
(dp3691
g54
(dp3692
g74
g75
ssg63
g3686
sg56
(lp3693
S'remember'
p3694
asbag49
(g70
g51
NtRp3695
(dp3696
g54
(dp3697
g81
g82
ssg63
g3686
sg56
(lp3698
S':'
asbag49
(g70
g51
NtRp3699
(dp3700
g54
(dp3701
sg63
g3686
sg56
(lp3702
g49
(g50
g51
NtRp3703
(dp3704
g54
(dp3705
g62
I4
ssg63
g3699
sg56
(lp3706
g92
asbasbasbag49
(g65
g51
NtRp3707
(dp3708
g54
(dp3709
sg63
g3616
sg56
(lp3710
g49
(g70
g51
NtRp3711
(dp3712
g54
(dp3713
g74
g75
ssg63
g3707
sg56
(lp3714
S'user'
p3715
asbag49
(g70
g51
NtRp3716
(dp3717
g54
(dp3718
g81
g82
ssg63
g3707
sg56
(lp3719
S':'
asbag49
(g70
g51
NtRp3720
(dp3721
g54
(dp3722
sg63
g3707
sg56
(lp3723
g49
(g50
g51
NtRp3724
(dp3725
g54
(dp3726
g62
I4
ssg63
g3720
sg56
(lp3727
g49
(g58
g51
NtRp3728
(dp3729
g54
(dp3730
g62
I3
ssg63
Nsg56
(lp3731
g49
(g65
g51
NtRp3732
(dp3733
g54
(dp3734
sg63
g3728
sg56
(lp3735
g49
(g70
g51
NtRp3736
(dp3737
g54
(dp3738
g74
g75
ssg63
g3732
sg56
(lp3739
S'email'
p3740
asbag49
(g70
g51
NtRp3741
(dp3742
g54
(dp3743
g81
g82
ssg63
g3732
sg56
(lp3744
S':'
asbag49
(g70
g51
NtRp3745
(dp3746
g54
(dp3747
sg63
g3732
sg56
(lp3748
g49
(g50
g51
NtRp3749
(dp3750
g54
(dp3751
g62
I3
ssg63
g3745
sg56
(lp3752
S'shawnzam@gmail.com'
p3753
asbasbasbag49
(g65
g51
NtRp3754
(dp3755
g54
(dp3756
sg63
g3728
sg56
(lp3757
g49
(g70
g51
NtRp3758
(dp3759
g54
(dp3760
g74
g75
ssg63
g3754
sg56
(lp3761
S'first_name'
p3762
asbag49
(g70
g51
NtRp3763
(dp3764
g54
(dp3765
g81
g82
ssg63
g3754
sg56
(lp3766
S':'
asbag49
(g70
g51
NtRp3767
(dp3768
g54
(dp3769
sg63
g3754
sg56
(lp3770
g49
(g50
g51
NtRp3771
(dp3772
g54
(dp3773
g62
I3
ssg63
g3767
sg56
(lp3774
S'alt'
p3775
asbasbasbag49
(g65
g51
NtRp3776
(dp3777
g54
(dp3778
sg63
g3728
sg56
(lp3779
g49
(g70
g51
NtRp3780
(dp3781
g54
(dp3782
g74
g75
ssg63
g3776
sg56
(lp3783
S'id'
p3784
asbag49
(g70
g51
NtRp3785
(dp3786
g54
(dp3787
g81
g82
ssg63
g3776
sg56
(lp3788
S':'
asbag49
(g70
g51
NtRp3789
(dp3790
g54
(dp3791
sg63
g3776
sg56
(lp3792
g49
(g50
g51
NtRp3793
(dp3794
g54
(dp3795
g62
I3
ssg63
g3789
sg56
(lp3796
S'1'
asbasbasbag49
(g65
g51
NtRp3797
(dp3798
g54
(dp3799
sg63
g3728
sg56
(lp3800
g49
(g70
g51
NtRp3801
(dp3802
g54
(dp3803
g74
g75
ssg63
g3797
sg56
(lp3804
S'last_name'
p3805
asbag49
(g70
g51
NtRp3806
(dp3807
g54
(dp3808
g81
g82
ssg63
g3797
sg56
(lp3809
S':'
asbag49
(g70
g51
NtRp3810
(dp3811
g54
(dp3812
sg63
g3797
sg56
(lp3813
g49
(g50
g51
NtRp3814
(dp3815
g54
(dp3816
g62
I3
ssg63
g3810
sg56
(lp3817
S'Zamechek'
p3818
asbasbasbag49
(g65
g51
NtRp3819
(dp3820
g54
(dp3821
sg63
g3728
sg56
(lp3822
g49
(g70
g51
NtRp3823
(dp3824
g54
(dp3825
g74
g75
ssg63
g3819
sg56
(lp3826
S'registration_id'
p3827
asbag49
(g70
g51
NtRp3828
(dp3829
g54
(dp3830
g81
g82
ssg63
g3819
sg56
(lp3831
S':'
asbag49
(g70
g51
NtRp3832
(dp3833
g54
(dp3834
sg63
g3819
sg56
(lp3835
g49
(g50
g51
NtRp3836
(dp3837
g54
(dp3838
g62
I3
ssg63
g3832
sg56
(lp3839
S''
asbasbasbag49
(g65
g51
NtRp3840
(dp3841
g54
(dp3842
sg63
g3728
sg56
(lp3843
g49
(g70
g51
NtRp3844
(dp3845
g54
(dp3846
g74
g75
ssg63
g3840
sg56
(lp3847
S'registration_key'
p3848
asbag49
(g70
g51
NtRp3849
(dp3850
g54
(dp3851
g81
g82
ssg63
g3840
sg56
(lp3852
S':'
asbag49
(g70
g51
NtRp3853
(dp3854
g54
(dp3855
sg63
g3840
sg56
(lp3856
g49
(g50
g51
NtRp3857
(dp3858
g54
(dp3859
g62
I3
ssg63
g3853
sg56
(lp3860
S''
asbasbasbag49
(g65
g51
NtRp3861
(dp3862
g54
(dp3863
sg63
g3728
sg56
(lp3864
g49
(g70
g51
NtRp3865
(dp3866
g54
(dp3867
g74
g75
ssg63
g3861
sg56
(lp3868
S'reset_password_key'
p3869
asbag49
(g70
g51
NtRp3870
(dp3871
g54
(dp3872
g81
g82
ssg63
g3861
sg56
(lp3873
S':'
asbag49
(g70
g51
NtRp3874
(dp3875
g54
(dp3876
sg63
g3861
sg56
(lp3877
g49
(g50
g51
NtRp3878
(dp3879
g54
(dp3880
g62
I3
ssg63
g3874
sg56
(lp3881
S''
asbasbasbasbasbasbasbag49
(g65
g51
NtRp3882
(dp3883
g54
(dp3884
sg63
g3616
sg56
(lp3885
g49
(g70
g51
NtRp3886
(dp3887
g54
(dp3888
g74
g75
ssg63
g3882
sg56
(lp3889
S'user_groups'
p3890
asbag49
(g70
g51
NtRp3891
(dp3892
g54
(dp3893
g81
g82
ssg63
g3882
sg56
(lp3894
S':'
asbag49
(g70
g51
NtRp3895
(dp3896
g54
(dp3897
sg63
g3882
sg56
(lp3898
g49
(g50
g51
NtRp3899
(dp3900
g54
(dp3901
g62
I4
ssg63
g3895
sg56
(lp3902
g49
(g58
g51
NtRp3903
(dp3904
g54
(dp3905
g62
I3
ssg63
Nsg56
(lp3906
g49
(g65
g51
NtRp3907
(dp3908
g54
(dp3909
sg63
g3903
sg56
(lp3910
g49
(g70
g51
NtRp3911
(dp3912
g54
(dp3913
g74
g75
ssg63
g3907
sg56
(lp3914
S'1'
asbag49
(g70
g51
NtRp3915
(dp3916
g54
(dp3917
g81
g82
ssg63
g3907
sg56
(lp3918
S':'
asbag49
(g70
g51
NtRp3919
(dp3920
g54
(dp3921
sg63
g3907
sg56
(lp3922
g49
(g50
g51
NtRp3923
(dp3924
g54
(dp3925
g62
I3
ssg63
g3919
sg56
(lp3926
S'admin'
p3927
asbasbasbasbasbasbasbasbasbasbasbag49
(g65
g51
NtRp3928
(dp3929
g54
(dp3930
sg63
g3591
sg56
(lp3931
g49
(g70
g51
NtRp3932
(dp3933
g54
(dp3934
g74
g75
ssg63
g3928
sg56
(lp3935
S'flash'
p3936
asbag49
(g70
g51
NtRp3937
(dp3938
g54
(dp3939
g81
g82
ssg63
g3928
sg56
(lp3940
S':'
asbag49
(g70
g51
NtRp3941
(dp3942
g54
(dp3943
sg63
g3928
sg56
(lp3944
g49
(g50
g51
NtRp3945
(dp3946
g54
(dp3947
g62
I5
ssg63
g3941
sg56
(lp3948
S'None'
p3949
asbasbasbag49
(g65
g51
NtRp3950
(dp3951
g54
(dp3952
sg63
g3591
sg56
(lp3953
g49
(g70
g51
NtRp3954
(dp3955
g54
(dp3956
g74
g75
ssg63
g3950
sg56
(lp3957
S'last_orderby'
p3958
asbag49
(g70
g51
NtRp3959
(dp3960
g54
(dp3961
g81
g82
ssg63
g3950
sg56
(lp3962
S':'
asbag49
(g70
g51
NtRp3963
(dp3964
g54
(dp3965
sg63
g3950
sg56
(lp3966
g49
(g50
g51
NtRp3967
(dp3968
g54
(dp3969
g62
I5
ssg63
g3963
sg56
(lp3970
S'None'
p3971
asbasbasbag49
(g65
g51
NtRp3972
(dp3973
g54
(dp3974
sg63
g3591
sg56
(lp3975
g49
(g70
g51
NtRp3976
(dp3977
g54
(dp3978
g74
g75
ssg63
g3972
sg56
(lp3979
S'last_query'
p3980
asbag49
(g70
g51
NtRp3981
(dp3982
g54
(dp3983
g81
g82
ssg63
g3972
sg56
(lp3984
S':'
asbag49
(g70
g51
NtRp3985
(dp3986
g54
(dp3987
sg63
g3972
sg56
(lp3988
g49
(g50
g51
NtRp3989
(dp3990
g54
(dp3991
g62
I5
ssg63
g3985
sg56
(lp3992
S'db.user_action.id>0'
p3993
asbasbasbasbasbsS'etype'
p3994
S"<type 'exceptions.AttributeError'>"
p3995
sS'date'
p3996
S'Thu Mar 28 14:32:33 2013'
p3997
sS'response'
p3998
g49
(g50
g51
NtRp3999
(dp4000
g54
(dp4001
sg56
(lp4002
g49
(g58
g51
NtRp4003
(dp4004
g54
(dp4005
g62
I5
ssg63
Nsg56
(lp4006
g49
(g65
g51
NtRp4007
(dp4008
g54
(dp4009
sg63
g4003
sg56
(lp4010
g49
(g70
g51
NtRp4011
(dp4012
g54
(dp4013
g74
g75
ssg63
g4007
sg56
(lp4014
g159
asbag49
(g70
g51
NtRp4015
(dp4016
g54
(dp4017
g81
g82
ssg63
g4007
sg56
(lp4018
S':'
asbag49
(g70
g51
NtRp4019
(dp4020
g54
(dp4021
sg63
g4007
sg56
(lp4022
g49
(g50
g51
NtRp4023
(dp4024
g54
(dp4025
g62
I5
ssg63
g4019
sg56
(lp4026
S'<cStringIO.StringO object at 0x99aa480>'
p4027
asbasbasbag49
(g65
g51
NtRp4028
(dp4029
g54
(dp4030
sg63
g4003
sg56
(lp4031
g49
(g70
g51
NtRp4032
(dp4033
g54
(dp4034
g74
g75
ssg63
g4028
sg56
(lp4035
g247
asbag49
(g70
g51
NtRp4036
(dp4037
g54
(dp4038
g81
g82
ssg63
g4028
sg56
(lp4039
S':'
asbag49
(g70
g51
NtRp4040
(dp4041
g54
(dp4042
sg63
g4028
sg56
(lp4043
g49
(g50
g51
NtRp4044
(dp4045
g54
(dp4046
g62
I5
ssg63
g4040
sg56
(lp4047
g49
(g58
g51
NtRp4048
(dp4049
g54
(dp4050
g62
I4
ssg63
Nsg56
(lp4051
g49
(g65
g51
NtRp4052
(dp4053
g54
(dp4054
sg63
g4048
sg56
(lp4055
g49
(g70
g51
NtRp4056
(dp4057
g54
(dp4058
g74
g75
ssg63
g4052
sg56
(lp4059
S'session_id_hellow'
p4060
asbag49
(g70
g51
NtRp4061
(dp4062
g54
(dp4063
g81
g82
ssg63
g4052
sg56
(lp4064
S':'
asbag49
(g70
g51
NtRp4065
(dp4066
g54
(dp4067
sg63
g4052
sg56
(lp4068
g49
(g50
g51
NtRp4069
(dp4070
g54
(dp4071
g62
I4
ssg63
g4065
sg56
(lp4072
g458
ag49
(g58
g51
NtRp4073
(dp4074
g54
(dp4075
g62
I3
ssg63
Nsg56
(lp4076
g49
(g65
g51
NtRp4077
(dp4078
g54
(dp4079
sg63
g4073
sg56
(lp4080
g49
(g70
g51
NtRp4081
(dp4082
g54
(dp4083
g74
g75
ssg63
g4077
sg56
(lp4084
g298
asbag49
(g70
g51
NtRp4085
(dp4086
g54
(dp4087
g81
g82
ssg63
g4077
sg56
(lp4088
S':'
asbag49
(g70
g51
NtRp4089
(dp4090
g54
(dp4091
sg63
g4077
sg56
(lp4092
g49
(g50
g51
NtRp4093
(dp4094
g54
(dp4095
g62
I3
ssg63
g4089
sg56
(lp4096
S''
asbasbasbag49
(g65
g51
NtRp4097
(dp4098
g54
(dp4099
sg63
g4073
sg56
(lp4100
g49
(g70
g51
NtRp4101
(dp4102
g54
(dp4103
g74
g75
ssg63
g4097
sg56
(lp4104
g319
asbag49
(g70
g51
NtRp4105
(dp4106
g54
(dp4107
g81
g82
ssg63
g4097
sg56
(lp4108
S':'
asbag49
(g70
g51
NtRp4109
(dp4110
g54
(dp4111
sg63
g4097
sg56
(lp4112
g49
(g50
g51
NtRp4113
(dp4114
g54
(dp4115
g62
I3
ssg63
g4109
sg56
(lp4116
S''
asbasbasbag49
(g65
g51
NtRp4117
(dp4118
g54
(dp4119
sg63
g4073
sg56
(lp4120
g49
(g70
g51
NtRp4121
(dp4122
g54
(dp4123
g74
g75
ssg63
g4117
sg56
(lp4124
g340
asbag49
(g70
g51
NtRp4125
(dp4126
g54
(dp4127
g81
g82
ssg63
g4117
sg56
(lp4128
S':'
asbag49
(g70
g51
NtRp4129
(dp4130
g54
(dp4131
sg63
g4117
sg56
(lp4132
g49
(g50
g51
NtRp4133
(dp4134
g54
(dp4135
g62
I3
ssg63
g4129
sg56
(lp4136
S''
asbasbasbag49
(g65
g51
NtRp4137
(dp4138
g54
(dp4139
sg63
g4073
sg56
(lp4140
g49
(g70
g51
NtRp4141
(dp4142
g54
(dp4143
g74
g75
ssg63
g4137
sg56
(lp4144
g361
asbag49
(g70
g51
NtRp4145
(dp4146
g54
(dp4147
g81
g82
ssg63
g4137
sg56
(lp4148
S':'
asbag49
(g70
g51
NtRp4149
(dp4150
g54
(dp4151
sg63
g4137
sg56
(lp4152
g49
(g50
g51
NtRp4153
(dp4154
g54
(dp4155
g62
I3
ssg63
g4149
sg56
(lp4156
S''
asbasbasbag49
(g65
g51
NtRp4157
(dp4158
g54
(dp4159
sg63
g4073
sg56
(lp4160
g49
(g70
g51
NtRp4161
(dp4162
g54
(dp4163
g74
g75
ssg63
g4157
sg56
(lp4164
g382
asbag49
(g70
g51
NtRp4165
(dp4166
g54
(dp4167
g81
g82
ssg63
g4157
sg56
(lp4168
S':'
asbag49
(g70
g51
NtRp4169
(dp4170
g54
(dp4171
sg63
g4157
sg56
(lp4172
g49
(g50
g51
NtRp4173
(dp4174
g54
(dp4175
g62
I3
ssg63
g4169
sg56
(lp4176
S'/'
asbasbasbag49
(g65
g51
NtRp4177
(dp4178
g54
(dp4179
sg63
g4073
sg56
(lp4180
g49
(g70
g51
NtRp4181
(dp4182
g54
(dp4183
g74
g75
ssg63
g4177
sg56
(lp4184
g403
asbag49
(g70
g51
NtRp4185
(dp4186
g54
(dp4187
g81
g82
ssg63
g4177
sg56
(lp4188
S':'
asbag49
(g70
g51
NtRp4189
(dp4190
g54
(dp4191
sg63
g4177
sg56
(lp4192
g49
(g50
g51
NtRp4193
(dp4194
g54
(dp4195
g62
I3
ssg63
g4189
sg56
(lp4196
S''
asbasbasbag49
(g65
g51
NtRp4197
(dp4198
g54
(dp4199
sg63
g4073
sg56
(lp4200
g49
(g70
g51
NtRp4201
(dp4202
g54
(dp4203
g74
g75
ssg63
g4197
sg56
(lp4204
g424
asbag49
(g70
g51
NtRp4205
(dp4206
g54
(dp4207
g81
g82
ssg63
g4197
sg56
(lp4208
S':'
asbag49
(g70
g51
NtRp4209
(dp4210
g54
(dp4211
sg63
g4197
sg56
(lp4212
g49
(g50
g51
NtRp4213
(dp4214
g54
(dp4215
g62
I3
ssg63
g4209
sg56
(lp4216
S''
asbasbasbasbasbasbasbasbasbasbasbag49
(g65
g51
NtRp4217
(dp4218
g54
(dp4219
sg63
g4003
sg56
(lp4220
g49
(g70
g51
NtRp4221
(dp4222
g54
(dp4223
g74
g75
ssg63
g4217
sg56
(lp4224
S'delimiters'
p4225
asbag49
(g70
g51
NtRp4226
(dp4227
g54
(dp4228
g81
g82
ssg63
g4217
sg56
(lp4229
S':'
asbag49
(g70
g51
NtRp4230
(dp4231
g54
(dp4232
sg63
g4217
sg56
(lp4233
g49
(g50
g51
NtRp4234
(dp4235
g54
(dp4236
g62
I5
ssg63
g4230
sg56
(lp4237
g49
(g58
g51
NtRp4238
(dp4239
g54
(dp4240
g62
I4
ssg63
Nsg56
(lp4241
g49
(g65
g51
NtRp4242
(dp4243
g54
(dp4244
sg63
g4238
sg56
(lp4245
g49
(g70
g51
NtRp4246
(dp4247
g54
(dp4248
sg63
g4242
sg56
(lp4249
g49
(g50
g51
NtRp4250
(dp4251
g54
(dp4252
g62
I4
ssg63
g4246
sg56
(lp4253
S'{{'
p4254
asbasbasbag49
(g65
g51
NtRp4255
(dp4256
g54
(dp4257
sg63
g4238
sg56
(lp4258
g49
(g70
g51
NtRp4259
(dp4260
g54
(dp4261
sg63
g4255
sg56
(lp4262
g49
(g50
g51
NtRp4263
(dp4264
g54
(dp4265
g62
I4
ssg63
g4259
sg56
(lp4266
S'}}'
p4267
asbasbasbasbasbasbasbag49
(g65
g51
NtRp4268
(dp4269
g54
(dp4270
sg63
g4003
sg56
(lp4271
g49
(g70
g51
NtRp4272
(dp4273
g54
(dp4274
g74
g75
ssg63
g4268
sg56
(lp4275
S'files'
p4276
asbag49
(g70
g51
NtRp4277
(dp4278
g54
(dp4279
g81
g82
ssg63
g4268
sg56
(lp4280
S':'
asbag49
(g70
g51
NtRp4281
(dp4282
g54
(dp4283
sg63
g4268
sg56
(lp4284
g49
(g50
g51
NtRp4285
(dp4286
g54
(dp4287
g62
I5
ssg63
g4281
sg56
(lp4288
g49
(g58
g51
NtRp4289
(dp4290
g54
(dp4291
g62
I4
ssg63
Nsg56
(lp4292
sbasbasbasbag49
(g65
g51
NtRp4293
(dp4294
g54
(dp4295
sg63
g4003
sg56
(lp4296
g49
(g70
g51
NtRp4297
(dp4298
g54
(dp4299
g74
g75
ssg63
g4293
sg56
(lp4300
S'flash'
p4301
asbag49
(g70
g51
NtRp4302
(dp4303
g54
(dp4304
g81
g82
ssg63
g4293
sg56
(lp4305
S':'
asbag49
(g70
g51
NtRp4306
(dp4307
g54
(dp4308
sg63
g4293
sg56
(lp4309
g49
(g50
g51
NtRp4310
(dp4311
g54
(dp4312
g62
I5
ssg63
g4306
sg56
(lp4313
S'You won'
p4314
asbasbasbag49
(g65
g51
NtRp4315
(dp4316
g54
(dp4317
sg63
g4003
sg56
(lp4318
g49
(g70
g51
NtRp4319
(dp4320
g54
(dp4321
g74
g75
ssg63
g4315
sg56
(lp4322
S'generic_patterns'
p4323
asbag49
(g70
g51
NtRp4324
(dp4325
g54
(dp4326
g81
g82
ssg63
g4315
sg56
(lp4327
S':'
asbag49
(g70
g51
NtRp4328
(dp4329
g54
(dp4330
sg63
g4315
sg56
(lp4331
g49
(g50
g51
NtRp4332
(dp4333
g54
(dp4334
g62
I5
ssg63
g4328
sg56
(lp4335
g49
(g58
g51
NtRp4336
(dp4337
g54
(dp4338
g62
I4
ssg63
Nsg56
(lp4339
g49
(g65
g51
NtRp4340
(dp4341
g54
(dp4342
sg63
g4336
sg56
(lp4343
g49
(g70
g51
NtRp4344
(dp4345
g54
(dp4346
sg63
g4340
sg56
(lp4347
g49
(g50
g51
NtRp4348
(dp4349
g54
(dp4350
g62
I4
ssg63
g4344
sg56
(lp4351
S'*'
asbasbasbasbasbasbasbag49
(g65
g51
NtRp4352
(dp4353
g54
(dp4354
sg63
g4003
sg56
(lp4355
g49
(g70
g51
NtRp4356
(dp4357
g54
(dp4358
g74
g75
ssg63
g4352
sg56
(lp4359
S'google_analytics_id'
p4360
asbag49
(g70
g51
NtRp4361
(dp4362
g54
(dp4363
g81
g82
ssg63
g4352
sg56
(lp4364
S':'
asbag49
(g70
g51
NtRp4365
(dp4366
g54
(dp4367
sg63
g4352
sg56
(lp4368
g49
(g50
g51
NtRp4369
(dp4370
g54
(dp4371
g62
I5
ssg63
g4365
sg56
(lp4372
S'None'
p4373
asbasbasbag49
(g65
g51
NtRp4374
(dp4375
g54
(dp4376
sg63
g4003
sg56
(lp4377
g49
(g70
g51
NtRp4378
(dp4379
g54
(dp4380
g74
g75
ssg63
g4374
sg56
(lp4381
S'headers'
p4382
asbag49
(g70
g51
NtRp4383
(dp4384
g54
(dp4385
g81
g82
ssg63
g4374
sg56
(lp4386
S':'
asbag49
(g70
g51
NtRp4387
(dp4388
g54
(dp4389
sg63
g4374
sg56
(lp4390
g49
(g50
g51
NtRp4391
(dp4392
g54
(dp4393
g62
I5
ssg63
g4387
sg56
(lp4394
g49
(g58
g51
NtRp4395
(dp4396
g54
(dp4397
g62
I4
ssg63
Nsg56
(lp4398
g49
(g65
g51
NtRp4399
(dp4400
g54
(dp4401
sg63
g4395
sg56
(lp4402
g49
(g70
g51
NtRp4403
(dp4404
g54
(dp4405
g74
g75
ssg63
g4399
sg56
(lp4406
S'X-Powered-By'
p4407
asbag49
(g70
g51
NtRp4408
(dp4409
g54
(dp4410
g81
g82
ssg63
g4399
sg56
(lp4411
S':'
asbag49
(g70
g51
NtRp4412
(dp4413
g54
(dp4414
sg63
g4399
sg56
(lp4415
g49
(g50
g51
NtRp4416
(dp4417
g54
(dp4418
g62
I4
ssg63
g4412
sg56
(lp4419
S'web2py'
p4420
asbasbasbasbasbasbasbag49
(g65
g51
NtRp4421
(dp4422
g54
(dp4423
sg63
g4003
sg56
(lp4424
g49
(g70
g51
NtRp4425
(dp4426
g54
(dp4427
g74
g75
ssg63
g4421
sg56
(lp4428
S'logo'
p4429
asbag49
(g70
g51
NtRp4430
(dp4431
g54
(dp4432
g81
g82
ssg63
g4421
sg56
(lp4433
S':'
asbag49
(g70
g51
NtRp4434
(dp4435
g54
(dp4436
sg63
g4421
sg56
(lp4437
g49
(g50
g51
NtRp4438
(dp4439
g54
(dp4440
g62
I5
ssg63
g4434
sg56
(lp4441
g49
(cgluon.html
A
p4442
g51
NtRp4443
(dp4444
g54
(dp4445
S'_class'
p4446
S'brand'
p4447
sS'_href'
p4448
S'http://www.web2py.com/'
p4449
ssg63
Nsg56
(lp4450
g49
(cgluon.html
B
p4451
g51
NtRp4452
(dp4453
g54
(dp4454
sg63
g4443
sg56
(lp4455
S'web'
p4456
ag49
(cgluon.html
SPAN
p4457
g51
NtRp4458
(dp4459
g54
(dp4460
sg63
g4452
sg56
(lp4461
I2
asbaS'py'
p4462
asbacgluon.html
XML_unpickle
p4463
(S's\r\x00\x00\x00&trade;&nbsp;'
tRp4464
asbasbasbasbag49
(g65
g51
NtRp4465
(dp4466
g54
(dp4467
sg63
g4003
sg56
(lp4468
g49
(g70
g51
NtRp4469
(dp4470
g54
(dp4471
g74
g75
ssg63
g4465
sg56
(lp4472
S'menu'
p4473
asbag49
(g70
g51
NtRp4474
(dp4475
g54
(dp4476
g81
g82
ssg63
g4465
sg56
(lp4477
S':'
asbag49
(g70
g51
NtRp4478
(dp4479
g54
(dp4480
sg63
g4465
sg56
(lp4481
g49
(g50
g51
NtRp4482
(dp4483
g54
(dp4484
g62
I5
ssg63
g4478
sg56
(lp4485
g49
(g58
g51
NtRp4486
(dp4487
g54
(dp4488
g62
I4
ssg63
Nsg56
(lp4489
g49
(g65
g51
NtRp4490
(dp4491
g54
(dp4492
sg63
g4486
sg56
(lp4493
g49
(g70
g51
NtRp4494
(dp4495
g54
(dp4496
sg63
g4490
sg56
(lp4497
g49
(g50
g51
NtRp4498
(dp4499
g54
(dp4500
g62
I4
ssg63
g4494
sg56
(lp4501
g49
(g58
g51
NtRp4502
(dp4503
g54
(dp4504
g62
I3
ssg63
Nsg56
(lp4505
g49
(g65
g51
NtRp4506
(dp4507
g54
(dp4508
sg63
g4502
sg56
(lp4509
g49
(g70
g51
NtRp4510
(dp4511
g54
(dp4512
sg63
g4506
sg56
(lp4513
g49
(g50
g51
NtRp4514
(dp4515
g54
(dp4516
g62
I3
ssg63
g4510
sg56
(lp4517
cgluon.languages
lazyT_unpickle
p4518
(S't\x04\x00\x00\x00Home'
tRp4519
asbasbasbag49
(g65
g51
NtRp4520
(dp4521
g54
(dp4522
sg63
g4502
sg56
(lp4523
g49
(g70
g51
NtRp4524
(dp4525
g54
(dp4526
sg63
g4520
sg56
(lp4527
g49
(g50
g51
NtRp4528
(dp4529
g54
(dp4530
g62
I3
ssg63
g4524
sg56
(lp4531
g92
asbasbasbag49
(g65
g51
NtRp4532
(dp4533
g54
(dp4534
sg63
g4502
sg56
(lp4535
g49
(g70
g51
NtRp4536
(dp4537
g54
(dp4538
sg63
g4532
sg56
(lp4539
g49
(g50
g51
NtRp4540
(dp4541
g54
(dp4542
g62
I3
ssg63
g4536
sg56
(lp4543
S'/hellow/default/index'
p4544
asbasbasbag49
(g65
g51
NtRp4545
(dp4546
g54
(dp4547
sg63
g4502
sg56
(lp4548
g49
(g70
g51
NtRp4549
(dp4550
g54
(dp4551
sg63
g4545
sg56
(lp4552
g49
(g50
g51
NtRp4553
(dp4554
g54
(dp4555
g62
I3
ssg63
g4549
sg56
(lp4556
g49
(g58
g51
NtRp4557
(dp4558
g54
(dp4559
g62
I2
ssg63
Nsg56
(lp4560
sbasbasbasbasbasbasbasbag49
(g65
g51
NtRp4561
(dp4562
g54
(dp4563
sg63
g4486
sg56
(lp4564
g49
(g70
g51
NtRp4565
(dp4566
g54
(dp4567
sg63
g4561
sg56
(lp4568
g49
(g50
g51
NtRp4569
(dp4570
g54
(dp4571
g62
I4
ssg63
g4565
sg56
(lp4572
g49
(g58
g51
NtRp4573
(dp4574
g54
(dp4575
g62
I3
ssg63
Nsg56
(lp4576
g49
(g65
g51
NtRp4577
(dp4578
g54
(dp4579
sg63
g4573
sg56
(lp4580
g49
(g70
g51
NtRp4581
(dp4582
g54
(dp4583
sg63
g4577
sg56
(lp4584
g49
(g50
g51
NtRp4585
(dp4586
g54
(dp4587
g62
I3
ssg63
g4581
sg56
(lp4588
g49
(g4457
g51
NtRp4589
(dp4590
g54
(dp4591
g4446
S'highlighted'
p4592
ssg63
Nsg56
(lp4593
g4420
asbasbasbasbag49
(g65
g51
NtRp4594
(dp4595
g54
(dp4596
sg63
g4573
sg56
(lp4597
g49
(g70
g51
NtRp4598
(dp4599
g54
(dp4600
sg63
g4594
sg56
(lp4601
g49
(g50
g51
NtRp4602
(dp4603
g54
(dp4604
g62
I3
ssg63
g4598
sg56
(lp4605
g92
asbasbasbag49
(g65
g51
NtRp4606
(dp4607
g54
(dp4608
sg63
g4573
sg56
(lp4609
g49
(g70
g51
NtRp4610
(dp4611
g54
(dp4612
sg63
g4606
sg56
(lp4613
g49
(g50
g51
NtRp4614
(dp4615
g54
(dp4616
g62
I3
ssg63
g4610
sg56
(lp4617
S'http://web2py.com'
p4618
asbasbasbag49
(g65
g51
NtRp4619
(dp4620
g54
(dp4621
sg63
g4573
sg56
(lp4622
g49
(g70
g51
NtRp4623
(dp4624
g54
(dp4625
sg63
g4619
sg56
(lp4626
g49
(g50
g51
NtRp4627
(dp4628
g54
(dp4629
g62
I3
ssg63
g4623
sg56
(lp4630
g49
(g58
g51
NtRp4631
(dp4632
g54
(dp4633
g62
I2
ssg63
Nsg56
(lp4634
g49
(g65
g51
NtRp4635
(dp4636
g54
(dp4637
sg63
g4631
sg56
(lp4638
g49
(g70
g51
NtRp4639
(dp4640
g54
(dp4641
sg63
g4635
sg56
(lp4642
g49
(g50
g51
NtRp4643
(dp4644
g54
(dp4645
g62
I2
ssg63
g4639
sg56
(lp4646
g49
(g58
g51
NtRp4647
(dp4648
g54
(dp4649
g62
I1
ssg63
Nsg56
(lp4650
g49
(g65
g51
NtRp4651
(dp4652
g54
(dp4653
sg63
g4647
sg56
(lp4654
g49
(g70
g51
NtRp4655
(dp4656
g54
(dp4657
sg63
g4651
sg56
(lp4658
g49
(g50
g51
NtRp4659
(dp4660
g54
(dp4661
g62
I1
ssg63
g4655
sg56
(lp4662
g4518
(S's\x08\x00\x00\x00My Sites'
tRp4663
asbasbasbag49
(g65
g51
NtRp4664
(dp4665
g54
(dp4666
sg63
g4647
sg56
(lp4667
g49
(g70
g51
NtRp4668
(dp4669
g54
(dp4670
sg63
g4664
sg56
(lp4671
g49
(g50
g51
NtRp4672
(dp4673
g54
(dp4674
g62
I1
ssg63
g4668
sg56
(lp4675
I00
asbasbasbag49
(g65
g51
NtRp4676
(dp4677
g54
(dp4678
sg63
g4647
sg56
(lp4679
g49
(g70
g51
NtRp4680
(dp4681
g54
(dp4682
sg63
g4676
sg56
(lp4683
g49
(g50
g51
NtRp4684
(dp4685
g54
(dp4686
g62
I1
ssg63
g4680
sg56
(lp4687
S'/admin/default/site'
p4688
asbasbasbasbasbasbasbag49
(g65
g51
NtRp4689
(dp4690
g54
(dp4691
sg63
g4631
sg56
(lp4692
g49
(g70
g51
NtRp4693
(dp4694
g54
(dp4695
sg63
g4689
sg56
(lp4696
g49
(g50
g51
NtRp4697
(dp4698
g54
(dp4699
g62
I2
ssg63
g4693
sg56
(lp4700
g49
(g58
g51
NtRp4701
(dp4702
g54
(dp4703
g62
I1
ssg63
Nsg56
(lp4704
g49
(g65
g51
NtRp4705
(dp4706
g54
(dp4707
sg63
g4701
sg56
(lp4708
g49
(g70
g51
NtRp4709
(dp4710
g54
(dp4711
sg63
g4705
sg56
(lp4712
g49
(g50
g51
NtRp4713
(dp4714
g54
(dp4715
g62
I1
ssg63
g4709
sg56
(lp4716
g4518
(S's\x08\x00\x00\x00This App'
tRp4717
asbasbasbag49
(g65
g51
NtRp4718
(dp4719
g54
(dp4720
sg63
g4701
sg56
(lp4721
g49
(g70
g51
NtRp4722
(dp4723
g54
(dp4724
sg63
g4718
sg56
(lp4725
g49
(g50
g51
NtRp4726
(dp4727
g54
(dp4728
g62
I1
ssg63
g4722
sg56
(lp4729
I00
asbasbasbag49
(g65
g51
NtRp4730
(dp4731
g54
(dp4732
sg63
g4701
sg56
(lp4733
g49
(g70
g51
NtRp4734
(dp4735
g54
(dp4736
sg63
g4730
sg56
(lp4737
g49
(g50
g51
NtRp4738
(dp4739
g54
(dp4740
g62
I1
ssg63
g4734
sg56
(lp4741
S'/admin/default/design/hellow'
p4742
asbasbasbag49
(g65
g51
NtRp4743
(dp4744
g54
(dp4745
sg63
g4701
sg56
(lp4746
g49
(g70
g51
NtRp4747
(dp4748
g54
(dp4749
sg63
g4743
sg56
(lp4750
g49
(g50
g51
NtRp4751
(dp4752
g54
(dp4753
g62
I1
ssg63
g4747
sg56
(lp4754
(lp4755
(g4518
(S't\n\x00\x00\x00Controller'
tRp4756
I00
S'/admin/default/edit/hellow/controllers/game.py'
tp4757
a(g4518
(S't\x04\x00\x00\x00View'
tRp4758
I00
S'/admin/default/edit/hellow/views/game/show.html'
tp4759
a(g4518
(S't\x06\x00\x00\x00Layout'
tRp4760
I00
S'/admin/default/edit/hellow/views/layout.html'
tp4761
a(g4518
(S't\n\x00\x00\x00Stylesheet'
tRp4762
I00
S'/admin/default/edit/hellow/static/css/web2py.css'
tp4763
a(g4518
(S's\x08\x00\x00\x00DB Model'
tRp4764
I00
S'/admin/default/edit/hellow/models/db.py'
tp4765
a(g4518
(S's\n\x00\x00\x00Menu Model'
tRp4766
I00
S'/admin/default/edit/hellow/models/menu.py'
tp4767
a(g4518
(S't\x08\x00\x00\x00Database'
tRp4768
I00
S'/hellow/appadmin/index'
tp4769
a(g4518
(S't\x06\x00\x00\x00Errors'
tRp4770
I00
S'/admin/default/errors/hellow'
tp4771
a(g4518
(S't\x05\x00\x00\x00About'
tRp4772
I00
S'/admin/default/about/hellow'
tp4773
aasbasbasbasbasbasbasbag49
(g65
g51
NtRp4774
(dp4775
g54
(dp4776
sg63
g4631
sg56
(lp4777
g49
(g70
g51
NtRp4778
(dp4779
g54
(dp4780
sg63
g4774
sg56
(lp4781
g49
(g50
g51
NtRp4782
(dp4783
g54
(dp4784
g62
I2
ssg63
g4778
sg56
(lp4785
g49
(g58
g51
NtRp4786
(dp4787
g54
(dp4788
g62
I1
ssg63
Nsg56
(lp4789
g49
(g65
g51
NtRp4790
(dp4791
g54
(dp4792
sg63
g4786
sg56
(lp4793
g49
(g70
g51
NtRp4794
(dp4795
g54
(dp4796
sg63
g4790
sg56
(lp4797
g49
(g50
g51
NtRp4798
(dp4799
g54
(dp4800
g62
I1
ssg63
g4794
sg56
(lp4801
S'web2py.com'
p4802
asbasbasbag49
(g65
g51
NtRp4803
(dp4804
g54
(dp4805
sg63
g4786
sg56
(lp4806
g49
(g70
g51
NtRp4807
(dp4808
g54
(dp4809
sg63
g4803
sg56
(lp4810
g49
(g50
g51
NtRp4811
(dp4812
g54
(dp4813
g62
I1
ssg63
g4807
sg56
(lp4814
I00
asbasbasbag49
(g65
g51
NtRp4815
(dp4816
g54
(dp4817
sg63
g4786
sg56
(lp4818
g49
(g70
g51
NtRp4819
(dp4820
g54
(dp4821
sg63
g4815
sg56
(lp4822
g49
(g50
g51
NtRp4823
(dp4824
g54
(dp4825
g62
I1
ssg63
g4819
sg56
(lp4826
S'http://www.web2py.com'
p4827
asbasbasbag49
(g65
g51
NtRp4828
(dp4829
g54
(dp4830
sg63
g4786
sg56
(lp4831
g49
(g70
g51
NtRp4832
(dp4833
g54
(dp4834
sg63
g4828
sg56
(lp4835
g49
(g50
g51
NtRp4836
(dp4837
g54
(dp4838
g62
I1
ssg63
g4832
sg56
(lp4839
(lp4840
(g4518
(S't\x08\x00\x00\x00Download'
tRp4841
I00
S'http://www.web2py.com/examples/default/download'
p4842
tp4843
a(g4518
(S't\x07\x00\x00\x00Support'
tRp4844
I00
S'http://www.web2py.com/examples/default/support'
p4845
tp4846
a(g4518
(S't\x04\x00\x00\x00Demo'
tRp4847
I00
S'http://web2py.com/demo_admin'
p4848
tp4849
a(g4518
(S's\x0e\x00\x00\x00Quick Examples'
tRp4850
I00
S'http://web2py.com/examples/default/examples'
p4851
tp4852
a(g4518
(S't\x03\x00\x00\x00FAQ'
tRp4853
I00
S'http://web2py.com/AlterEgo'
p4854
tp4855
a(g4518
(S't\x06\x00\x00\x00Videos'
tRp4856
I00
S'http://www.web2py.com/examples/default/videos/'
p4857
tp4858
a(g4518
(S's\x11\x00\x00\x00Free Applications'
tRp4859
I00
S'http://web2py.com/appliances'
p4860
tp4861
a(g4518
(S't\x07\x00\x00\x00Plugins'
tRp4862
I00
S'http://web2py.com/plugins'
p4863
tp4864
a(g4518
(S't\x07\x00\x00\x00Layouts'
tRp4865
I00
S'http://web2py.com/layouts'
p4866
tp4867
a(g4518
(S't\x07\x00\x00\x00Recipes'
tRp4868
I00
S'http://web2pyslices.com/'
p4869
tp4870
a(g4518
(S't\x08\x00\x00\x00Semantic'
tRp4871
I00
S'http://web2py.com/semantic'
p4872
tp4873
aasbasbasbasbasbasbasbag49
(g65
g51
NtRp4874
(dp4875
g54
(dp4876
sg63
g4631
sg56
(lp4877
g49
(g70
g51
NtRp4878
(dp4879
g54
(dp4880
sg63
g4874
sg56
(lp4881
g49
(g50
g51
NtRp4882
(dp4883
g54
(dp4884
g62
I2
ssg63
g4878
sg56
(lp4885
g49
(g58
g51
NtRp4886
(dp4887
g54
(dp4888
g62
I1
ssg63
Nsg56
(lp4889
g49
(g65
g51
NtRp4890
(dp4891
g54
(dp4892
sg63
g4886
sg56
(lp4893
g49
(g70
g51
NtRp4894
(dp4895
g54
(dp4896
sg63
g4890
sg56
(lp4897
g49
(g50
g51
NtRp4898
(dp4899
g54
(dp4900
g62
I1
ssg63
g4894
sg56
(lp4901
g4518
(S't\r\x00\x00\x00Documentation'
tRp4902
asbasbasbag49
(g65
g51
NtRp4903
(dp4904
g54
(dp4905
sg63
g4886
sg56
(lp4906
g49
(g70
g51
NtRp4907
(dp4908
g54
(dp4909
sg63
g4903
sg56
(lp4910
g49
(g50
g51
NtRp4911
(dp4912
g54
(dp4913
g62
I1
ssg63
g4907
sg56
(lp4914
I00
asbasbasbag49
(g65
g51
NtRp4915
(dp4916
g54
(dp4917
sg63
g4886
sg56
(lp4918
g49
(g70
g51
NtRp4919
(dp4920
g54
(dp4921
sg63
g4915
sg56
(lp4922
g49
(g50
g51
NtRp4923
(dp4924
g54
(dp4925
g62
I1
ssg63
g4919
sg56
(lp4926
S'http://www.web2py.com/book'
p4927
asbasbasbag49
(g65
g51
NtRp4928
(dp4929
g54
(dp4930
sg63
g4886
sg56
(lp4931
g49
(g70
g51
NtRp4932
(dp4933
g54
(dp4934
sg63
g4928
sg56
(lp4935
g49
(g50
g51
NtRp4936
(dp4937
g54
(dp4938
g62
I1
ssg63
g4932
sg56
(lp4939
(lp4940
(g4518
(S't\x07\x00\x00\x00Preface'
tRp4941
I00
S'http://www.web2py.com/book/default/chapter/00'
p4942
tp4943
a(g4518
(S't\x0c\x00\x00\x00Introduction'
tRp4944
I00
S'http://www.web2py.com/book/default/chapter/01'
p4945
tp4946
a(g4518
(S't\x06\x00\x00\x00Python'
tRp4947
I00
S'http://www.web2py.com/book/default/chapter/02'
p4948
tp4949
a(g4518
(S't\x08\x00\x00\x00Overview'
tRp4950
I00
S'http://www.web2py.com/book/default/chapter/03'
p4951
tp4952
a(g4518
(S's\x08\x00\x00\x00The Core'
tRp4953
I00
S'http://www.web2py.com/book/default/chapter/04'
p4954
tp4955
a(g4518
(S's\t\x00\x00\x00The Views'
tRp4956
I00
S'http://www.web2py.com/book/default/chapter/05'
p4957
tp4958
a(g4518
(S't\x08\x00\x00\x00Database'
tRp4959
I00
S'http://www.web2py.com/book/default/chapter/06'
p4960
tp4961
a(g4518
(S's\x14\x00\x00\x00Forms and Validators'
tRp4962
I00
S'http://www.web2py.com/book/default/chapter/07'
p4963
tp4964
a(g4518
(S's\r\x00\x00\x00Email and SMS'
tRp4965
I00
S'http://www.web2py.com/book/default/chapter/08'
p4966
tp4967
a(g4518
(S's\x0e\x00\x00\x00Access Control'
tRp4968
I00
S'http://www.web2py.com/book/default/chapter/09'
p4969
tp4970
a(g4518
(S't\x08\x00\x00\x00Services'
tRp4971
I00
S'http://www.web2py.com/book/default/chapter/10'
p4972
tp4973
a(g4518
(S's\x0c\x00\x00\x00Ajax Recipes'
tRp4974
I00
S'http://www.web2py.com/book/default/chapter/11'
p4975
tp4976
a(g4518
(S's\x16\x00\x00\x00Components and Plugins'
tRp4977
I00
S'http://www.web2py.com/book/default/chapter/12'
p4978
tp4979
a(g4518
(S's\x12\x00\x00\x00Deployment Recipes'
tRp4980
I00
S'http://www.web2py.com/book/default/chapter/13'
p4981
tp4982
a(g4518
(S's\r\x00\x00\x00Other Recipes'
tRp4983
I00
S'http://www.web2py.com/book/default/chapter/14'
p4984
tp4985
a(g4518
(S's\r\x00\x00\x00Buy this book'
tRp4986
I00
S'http://stores.lulu.com/web2py'
p4987
tp4988
aasbasbasbasbasbasbasbag49
(g65
g51
NtRp4989
(dp4990
g54
(dp4991
sg63
g4631
sg56
(lp4992
g49
(g70
g51
NtRp4993
(dp4994
g54
(dp4995
sg63
g4989
sg56
(lp4996
g49
(g50
g51
NtRp4997
(dp4998
g54
(dp4999
g62
I2
ssg63
g4993
sg56
(lp5000
g49
(g58
g51
NtRp5001
(dp5002
g54
(dp5003
g62
I1
ssg63
Nsg56
(lp5004
g49
(g65
g51
NtRp5005
(dp5006
g54
(dp5007
sg63
g5001
sg56
(lp5008
g49
(g70
g51
NtRp5009
(dp5010
g54
(dp5011
sg63
g5005
sg56
(lp5012
g49
(g50
g51
NtRp5013
(dp5014
g54
(dp5015
g62
I1
ssg63
g5009
sg56
(lp5016
g4518
(S't\t\x00\x00\x00Community'
tRp5017
asbasbasbag49
(g65
g51
NtRp5018
(dp5019
g54
(dp5020
sg63
g5001
sg56
(lp5021
g49
(g70
g51
NtRp5022
(dp5023
g54
(dp5024
sg63
g5018
sg56
(lp5025
g49
(g50
g51
NtRp5026
(dp5027
g54
(dp5028
g62
I1
ssg63
g5022
sg56
(lp5029
I00
asbasbasbag49
(g65
g51
NtRp5030
(dp5031
g54
(dp5032
sg63
g5001
sg56
(lp5033
g49
(g70
g51
NtRp5034
(dp5035
g54
(dp5036
sg63
g5030
sg56
(lp5037
g49
(g50
g51
NtRp5038
(dp5039
g54
(dp5040
g62
I1
ssg63
g5034
sg56
(lp5041
Nasbasbasbag49
(g65
g51
NtRp5042
(dp5043
g54
(dp5044
sg63
g5001
sg56
(lp5045
g49
(g70
g51
NtRp5046
(dp5047
g54
(dp5048
sg63
g5042
sg56
(lp5049
g49
(g50
g51
NtRp5050
(dp5051
g54
(dp5052
g62
I1
ssg63
g5046
sg56
(lp5053
(lp5054
(g4518
(S't\x06\x00\x00\x00Groups'
tRp5055
I00
S'http://www.web2py.com/examples/default/usergroups'
p5056
tp5057
a(g4518
(S't\x07\x00\x00\x00Twitter'
tRp5058
I00
S'http://twitter.com/web2py'
p5059
tp5060
a(g4518
(S's\t\x00\x00\x00Live Chat'
tRp5061
I00
S'http://webchat.freenode.net/?channels=web2py'
p5062
tp5063
aasbasbasbasbasbasbasbag49
(g65
g51
NtRp5064
(dp5065
g54
(dp5066
sg63
g4631
sg56
(lp5067
g49
(g70
g51
NtRp5068
(dp5069
g54
(dp5070
sg63
g5064
sg56
(lp5071
g49
(g50
g51
NtRp5072
(dp5073
g54
(dp5074
g62
I2
ssg63
g5068
sg56
(lp5075
g49
(g58
g51
NtRp5076
(dp5077
g54
(dp5078
g62
I1
ssg63
Nsg56
(lp5079
g49
(g65
g51
NtRp5080
(dp5081
g54
(dp5082
sg63
g5076
sg56
(lp5083
g49
(g70
g51
NtRp5084
(dp5085
g54
(dp5086
sg63
g5080
sg56
(lp5087
g49
(g50
g51
NtRp5088
(dp5089
g54
(dp5090
g62
I1
ssg63
g5084
sg56
(lp5091
g4518
(S't\x07\x00\x00\x00Plugins'
tRp5092
asbasbasbag49
(g65
g51
NtRp5093
(dp5094
g54
(dp5095
sg63
g5076
sg56
(lp5096
g49
(g70
g51
NtRp5097
(dp5098
g54
(dp5099
sg63
g5093
sg56
(lp5100
g49
(g50
g51
NtRp5101
(dp5102
g54
(dp5103
g62
I1
ssg63
g5097
sg56
(lp5104
I00
asbasbasbag49
(g65
g51
NtRp5105
(dp5106
g54
(dp5107
sg63
g5076
sg56
(lp5108
g49
(g70
g51
NtRp5109
(dp5110
g54
(dp5111
sg63
g5105
sg56
(lp5112
g49
(g50
g51
NtRp5113
(dp5114
g54
(dp5115
g62
I1
ssg63
g5109
sg56
(lp5116
Nasbasbasbag49
(g65
g51
NtRp5117
(dp5118
g54
(dp5119
sg63
g5076
sg56
(lp5120
g49
(g70
g51
NtRp5121
(dp5122
g54
(dp5123
sg63
g5117
sg56
(lp5124
g49
(g50
g51
NtRp5125
(dp5126
g54
(dp5127
g62
I1
ssg63
g5121
sg56
(lp5128
(lp5129
(S'plugin_wiki'
p5130
I00
S'http://web2py.com/examples/default/download'
p5131
tp5132
a(g4518
(S's\r\x00\x00\x00Other Plugins'
tRp5133
I00
g4863
tp5134
a(g4518
(S's\x0e\x00\x00\x00Layout Plugins'
tRp5135
I00
g4866
tp5136
aasbasbasbasbasbasbasbasbasbasbasbasbasbasbasbasbasbasbasbag49
(g65
g51
NtRp5137
(dp5138
g54
(dp5139
sg63
g4003
sg56
(lp5140
g49
(g70
g51
NtRp5141
(dp5142
g54
(dp5143
g74
g75
ssg63
g5137
sg56
(lp5144
S'meta'
p5145
asbag49
(g70
g51
NtRp5146
(dp5147
g54
(dp5148
g81
g82
ssg63
g5137
sg56
(lp5149
S':'
asbag49
(g70
g51
NtRp5150
(dp5151
g54
(dp5152
sg63
g5137
sg56
(lp5153
g49
(g50
g51
NtRp5154
(dp5155
g54
(dp5156
g62
I5
ssg63
g5150
sg56
(lp5157
g49
(g58
g51
NtRp5158
(dp5159
g54
(dp5160
g62
I4
ssg63
Nsg56
(lp5161
g49
(g65
g51
NtRp5162
(dp5163
g54
(dp5164
sg63
g5158
sg56
(lp5165
g49
(g70
g51
NtRp5166
(dp5167
g54
(dp5168
g74
g75
ssg63
g5162
sg56
(lp5169
S'author'
p5170
asbag49
(g70
g51
NtRp5171
(dp5172
g54
(dp5173
g81
g82
ssg63
g5162
sg56
(lp5174
S':'
asbag49
(g70
g51
NtRp5175
(dp5176
g54
(dp5177
sg63
g5162
sg56
(lp5178
g49
(g50
g51
NtRp5179
(dp5180
g54
(dp5181
g62
I4
ssg63
g5175
sg56
(lp5182
S'Your Name <you@example.com>'
p5183
asbasbasbag49
(g65
g51
NtRp5184
(dp5185
g54
(dp5186
sg63
g5158
sg56
(lp5187
g49
(g70
g51
NtRp5188
(dp5189
g54
(dp5190
g74
g75
ssg63
g5184
sg56
(lp5191
S'description'
p5192
asbag49
(g70
g51
NtRp5193
(dp5194
g54
(dp5195
g81
g82
ssg63
g5184
sg56
(lp5196
S':'
asbag49
(g70
g51
NtRp5197
(dp5198
g54
(dp5199
sg63
g5184
sg56
(lp5200
g49
(g50
g51
NtRp5201
(dp5202
g54
(dp5203
g62
I4
ssg63
g5197
sg56
(lp5204
S'a cool new app'
p5205
asbasbasbag49
(g65
g51
NtRp5206
(dp5207
g54
(dp5208
sg63
g5158
sg56
(lp5209
g49
(g70
g51
NtRp5210
(dp5211
g54
(dp5212
g74
g75
ssg63
g5206
sg56
(lp5213
S'generator'
p5214
asbag49
(g70
g51
NtRp5215
(dp5216
g54
(dp5217
g81
g82
ssg63
g5206
sg56
(lp5218
S':'
asbag49
(g70
g51
NtRp5219
(dp5220
g54
(dp5221
sg63
g5206
sg56
(lp5222
g49
(g50
g51
NtRp5223
(dp5224
g54
(dp5225
g62
I4
ssg63
g5219
sg56
(lp5226
S'Web2py Web Framework'
p5227
asbasbasbag49
(g65
g51
NtRp5228
(dp5229
g54
(dp5230
sg63
g5158
sg56
(lp5231
g49
(g70
g51
NtRp5232
(dp5233
g54
(dp5234
g74
g75
ssg63
g5228
sg56
(lp5235
S'keywords'
p5236
asbag49
(g70
g51
NtRp5237
(dp5238
g54
(dp5239
g81
g82
ssg63
g5228
sg56
(lp5240
S':'
asbag49
(g70
g51
NtRp5241
(dp5242
g54
(dp5243
sg63
g5228
sg56
(lp5244
g49
(g50
g51
NtRp5245
(dp5246
g54
(dp5247
g62
I4
ssg63
g5241
sg56
(lp5248
S'web2py, python, framework'
p5249
asbasbasbasbasbasbasbag49
(g65
g51
NtRp5250
(dp5251
g54
(dp5252
sg63
g4003
sg56
(lp5253
g49
(g70
g51
NtRp5254
(dp5255
g54
(dp5256
g74
g75
ssg63
g5250
sg56
(lp5257
S'models_to_run'
p5258
asbag49
(g70
g51
NtRp5259
(dp5260
g54
(dp5261
g81
g82
ssg63
g5250
sg56
(lp5262
S':'
asbag49
(g70
g51
NtRp5263
(dp5264
g54
(dp5265
sg63
g5250
sg56
(lp5266
g49
(g50
g51
NtRp5267
(dp5268
g54
(dp5269
g62
I5
ssg63
g5263
sg56
(lp5270
g49
(g58
g51
NtRp5271
(dp5272
g54
(dp5273
g62
I4
ssg63
Nsg56
(lp5274
g49
(g65
g51
NtRp5275
(dp5276
g54
(dp5277
sg63
g5271
sg56
(lp5278
g49
(g70
g51
NtRp5279
(dp5280
g54
(dp5281
sg63
g5275
sg56
(lp5282
g49
(g50
g51
NtRp5283
(dp5284
g54
(dp5285
g62
I4
ssg63
g5279
sg56
(lp5286
S'^\\w+\\.py$'
p5287
asbasbasbag49
(g65
g51
NtRp5288
(dp5289
g54
(dp5290
sg63
g5271
sg56
(lp5291
g49
(g70
g51
NtRp5292
(dp5293
g54
(dp5294
sg63
g5288
sg56
(lp5295
g49
(g50
g51
NtRp5296
(dp5297
g54
(dp5298
g62
I4
ssg63
g5292
sg56
(lp5299
S'^game/\\w+\\.py$'
p5300
asbasbasbag49
(g65
g51
NtRp5301
(dp5302
g54
(dp5303
sg63
g5271
sg56
(lp5304
g49
(g70
g51
NtRp5305
(dp5306
g54
(dp5307
sg63
g5301
sg56
(lp5308
g49
(g50
g51
NtRp5309
(dp5310
g54
(dp5311
g62
I4
ssg63
g5305
sg56
(lp5312
S'^game/show/\\w+\\.py$'
p5313
asbasbasbasbasbasbasbag49
(g65
g51
NtRp5314
(dp5315
g54
(dp5316
sg63
g4003
sg56
(lp5317
g49
(g70
g51
NtRp5318
(dp5319
g54
(dp5320
g74
g75
ssg63
g5314
sg56
(lp5321
S'postprocessing'
p5322
asbag49
(g70
g51
NtRp5323
(dp5324
g54
(dp5325
g81
g82
ssg63
g5314
sg56
(lp5326
S':'
asbag49
(g70
g51
NtRp5327
(dp5328
g54
(dp5329
sg63
g5314
sg56
(lp5330
g49
(g50
g51
NtRp5331
(dp5332
g54
(dp5333
g62
I5
ssg63
g5327
sg56
(lp5334
g49
(g58
g51
NtRp5335
(dp5336
g54
(dp5337
g62
I4
ssg63
Nsg56
(lp5338
sbasbasbasbag49
(g65
g51
NtRp5339
(dp5340
g54
(dp5341
sg63
g4003
sg56
(lp5342
g49
(g70
g51
NtRp5343
(dp5344
g54
(dp5345
g74
g75
ssg63
g5339
sg56
(lp5346
S'session_cookie_expires'
p5347
asbag49
(g70
g51
NtRp5348
(dp5349
g54
(dp5350
g81
g82
ssg63
g5339
sg56
(lp5351
S':'
asbag49
(g70
g51
NtRp5352
(dp5353
g54
(dp5354
sg63
g5339
sg56
(lp5355
g49
(g50
g51
NtRp5356
(dp5357
g54
(dp5358
g62
I5
ssg63
g5352
sg56
(lp5359
S'None'
p5360
asbasbasbag49
(g65
g51
NtRp5361
(dp5362
g54
(dp5363
sg63
g4003
sg56
(lp5364
g49
(g70
g51
NtRp5365
(dp5366
g54
(dp5367
g74
g75
ssg63
g5361
sg56
(lp5368
S'session_data_name'
p5369
asbag49
(g70
g51
NtRp5370
(dp5371
g54
(dp5372
g81
g82
ssg63
g5361
sg56
(lp5373
S':'
asbag49
(g70
g51
NtRp5374
(dp5375
g54
(dp5376
sg63
g5361
sg56
(lp5377
g49
(g50
g51
NtRp5378
(dp5379
g54
(dp5380
g62
I5
ssg63
g5374
sg56
(lp5381
S'session_data_hellow'
p5382
asbasbasbag49
(g65
g51
NtRp5383
(dp5384
g54
(dp5385
sg63
g4003
sg56
(lp5386
g49
(g70
g51
NtRp5387
(dp5388
g54
(dp5389
g74
g75
ssg63
g5383
sg56
(lp5390
S'session_file'
p5391
asbag49
(g70
g51
NtRp5392
(dp5393
g54
(dp5394
g81
g82
ssg63
g5383
sg56
(lp5395
S':'
asbag49
(g70
g51
NtRp5396
(dp5397
g54
(dp5398
sg63
g5383
sg56
(lp5399
g49
(g50
g51
NtRp5400
(dp5401
g54
(dp5402
g62
I5
ssg63
g5396
sg56
(lp5403
S"<open file '/Users/zamechek/Downloads/web2py/web2py.app/Contents/Resources/applications/hellow/sessions/127.0.0.1-bbea59f2-333e-4593-a45c-2c44a5133d77', mode 'rb+' at 0x8cd0848>"
p5404
asbasbasbag49
(g65
g51
NtRp5405
(dp5406
g54
(dp5407
sg63
g4003
sg56
(lp5408
g49
(g70
g51
NtRp5409
(dp5410
g54
(dp5411
g74
g75
ssg63
g5405
sg56
(lp5412
S'session_filename'
p5413
asbag49
(g70
g51
NtRp5414
(dp5415
g54
(dp5416
g81
g82
ssg63
g5405
sg56
(lp5417
S':'
asbag49
(g70
g51
NtRp5418
(dp5419
g54
(dp5420
sg63
g5405
sg56
(lp5421
g49
(g50
g51
NtRp5422
(dp5423
g54
(dp5424
g62
I5
ssg63
g5418
sg56
(lp5425
S'/Users/zamechek/Downloads/web2py/web2py.app/Contents/Resources/applications/hellow/sessions/127.0.0.1-bbea59f2-333e-4593-a45c-2c44a5133d77'
p5426
asbasbasbag49
(g65
g51
NtRp5427
(dp5428
g54
(dp5429
sg63
g4003
sg56
(lp5430
g49
(g70
g51
NtRp5431
(dp5432
g54
(dp5433
g74
g75
ssg63
g5427
sg56
(lp5434
S'session_id'
p5435
asbag49
(g70
g51
NtRp5436
(dp5437
g54
(dp5438
g81
g82
ssg63
g5427
sg56
(lp5439
S':'
asbag49
(g70
g51
NtRp5440
(dp5441
g54
(dp5442
sg63
g5427
sg56
(lp5443
g49
(g50
g51
NtRp5444
(dp5445
g54
(dp5446
g62
I5
ssg63
g5440
sg56
(lp5447
g458
asbasbasbag49
(g65
g51
NtRp5448
(dp5449
g54
(dp5450
sg63
g4003
sg56
(lp5451
g49
(g70
g51
NtRp5452
(dp5453
g54
(dp5454
g74
g75
ssg63
g5448
sg56
(lp5455
S'session_id_name'
p5456
asbag49
(g70
g51
NtRp5457
(dp5458
g54
(dp5459
g81
g82
ssg63
g5448
sg56
(lp5460
S':'
asbag49
(g70
g51
NtRp5461
(dp5462
g54
(dp5463
sg63
g5448
sg56
(lp5464
g49
(g50
g51
NtRp5465
(dp5466
g54
(dp5467
g62
I5
ssg63
g5461
sg56
(lp5468
g4060
asbasbasbag49
(g65
g51
NtRp5469
(dp5470
g54
(dp5471
sg63
g4003
sg56
(lp5472
g49
(g70
g51
NtRp5473
(dp5474
g54
(dp5475
g74
g75
ssg63
g5469
sg56
(lp5476
S'session_locked'
p5477
asbag49
(g70
g51
NtRp5478
(dp5479
g54
(dp5480
g81
g82
ssg63
g5469
sg56
(lp5481
S':'
asbag49
(g70
g51
NtRp5482
(dp5483
g54
(dp5484
sg63
g5469
sg56
(lp5485
g49
(g50
g51
NtRp5486
(dp5487
g54
(dp5488
g62
I5
ssg63
g5482
sg56
(lp5489
g972
asbasbasbag49
(g65
g51
NtRp5490
(dp5491
g54
(dp5492
sg63
g4003
sg56
(lp5493
g49
(g70
g51
NtRp5494
(dp5495
g54
(dp5496
g74
g75
ssg63
g5490
sg56
(lp5497
S'session_new'
p5498
asbag49
(g70
g51
NtRp5499
(dp5500
g54
(dp5501
g81
g82
ssg63
g5490
sg56
(lp5502
S':'
asbag49
(g70
g51
NtRp5503
(dp5504
g54
(dp5505
sg63
g5490
sg56
(lp5506
g49
(g50
g51
NtRp5507
(dp5508
g54
(dp5509
g62
I5
ssg63
g5503
sg56
(lp5510
g92
asbasbasbag49
(g65
g51
NtRp5511
(dp5512
g54
(dp5513
sg63
g4003
sg56
(lp5514
g49
(g70
g51
NtRp5515
(dp5516
g54
(dp5517
g74
g75
ssg63
g5511
sg56
(lp5518
S'session_storage_type'
p5519
asbag49
(g70
g51
NtRp5520
(dp5521
g54
(dp5522
g81
g82
ssg63
g5511
sg56
(lp5523
S':'
asbag49
(g70
g51
NtRp5524
(dp5525
g54
(dp5526
sg63
g5511
sg56
(lp5527
g49
(g50
g51
NtRp5528
(dp5529
g54
(dp5530
g62
I5
ssg63
g5524
sg56
(lp5531
g3525
asbasbasbag49
(g65
g51
NtRp5532
(dp5533
g54
(dp5534
sg63
g4003
sg56
(lp5535
g49
(g70
g51
NtRp5536
(dp5537
g54
(dp5538
g74
g75
ssg63
g5532
sg56
(lp5539
S'status'
p5540
asbag49
(g70
g51
NtRp5541
(dp5542
g54
(dp5543
g81
g82
ssg63
g5532
sg56
(lp5544
S':'
asbag49
(g70
g51
NtRp5545
(dp5546
g54
(dp5547
sg63
g5532
sg56
(lp5548
g49
(g50
g51
NtRp5549
(dp5550
g54
(dp5551
g62
I5
ssg63
g5545
sg56
(lp5552
S'200'
p5553
asbasbasbag49
(g65
g51
NtRp5554
(dp5555
g54
(dp5556
sg63
g4003
sg56
(lp5557
g49
(g70
g51
NtRp5558
(dp5559
g54
(dp5560
g74
g75
ssg63
g5554
sg56
(lp5561
S'subtitle'
p5562
asbag49
(g70
g51
NtRp5563
(dp5564
g54
(dp5565
g81
g82
ssg63
g5554
sg56
(lp5566
S':'
asbag49
(g70
g51
NtRp5567
(dp5568
g54
(dp5569
sg63
g5554
sg56
(lp5570
g49
(g50
g51
NtRp5571
(dp5572
g54
(dp5573
g62
I5
ssg63
g5567
sg56
(lp5574
g4518
(S's\r\x00\x00\x00customize me!'
tRp5575
asbasbasbag49
(g65
g51
NtRp5576
(dp5577
g54
(dp5578
sg63
g4003
sg56
(lp5579
g49
(g70
g51
NtRp5580
(dp5581
g54
(dp5582
g74
g75
ssg63
g5576
sg56
(lp5583
S'title'
p5584
asbag49
(g70
g51
NtRp5585
(dp5586
g54
(dp5587
g81
g82
ssg63
g5576
sg56
(lp5588
S':'
asbag49
(g70
g51
NtRp5589
(dp5590
g54
(dp5591
sg63
g5576
sg56
(lp5592
g49
(g50
g51
NtRp5593
(dp5594
g54
(dp5595
g62
I5
ssg63
g5589
sg56
(lp5596
S'Hellow'
p5597
asbasbasbag49
(g65
g51
NtRp5598
(dp5599
g54
(dp5600
sg63
g4003
sg56
(lp5601
g49
(g70
g51
NtRp5602
(dp5603
g54
(dp5604
g74
g75
ssg63
g5598
sg56
(lp5605
S'view'
p5606
asbag49
(g70
g51
NtRp5607
(dp5608
g54
(dp5609
g81
g82
ssg63
g5598
sg56
(lp5610
S':'
asbag49
(g70
g51
NtRp5611
(dp5612
g54
(dp5613
sg63
g5598
sg56
(lp5614
g49
(g50
g51
NtRp5615
(dp5616
g54
(dp5617
g62
I5
ssg63
g5611
sg56
(lp5618
S'game/show.html'
p5619
asbasbasbasbasbsS'locals'
p5620
(dp5621
S'remainingBalance'
p5622
S'100'
p5623
sS'rows'
p5624
S'<Rows (3)>'
p5625
sS'game'
p5626
S"<Row {'auth_user': 1, 'balance': '100', 'id': 1}>"
p5627
sS'game_and_slots'
p5628
S'<Set ((game.id = game_slots.game) AND (slot.id = game_slots.slot))>'
p5629
sS'otherForm'
p5630
S'<gluon.sqlhtml.SQLFORM object at 0x93cc430>'
p5631
sS'mybet'
p5632
S'18'
p5633
sS'currentBalance'
p5634
S'82'
p5635
sS'id'
p5636
S"'1'"
p5637
sssS'traceback'
p5638
S'Traceback (most recent call last):\n  File "/home/mdipierro/web2py/gluon/restricted.py", line 212, in restricted\n  File "/Users/zamechek/Downloads/web2py/web2py.app/Contents/Resources/applications/hellow/controllers/game.py", line 42, in <module>\n  File "/home/mdipierro/web2py/gluon/globals.py", line 193, in <lambda>\n  File "/Users/zamechek/Downloads/web2py/web2py.app/Contents/Resources/applications/hellow/controllers/game.py", line 14, in show\n  File "/Users/zamechek/Downloads/web2py/web2py.app/Contents/Resources/applications/hellow/controllers/game.py", line 27, in form_from_factory\nAttributeError: \'module\' object has no attribute \'now\'\n'
p5639
s.