(dp1
S'output'
p2
S"<type 'exceptions.IndexError'> list index out of range"
p3
sS'layer'
p4
S'/Users/zamechek/Downloads/web2py/web2py.app/Contents/Resources/applications/hellow/controllers/game.py'
p5
sS'code'
p6
S'# coding: utf8\n# try something like\nimport random\nimport datetime\n\n\ndef show():\n    id = request.args[0]\n    game = db.game(id)\n    auth_user = (game.auth_user)\n    \n    query=((db.game.id==db.game_slots.game)&(db.slot.id==db.game_slots.slot))\n    #game_and_slots=(db.game.id==db.game_slots.game)&(db.slot.id==db.game_slots.slot)\n    rows = db(query).select(db.slot.id, db.slot.odds)\n    \n    otherForm = form_from_factory(rows, game, id)\n    return dict(name=auth_user.first_name.capitalize() + " " + auth_user.last_name.capitalize(), balance = game.balance, slots = rows, gameid = id, otherForm=otherForm)\n    \ndef form_from_factory(rows , game, id):\n    game_and_slots=db((db.game_slots.game == id)&(db.slot.id==db.game_slots.slot))\n    otherForm = SQLFORM.factory(\n        Field(\'bet\', requires=IS_NOT_EMPTY()),\n        Field(\'slot\', requires=IS_IN_DB(game_and_slots, \'slot.id\'), widget=SQLFORM.widgets.radio.widget))\n   \n    if otherForm.process().accepted:\n        mybet = int(otherForm.vars.bet)\n        currentBalance =  int(game.balance)\n        remainingBalance = calcWinnings(int(otherForm.vars.slot), mybet, currentBalance)\n        won = isWinner(currentBalance, remainingBalance)\n        game.update_record(balance=str(remainingBalance))\n        db.user_action.insert(game = game, auth_user = game.auth_user, slot = otherForm.vars.slot, bet = mybet, winnings = remainingBalance, won = won, odds = db.slot(otherForm.vars.slot).odds, event_timedatetime = datetime.datetime.now())\n    elif otherForm.errors:\n        response.flash = \'form has errors\'\n    return otherForm\n    \ndef calcWinnings(odds, bet, balance):\n    if(random.randint(1, 10) > odds):\n        response.flash = \'You won\' \n        return bet + balance\n    else:\n        response.flash = \'You lost\'\n        return balance - bet\ndef isWinner(cb, rb):\n    if (rb > cb):\n        return "yes"\n    else: return "no"\n\nresponse._vars=response._caller(show)\n'
p7
sS'snapshot'
p8
(dp9
S'exception'
p10
(dp11
S'__hash__'
p12
S"<method-wrapper '__hash__' of exceptions.IndexError object at 0x963a328>"
p13
sS'__setattr__'
p14
S"<method-wrapper '__setattr__' of exceptions.IndexError object at 0x963a328>"
p15
sS'__reduce_ex__'
p16
S'<built-in method __reduce_ex__ of exceptions.IndexError object at 0x963a328>'
p17
sS'__getslice__'
p18
S"<method-wrapper '__getslice__' of exceptions.IndexError object at 0x963a328>"
p19
sS'__getitem__'
p20
S"<method-wrapper '__getitem__' of exceptions.IndexError object at 0x963a328>"
p21
sS'__setstate__'
p22
S'<built-in method __setstate__ of exceptions.IndexError object at 0x963a328>'
p23
sS'__reduce__'
p24
S'<built-in method __reduce__ of exceptions.IndexError object at 0x963a328>'
p25
sS'__str__'
p26
S"<method-wrapper '__str__' of exceptions.IndexError object at 0x963a328>"
p27
sS'args'
p28
S"('list index out of range',)"
p29
sS'__getattribute__'
p30
S"<method-wrapper '__getattribute__' of exceptions.IndexError object at 0x963a328>"
p31
sS'__class__'
p32
S"<type 'exceptions.IndexError'>"
p33
sS'__delattr__'
p34
S"<method-wrapper '__delattr__' of exceptions.IndexError object at 0x963a328>"
p35
sS'__repr__'
p36
S"<method-wrapper '__repr__' of exceptions.IndexError object at 0x963a328>"
p37
sS'__dict__'
p38
S'{}'
p39
sS'__doc__'
p40
S"'Sequence index out of range.'"
p41
sS'__init__'
p42
S"<method-wrapper '__init__' of exceptions.IndexError object at 0x963a328>"
p43
sS'__new__'
p44
S'<built-in method __new__ of type object at 0x5f90c0>'
p45
ssS'evalue'
p46
S'list index out of range'
p47
sS'request'
p48
ccopy_reg
_reconstructor
p49
(cgluon.html
BEAUTIFY
p50
c__builtin__
object
p51
NtRp52
(dp53
S'attributes'
p54
(dp55
sS'components'
p56
(lp57
g49
(cgluon.html
TABLE
p58
g51
NtRp59
(dp60
g54
(dp61
S'level'
p62
I5
ssS'parent'
p63
Nsg56
(lp64
g49
(cgluon.html
TR
p65
g51
NtRp66
(dp67
g54
(dp68
sg63
g59
sg56
(lp69
g49
(cgluon.html
TD
p70
g51
NtRp71
(dp72
g54
(dp73
S'_style'
p74
S'font-weight:bold;vertical-align:top'
p75
ssg63
g66
sg56
(lp76
S'ajax'
p77
asbag49
(g70
g51
NtRp78
(dp79
g54
(dp80
S'_valign'
p81
S'top'
p82
ssg63
g66
sg56
(lp83
S':'
asbag49
(g70
g51
NtRp84
(dp85
g54
(dp86
sg63
g66
sg56
(lp87
g49
(g50
g51
NtRp88
(dp89
g54
(dp90
g62
I5
ssg63
g84
sg56
(lp91
S'False'
p92
asbasbasbag49
(g65
g51
NtRp93
(dp94
g54
(dp95
sg63
g59
sg56
(lp96
g49
(g70
g51
NtRp97
(dp98
g54
(dp99
g74
g75
ssg63
g93
sg56
(lp100
S'application'
p101
asbag49
(g70
g51
NtRp102
(dp103
g54
(dp104
g81
g82
ssg63
g93
sg56
(lp105
S':'
asbag49
(g70
g51
NtRp106
(dp107
g54
(dp108
sg63
g93
sg56
(lp109
g49
(g50
g51
NtRp110
(dp111
g54
(dp112
g62
I5
ssg63
g106
sg56
(lp113
S'hellow'
p114
asbasbasbag49
(g65
g51
NtRp115
(dp116
g54
(dp117
sg63
g59
sg56
(lp118
g49
(g70
g51
NtRp119
(dp120
g54
(dp121
g74
g75
ssg63
g115
sg56
(lp122
g28
asbag49
(g70
g51
NtRp123
(dp124
g54
(dp125
g81
g82
ssg63
g115
sg56
(lp126
S':'
asbag49
(g70
g51
NtRp127
(dp128
g54
(dp129
sg63
g115
sg56
(lp130
g49
(g50
g51
NtRp131
(dp132
g54
(dp133
g62
I5
ssg63
g127
sg56
(lp134
g49
(g58
g51
NtRp135
(dp136
g54
(dp137
g62
I4
ssg63
Nsg56
(lp138
sbasbasbasbag49
(g65
g51
NtRp139
(dp140
g54
(dp141
sg63
g59
sg56
(lp142
g49
(g70
g51
NtRp143
(dp144
g54
(dp145
g74
g75
ssg63
g139
sg56
(lp146
S'body'
p147
asbag49
(g70
g51
NtRp148
(dp149
g54
(dp150
g81
g82
ssg63
g139
sg56
(lp151
S':'
asbag49
(g70
g51
NtRp152
(dp153
g54
(dp154
sg63
g139
sg56
(lp155
g49
(g50
g51
NtRp156
(dp157
g54
(dp158
g62
I5
ssg63
g152
sg56
(lp159
S'<cStringIO.StringO object at 0x93aa8a0>'
p160
asbasbasbag49
(g65
g51
NtRp161
(dp162
g54
(dp163
sg63
g59
sg56
(lp164
g49
(g70
g51
NtRp165
(dp166
g54
(dp167
g74
g75
ssg63
g161
sg56
(lp168
S'cid'
p169
asbag49
(g70
g51
NtRp170
(dp171
g54
(dp172
g81
g82
ssg63
g161
sg56
(lp173
S':'
asbag49
(g70
g51
NtRp174
(dp175
g54
(dp176
sg63
g161
sg56
(lp177
g49
(g50
g51
NtRp178
(dp179
g54
(dp180
g62
I5
ssg63
g174
sg56
(lp181
S'None'
p182
asbasbasbag49
(g65
g51
NtRp183
(dp184
g54
(dp185
sg63
g59
sg56
(lp186
g49
(g70
g51
NtRp187
(dp188
g54
(dp189
g74
g75
ssg63
g183
sg56
(lp190
S'client'
p191
asbag49
(g70
g51
NtRp192
(dp193
g54
(dp194
g81
g82
ssg63
g183
sg56
(lp195
S':'
asbag49
(g70
g51
NtRp196
(dp197
g54
(dp198
sg63
g183
sg56
(lp199
g49
(g50
g51
NtRp200
(dp201
g54
(dp202
g62
I5
ssg63
g196
sg56
(lp203
S'127.0.0.1'
p204
asbasbasbag49
(g65
g51
NtRp205
(dp206
g54
(dp207
sg63
g59
sg56
(lp208
g49
(g70
g51
NtRp209
(dp210
g54
(dp211
g74
g75
ssg63
g205
sg56
(lp212
S'controller'
p213
asbag49
(g70
g51
NtRp214
(dp215
g54
(dp216
g81
g82
ssg63
g205
sg56
(lp217
S':'
asbag49
(g70
g51
NtRp218
(dp219
g54
(dp220
sg63
g205
sg56
(lp221
g49
(g50
g51
NtRp222
(dp223
g54
(dp224
g62
I5
ssg63
g218
sg56
(lp225
S'game'
p226
asbasbasbag49
(g65
g51
NtRp227
(dp228
g54
(dp229
sg63
g59
sg56
(lp230
g49
(g70
g51
NtRp231
(dp232
g54
(dp233
g74
g75
ssg63
g227
sg56
(lp234
S'cookies'
p235
asbag49
(g70
g51
NtRp236
(dp237
g54
(dp238
g81
g82
ssg63
g227
sg56
(lp239
S':'
asbag49
(g70
g51
NtRp240
(dp241
g54
(dp242
sg63
g227
sg56
(lp243
g49
(g50
g51
NtRp244
(dp245
g54
(dp246
g62
I5
ssg63
g240
sg56
(lp247
g49
(g58
g51
NtRp248
(dp249
g54
(dp250
g62
I4
ssg63
Nsg56
(lp251
g49
(g65
g51
NtRp252
(dp253
g54
(dp254
sg63
g248
sg56
(lp255
g49
(g70
g51
NtRp256
(dp257
g54
(dp258
g74
g75
ssg63
g252
sg56
(lp259
S'session_id_admin'
p260
asbag49
(g70
g51
NtRp261
(dp262
g54
(dp263
g81
g82
ssg63
g252
sg56
(lp264
S':'
asbag49
(g70
g51
NtRp265
(dp266
g54
(dp267
sg63
g252
sg56
(lp268
g49
(g50
g51
NtRp269
(dp270
g54
(dp271
g62
I4
ssg63
g265
sg56
(lp272
S'127.0.0.1-bf448199-cadc-41e3-b1a7-bed302e89a3e'
p273
ag49
(g58
g51
NtRp274
(dp275
g54
(dp276
g62
I3
ssg63
Nsg56
(lp277
g49
(g65
g51
NtRp278
(dp279
g54
(dp280
sg63
g274
sg56
(lp281
g49
(g70
g51
NtRp282
(dp283
g54
(dp284
g74
g75
ssg63
g278
sg56
(lp285
S'comment'
p286
asbag49
(g70
g51
NtRp287
(dp288
g54
(dp289
g81
g82
ssg63
g278
sg56
(lp290
S':'
asbag49
(g70
g51
NtRp291
(dp292
g54
(dp293
sg63
g278
sg56
(lp294
g49
(g50
g51
NtRp295
(dp296
g54
(dp297
g62
I3
ssg63
g291
sg56
(lp298
S''
asbasbasbag49
(g65
g51
NtRp299
(dp300
g54
(dp301
sg63
g274
sg56
(lp302
g49
(g70
g51
NtRp303
(dp304
g54
(dp305
g74
g75
ssg63
g299
sg56
(lp306
S'domain'
p307
asbag49
(g70
g51
NtRp308
(dp309
g54
(dp310
g81
g82
ssg63
g299
sg56
(lp311
S':'
asbag49
(g70
g51
NtRp312
(dp313
g54
(dp314
sg63
g299
sg56
(lp315
g49
(g50
g51
NtRp316
(dp317
g54
(dp318
g62
I3
ssg63
g312
sg56
(lp319
S''
asbasbasbag49
(g65
g51
NtRp320
(dp321
g54
(dp322
sg63
g274
sg56
(lp323
g49
(g70
g51
NtRp324
(dp325
g54
(dp326
g74
g75
ssg63
g320
sg56
(lp327
S'expires'
p328
asbag49
(g70
g51
NtRp329
(dp330
g54
(dp331
g81
g82
ssg63
g320
sg56
(lp332
S':'
asbag49
(g70
g51
NtRp333
(dp334
g54
(dp335
sg63
g320
sg56
(lp336
g49
(g50
g51
NtRp337
(dp338
g54
(dp339
g62
I3
ssg63
g333
sg56
(lp340
S''
asbasbasbag49
(g65
g51
NtRp341
(dp342
g54
(dp343
sg63
g274
sg56
(lp344
g49
(g70
g51
NtRp345
(dp346
g54
(dp347
g74
g75
ssg63
g341
sg56
(lp348
S'max-age'
p349
asbag49
(g70
g51
NtRp350
(dp351
g54
(dp352
g81
g82
ssg63
g341
sg56
(lp353
S':'
asbag49
(g70
g51
NtRp354
(dp355
g54
(dp356
sg63
g341
sg56
(lp357
g49
(g50
g51
NtRp358
(dp359
g54
(dp360
g62
I3
ssg63
g354
sg56
(lp361
S''
asbasbasbag49
(g65
g51
NtRp362
(dp363
g54
(dp364
sg63
g274
sg56
(lp365
g49
(g70
g51
NtRp366
(dp367
g54
(dp368
g74
g75
ssg63
g362
sg56
(lp369
S'path'
p370
asbag49
(g70
g51
NtRp371
(dp372
g54
(dp373
g81
g82
ssg63
g362
sg56
(lp374
S':'
asbag49
(g70
g51
NtRp375
(dp376
g54
(dp377
sg63
g362
sg56
(lp378
g49
(g50
g51
NtRp379
(dp380
g54
(dp381
g62
I3
ssg63
g375
sg56
(lp382
S''
asbasbasbag49
(g65
g51
NtRp383
(dp384
g54
(dp385
sg63
g274
sg56
(lp386
g49
(g70
g51
NtRp387
(dp388
g54
(dp389
g74
g75
ssg63
g383
sg56
(lp390
S'secure'
p391
asbag49
(g70
g51
NtRp392
(dp393
g54
(dp394
g81
g82
ssg63
g383
sg56
(lp395
S':'
asbag49
(g70
g51
NtRp396
(dp397
g54
(dp398
sg63
g383
sg56
(lp399
g49
(g50
g51
NtRp400
(dp401
g54
(dp402
g62
I3
ssg63
g396
sg56
(lp403
S''
asbasbasbag49
(g65
g51
NtRp404
(dp405
g54
(dp406
sg63
g274
sg56
(lp407
g49
(g70
g51
NtRp408
(dp409
g54
(dp410
g74
g75
ssg63
g404
sg56
(lp411
S'version'
p412
asbag49
(g70
g51
NtRp413
(dp414
g54
(dp415
g81
g82
ssg63
g404
sg56
(lp416
S':'
asbag49
(g70
g51
NtRp417
(dp418
g54
(dp419
sg63
g404
sg56
(lp420
g49
(g50
g51
NtRp421
(dp422
g54
(dp423
g62
I3
ssg63
g417
sg56
(lp424
S''
asbasbasbasbasbasbasbag49
(g65
g51
NtRp425
(dp426
g54
(dp427
sg63
g248
sg56
(lp428
g49
(g70
g51
NtRp429
(dp430
g54
(dp431
g74
g75
ssg63
g425
sg56
(lp432
S'session_id_hellow'
p433
asbag49
(g70
g51
NtRp434
(dp435
g54
(dp436
g81
g82
ssg63
g425
sg56
(lp437
S':'
asbag49
(g70
g51
NtRp438
(dp439
g54
(dp440
sg63
g425
sg56
(lp441
g49
(g50
g51
NtRp442
(dp443
g54
(dp444
g62
I4
ssg63
g438
sg56
(lp445
S'127.0.0.1-bbea59f2-333e-4593-a45c-2c44a5133d77'
p446
ag49
(g58
g51
NtRp447
(dp448
g54
(dp449
g62
I3
ssg63
Nsg56
(lp450
g49
(g65
g51
NtRp451
(dp452
g54
(dp453
sg63
g447
sg56
(lp454
g49
(g70
g51
NtRp455
(dp456
g54
(dp457
g74
g75
ssg63
g451
sg56
(lp458
g286
asbag49
(g70
g51
NtRp459
(dp460
g54
(dp461
g81
g82
ssg63
g451
sg56
(lp462
S':'
asbag49
(g70
g51
NtRp463
(dp464
g54
(dp465
sg63
g451
sg56
(lp466
g49
(g50
g51
NtRp467
(dp468
g54
(dp469
g62
I3
ssg63
g463
sg56
(lp470
S''
asbasbasbag49
(g65
g51
NtRp471
(dp472
g54
(dp473
sg63
g447
sg56
(lp474
g49
(g70
g51
NtRp475
(dp476
g54
(dp477
g74
g75
ssg63
g471
sg56
(lp478
g307
asbag49
(g70
g51
NtRp479
(dp480
g54
(dp481
g81
g82
ssg63
g471
sg56
(lp482
S':'
asbag49
(g70
g51
NtRp483
(dp484
g54
(dp485
sg63
g471
sg56
(lp486
g49
(g50
g51
NtRp487
(dp488
g54
(dp489
g62
I3
ssg63
g483
sg56
(lp490
S''
asbasbasbag49
(g65
g51
NtRp491
(dp492
g54
(dp493
sg63
g447
sg56
(lp494
g49
(g70
g51
NtRp495
(dp496
g54
(dp497
g74
g75
ssg63
g491
sg56
(lp498
g328
asbag49
(g70
g51
NtRp499
(dp500
g54
(dp501
g81
g82
ssg63
g491
sg56
(lp502
S':'
asbag49
(g70
g51
NtRp503
(dp504
g54
(dp505
sg63
g491
sg56
(lp506
g49
(g50
g51
NtRp507
(dp508
g54
(dp509
g62
I3
ssg63
g503
sg56
(lp510
S''
asbasbasbag49
(g65
g51
NtRp511
(dp512
g54
(dp513
sg63
g447
sg56
(lp514
g49
(g70
g51
NtRp515
(dp516
g54
(dp517
g74
g75
ssg63
g511
sg56
(lp518
g349
asbag49
(g70
g51
NtRp519
(dp520
g54
(dp521
g81
g82
ssg63
g511
sg56
(lp522
S':'
asbag49
(g70
g51
NtRp523
(dp524
g54
(dp525
sg63
g511
sg56
(lp526
g49
(g50
g51
NtRp527
(dp528
g54
(dp529
g62
I3
ssg63
g523
sg56
(lp530
S''
asbasbasbag49
(g65
g51
NtRp531
(dp532
g54
(dp533
sg63
g447
sg56
(lp534
g49
(g70
g51
NtRp535
(dp536
g54
(dp537
g74
g75
ssg63
g531
sg56
(lp538
g370
asbag49
(g70
g51
NtRp539
(dp540
g54
(dp541
g81
g82
ssg63
g531
sg56
(lp542
S':'
asbag49
(g70
g51
NtRp543
(dp544
g54
(dp545
sg63
g531
sg56
(lp546
g49
(g50
g51
NtRp547
(dp548
g54
(dp549
g62
I3
ssg63
g543
sg56
(lp550
S''
asbasbasbag49
(g65
g51
NtRp551
(dp552
g54
(dp553
sg63
g447
sg56
(lp554
g49
(g70
g51
NtRp555
(dp556
g54
(dp557
g74
g75
ssg63
g551
sg56
(lp558
g391
asbag49
(g70
g51
NtRp559
(dp560
g54
(dp561
g81
g82
ssg63
g551
sg56
(lp562
S':'
asbag49
(g70
g51
NtRp563
(dp564
g54
(dp565
sg63
g551
sg56
(lp566
g49
(g50
g51
NtRp567
(dp568
g54
(dp569
g62
I3
ssg63
g563
sg56
(lp570
S''
asbasbasbag49
(g65
g51
NtRp571
(dp572
g54
(dp573
sg63
g447
sg56
(lp574
g49
(g70
g51
NtRp575
(dp576
g54
(dp577
g74
g75
ssg63
g571
sg56
(lp578
g412
asbag49
(g70
g51
NtRp579
(dp580
g54
(dp581
g81
g82
ssg63
g571
sg56
(lp582
S':'
asbag49
(g70
g51
NtRp583
(dp584
g54
(dp585
sg63
g571
sg56
(lp586
g49
(g50
g51
NtRp587
(dp588
g54
(dp589
g62
I3
ssg63
g583
sg56
(lp590
S''
asbasbasbasbasbasbasbag49
(g65
g51
NtRp591
(dp592
g54
(dp593
sg63
g248
sg56
(lp594
g49
(g70
g51
NtRp595
(dp596
g54
(dp597
g74
g75
ssg63
g591
sg56
(lp598
S'session_id_welcome'
p599
asbag49
(g70
g51
NtRp600
(dp601
g54
(dp602
g81
g82
ssg63
g591
sg56
(lp603
S':'
asbag49
(g70
g51
NtRp604
(dp605
g54
(dp606
sg63
g591
sg56
(lp607
g49
(g50
g51
NtRp608
(dp609
g54
(dp610
g62
I4
ssg63
g604
sg56
(lp611
S'127.0.0.1-dfebfa33-25aa-4072-bce4-08f7e89e2d04'
p612
ag49
(g58
g51
NtRp613
(dp614
g54
(dp615
g62
I3
ssg63
Nsg56
(lp616
g49
(g65
g51
NtRp617
(dp618
g54
(dp619
sg63
g613
sg56
(lp620
g49
(g70
g51
NtRp621
(dp622
g54
(dp623
g74
g75
ssg63
g617
sg56
(lp624
g286
asbag49
(g70
g51
NtRp625
(dp626
g54
(dp627
g81
g82
ssg63
g617
sg56
(lp628
S':'
asbag49
(g70
g51
NtRp629
(dp630
g54
(dp631
sg63
g617
sg56
(lp632
g49
(g50
g51
NtRp633
(dp634
g54
(dp635
g62
I3
ssg63
g629
sg56
(lp636
S''
asbasbasbag49
(g65
g51
NtRp637
(dp638
g54
(dp639
sg63
g613
sg56
(lp640
g49
(g70
g51
NtRp641
(dp642
g54
(dp643
g74
g75
ssg63
g637
sg56
(lp644
g307
asbag49
(g70
g51
NtRp645
(dp646
g54
(dp647
g81
g82
ssg63
g637
sg56
(lp648
S':'
asbag49
(g70
g51
NtRp649
(dp650
g54
(dp651
sg63
g637
sg56
(lp652
g49
(g50
g51
NtRp653
(dp654
g54
(dp655
g62
I3
ssg63
g649
sg56
(lp656
S''
asbasbasbag49
(g65
g51
NtRp657
(dp658
g54
(dp659
sg63
g613
sg56
(lp660
g49
(g70
g51
NtRp661
(dp662
g54
(dp663
g74
g75
ssg63
g657
sg56
(lp664
g328
asbag49
(g70
g51
NtRp665
(dp666
g54
(dp667
g81
g82
ssg63
g657
sg56
(lp668
S':'
asbag49
(g70
g51
NtRp669
(dp670
g54
(dp671
sg63
g657
sg56
(lp672
g49
(g50
g51
NtRp673
(dp674
g54
(dp675
g62
I3
ssg63
g669
sg56
(lp676
S''
asbasbasbag49
(g65
g51
NtRp677
(dp678
g54
(dp679
sg63
g613
sg56
(lp680
g49
(g70
g51
NtRp681
(dp682
g54
(dp683
g74
g75
ssg63
g677
sg56
(lp684
g349
asbag49
(g70
g51
NtRp685
(dp686
g54
(dp687
g81
g82
ssg63
g677
sg56
(lp688
S':'
asbag49
(g70
g51
NtRp689
(dp690
g54
(dp691
sg63
g677
sg56
(lp692
g49
(g50
g51
NtRp693
(dp694
g54
(dp695
g62
I3
ssg63
g689
sg56
(lp696
S''
asbasbasbag49
(g65
g51
NtRp697
(dp698
g54
(dp699
sg63
g613
sg56
(lp700
g49
(g70
g51
NtRp701
(dp702
g54
(dp703
g74
g75
ssg63
g697
sg56
(lp704
g370
asbag49
(g70
g51
NtRp705
(dp706
g54
(dp707
g81
g82
ssg63
g697
sg56
(lp708
S':'
asbag49
(g70
g51
NtRp709
(dp710
g54
(dp711
sg63
g697
sg56
(lp712
g49
(g50
g51
NtRp713
(dp714
g54
(dp715
g62
I3
ssg63
g709
sg56
(lp716
S''
asbasbasbag49
(g65
g51
NtRp717
(dp718
g54
(dp719
sg63
g613
sg56
(lp720
g49
(g70
g51
NtRp721
(dp722
g54
(dp723
g74
g75
ssg63
g717
sg56
(lp724
g391
asbag49
(g70
g51
NtRp725
(dp726
g54
(dp727
g81
g82
ssg63
g717
sg56
(lp728
S':'
asbag49
(g70
g51
NtRp729
(dp730
g54
(dp731
sg63
g717
sg56
(lp732
g49
(g50
g51
NtRp733
(dp734
g54
(dp735
g62
I3
ssg63
g729
sg56
(lp736
S''
asbasbasbag49
(g65
g51
NtRp737
(dp738
g54
(dp739
sg63
g613
sg56
(lp740
g49
(g70
g51
NtRp741
(dp742
g54
(dp743
g74
g75
ssg63
g737
sg56
(lp744
g412
asbag49
(g70
g51
NtRp745
(dp746
g54
(dp747
g81
g82
ssg63
g737
sg56
(lp748
S':'
asbag49
(g70
g51
NtRp749
(dp750
g54
(dp751
sg63
g737
sg56
(lp752
g49
(g50
g51
NtRp753
(dp754
g54
(dp755
g62
I3
ssg63
g749
sg56
(lp756
S''
asbasbasbasbasbasbasbasbasbasbasbag49
(g65
g51
NtRp757
(dp758
g54
(dp759
sg63
g59
sg56
(lp760
g49
(g70
g51
NtRp761
(dp762
g54
(dp763
g74
g75
ssg63
g757
sg56
(lp764
S'env'
p765
asbag49
(g70
g51
NtRp766
(dp767
g54
(dp768
g81
g82
ssg63
g757
sg56
(lp769
S':'
asbag49
(g70
g51
NtRp770
(dp771
g54
(dp772
sg63
g757
sg56
(lp773
g49
(g50
g51
NtRp774
(dp775
g54
(dp776
g62
I5
ssg63
g770
sg56
(lp777
g49
(g58
g51
NtRp778
(dp779
g54
(dp780
g62
I4
ssg63
Nsg56
(lp781
g49
(g65
g51
NtRp782
(dp783
g54
(dp784
sg63
g778
sg56
(lp785
g49
(g70
g51
NtRp786
(dp787
g54
(dp788
g74
g75
ssg63
g782
sg56
(lp789
S'app_folders'
p790
asbag49
(g70
g51
NtRp791
(dp792
g54
(dp793
g81
g82
ssg63
g782
sg56
(lp794
S':'
asbag49
(g70
g51
NtRp795
(dp796
g54
(dp797
sg63
g782
sg56
(lp798
g49
(g50
g51
NtRp799
(dp800
g54
(dp801
g62
I4
ssg63
g795
sg56
(lp802
S"set(['/Users/zamechek/Downloads/web2py/web2py.app/Contents/Resources/applications/hellow/', '/Users/zamechek/Downloads/web2py/web2py.app/Contents/Resources/applications/admin/', '/Users/zamechek/Downloads/web2py/web2py.app/Contents/Resources/applications/welcome/'])"
p803
asbasbasbag49
(g65
g51
NtRp804
(dp805
g54
(dp806
sg63
g778
sg56
(lp807
g49
(g70
g51
NtRp808
(dp809
g54
(dp810
g74
g75
ssg63
g804
sg56
(lp811
S'applications_parent'
p812
asbag49
(g70
g51
NtRp813
(dp814
g54
(dp815
g81
g82
ssg63
g804
sg56
(lp816
S':'
asbag49
(g70
g51
NtRp817
(dp818
g54
(dp819
sg63
g804
sg56
(lp820
g49
(g50
g51
NtRp821
(dp822
g54
(dp823
g62
I4
ssg63
g817
sg56
(lp824
S'/Users/zamechek/Downloads/web2py/web2py.app/Contents/Resources'
p825
asbasbasbag49
(g65
g51
NtRp826
(dp827
g54
(dp828
sg63
g778
sg56
(lp829
g49
(g70
g51
NtRp830
(dp831
g54
(dp832
g74
g75
ssg63
g826
sg56
(lp833
S'cmd_args'
p834
asbag49
(g70
g51
NtRp835
(dp836
g54
(dp837
g81
g82
ssg63
g826
sg56
(lp838
S':'
asbag49
(g70
g51
NtRp839
(dp840
g54
(dp841
sg63
g826
sg56
(lp842
g49
(g50
g51
NtRp843
(dp844
g54
(dp845
g62
I4
ssg63
g839
sg56
(lp846
g49
(g58
g51
NtRp847
(dp848
g54
(dp849
g62
I3
ssg63
Nsg56
(lp850
sbasbasbasbag49
(g65
g51
NtRp851
(dp852
g54
(dp853
sg63
g778
sg56
(lp854
g49
(g70
g51
NtRp855
(dp856
g54
(dp857
g74
g75
ssg63
g851
sg56
(lp858
S'cmd_options'
p859
asbag49
(g70
g51
NtRp860
(dp861
g54
(dp862
g81
g82
ssg63
g851
sg56
(lp863
S':'
asbag49
(g70
g51
NtRp864
(dp865
g54
(dp866
sg63
g851
sg56
(lp867
g49
(g50
g51
NtRp868
(dp869
g54
(dp870
g62
I4
ssg63
g864
sg56
(lp871
S"<Values at 0x478bf58: {'verbose': False, 'ip': '127.0.0.1', 'with_scheduler': False, 'ips': ['130.91.149.119'], 'shutdown_timeout': 5, 'taskbar': False, 'port': 8000, 'maxthreads': None, 'softcron': False, 'server_name': 'hntvlan5310374.wlan.sas.upenn.edu', 'bpython': False, 'nogui': False, 'pid_filename': 'httpserver.pid', 'extcron': False, 'runcron': False, 'run_system_tests': False, 'test': None, 'folder': '/Users/zamechek/Downloads/web2py/web2py.app/Contents/Resources', 'config': '', 'import_models': False, 'winservice': '', 'shell': None, 'run': '', 'log_filename': 'httpserver.log', 'debuglevel': 30, 'args': [''], 'socket_timeout': 5, 'ssl_ca_certificate': None, 'scheduler': None, 'profiler_filename': None, 'ssl_private_key': '', 'scheduler_groups': None, 'password': '<ask>', 'request_queue_size': 5, 'ssl_certificate': '', 'cronjob': False, 'numthreads': None, 'quiet': False, 'interfaces': None, 'minthreads': None, 'timeout': 10, 'plain': False, 'nobanner': False}>"
p872
asbasbasbag49
(g65
g51
NtRp873
(dp874
g54
(dp875
sg63
g778
sg56
(lp876
g49
(g70
g51
NtRp877
(dp878
g54
(dp879
g74
g75
ssg63
g873
sg56
(lp880
S'db_sessions'
p881
asbag49
(g70
g51
NtRp882
(dp883
g54
(dp884
g81
g82
ssg63
g873
sg56
(lp885
S':'
asbag49
(g70
g51
NtRp886
(dp887
g54
(dp888
sg63
g873
sg56
(lp889
g49
(g50
g51
NtRp890
(dp891
g54
(dp892
g62
I4
ssg63
g886
sg56
(lp893
S'set([])'
p894
asbasbasbag49
(g65
g51
NtRp895
(dp896
g54
(dp897
sg63
g778
sg56
(lp898
g49
(g70
g51
NtRp899
(dp900
g54
(dp901
g74
g75
ssg63
g895
sg56
(lp902
S'debugging'
p903
asbag49
(g70
g51
NtRp904
(dp905
g54
(dp906
g81
g82
ssg63
g895
sg56
(lp907
S':'
asbag49
(g70
g51
NtRp908
(dp909
g54
(dp910
sg63
g895
sg56
(lp911
g49
(g50
g51
NtRp912
(dp913
g54
(dp914
g62
I4
ssg63
g908
sg56
(lp915
S'True'
p916
asbasbasbag49
(g65
g51
NtRp917
(dp918
g54
(dp919
sg63
g778
sg56
(lp920
g49
(g70
g51
NtRp921
(dp922
g54
(dp923
g74
g75
ssg63
g917
sg56
(lp924
S'gluon_parent'
p925
asbag49
(g70
g51
NtRp926
(dp927
g54
(dp928
g81
g82
ssg63
g917
sg56
(lp929
S':'
asbag49
(g70
g51
NtRp930
(dp931
g54
(dp932
sg63
g917
sg56
(lp933
g49
(g50
g51
NtRp934
(dp935
g54
(dp936
g62
I4
ssg63
g930
sg56
(lp937
S'/Users/zamechek/Downloads/web2py/web2py.app/Contents/Resources'
p938
asbasbasbag49
(g65
g51
NtRp939
(dp940
g54
(dp941
sg63
g778
sg56
(lp942
g49
(g70
g51
NtRp943
(dp944
g54
(dp945
g74
g75
ssg63
g939
sg56
(lp946
S'http_accept'
p947
asbag49
(g70
g51
NtRp948
(dp949
g54
(dp950
g81
g82
ssg63
g939
sg56
(lp951
S':'
asbag49
(g70
g51
NtRp952
(dp953
g54
(dp954
sg63
g939
sg56
(lp955
g49
(g50
g51
NtRp956
(dp957
g54
(dp958
g62
I4
ssg63
g952
sg56
(lp959
S'text/html,application/xhtml+xml,application/xml;q=0.9,*/*;q=0.8'
p960
asbasbasbag49
(g65
g51
NtRp961
(dp962
g54
(dp963
sg63
g778
sg56
(lp964
g49
(g70
g51
NtRp965
(dp966
g54
(dp967
g74
g75
ssg63
g961
sg56
(lp968
S'http_accept_charset'
p969
asbag49
(g70
g51
NtRp970
(dp971
g54
(dp972
g81
g82
ssg63
g961
sg56
(lp973
S':'
asbag49
(g70
g51
NtRp974
(dp975
g54
(dp976
sg63
g961
sg56
(lp977
g49
(g50
g51
NtRp978
(dp979
g54
(dp980
g62
I4
ssg63
g974
sg56
(lp981
S'ISO-8859-1,utf-8;q=0.7,*;q=0.3'
p982
asbasbasbag49
(g65
g51
NtRp983
(dp984
g54
(dp985
sg63
g778
sg56
(lp986
g49
(g70
g51
NtRp987
(dp988
g54
(dp989
g74
g75
ssg63
g983
sg56
(lp990
S'http_accept_encoding'
p991
asbag49
(g70
g51
NtRp992
(dp993
g54
(dp994
g81
g82
ssg63
g983
sg56
(lp995
S':'
asbag49
(g70
g51
NtRp996
(dp997
g54
(dp998
sg63
g983
sg56
(lp999
g49
(g50
g51
NtRp1000
(dp1001
g54
(dp1002
g62
I4
ssg63
g996
sg56
(lp1003
S'gzip,deflate,sdch'
p1004
asbasbasbag49
(g65
g51
NtRp1005
(dp1006
g54
(dp1007
sg63
g778
sg56
(lp1008
g49
(g70
g51
NtRp1009
(dp1010
g54
(dp1011
g74
g75
ssg63
g1005
sg56
(lp1012
S'http_accept_language'
p1013
asbag49
(g70
g51
NtRp1014
(dp1015
g54
(dp1016
g81
g82
ssg63
g1005
sg56
(lp1017
S':'
asbag49
(g70
g51
NtRp1018
(dp1019
g54
(dp1020
sg63
g1005
sg56
(lp1021
g49
(g50
g51
NtRp1022
(dp1023
g54
(dp1024
g62
I4
ssg63
g1018
sg56
(lp1025
S'en-US,en;q=0.8'
p1026
asbasbasbag49
(g65
g51
NtRp1027
(dp1028
g54
(dp1029
sg63
g778
sg56
(lp1030
g49
(g70
g51
NtRp1031
(dp1032
g54
(dp1033
g74
g75
ssg63
g1027
sg56
(lp1034
S'http_connection'
p1035
asbag49
(g70
g51
NtRp1036
(dp1037
g54
(dp1038
g81
g82
ssg63
g1027
sg56
(lp1039
S':'
asbag49
(g70
g51
NtRp1040
(dp1041
g54
(dp1042
sg63
g1027
sg56
(lp1043
g49
(g50
g51
NtRp1044
(dp1045
g54
(dp1046
g62
I4
ssg63
g1040
sg56
(lp1047
S'keep-alive'
p1048
asbasbasbag49
(g65
g51
NtRp1049
(dp1050
g54
(dp1051
sg63
g778
sg56
(lp1052
g49
(g70
g51
NtRp1053
(dp1054
g54
(dp1055
g74
g75
ssg63
g1049
sg56
(lp1056
S'http_cookie'
p1057
asbag49
(g70
g51
NtRp1058
(dp1059
g54
(dp1060
g81
g82
ssg63
g1049
sg56
(lp1061
S':'
asbag49
(g70
g51
NtRp1062
(dp1063
g54
(dp1064
sg63
g1049
sg56
(lp1065
g49
(g50
g51
NtRp1066
(dp1067
g54
(dp1068
g62
I4
ssg63
g1062
sg56
(lp1069
S'_define_session=BAh7CEkiD3Nlc3Npb25faWQGOgZFRkkiJTVmM2YzOTE4ZmYyNzY4ZDRjYjY5YjcyOGNkZTAxODEwBjsAVEkiEF9jc3JmX3Rva2VuBjsARkkiMVY4MTBXWE1hdGNGUGR0ZzhxeStGc3FiajlCNzB6UkpqcHZUalZJNjRFNms9BjsARkkiGXdhcmRlbi51c2VyLnVzZXIua2V5BjsAVFsISSIJVXNlcgY7AEZbBmkGSSIiJDJhJDEwJGxpeDBzN29QMk5ocFJWZUl4RXZ4WXUGOwBU--36fb82eb40ee1558fc8e56b5bce1c04bba1a6c00; _bs_session=BAh7B0kiD3Nlc3Npb25faWQGOgZFRkkiJWFhOTlmNjdkODEzYjIwNGMyNGUwMTZmNjlkMDBjMjlhBjsAVEkiEF9jc3JmX3Rva2VuBjsARkkiMUJjek16b0JSUDluYk5MekI0YlNTMklPb2Q3V3pNQzJXcHQ1enY1RDgrT3c9BjsARg%3D%3D--80cc0f5e6211d60923eda39a15903de5a280521a; _table_session=BAh7B0kiD3Nlc3Npb25faWQGOgZFRkkiJTdhZTA3MzFhMGMxM2Q4YTAxZGQ3ZTNlMDM2ODIwOWY3BjsAVEkiEF9jc3JmX3Rva2VuBjsARkkiMWxKWVRtT3hGU3dxT0tnbmJ1OG1iL3FXSW9jWVRJdnZhZHJmNTN2b1BqR2M9BjsARg%3D%3D--a8b8801fe97e379d91991be9a0d21a60f46bc09e; _usertable_session=BAh7CEkiD3Nlc3Npb25faWQGOgZFRkkiJTRmY2NiMWMyOTE1ZThhYzE1MzVlYmU3ODMxZjdhM2NmBjsAVEkiEF9jc3JmX3Rva2VuBjsARkkiMXlibkQxRk5wVVFFU05OcDVxMEQvUURSZWRJQVlRY1JwYTdoSkRucEtlYXc9BjsARkkiCmZsYXNoBjsARm86JUFjdGlvbkRpc3BhdGNoOjpGbGFzaDo6Rmxhc2hIYXNoCToKQHVzZWRvOghTZXQGOgpAaGFzaHsAOgxAY2xvc2VkRjoNQGZsYXNoZXN7BjoLbm90aWNlSSItRmllbGQgcmVsYXRpb24gd2FzIHN1Y2Nlc3NmdWxseSBjcmVhdGVkLgY7AEY6CUBub3cw--c455129d4f2ca1e085c6ad184fd200aecc0b7061; _tbls_session=BAh7B0kiD3Nlc3Npb25faWQGOgZFRkkiJWY5MmM2Mzk2ZWQ0M2ZlODZkN2E5YjMxYmViOTU4NTI2BjsAVEkiEF9jc3JmX3Rva2VuBjsARkkiMVZjemQ4UGhpZXhnaEhnOUE2alRCRmdGSXFBclViMFhwQlo5Ulg2VTRhdFk9BjsARg%3D%3D--53586c2b8499a2c56c427cd8b8e3de116331bd4d; _typel_session=BAh7CEkiD3Nlc3Npb25faWQGOgZFRkkiJWQzMjkxZGExNGY5ZTQzNzIzZTk5MWZmZTM0NDY2NTFiBjsAVEkiEF9jc3JmX3Rva2VuBjsARkkiMWM5cVg1c3pKalpQSjd3Yk5lanQ5alpjZW4zRmNOVXdQS29YNExGOXJIUWM9BjsARkkiGXdhcmRlbi51c2VyLnVzZXIua2V5BjsAVFsISSIJVXNlcgY7AEZbBmkGSSIiJDJhJDEwJEVybm5aY0RTdm9sRjRETENhdjRveGUGOwBU--df06a9ed1ab2763964f111c2534c9f2a3630c12c; _ampersand_factory_session=BAh7CUkiD3Nlc3Npb25faWQGOgZFRkkiJWI2NTFmMThjZDNkMWU4NTNhNmI4OWU1MjNhYjMyZmQ0BjsAVEkiDWluc3RhbmNlBjsARmkGSSIQX2NzcmZfdG9rZW4GOwBGSSIxTEtBZER3MFlQQUV6Nmh1NW95TG4vUTFGcFdXa1ozWTVJaUx5aXh4ZndTVT0GOwBGSSIbd2FyZGVuLnVzZXIud29ya2VyLmtleQY7AFRbCEkiC1dvcmtlcgY7AEZbBmkGSSIiJDJhJDEwJGlEdndMRmhzQXB5eE1tLnhjMFM2di4GOwBU--e6bc7e5d4e945842bb7862fd547d433b3c7bfdcb; _lang_session=BAh7B0kiD3Nlc3Npb25faWQGOgZFRkkiJTY2YzI4YTY5NDkzNzE1ZGIzYzUwNWM3ZDg2ZmY1MWNiBjsAVEkiEF9jc3JmX3Rva2VuBjsARkkiMVdVczNjYnUvY2tZaHFvMVlwLy9zemdCcFliUytKdTlUTGZ3M1RIUlI3aHc9BjsARg%3D%3D--52f16b665cb4cfc5b54cea21c7b082ab6b75b1bf; session_id_welcome=127.0.0.1-dfebfa33-25aa-4072-bce4-08f7e89e2d04; session_id_hellow=127.0.0.1-bbea59f2-333e-4593-a45c-2c44a5133d77; session_id_admin=127.0.0.1-bf448199-cadc-41e3-b1a7-bed302e89a3e'
p1070
asbasbasbag49
(g65
g51
NtRp1071
(dp1072
g54
(dp1073
sg63
g778
sg56
(lp1074
g49
(g70
g51
NtRp1075
(dp1076
g54
(dp1077
g74
g75
ssg63
g1071
sg56
(lp1078
S'http_host'
p1079
asbag49
(g70
g51
NtRp1080
(dp1081
g54
(dp1082
g81
g82
ssg63
g1071
sg56
(lp1083
S':'
asbag49
(g70
g51
NtRp1084
(dp1085
g54
(dp1086
sg63
g1071
sg56
(lp1087
g49
(g50
g51
NtRp1088
(dp1089
g54
(dp1090
g62
I4
ssg63
g1084
sg56
(lp1091
S'localhost:8887'
p1092
asbasbasbag49
(g65
g51
NtRp1093
(dp1094
g54
(dp1095
sg63
g778
sg56
(lp1096
g49
(g70
g51
NtRp1097
(dp1098
g54
(dp1099
g74
g75
ssg63
g1093
sg56
(lp1100
S'http_referer'
p1101
asbag49
(g70
g51
NtRp1102
(dp1103
g54
(dp1104
g81
g82
ssg63
g1093
sg56
(lp1105
S':'
asbag49
(g70
g51
NtRp1106
(dp1107
g54
(dp1108
sg63
g1093
sg56
(lp1109
g49
(g50
g51
NtRp1110
(dp1111
g54
(dp1112
g62
I4
ssg63
g1106
sg56
(lp1113
S'http://localhost:8887/admin/default/edit/hellow/views/game/show.html?id=views__game__show__html'
p1114
asbasbasbag49
(g65
g51
NtRp1115
(dp1116
g54
(dp1117
sg63
g778
sg56
(lp1118
g49
(g70
g51
NtRp1119
(dp1120
g54
(dp1121
g74
g75
ssg63
g1115
sg56
(lp1122
S'http_user_agent'
p1123
asbag49
(g70
g51
NtRp1124
(dp1125
g54
(dp1126
g81
g82
ssg63
g1115
sg56
(lp1127
S':'
asbag49
(g70
g51
NtRp1128
(dp1129
g54
(dp1130
sg63
g1115
sg56
(lp1131
g49
(g50
g51
NtRp1132
(dp1133
g54
(dp1134
g62
I4
ssg63
g1128
sg56
(lp1135
S'Mozilla/5.0 (Macintosh; Intel Mac OS X 10_8_3) AppleWebKit/537.31 (KHTML, like Gecko) Chrome/26.0.1410.43 Safari/537.31'
p1136
asbasbasbag49
(g65
g51
NtRp1137
(dp1138
g54
(dp1139
sg63
g778
sg56
(lp1140
g49
(g70
g51
NtRp1141
(dp1142
g54
(dp1143
g74
g75
ssg63
g1137
sg56
(lp1144
S'is_jython'
p1145
asbag49
(g70
g51
NtRp1146
(dp1147
g54
(dp1148
g81
g82
ssg63
g1137
sg56
(lp1149
S':'
asbag49
(g70
g51
NtRp1150
(dp1151
g54
(dp1152
sg63
g1137
sg56
(lp1153
g49
(g50
g51
NtRp1154
(dp1155
g54
(dp1156
g62
I4
ssg63
g1150
sg56
(lp1157
g92
asbasbasbag49
(g65
g51
NtRp1158
(dp1159
g54
(dp1160
sg63
g778
sg56
(lp1161
g49
(g70
g51
NtRp1162
(dp1163
g54
(dp1164
g74
g75
ssg63
g1158
sg56
(lp1165
S'is_pypy'
p1166
asbag49
(g70
g51
NtRp1167
(dp1168
g54
(dp1169
g81
g82
ssg63
g1158
sg56
(lp1170
S':'
asbag49
(g70
g51
NtRp1171
(dp1172
g54
(dp1173
sg63
g1158
sg56
(lp1174
g49
(g50
g51
NtRp1175
(dp1176
g54
(dp1177
g62
I4
ssg63
g1171
sg56
(lp1178
g92
asbasbasbag49
(g65
g51
NtRp1179
(dp1180
g54
(dp1181
sg63
g778
sg56
(lp1182
g49
(g70
g51
NtRp1183
(dp1184
g54
(dp1185
g74
g75
ssg63
g1179
sg56
(lp1186
S'local_hosts'
p1187
asbag49
(g70
g51
NtRp1188
(dp1189
g54
(dp1190
g81
g82
ssg63
g1179
sg56
(lp1191
S':'
asbag49
(g70
g51
NtRp1192
(dp1193
g54
(dp1194
sg63
g1179
sg56
(lp1195
g49
(g50
g51
NtRp1196
(dp1197
g54
(dp1198
g62
I4
ssg63
g1192
sg56
(lp1199
g49
(g58
g51
NtRp1200
(dp1201
g54
(dp1202
g62
I3
ssg63
Nsg56
(lp1203
g49
(g65
g51
NtRp1204
(dp1205
g54
(dp1206
sg63
g1200
sg56
(lp1207
g49
(g70
g51
NtRp1208
(dp1209
g54
(dp1210
sg63
g1204
sg56
(lp1211
g49
(g50
g51
NtRp1212
(dp1213
g54
(dp1214
g62
I3
ssg63
g1208
sg56
(lp1215
S'::1'
p1216
asbasbasbag49
(g65
g51
NtRp1217
(dp1218
g54
(dp1219
sg63
g1200
sg56
(lp1220
g49
(g70
g51
NtRp1221
(dp1222
g54
(dp1223
sg63
g1217
sg56
(lp1224
g49
(g50
g51
NtRp1225
(dp1226
g54
(dp1227
g62
I3
ssg63
g1221
sg56
(lp1228
S'130.91.149.119'
p1229
asbasbasbag49
(g65
g51
NtRp1230
(dp1231
g54
(dp1232
sg63
g1200
sg56
(lp1233
g49
(g70
g51
NtRp1234
(dp1235
g54
(dp1236
sg63
g1230
sg56
(lp1237
g49
(g50
g51
NtRp1238
(dp1239
g54
(dp1240
g62
I3
ssg63
g1234
sg56
(lp1241
S'::ffff:127.0.0.1'
p1242
asbasbasbag49
(g65
g51
NtRp1243
(dp1244
g54
(dp1245
sg63
g1200
sg56
(lp1246
g49
(g70
g51
NtRp1247
(dp1248
g54
(dp1249
sg63
g1243
sg56
(lp1250
g49
(g50
g51
NtRp1251
(dp1252
g54
(dp1253
g62
I3
ssg63
g1247
sg56
(lp1254
S'127.0.0.1'
p1255
asbasbasbag49
(g65
g51
NtRp1256
(dp1257
g54
(dp1258
sg63
g1200
sg56
(lp1259
g49
(g70
g51
NtRp1260
(dp1261
g54
(dp1262
sg63
g1256
sg56
(lp1263
g49
(g50
g51
NtRp1264
(dp1265
g54
(dp1266
g62
I3
ssg63
g1260
sg56
(lp1267
S'hntvlan5310374.wlan.sas.upenn.edu'
p1268
asbasbasbasbasbasbasbag49
(g65
g51
NtRp1269
(dp1270
g54
(dp1271
sg63
g778
sg56
(lp1272
g49
(g70
g51
NtRp1273
(dp1274
g54
(dp1275
g74
g75
ssg63
g1269
sg56
(lp1276
S'path_info'
p1277
asbag49
(g70
g51
NtRp1278
(dp1279
g54
(dp1280
g81
g82
ssg63
g1269
sg56
(lp1281
S':'
asbag49
(g70
g51
NtRp1282
(dp1283
g54
(dp1284
sg63
g1269
sg56
(lp1285
g49
(g50
g51
NtRp1286
(dp1287
g54
(dp1288
g62
I4
ssg63
g1282
sg56
(lp1289
S'/hellow/game/show'
p1290
asbasbasbag49
(g65
g51
NtRp1291
(dp1292
g54
(dp1293
sg63
g778
sg56
(lp1294
g49
(g70
g51
NtRp1295
(dp1296
g54
(dp1297
g74
g75
ssg63
g1291
sg56
(lp1298
S'query_string'
p1299
asbag49
(g70
g51
NtRp1300
(dp1301
g54
(dp1302
g81
g82
ssg63
g1291
sg56
(lp1303
S':'
asbag49
(g70
g51
NtRp1304
(dp1305
g54
(dp1306
sg63
g1291
sg56
(lp1307
g49
(g50
g51
NtRp1308
(dp1309
g54
(dp1310
g62
I4
ssg63
g1304
sg56
(lp1311
S''
asbasbasbag49
(g65
g51
NtRp1312
(dp1313
g54
(dp1314
sg63
g778
sg56
(lp1315
g49
(g70
g51
NtRp1316
(dp1317
g54
(dp1318
g74
g75
ssg63
g1312
sg56
(lp1319
S'remote_addr'
p1320
asbag49
(g70
g51
NtRp1321
(dp1322
g54
(dp1323
g81
g82
ssg63
g1312
sg56
(lp1324
S':'
asbag49
(g70
g51
NtRp1325
(dp1326
g54
(dp1327
sg63
g1312
sg56
(lp1328
g49
(g50
g51
NtRp1329
(dp1330
g54
(dp1331
g62
I4
ssg63
g1325
sg56
(lp1332
g204
asbasbasbag49
(g65
g51
NtRp1333
(dp1334
g54
(dp1335
sg63
g778
sg56
(lp1336
g49
(g70
g51
NtRp1337
(dp1338
g54
(dp1339
g74
g75
ssg63
g1333
sg56
(lp1340
S'remote_port'
p1341
asbag49
(g70
g51
NtRp1342
(dp1343
g54
(dp1344
g81
g82
ssg63
g1333
sg56
(lp1345
S':'
asbag49
(g70
g51
NtRp1346
(dp1347
g54
(dp1348
sg63
g1333
sg56
(lp1349
g49
(g50
g51
NtRp1350
(dp1351
g54
(dp1352
g62
I4
ssg63
g1346
sg56
(lp1353
S'49752'
p1354
asbasbasbag49
(g65
g51
NtRp1355
(dp1356
g54
(dp1357
sg63
g778
sg56
(lp1358
g49
(g70
g51
NtRp1359
(dp1360
g54
(dp1361
g74
g75
ssg63
g1355
sg56
(lp1362
S'request_method'
p1363
asbag49
(g70
g51
NtRp1364
(dp1365
g54
(dp1366
g81
g82
ssg63
g1355
sg56
(lp1367
S':'
asbag49
(g70
g51
NtRp1368
(dp1369
g54
(dp1370
sg63
g1355
sg56
(lp1371
g49
(g50
g51
NtRp1372
(dp1373
g54
(dp1374
g62
I4
ssg63
g1368
sg56
(lp1375
S'GET'
p1376
asbasbasbag49
(g65
g51
NtRp1377
(dp1378
g54
(dp1379
sg63
g778
sg56
(lp1380
g49
(g70
g51
NtRp1381
(dp1382
g54
(dp1383
g74
g75
ssg63
g1377
sg56
(lp1384
S'request_uri'
p1385
asbag49
(g70
g51
NtRp1386
(dp1387
g54
(dp1388
g81
g82
ssg63
g1377
sg56
(lp1389
S':'
asbag49
(g70
g51
NtRp1390
(dp1391
g54
(dp1392
sg63
g1377
sg56
(lp1393
g49
(g50
g51
NtRp1394
(dp1395
g54
(dp1396
g62
I4
ssg63
g1390
sg56
(lp1397
g1290
asbasbasbag49
(g65
g51
NtRp1398
(dp1399
g54
(dp1400
sg63
g778
sg56
(lp1401
g49
(g70
g51
NtRp1402
(dp1403
g54
(dp1404
g74
g75
ssg63
g1398
sg56
(lp1405
S'script_name'
p1406
asbag49
(g70
g51
NtRp1407
(dp1408
g54
(dp1409
g81
g82
ssg63
g1398
sg56
(lp1410
S':'
asbag49
(g70
g51
NtRp1411
(dp1412
g54
(dp1413
sg63
g1398
sg56
(lp1414
g49
(g50
g51
NtRp1415
(dp1416
g54
(dp1417
g62
I4
ssg63
g1411
sg56
(lp1418
S''
asbasbasbag49
(g65
g51
NtRp1419
(dp1420
g54
(dp1421
sg63
g778
sg56
(lp1422
g49
(g70
g51
NtRp1423
(dp1424
g54
(dp1425
g74
g75
ssg63
g1419
sg56
(lp1426
S'server_name'
p1427
asbag49
(g70
g51
NtRp1428
(dp1429
g54
(dp1430
g81
g82
ssg63
g1419
sg56
(lp1431
S':'
asbag49
(g70
g51
NtRp1432
(dp1433
g54
(dp1434
sg63
g1419
sg56
(lp1435
g49
(g50
g51
NtRp1436
(dp1437
g54
(dp1438
g62
I4
ssg63
g1432
sg56
(lp1439
S'hntvlan5310374.wlan.sas.upenn.edu'
p1440
asbasbasbag49
(g65
g51
NtRp1441
(dp1442
g54
(dp1443
sg63
g778
sg56
(lp1444
g49
(g70
g51
NtRp1445
(dp1446
g54
(dp1447
g74
g75
ssg63
g1441
sg56
(lp1448
S'server_port'
p1449
asbag49
(g70
g51
NtRp1450
(dp1451
g54
(dp1452
g81
g82
ssg63
g1441
sg56
(lp1453
S':'
asbag49
(g70
g51
NtRp1454
(dp1455
g54
(dp1456
sg63
g1441
sg56
(lp1457
g49
(g50
g51
NtRp1458
(dp1459
g54
(dp1460
g62
I4
ssg63
g1454
sg56
(lp1461
S'8887'
p1462
asbasbasbag49
(g65
g51
NtRp1463
(dp1464
g54
(dp1465
sg63
g778
sg56
(lp1466
g49
(g70
g51
NtRp1467
(dp1468
g54
(dp1469
g74
g75
ssg63
g1463
sg56
(lp1470
S'server_protocol'
p1471
asbag49
(g70
g51
NtRp1472
(dp1473
g54
(dp1474
g81
g82
ssg63
g1463
sg56
(lp1475
S':'
asbag49
(g70
g51
NtRp1476
(dp1477
g54
(dp1478
sg63
g1463
sg56
(lp1479
g49
(g50
g51
NtRp1480
(dp1481
g54
(dp1482
g62
I4
ssg63
g1476
sg56
(lp1483
S'HTTP/1.1'
p1484
asbasbasbag49
(g65
g51
NtRp1485
(dp1486
g54
(dp1487
sg63
g778
sg56
(lp1488
g49
(g70
g51
NtRp1489
(dp1490
g54
(dp1491
g74
g75
ssg63
g1485
sg56
(lp1492
S'server_software'
p1493
asbag49
(g70
g51
NtRp1494
(dp1495
g54
(dp1496
g81
g82
ssg63
g1485
sg56
(lp1497
S':'
asbag49
(g70
g51
NtRp1498
(dp1499
g54
(dp1500
sg63
g1485
sg56
(lp1501
g49
(g50
g51
NtRp1502
(dp1503
g54
(dp1504
g62
I4
ssg63
g1498
sg56
(lp1505
S'Rocket 1.2.6'
p1506
asbasbasbag49
(g65
g51
NtRp1507
(dp1508
g54
(dp1509
sg63
g778
sg56
(lp1510
g49
(g70
g51
NtRp1511
(dp1512
g54
(dp1513
g74
g75
ssg63
g1507
sg56
(lp1514
S'web2py_path'
p1515
asbag49
(g70
g51
NtRp1516
(dp1517
g54
(dp1518
g81
g82
ssg63
g1507
sg56
(lp1519
S':'
asbag49
(g70
g51
NtRp1520
(dp1521
g54
(dp1522
sg63
g1507
sg56
(lp1523
g49
(g50
g51
NtRp1524
(dp1525
g54
(dp1526
g62
I4
ssg63
g1520
sg56
(lp1527
g825
asbasbasbag49
(g65
g51
NtRp1528
(dp1529
g54
(dp1530
sg63
g778
sg56
(lp1531
g49
(g70
g51
NtRp1532
(dp1533
g54
(dp1534
g74
g75
ssg63
g1528
sg56
(lp1535
S'web2py_version'
p1536
asbag49
(g70
g51
NtRp1537
(dp1538
g54
(dp1539
g81
g82
ssg63
g1528
sg56
(lp1540
S':'
asbag49
(g70
g51
NtRp1541
(dp1542
g54
(dp1543
sg63
g1528
sg56
(lp1544
g49
(g50
g51
NtRp1545
(dp1546
g54
(dp1547
g62
I4
ssg63
g1541
sg56
(lp1548
g49
(g58
g51
NtRp1549
(dp1550
g54
(dp1551
g62
I3
ssg63
Nsg56
(lp1552
g49
(g65
g51
NtRp1553
(dp1554
g54
(dp1555
sg63
g1549
sg56
(lp1556
g49
(g70
g51
NtRp1557
(dp1558
g54
(dp1559
sg63
g1553
sg56
(lp1560
g49
(g50
g51
NtRp1561
(dp1562
g54
(dp1563
g62
I3
ssg63
g1557
sg56
(lp1564
S'2'
asbasbasbag49
(g65
g51
NtRp1565
(dp1566
g54
(dp1567
sg63
g1549
sg56
(lp1568
g49
(g70
g51
NtRp1569
(dp1570
g54
(dp1571
sg63
g1565
sg56
(lp1572
g49
(g50
g51
NtRp1573
(dp1574
g54
(dp1575
g62
I3
ssg63
g1569
sg56
(lp1576
S'4'
asbasbasbag49
(g65
g51
NtRp1577
(dp1578
g54
(dp1579
sg63
g1549
sg56
(lp1580
g49
(g70
g51
NtRp1581
(dp1582
g54
(dp1583
sg63
g1577
sg56
(lp1584
g49
(g50
g51
NtRp1585
(dp1586
g54
(dp1587
g62
I3
ssg63
g1581
sg56
(lp1588
S'5'
asbasbasbag49
(g65
g51
NtRp1589
(dp1590
g54
(dp1591
sg63
g1549
sg56
(lp1592
g49
(g70
g51
NtRp1593
(dp1594
g54
(dp1595
sg63
g1589
sg56
(lp1596
g49
(g50
g51
NtRp1597
(dp1598
g54
(dp1599
g62
I3
ssg63
g1593
sg56
(lp1600
S'stable'
p1601
asbasbasbag49
(g65
g51
NtRp1602
(dp1603
g54
(dp1604
sg63
g1549
sg56
(lp1605
g49
(g70
g51
NtRp1606
(dp1607
g54
(dp1608
sg63
g1602
sg56
(lp1609
g49
(g50
g51
NtRp1610
(dp1611
g54
(dp1612
g62
I3
ssg63
g1606
sg56
(lp1613
S'datetime.datetime(2013, 3, 18, 22, 46, 22)'
p1614
asbasbasbasbasbasbasbag49
(g65
g51
NtRp1615
(dp1616
g54
(dp1617
sg63
g778
sg56
(lp1618
g49
(g70
g51
NtRp1619
(dp1620
g54
(dp1621
g74
g75
ssg63
g1615
sg56
(lp1622
S'wsgi_errors'
p1623
asbag49
(g70
g51
NtRp1624
(dp1625
g54
(dp1626
g81
g82
ssg63
g1615
sg56
(lp1627
S':'
asbag49
(g70
g51
NtRp1628
(dp1629
g54
(dp1630
sg63
g1615
sg56
(lp1631
g49
(g50
g51
NtRp1632
(dp1633
g54
(dp1634
g62
I4
ssg63
g1628
sg56
(lp1635
S"<open file '<stderr>', mode 'w' at 0x540b0>"
p1636
asbasbasbag49
(g65
g51
NtRp1637
(dp1638
g54
(dp1639
sg63
g778
sg56
(lp1640
g49
(g70
g51
NtRp1641
(dp1642
g54
(dp1643
g74
g75
ssg63
g1637
sg56
(lp1644
S'wsgi_file_wrapper'
p1645
asbag49
(g70
g51
NtRp1646
(dp1647
g54
(dp1648
g81
g82
ssg63
g1637
sg56
(lp1649
S':'
asbag49
(g70
g51
NtRp1650
(dp1651
g54
(dp1652
sg63
g1637
sg56
(lp1653
g49
(g50
g51
NtRp1654
(dp1655
g54
(dp1656
g62
I4
ssg63
g1650
sg56
(lp1657
S'<class wsgiref.util.FileWrapper at 0x4761060>'
p1658
asbasbasbag49
(g65
g51
NtRp1659
(dp1660
g54
(dp1661
sg63
g778
sg56
(lp1662
g49
(g70
g51
NtRp1663
(dp1664
g54
(dp1665
g74
g75
ssg63
g1659
sg56
(lp1666
S'wsgi_input'
p1667
asbag49
(g70
g51
NtRp1668
(dp1669
g54
(dp1670
g81
g82
ssg63
g1659
sg56
(lp1671
S':'
asbag49
(g70
g51
NtRp1672
(dp1673
g54
(dp1674
sg63
g1659
sg56
(lp1675
g49
(g50
g51
NtRp1676
(dp1677
g54
(dp1678
g62
I4
ssg63
g1672
sg56
(lp1679
S'<socket._fileobject object at 0x95bb7f0>'
p1680
asbasbasbag49
(g65
g51
NtRp1681
(dp1682
g54
(dp1683
sg63
g778
sg56
(lp1684
g49
(g70
g51
NtRp1685
(dp1686
g54
(dp1687
g74
g75
ssg63
g1681
sg56
(lp1688
S'wsgi_multiprocess'
p1689
asbag49
(g70
g51
NtRp1690
(dp1691
g54
(dp1692
g81
g82
ssg63
g1681
sg56
(lp1693
S':'
asbag49
(g70
g51
NtRp1694
(dp1695
g54
(dp1696
sg63
g1681
sg56
(lp1697
g49
(g50
g51
NtRp1698
(dp1699
g54
(dp1700
g62
I4
ssg63
g1694
sg56
(lp1701
g92
asbasbasbag49
(g65
g51
NtRp1702
(dp1703
g54
(dp1704
sg63
g778
sg56
(lp1705
g49
(g70
g51
NtRp1706
(dp1707
g54
(dp1708
g74
g75
ssg63
g1702
sg56
(lp1709
S'wsgi_multithread'
p1710
asbag49
(g70
g51
NtRp1711
(dp1712
g54
(dp1713
g81
g82
ssg63
g1702
sg56
(lp1714
S':'
asbag49
(g70
g51
NtRp1715
(dp1716
g54
(dp1717
sg63
g1702
sg56
(lp1718
g49
(g50
g51
NtRp1719
(dp1720
g54
(dp1721
g62
I4
ssg63
g1715
sg56
(lp1722
g916
asbasbasbag49
(g65
g51
NtRp1723
(dp1724
g54
(dp1725
sg63
g778
sg56
(lp1726
g49
(g70
g51
NtRp1727
(dp1728
g54
(dp1729
g74
g75
ssg63
g1723
sg56
(lp1730
S'wsgi_run_once'
p1731
asbag49
(g70
g51
NtRp1732
(dp1733
g54
(dp1734
g81
g82
ssg63
g1723
sg56
(lp1735
S':'
asbag49
(g70
g51
NtRp1736
(dp1737
g54
(dp1738
sg63
g1723
sg56
(lp1739
g49
(g50
g51
NtRp1740
(dp1741
g54
(dp1742
g62
I4
ssg63
g1736
sg56
(lp1743
g92
asbasbasbag49
(g65
g51
NtRp1744
(dp1745
g54
(dp1746
sg63
g778
sg56
(lp1747
g49
(g70
g51
NtRp1748
(dp1749
g54
(dp1750
g74
g75
ssg63
g1744
sg56
(lp1751
S'wsgi_url_scheme'
p1752
asbag49
(g70
g51
NtRp1753
(dp1754
g54
(dp1755
g81
g82
ssg63
g1744
sg56
(lp1756
S':'
asbag49
(g70
g51
NtRp1757
(dp1758
g54
(dp1759
sg63
g1744
sg56
(lp1760
g49
(g50
g51
NtRp1761
(dp1762
g54
(dp1763
g62
I4
ssg63
g1757
sg56
(lp1764
S'http'
p1765
asbasbasbag49
(g65
g51
NtRp1766
(dp1767
g54
(dp1768
sg63
g778
sg56
(lp1769
g49
(g70
g51
NtRp1770
(dp1771
g54
(dp1772
g74
g75
ssg63
g1766
sg56
(lp1773
S'wsgi_version'
p1774
asbag49
(g70
g51
NtRp1775
(dp1776
g54
(dp1777
g81
g82
ssg63
g1766
sg56
(lp1778
S':'
asbag49
(g70
g51
NtRp1779
(dp1780
g54
(dp1781
sg63
g1766
sg56
(lp1782
g49
(g50
g51
NtRp1783
(dp1784
g54
(dp1785
g62
I4
ssg63
g1779
sg56
(lp1786
g49
(g58
g51
NtRp1787
(dp1788
g54
(dp1789
g62
I3
ssg63
Nsg56
(lp1790
g49
(g65
g51
NtRp1791
(dp1792
g54
(dp1793
sg63
g1787
sg56
(lp1794
g49
(g70
g51
NtRp1795
(dp1796
g54
(dp1797
sg63
g1791
sg56
(lp1798
g49
(g50
g51
NtRp1799
(dp1800
g54
(dp1801
g62
I3
ssg63
g1795
sg56
(lp1802
S'1'
asbasbasbag49
(g65
g51
NtRp1803
(dp1804
g54
(dp1805
sg63
g1787
sg56
(lp1806
g49
(g70
g51
NtRp1807
(dp1808
g54
(dp1809
sg63
g1803
sg56
(lp1810
g49
(g50
g51
NtRp1811
(dp1812
g54
(dp1813
g62
I3
ssg63
g1807
sg56
(lp1814
S'0'
asbasbasbasbasbasbasbasbasbasbasbag49
(g65
g51
NtRp1815
(dp1816
g54
(dp1817
sg63
g59
sg56
(lp1818
g49
(g70
g51
NtRp1819
(dp1820
g54
(dp1821
g74
g75
ssg63
g1815
sg56
(lp1822
S'extension'
p1823
asbag49
(g70
g51
NtRp1824
(dp1825
g54
(dp1826
g81
g82
ssg63
g1815
sg56
(lp1827
S':'
asbag49
(g70
g51
NtRp1828
(dp1829
g54
(dp1830
sg63
g1815
sg56
(lp1831
g49
(g50
g51
NtRp1832
(dp1833
g54
(dp1834
g62
I5
ssg63
g1828
sg56
(lp1835
S'html'
p1836
asbasbasbag49
(g65
g51
NtRp1837
(dp1838
g54
(dp1839
sg63
g59
sg56
(lp1840
g49
(g70
g51
NtRp1841
(dp1842
g54
(dp1843
g74
g75
ssg63
g1837
sg56
(lp1844
S'folder'
p1845
asbag49
(g70
g51
NtRp1846
(dp1847
g54
(dp1848
g81
g82
ssg63
g1837
sg56
(lp1849
S':'
asbag49
(g70
g51
NtRp1850
(dp1851
g54
(dp1852
sg63
g1837
sg56
(lp1853
g49
(g50
g51
NtRp1854
(dp1855
g54
(dp1856
g62
I5
ssg63
g1850
sg56
(lp1857
S'/Users/zamechek/Downloads/web2py/web2py.app/Contents/Resources/applications/hellow/'
p1858
asbasbasbag49
(g65
g51
NtRp1859
(dp1860
g54
(dp1861
sg63
g59
sg56
(lp1862
g49
(g70
g51
NtRp1863
(dp1864
g54
(dp1865
g74
g75
ssg63
g1859
sg56
(lp1866
S'function'
p1867
asbag49
(g70
g51
NtRp1868
(dp1869
g54
(dp1870
g81
g82
ssg63
g1859
sg56
(lp1871
S':'
asbag49
(g70
g51
NtRp1872
(dp1873
g54
(dp1874
sg63
g1859
sg56
(lp1875
g49
(g50
g51
NtRp1876
(dp1877
g54
(dp1878
g62
I5
ssg63
g1872
sg56
(lp1879
S'show'
p1880
asbasbasbag49
(g65
g51
NtRp1881
(dp1882
g54
(dp1883
sg63
g59
sg56
(lp1884
g49
(g70
g51
NtRp1885
(dp1886
g54
(dp1887
g74
g75
ssg63
g1881
sg56
(lp1888
S'get_vars'
p1889
asbag49
(g70
g51
NtRp1890
(dp1891
g54
(dp1892
g81
g82
ssg63
g1881
sg56
(lp1893
S':'
asbag49
(g70
g51
NtRp1894
(dp1895
g54
(dp1896
sg63
g1881
sg56
(lp1897
g49
(g50
g51
NtRp1898
(dp1899
g54
(dp1900
g62
I5
ssg63
g1894
sg56
(lp1901
g49
(g58
g51
NtRp1902
(dp1903
g54
(dp1904
g62
I4
ssg63
Nsg56
(lp1905
sbasbasbasbag49
(g65
g51
NtRp1906
(dp1907
g54
(dp1908
sg63
g59
sg56
(lp1909
g49
(g70
g51
NtRp1910
(dp1911
g54
(dp1912
g74
g75
ssg63
g1906
sg56
(lp1913
S'global_settings'
p1914
asbag49
(g70
g51
NtRp1915
(dp1916
g54
(dp1917
g81
g82
ssg63
g1906
sg56
(lp1918
S':'
asbag49
(g70
g51
NtRp1919
(dp1920
g54
(dp1921
sg63
g1906
sg56
(lp1922
g49
(g50
g51
NtRp1923
(dp1924
g54
(dp1925
g62
I5
ssg63
g1919
sg56
(lp1926
g49
(g58
g51
NtRp1927
(dp1928
g54
(dp1929
g62
I4
ssg63
Nsg56
(lp1930
g49
(g65
g51
NtRp1931
(dp1932
g54
(dp1933
sg63
g1927
sg56
(lp1934
g49
(g70
g51
NtRp1935
(dp1936
g54
(dp1937
g74
g75
ssg63
g1931
sg56
(lp1938
g790
asbag49
(g70
g51
NtRp1939
(dp1940
g54
(dp1941
g81
g82
ssg63
g1931
sg56
(lp1942
S':'
asbag49
(g70
g51
NtRp1943
(dp1944
g54
(dp1945
sg63
g1931
sg56
(lp1946
g49
(g50
g51
NtRp1947
(dp1948
g54
(dp1949
g62
I4
ssg63
g1943
sg56
(lp1950
S"set(['/Users/zamechek/Downloads/web2py/web2py.app/Contents/Resources/applications/hellow/', '/Users/zamechek/Downloads/web2py/web2py.app/Contents/Resources/applications/admin/', '/Users/zamechek/Downloads/web2py/web2py.app/Contents/Resources/applications/welcome/'])"
p1951
asbasbasbag49
(g65
g51
NtRp1952
(dp1953
g54
(dp1954
sg63
g1927
sg56
(lp1955
g49
(g70
g51
NtRp1956
(dp1957
g54
(dp1958
g74
g75
ssg63
g1952
sg56
(lp1959
g812
asbag49
(g70
g51
NtRp1960
(dp1961
g54
(dp1962
g81
g82
ssg63
g1952
sg56
(lp1963
S':'
asbag49
(g70
g51
NtRp1964
(dp1965
g54
(dp1966
sg63
g1952
sg56
(lp1967
g49
(g50
g51
NtRp1968
(dp1969
g54
(dp1970
g62
I4
ssg63
g1964
sg56
(lp1971
g825
asbasbasbag49
(g65
g51
NtRp1972
(dp1973
g54
(dp1974
sg63
g1927
sg56
(lp1975
g49
(g70
g51
NtRp1976
(dp1977
g54
(dp1978
g74
g75
ssg63
g1972
sg56
(lp1979
g834
asbag49
(g70
g51
NtRp1980
(dp1981
g54
(dp1982
g81
g82
ssg63
g1972
sg56
(lp1983
S':'
asbag49
(g70
g51
NtRp1984
(dp1985
g54
(dp1986
sg63
g1972
sg56
(lp1987
g49
(g50
g51
NtRp1988
(dp1989
g54
(dp1990
g62
I4
ssg63
g1984
sg56
(lp1991
g49
(g58
g51
NtRp1992
(dp1993
g54
(dp1994
g62
I3
ssg63
Nsg56
(lp1995
sbasbasbasbag49
(g65
g51
NtRp1996
(dp1997
g54
(dp1998
sg63
g1927
sg56
(lp1999
g49
(g70
g51
NtRp2000
(dp2001
g54
(dp2002
g74
g75
ssg63
g1996
sg56
(lp2003
g859
asbag49
(g70
g51
NtRp2004
(dp2005
g54
(dp2006
g81
g82
ssg63
g1996
sg56
(lp2007
S':'
asbag49
(g70
g51
NtRp2008
(dp2009
g54
(dp2010
sg63
g1996
sg56
(lp2011
g49
(g50
g51
NtRp2012
(dp2013
g54
(dp2014
g62
I4
ssg63
g2008
sg56
(lp2015
S"<Values at 0x478bf58: {'verbose': False, 'ip': '127.0.0.1', 'with_scheduler': False, 'ips': ['130.91.149.119'], 'shutdown_timeout': 5, 'taskbar': False, 'port': 8000, 'maxthreads': None, 'softcron': False, 'server_name': 'hntvlan5310374.wlan.sas.upenn.edu', 'bpython': False, 'nogui': False, 'pid_filename': 'httpserver.pid', 'extcron': False, 'runcron': False, 'run_system_tests': False, 'test': None, 'folder': '/Users/zamechek/Downloads/web2py/web2py.app/Contents/Resources', 'config': '', 'import_models': False, 'winservice': '', 'shell': None, 'run': '', 'log_filename': 'httpserver.log', 'debuglevel': 30, 'args': [''], 'socket_timeout': 5, 'ssl_ca_certificate': None, 'scheduler': None, 'profiler_filename': None, 'ssl_private_key': '', 'scheduler_groups': None, 'password': '<ask>', 'request_queue_size': 5, 'ssl_certificate': '', 'cronjob': False, 'numthreads': None, 'quiet': False, 'interfaces': None, 'minthreads': None, 'timeout': 10, 'plain': False, 'nobanner': False}>"
p2016
asbasbasbag49
(g65
g51
NtRp2017
(dp2018
g54
(dp2019
sg63
g1927
sg56
(lp2020
g49
(g70
g51
NtRp2021
(dp2022
g54
(dp2023
g74
g75
ssg63
g2017
sg56
(lp2024
g881
asbag49
(g70
g51
NtRp2025
(dp2026
g54
(dp2027
g81
g82
ssg63
g2017
sg56
(lp2028
S':'
asbag49
(g70
g51
NtRp2029
(dp2030
g54
(dp2031
sg63
g2017
sg56
(lp2032
g49
(g50
g51
NtRp2033
(dp2034
g54
(dp2035
g62
I4
ssg63
g2029
sg56
(lp2036
S'set([])'
p2037
asbasbasbag49
(g65
g51
NtRp2038
(dp2039
g54
(dp2040
sg63
g1927
sg56
(lp2041
g49
(g70
g51
NtRp2042
(dp2043
g54
(dp2044
g74
g75
ssg63
g2038
sg56
(lp2045
g903
asbag49
(g70
g51
NtRp2046
(dp2047
g54
(dp2048
g81
g82
ssg63
g2038
sg56
(lp2049
S':'
asbag49
(g70
g51
NtRp2050
(dp2051
g54
(dp2052
sg63
g2038
sg56
(lp2053
g49
(g50
g51
NtRp2054
(dp2055
g54
(dp2056
g62
I4
ssg63
g2050
sg56
(lp2057
g916
asbasbasbag49
(g65
g51
NtRp2058
(dp2059
g54
(dp2060
sg63
g1927
sg56
(lp2061
g49
(g70
g51
NtRp2062
(dp2063
g54
(dp2064
g74
g75
ssg63
g2058
sg56
(lp2065
g925
asbag49
(g70
g51
NtRp2066
(dp2067
g54
(dp2068
g81
g82
ssg63
g2058
sg56
(lp2069
S':'
asbag49
(g70
g51
NtRp2070
(dp2071
g54
(dp2072
sg63
g2058
sg56
(lp2073
g49
(g50
g51
NtRp2074
(dp2075
g54
(dp2076
g62
I4
ssg63
g2070
sg56
(lp2077
g938
asbasbasbag49
(g65
g51
NtRp2078
(dp2079
g54
(dp2080
sg63
g1927
sg56
(lp2081
g49
(g70
g51
NtRp2082
(dp2083
g54
(dp2084
g74
g75
ssg63
g2078
sg56
(lp2085
g1145
asbag49
(g70
g51
NtRp2086
(dp2087
g54
(dp2088
g81
g82
ssg63
g2078
sg56
(lp2089
S':'
asbag49
(g70
g51
NtRp2090
(dp2091
g54
(dp2092
sg63
g2078
sg56
(lp2093
g49
(g50
g51
NtRp2094
(dp2095
g54
(dp2096
g62
I4
ssg63
g2090
sg56
(lp2097
g92
asbasbasbag49
(g65
g51
NtRp2098
(dp2099
g54
(dp2100
sg63
g1927
sg56
(lp2101
g49
(g70
g51
NtRp2102
(dp2103
g54
(dp2104
g74
g75
ssg63
g2098
sg56
(lp2105
g1166
asbag49
(g70
g51
NtRp2106
(dp2107
g54
(dp2108
g81
g82
ssg63
g2098
sg56
(lp2109
S':'
asbag49
(g70
g51
NtRp2110
(dp2111
g54
(dp2112
sg63
g2098
sg56
(lp2113
g49
(g50
g51
NtRp2114
(dp2115
g54
(dp2116
g62
I4
ssg63
g2110
sg56
(lp2117
g92
asbasbasbag49
(g65
g51
NtRp2118
(dp2119
g54
(dp2120
sg63
g1927
sg56
(lp2121
g49
(g70
g51
NtRp2122
(dp2123
g54
(dp2124
g74
g75
ssg63
g2118
sg56
(lp2125
g1187
asbag49
(g70
g51
NtRp2126
(dp2127
g54
(dp2128
g81
g82
ssg63
g2118
sg56
(lp2129
S':'
asbag49
(g70
g51
NtRp2130
(dp2131
g54
(dp2132
sg63
g2118
sg56
(lp2133
g49
(g50
g51
NtRp2134
(dp2135
g54
(dp2136
g62
I4
ssg63
g2130
sg56
(lp2137
g49
(g58
g51
NtRp2138
(dp2139
g54
(dp2140
g62
I3
ssg63
Nsg56
(lp2141
g49
(g65
g51
NtRp2142
(dp2143
g54
(dp2144
sg63
g2138
sg56
(lp2145
g49
(g70
g51
NtRp2146
(dp2147
g54
(dp2148
sg63
g2142
sg56
(lp2149
g49
(g50
g51
NtRp2150
(dp2151
g54
(dp2152
g62
I3
ssg63
g2146
sg56
(lp2153
g1216
asbasbasbag49
(g65
g51
NtRp2154
(dp2155
g54
(dp2156
sg63
g2138
sg56
(lp2157
g49
(g70
g51
NtRp2158
(dp2159
g54
(dp2160
sg63
g2154
sg56
(lp2161
g49
(g50
g51
NtRp2162
(dp2163
g54
(dp2164
g62
I3
ssg63
g2158
sg56
(lp2165
g1229
asbasbasbag49
(g65
g51
NtRp2166
(dp2167
g54
(dp2168
sg63
g2138
sg56
(lp2169
g49
(g70
g51
NtRp2170
(dp2171
g54
(dp2172
sg63
g2166
sg56
(lp2173
g49
(g50
g51
NtRp2174
(dp2175
g54
(dp2176
g62
I3
ssg63
g2170
sg56
(lp2177
g1242
asbasbasbag49
(g65
g51
NtRp2178
(dp2179
g54
(dp2180
sg63
g2138
sg56
(lp2181
g49
(g70
g51
NtRp2182
(dp2183
g54
(dp2184
sg63
g2178
sg56
(lp2185
g49
(g50
g51
NtRp2186
(dp2187
g54
(dp2188
g62
I3
ssg63
g2182
sg56
(lp2189
g1255
asbasbasbag49
(g65
g51
NtRp2190
(dp2191
g54
(dp2192
sg63
g2138
sg56
(lp2193
g49
(g70
g51
NtRp2194
(dp2195
g54
(dp2196
sg63
g2190
sg56
(lp2197
g49
(g50
g51
NtRp2198
(dp2199
g54
(dp2200
g62
I3
ssg63
g2194
sg56
(lp2201
g1268
asbasbasbasbasbasbasbag49
(g65
g51
NtRp2202
(dp2203
g54
(dp2204
sg63
g1927
sg56
(lp2205
g49
(g70
g51
NtRp2206
(dp2207
g54
(dp2208
g74
g75
ssg63
g2202
sg56
(lp2209
g1536
asbag49
(g70
g51
NtRp2210
(dp2211
g54
(dp2212
g81
g82
ssg63
g2202
sg56
(lp2213
S':'
asbag49
(g70
g51
NtRp2214
(dp2215
g54
(dp2216
sg63
g2202
sg56
(lp2217
g49
(g50
g51
NtRp2218
(dp2219
g54
(dp2220
g62
I4
ssg63
g2214
sg56
(lp2221
g49
(g58
g51
NtRp2222
(dp2223
g54
(dp2224
g62
I3
ssg63
Nsg56
(lp2225
g49
(g65
g51
NtRp2226
(dp2227
g54
(dp2228
sg63
g2222
sg56
(lp2229
g49
(g70
g51
NtRp2230
(dp2231
g54
(dp2232
sg63
g2226
sg56
(lp2233
g49
(g50
g51
NtRp2234
(dp2235
g54
(dp2236
g62
I3
ssg63
g2230
sg56
(lp2237
S'2'
asbasbasbag49
(g65
g51
NtRp2238
(dp2239
g54
(dp2240
sg63
g2222
sg56
(lp2241
g49
(g70
g51
NtRp2242
(dp2243
g54
(dp2244
sg63
g2238
sg56
(lp2245
g49
(g50
g51
NtRp2246
(dp2247
g54
(dp2248
g62
I3
ssg63
g2242
sg56
(lp2249
S'4'
asbasbasbag49
(g65
g51
NtRp2250
(dp2251
g54
(dp2252
sg63
g2222
sg56
(lp2253
g49
(g70
g51
NtRp2254
(dp2255
g54
(dp2256
sg63
g2250
sg56
(lp2257
g49
(g50
g51
NtRp2258
(dp2259
g54
(dp2260
g62
I3
ssg63
g2254
sg56
(lp2261
S'5'
asbasbasbag49
(g65
g51
NtRp2262
(dp2263
g54
(dp2264
sg63
g2222
sg56
(lp2265
g49
(g70
g51
NtRp2266
(dp2267
g54
(dp2268
sg63
g2262
sg56
(lp2269
g49
(g50
g51
NtRp2270
(dp2271
g54
(dp2272
g62
I3
ssg63
g2266
sg56
(lp2273
g1601
asbasbasbag49
(g65
g51
NtRp2274
(dp2275
g54
(dp2276
sg63
g2222
sg56
(lp2277
g49
(g70
g51
NtRp2278
(dp2279
g54
(dp2280
sg63
g2274
sg56
(lp2281
g49
(g50
g51
NtRp2282
(dp2283
g54
(dp2284
g62
I3
ssg63
g2278
sg56
(lp2285
S'datetime.datetime(2013, 3, 18, 22, 46, 22)'
p2286
asbasbasbasbasbasbasbasbasbasbasbag49
(g65
g51
NtRp2287
(dp2288
g54
(dp2289
sg63
g59
sg56
(lp2290
g49
(g70
g51
NtRp2291
(dp2292
g54
(dp2293
g74
g75
ssg63
g2287
sg56
(lp2294
S'is_https'
p2295
asbag49
(g70
g51
NtRp2296
(dp2297
g54
(dp2298
g81
g82
ssg63
g2287
sg56
(lp2299
S':'
asbag49
(g70
g51
NtRp2300
(dp2301
g54
(dp2302
sg63
g2287
sg56
(lp2303
g49
(g50
g51
NtRp2304
(dp2305
g54
(dp2306
g62
I5
ssg63
g2300
sg56
(lp2307
g92
asbasbasbag49
(g65
g51
NtRp2308
(dp2309
g54
(dp2310
sg63
g59
sg56
(lp2311
g49
(g70
g51
NtRp2312
(dp2313
g54
(dp2314
g74
g75
ssg63
g2308
sg56
(lp2315
S'is_local'
p2316
asbag49
(g70
g51
NtRp2317
(dp2318
g54
(dp2319
g81
g82
ssg63
g2308
sg56
(lp2320
S':'
asbag49
(g70
g51
NtRp2321
(dp2322
g54
(dp2323
sg63
g2308
sg56
(lp2324
g49
(g50
g51
NtRp2325
(dp2326
g54
(dp2327
g62
I5
ssg63
g2321
sg56
(lp2328
g916
asbasbasbag49
(g65
g51
NtRp2329
(dp2330
g54
(dp2331
sg63
g59
sg56
(lp2332
g49
(g70
g51
NtRp2333
(dp2334
g54
(dp2335
g74
g75
ssg63
g2329
sg56
(lp2336
S'is_restful'
p2337
asbag49
(g70
g51
NtRp2338
(dp2339
g54
(dp2340
g81
g82
ssg63
g2329
sg56
(lp2341
S':'
asbag49
(g70
g51
NtRp2342
(dp2343
g54
(dp2344
sg63
g2329
sg56
(lp2345
g49
(g50
g51
NtRp2346
(dp2347
g54
(dp2348
g62
I5
ssg63
g2342
sg56
(lp2349
g92
asbasbasbag49
(g65
g51
NtRp2350
(dp2351
g54
(dp2352
sg63
g59
sg56
(lp2353
g49
(g70
g51
NtRp2354
(dp2355
g54
(dp2356
g74
g75
ssg63
g2350
sg56
(lp2357
S'now'
p2358
asbag49
(g70
g51
NtRp2359
(dp2360
g54
(dp2361
g81
g82
ssg63
g2350
sg56
(lp2362
S':'
asbag49
(g70
g51
NtRp2363
(dp2364
g54
(dp2365
sg63
g2350
sg56
(lp2366
g49
(g50
g51
NtRp2367
(dp2368
g54
(dp2369
g62
I5
ssg63
g2363
sg56
(lp2370
S'datetime.datetime(2013, 3, 29, 12, 35, 58, 577782)'
p2371
asbasbasbag49
(g65
g51
NtRp2372
(dp2373
g54
(dp2374
sg63
g59
sg56
(lp2375
g49
(g70
g51
NtRp2376
(dp2377
g54
(dp2378
g74
g75
ssg63
g2372
sg56
(lp2379
S'post_vars'
p2380
asbag49
(g70
g51
NtRp2381
(dp2382
g54
(dp2383
g81
g82
ssg63
g2372
sg56
(lp2384
S':'
asbag49
(g70
g51
NtRp2385
(dp2386
g54
(dp2387
sg63
g2372
sg56
(lp2388
g49
(g50
g51
NtRp2389
(dp2390
g54
(dp2391
g62
I5
ssg63
g2385
sg56
(lp2392
g49
(g58
g51
NtRp2393
(dp2394
g54
(dp2395
g62
I4
ssg63
Nsg56
(lp2396
sbasbasbasbag49
(g65
g51
NtRp2397
(dp2398
g54
(dp2399
sg63
g59
sg56
(lp2400
g49
(g70
g51
NtRp2401
(dp2402
g54
(dp2403
g74
g75
ssg63
g2397
sg56
(lp2404
S'raw_args'
p2405
asbag49
(g70
g51
NtRp2406
(dp2407
g54
(dp2408
g81
g82
ssg63
g2397
sg56
(lp2409
S':'
asbag49
(g70
g51
NtRp2410
(dp2411
g54
(dp2412
sg63
g2397
sg56
(lp2413
g49
(g50
g51
NtRp2414
(dp2415
g54
(dp2416
g62
I5
ssg63
g2410
sg56
(lp2417
S''
asbasbasbag49
(g65
g51
NtRp2418
(dp2419
g54
(dp2420
sg63
g59
sg56
(lp2421
g49
(g70
g51
NtRp2422
(dp2423
g54
(dp2424
g74
g75
ssg63
g2418
sg56
(lp2425
S'raw_extension'
p2426
asbag49
(g70
g51
NtRp2427
(dp2428
g54
(dp2429
g81
g82
ssg63
g2418
sg56
(lp2430
S':'
asbag49
(g70
g51
NtRp2431
(dp2432
g54
(dp2433
sg63
g2418
sg56
(lp2434
g49
(g50
g51
NtRp2435
(dp2436
g54
(dp2437
g62
I5
ssg63
g2431
sg56
(lp2438
S'None'
p2439
asbasbasbag49
(g65
g51
NtRp2440
(dp2441
g54
(dp2442
sg63
g59
sg56
(lp2443
g49
(g70
g51
NtRp2444
(dp2445
g54
(dp2446
g74
g75
ssg63
g2440
sg56
(lp2447
S'url'
p2448
asbag49
(g70
g51
NtRp2449
(dp2450
g54
(dp2451
g81
g82
ssg63
g2440
sg56
(lp2452
S':'
asbag49
(g70
g51
NtRp2453
(dp2454
g54
(dp2455
sg63
g2440
sg56
(lp2456
g49
(g50
g51
NtRp2457
(dp2458
g54
(dp2459
g62
I5
ssg63
g2453
sg56
(lp2460
g1290
asbasbasbag49
(g65
g51
NtRp2461
(dp2462
g54
(dp2463
sg63
g59
sg56
(lp2464
g49
(g70
g51
NtRp2465
(dp2466
g54
(dp2467
g74
g75
ssg63
g2461
sg56
(lp2468
S'utcnow'
p2469
asbag49
(g70
g51
NtRp2470
(dp2471
g54
(dp2472
g81
g82
ssg63
g2461
sg56
(lp2473
S':'
asbag49
(g70
g51
NtRp2474
(dp2475
g54
(dp2476
sg63
g2461
sg56
(lp2477
g49
(g50
g51
NtRp2478
(dp2479
g54
(dp2480
g62
I5
ssg63
g2474
sg56
(lp2481
S'datetime.datetime(2013, 3, 29, 16, 35, 58, 577794)'
p2482
asbasbasbag49
(g65
g51
NtRp2483
(dp2484
g54
(dp2485
sg63
g59
sg56
(lp2486
g49
(g70
g51
NtRp2487
(dp2488
g54
(dp2489
g74
g75
ssg63
g2483
sg56
(lp2490
S'uuid'
p2491
asbag49
(g70
g51
NtRp2492
(dp2493
g54
(dp2494
g81
g82
ssg63
g2483
sg56
(lp2495
S':'
asbag49
(g70
g51
NtRp2496
(dp2497
g54
(dp2498
sg63
g2483
sg56
(lp2499
g49
(g50
g51
NtRp2500
(dp2501
g54
(dp2502
g62
I5
ssg63
g2496
sg56
(lp2503
S'hellow/127.0.0.1.2013-03-29.12-35-58.a28e8669-59f3-48b7-a915-7d5af607e5d0'
p2504
asbasbasbag49
(g65
g51
NtRp2505
(dp2506
g54
(dp2507
sg63
g59
sg56
(lp2508
g49
(g70
g51
NtRp2509
(dp2510
g54
(dp2511
g74
g75
ssg63
g2505
sg56
(lp2512
S'vars'
p2513
asbag49
(g70
g51
NtRp2514
(dp2515
g54
(dp2516
g81
g82
ssg63
g2505
sg56
(lp2517
S':'
asbag49
(g70
g51
NtRp2518
(dp2519
g54
(dp2520
sg63
g2505
sg56
(lp2521
g49
(g50
g51
NtRp2522
(dp2523
g54
(dp2524
g62
I5
ssg63
g2518
sg56
(lp2525
g49
(g58
g51
NtRp2526
(dp2527
g54
(dp2528
g62
I4
ssg63
Nsg56
(lp2529
sbasbasbasbag49
(g65
g51
NtRp2530
(dp2531
g54
(dp2532
sg63
g59
sg56
(lp2533
g49
(g70
g51
NtRp2534
(dp2535
g54
(dp2536
g74
g75
ssg63
g2530
sg56
(lp2537
S'wsgi'
p2538
asbag49
(g70
g51
NtRp2539
(dp2540
g54
(dp2541
g81
g82
ssg63
g2530
sg56
(lp2542
S':'
asbag49
(g70
g51
NtRp2543
(dp2544
g54
(dp2545
sg63
g2530
sg56
(lp2546
g49
(g50
g51
NtRp2547
(dp2548
g54
(dp2549
g62
I5
ssg63
g2543
sg56
(lp2550
g49
(g58
g51
NtRp2551
(dp2552
g54
(dp2553
g62
I4
ssg63
Nsg56
(lp2554
g49
(g65
g51
NtRp2555
(dp2556
g54
(dp2557
sg63
g2551
sg56
(lp2558
g49
(g70
g51
NtRp2559
(dp2560
g54
(dp2561
g74
g75
ssg63
g2555
sg56
(lp2562
S'environ'
p2563
asbag49
(g70
g51
NtRp2564
(dp2565
g54
(dp2566
g81
g82
ssg63
g2555
sg56
(lp2567
S':'
asbag49
(g70
g51
NtRp2568
(dp2569
g54
(dp2570
sg63
g2555
sg56
(lp2571
g49
(g50
g51
NtRp2572
(dp2573
g54
(dp2574
g62
I4
ssg63
g2568
sg56
(lp2575
g49
(g58
g51
NtRp2576
(dp2577
g54
(dp2578
g62
I3
ssg63
Nsg56
(lp2579
g49
(g65
g51
NtRp2580
(dp2581
g54
(dp2582
sg63
g2576
sg56
(lp2583
g49
(g70
g51
NtRp2584
(dp2585
g54
(dp2586
g74
g75
ssg63
g2580
sg56
(lp2587
S'HTTP_ACCEPT'
p2588
asbag49
(g70
g51
NtRp2589
(dp2590
g54
(dp2591
g81
g82
ssg63
g2580
sg56
(lp2592
S':'
asbag49
(g70
g51
NtRp2593
(dp2594
g54
(dp2595
sg63
g2580
sg56
(lp2596
g49
(g50
g51
NtRp2597
(dp2598
g54
(dp2599
g62
I3
ssg63
g2593
sg56
(lp2600
g960
asbasbasbag49
(g65
g51
NtRp2601
(dp2602
g54
(dp2603
sg63
g2576
sg56
(lp2604
g49
(g70
g51
NtRp2605
(dp2606
g54
(dp2607
g74
g75
ssg63
g2601
sg56
(lp2608
S'HTTP_ACCEPT_CHARSET'
p2609
asbag49
(g70
g51
NtRp2610
(dp2611
g54
(dp2612
g81
g82
ssg63
g2601
sg56
(lp2613
S':'
asbag49
(g70
g51
NtRp2614
(dp2615
g54
(dp2616
sg63
g2601
sg56
(lp2617
g49
(g50
g51
NtRp2618
(dp2619
g54
(dp2620
g62
I3
ssg63
g2614
sg56
(lp2621
g982
asbasbasbag49
(g65
g51
NtRp2622
(dp2623
g54
(dp2624
sg63
g2576
sg56
(lp2625
g49
(g70
g51
NtRp2626
(dp2627
g54
(dp2628
g74
g75
ssg63
g2622
sg56
(lp2629
S'HTTP_ACCEPT_ENCODING'
p2630
asbag49
(g70
g51
NtRp2631
(dp2632
g54
(dp2633
g81
g82
ssg63
g2622
sg56
(lp2634
S':'
asbag49
(g70
g51
NtRp2635
(dp2636
g54
(dp2637
sg63
g2622
sg56
(lp2638
g49
(g50
g51
NtRp2639
(dp2640
g54
(dp2641
g62
I3
ssg63
g2635
sg56
(lp2642
g1004
asbasbasbag49
(g65
g51
NtRp2643
(dp2644
g54
(dp2645
sg63
g2576
sg56
(lp2646
g49
(g70
g51
NtRp2647
(dp2648
g54
(dp2649
g74
g75
ssg63
g2643
sg56
(lp2650
S'HTTP_ACCEPT_LANGUAGE'
p2651
asbag49
(g70
g51
NtRp2652
(dp2653
g54
(dp2654
g81
g82
ssg63
g2643
sg56
(lp2655
S':'
asbag49
(g70
g51
NtRp2656
(dp2657
g54
(dp2658
sg63
g2643
sg56
(lp2659
g49
(g50
g51
NtRp2660
(dp2661
g54
(dp2662
g62
I3
ssg63
g2656
sg56
(lp2663
g1026
asbasbasbag49
(g65
g51
NtRp2664
(dp2665
g54
(dp2666
sg63
g2576
sg56
(lp2667
g49
(g70
g51
NtRp2668
(dp2669
g54
(dp2670
g74
g75
ssg63
g2664
sg56
(lp2671
S'HTTP_CONNECTION'
p2672
asbag49
(g70
g51
NtRp2673
(dp2674
g54
(dp2675
g81
g82
ssg63
g2664
sg56
(lp2676
S':'
asbag49
(g70
g51
NtRp2677
(dp2678
g54
(dp2679
sg63
g2664
sg56
(lp2680
g49
(g50
g51
NtRp2681
(dp2682
g54
(dp2683
g62
I3
ssg63
g2677
sg56
(lp2684
g1048
asbasbasbag49
(g65
g51
NtRp2685
(dp2686
g54
(dp2687
sg63
g2576
sg56
(lp2688
g49
(g70
g51
NtRp2689
(dp2690
g54
(dp2691
g74
g75
ssg63
g2685
sg56
(lp2692
S'HTTP_COOKIE'
p2693
asbag49
(g70
g51
NtRp2694
(dp2695
g54
(dp2696
g81
g82
ssg63
g2685
sg56
(lp2697
S':'
asbag49
(g70
g51
NtRp2698
(dp2699
g54
(dp2700
sg63
g2685
sg56
(lp2701
g49
(g50
g51
NtRp2702
(dp2703
g54
(dp2704
g62
I3
ssg63
g2698
sg56
(lp2705
g1070
asbasbasbag49
(g65
g51
NtRp2706
(dp2707
g54
(dp2708
sg63
g2576
sg56
(lp2709
g49
(g70
g51
NtRp2710
(dp2711
g54
(dp2712
g74
g75
ssg63
g2706
sg56
(lp2713
S'HTTP_HOST'
p2714
asbag49
(g70
g51
NtRp2715
(dp2716
g54
(dp2717
g81
g82
ssg63
g2706
sg56
(lp2718
S':'
asbag49
(g70
g51
NtRp2719
(dp2720
g54
(dp2721
sg63
g2706
sg56
(lp2722
g49
(g50
g51
NtRp2723
(dp2724
g54
(dp2725
g62
I3
ssg63
g2719
sg56
(lp2726
g1092
asbasbasbag49
(g65
g51
NtRp2727
(dp2728
g54
(dp2729
sg63
g2576
sg56
(lp2730
g49
(g70
g51
NtRp2731
(dp2732
g54
(dp2733
g74
g75
ssg63
g2727
sg56
(lp2734
S'HTTP_REFERER'
p2735
asbag49
(g70
g51
NtRp2736
(dp2737
g54
(dp2738
g81
g82
ssg63
g2727
sg56
(lp2739
S':'
asbag49
(g70
g51
NtRp2740
(dp2741
g54
(dp2742
sg63
g2727
sg56
(lp2743
g49
(g50
g51
NtRp2744
(dp2745
g54
(dp2746
g62
I3
ssg63
g2740
sg56
(lp2747
g1114
asbasbasbag49
(g65
g51
NtRp2748
(dp2749
g54
(dp2750
sg63
g2576
sg56
(lp2751
g49
(g70
g51
NtRp2752
(dp2753
g54
(dp2754
g74
g75
ssg63
g2748
sg56
(lp2755
S'HTTP_USER_AGENT'
p2756
asbag49
(g70
g51
NtRp2757
(dp2758
g54
(dp2759
g81
g82
ssg63
g2748
sg56
(lp2760
S':'
asbag49
(g70
g51
NtRp2761
(dp2762
g54
(dp2763
sg63
g2748
sg56
(lp2764
g49
(g50
g51
NtRp2765
(dp2766
g54
(dp2767
g62
I3
ssg63
g2761
sg56
(lp2768
g1136
asbasbasbag49
(g65
g51
NtRp2769
(dp2770
g54
(dp2771
sg63
g2576
sg56
(lp2772
g49
(g70
g51
NtRp2773
(dp2774
g54
(dp2775
g74
g75
ssg63
g2769
sg56
(lp2776
S'PATH_INFO'
p2777
asbag49
(g70
g51
NtRp2778
(dp2779
g54
(dp2780
g81
g82
ssg63
g2769
sg56
(lp2781
S':'
asbag49
(g70
g51
NtRp2782
(dp2783
g54
(dp2784
sg63
g2769
sg56
(lp2785
g49
(g50
g51
NtRp2786
(dp2787
g54
(dp2788
g62
I3
ssg63
g2782
sg56
(lp2789
g1290
asbasbasbag49
(g65
g51
NtRp2790
(dp2791
g54
(dp2792
sg63
g2576
sg56
(lp2793
g49
(g70
g51
NtRp2794
(dp2795
g54
(dp2796
g74
g75
ssg63
g2790
sg56
(lp2797
S'QUERY_STRING'
p2798
asbag49
(g70
g51
NtRp2799
(dp2800
g54
(dp2801
g81
g82
ssg63
g2790
sg56
(lp2802
S':'
asbag49
(g70
g51
NtRp2803
(dp2804
g54
(dp2805
sg63
g2790
sg56
(lp2806
g49
(g50
g51
NtRp2807
(dp2808
g54
(dp2809
g62
I3
ssg63
g2803
sg56
(lp2810
S''
asbasbasbag49
(g65
g51
NtRp2811
(dp2812
g54
(dp2813
sg63
g2576
sg56
(lp2814
g49
(g70
g51
NtRp2815
(dp2816
g54
(dp2817
g74
g75
ssg63
g2811
sg56
(lp2818
S'REMOTE_ADDR'
p2819
asbag49
(g70
g51
NtRp2820
(dp2821
g54
(dp2822
g81
g82
ssg63
g2811
sg56
(lp2823
S':'
asbag49
(g70
g51
NtRp2824
(dp2825
g54
(dp2826
sg63
g2811
sg56
(lp2827
g49
(g50
g51
NtRp2828
(dp2829
g54
(dp2830
g62
I3
ssg63
g2824
sg56
(lp2831
g204
asbasbasbag49
(g65
g51
NtRp2832
(dp2833
g54
(dp2834
sg63
g2576
sg56
(lp2835
g49
(g70
g51
NtRp2836
(dp2837
g54
(dp2838
g74
g75
ssg63
g2832
sg56
(lp2839
S'REMOTE_PORT'
p2840
asbag49
(g70
g51
NtRp2841
(dp2842
g54
(dp2843
g81
g82
ssg63
g2832
sg56
(lp2844
S':'
asbag49
(g70
g51
NtRp2845
(dp2846
g54
(dp2847
sg63
g2832
sg56
(lp2848
g49
(g50
g51
NtRp2849
(dp2850
g54
(dp2851
g62
I3
ssg63
g2845
sg56
(lp2852
g1354
asbasbasbag49
(g65
g51
NtRp2853
(dp2854
g54
(dp2855
sg63
g2576
sg56
(lp2856
g49
(g70
g51
NtRp2857
(dp2858
g54
(dp2859
g74
g75
ssg63
g2853
sg56
(lp2860
S'REQUEST_METHOD'
p2861
asbag49
(g70
g51
NtRp2862
(dp2863
g54
(dp2864
g81
g82
ssg63
g2853
sg56
(lp2865
S':'
asbag49
(g70
g51
NtRp2866
(dp2867
g54
(dp2868
sg63
g2853
sg56
(lp2869
g49
(g50
g51
NtRp2870
(dp2871
g54
(dp2872
g62
I3
ssg63
g2866
sg56
(lp2873
g1376
asbasbasbag49
(g65
g51
NtRp2874
(dp2875
g54
(dp2876
sg63
g2576
sg56
(lp2877
g49
(g70
g51
NtRp2878
(dp2879
g54
(dp2880
g74
g75
ssg63
g2874
sg56
(lp2881
S'REQUEST_URI'
p2882
asbag49
(g70
g51
NtRp2883
(dp2884
g54
(dp2885
g81
g82
ssg63
g2874
sg56
(lp2886
S':'
asbag49
(g70
g51
NtRp2887
(dp2888
g54
(dp2889
sg63
g2874
sg56
(lp2890
g49
(g50
g51
NtRp2891
(dp2892
g54
(dp2893
g62
I3
ssg63
g2887
sg56
(lp2894
g1290
asbasbasbag49
(g65
g51
NtRp2895
(dp2896
g54
(dp2897
sg63
g2576
sg56
(lp2898
g49
(g70
g51
NtRp2899
(dp2900
g54
(dp2901
g74
g75
ssg63
g2895
sg56
(lp2902
S'SCRIPT_NAME'
p2903
asbag49
(g70
g51
NtRp2904
(dp2905
g54
(dp2906
g81
g82
ssg63
g2895
sg56
(lp2907
S':'
asbag49
(g70
g51
NtRp2908
(dp2909
g54
(dp2910
sg63
g2895
sg56
(lp2911
g49
(g50
g51
NtRp2912
(dp2913
g54
(dp2914
g62
I3
ssg63
g2908
sg56
(lp2915
S''
asbasbasbag49
(g65
g51
NtRp2916
(dp2917
g54
(dp2918
sg63
g2576
sg56
(lp2919
g49
(g70
g51
NtRp2920
(dp2921
g54
(dp2922
g74
g75
ssg63
g2916
sg56
(lp2923
S'SERVER_NAME'
p2924
asbag49
(g70
g51
NtRp2925
(dp2926
g54
(dp2927
g81
g82
ssg63
g2916
sg56
(lp2928
S':'
asbag49
(g70
g51
NtRp2929
(dp2930
g54
(dp2931
sg63
g2916
sg56
(lp2932
g49
(g50
g51
NtRp2933
(dp2934
g54
(dp2935
g62
I3
ssg63
g2929
sg56
(lp2936
g1440
asbasbasbag49
(g65
g51
NtRp2937
(dp2938
g54
(dp2939
sg63
g2576
sg56
(lp2940
g49
(g70
g51
NtRp2941
(dp2942
g54
(dp2943
g74
g75
ssg63
g2937
sg56
(lp2944
S'SERVER_PORT'
p2945
asbag49
(g70
g51
NtRp2946
(dp2947
g54
(dp2948
g81
g82
ssg63
g2937
sg56
(lp2949
S':'
asbag49
(g70
g51
NtRp2950
(dp2951
g54
(dp2952
sg63
g2937
sg56
(lp2953
g49
(g50
g51
NtRp2954
(dp2955
g54
(dp2956
g62
I3
ssg63
g2950
sg56
(lp2957
g1462
asbasbasbag49
(g65
g51
NtRp2958
(dp2959
g54
(dp2960
sg63
g2576
sg56
(lp2961
g49
(g70
g51
NtRp2962
(dp2963
g54
(dp2964
g74
g75
ssg63
g2958
sg56
(lp2965
S'SERVER_PROTOCOL'
p2966
asbag49
(g70
g51
NtRp2967
(dp2968
g54
(dp2969
g81
g82
ssg63
g2958
sg56
(lp2970
S':'
asbag49
(g70
g51
NtRp2971
(dp2972
g54
(dp2973
sg63
g2958
sg56
(lp2974
g49
(g50
g51
NtRp2975
(dp2976
g54
(dp2977
g62
I3
ssg63
g2971
sg56
(lp2978
g1484
asbasbasbag49
(g65
g51
NtRp2979
(dp2980
g54
(dp2981
sg63
g2576
sg56
(lp2982
g49
(g70
g51
NtRp2983
(dp2984
g54
(dp2985
g74
g75
ssg63
g2979
sg56
(lp2986
S'SERVER_SOFTWARE'
p2987
asbag49
(g70
g51
NtRp2988
(dp2989
g54
(dp2990
g81
g82
ssg63
g2979
sg56
(lp2991
S':'
asbag49
(g70
g51
NtRp2992
(dp2993
g54
(dp2994
sg63
g2979
sg56
(lp2995
g49
(g50
g51
NtRp2996
(dp2997
g54
(dp2998
g62
I3
ssg63
g2992
sg56
(lp2999
g1506
asbasbasbag49
(g65
g51
NtRp3000
(dp3001
g54
(dp3002
sg63
g2576
sg56
(lp3003
g49
(g70
g51
NtRp3004
(dp3005
g54
(dp3006
g74
g75
ssg63
g3000
sg56
(lp3007
S'wsgi.errors'
p3008
asbag49
(g70
g51
NtRp3009
(dp3010
g54
(dp3011
g81
g82
ssg63
g3000
sg56
(lp3012
S':'
asbag49
(g70
g51
NtRp3013
(dp3014
g54
(dp3015
sg63
g3000
sg56
(lp3016
g49
(g50
g51
NtRp3017
(dp3018
g54
(dp3019
g62
I3
ssg63
g3013
sg56
(lp3020
S"<open file '<stderr>', mode 'w' at 0x540b0>"
p3021
asbasbasbag49
(g65
g51
NtRp3022
(dp3023
g54
(dp3024
sg63
g2576
sg56
(lp3025
g49
(g70
g51
NtRp3026
(dp3027
g54
(dp3028
g74
g75
ssg63
g3022
sg56
(lp3029
S'wsgi.file_wrapper'
p3030
asbag49
(g70
g51
NtRp3031
(dp3032
g54
(dp3033
g81
g82
ssg63
g3022
sg56
(lp3034
S':'
asbag49
(g70
g51
NtRp3035
(dp3036
g54
(dp3037
sg63
g3022
sg56
(lp3038
g49
(g50
g51
NtRp3039
(dp3040
g54
(dp3041
g62
I3
ssg63
g3035
sg56
(lp3042
S'<class wsgiref.util.FileWrapper at 0x4761060>'
p3043
asbasbasbag49
(g65
g51
NtRp3044
(dp3045
g54
(dp3046
sg63
g2576
sg56
(lp3047
g49
(g70
g51
NtRp3048
(dp3049
g54
(dp3050
g74
g75
ssg63
g3044
sg56
(lp3051
S'wsgi.input'
p3052
asbag49
(g70
g51
NtRp3053
(dp3054
g54
(dp3055
g81
g82
ssg63
g3044
sg56
(lp3056
S':'
asbag49
(g70
g51
NtRp3057
(dp3058
g54
(dp3059
sg63
g3044
sg56
(lp3060
g49
(g50
g51
NtRp3061
(dp3062
g54
(dp3063
g62
I3
ssg63
g3057
sg56
(lp3064
S'<cStringIO.StringO object at 0x93aa8a0>'
p3065
asbasbasbag49
(g65
g51
NtRp3066
(dp3067
g54
(dp3068
sg63
g2576
sg56
(lp3069
g49
(g70
g51
NtRp3070
(dp3071
g54
(dp3072
g74
g75
ssg63
g3066
sg56
(lp3073
S'wsgi.multiprocess'
p3074
asbag49
(g70
g51
NtRp3075
(dp3076
g54
(dp3077
g81
g82
ssg63
g3066
sg56
(lp3078
S':'
asbag49
(g70
g51
NtRp3079
(dp3080
g54
(dp3081
sg63
g3066
sg56
(lp3082
g49
(g50
g51
NtRp3083
(dp3084
g54
(dp3085
g62
I3
ssg63
g3079
sg56
(lp3086
g92
asbasbasbag49
(g65
g51
NtRp3087
(dp3088
g54
(dp3089
sg63
g2576
sg56
(lp3090
g49
(g70
g51
NtRp3091
(dp3092
g54
(dp3093
g74
g75
ssg63
g3087
sg56
(lp3094
S'wsgi.multithread'
p3095
asbag49
(g70
g51
NtRp3096
(dp3097
g54
(dp3098
g81
g82
ssg63
g3087
sg56
(lp3099
S':'
asbag49
(g70
g51
NtRp3100
(dp3101
g54
(dp3102
sg63
g3087
sg56
(lp3103
g49
(g50
g51
NtRp3104
(dp3105
g54
(dp3106
g62
I3
ssg63
g3100
sg56
(lp3107
g916
asbasbasbag49
(g65
g51
NtRp3108
(dp3109
g54
(dp3110
sg63
g2576
sg56
(lp3111
g49
(g70
g51
NtRp3112
(dp3113
g54
(dp3114
g74
g75
ssg63
g3108
sg56
(lp3115
S'wsgi.run_once'
p3116
asbag49
(g70
g51
NtRp3117
(dp3118
g54
(dp3119
g81
g82
ssg63
g3108
sg56
(lp3120
S':'
asbag49
(g70
g51
NtRp3121
(dp3122
g54
(dp3123
sg63
g3108
sg56
(lp3124
g49
(g50
g51
NtRp3125
(dp3126
g54
(dp3127
g62
I3
ssg63
g3121
sg56
(lp3128
g92
asbasbasbag49
(g65
g51
NtRp3129
(dp3130
g54
(dp3131
sg63
g2576
sg56
(lp3132
g49
(g70
g51
NtRp3133
(dp3134
g54
(dp3135
g74
g75
ssg63
g3129
sg56
(lp3136
S'wsgi.url_scheme'
p3137
asbag49
(g70
g51
NtRp3138
(dp3139
g54
(dp3140
g81
g82
ssg63
g3129
sg56
(lp3141
S':'
asbag49
(g70
g51
NtRp3142
(dp3143
g54
(dp3144
sg63
g3129
sg56
(lp3145
g49
(g50
g51
NtRp3146
(dp3147
g54
(dp3148
g62
I3
ssg63
g3142
sg56
(lp3149
g1765
asbasbasbag49
(g65
g51
NtRp3150
(dp3151
g54
(dp3152
sg63
g2576
sg56
(lp3153
g49
(g70
g51
NtRp3154
(dp3155
g54
(dp3156
g74
g75
ssg63
g3150
sg56
(lp3157
S'wsgi.version'
p3158
asbag49
(g70
g51
NtRp3159
(dp3160
g54
(dp3161
g81
g82
ssg63
g3150
sg56
(lp3162
S':'
asbag49
(g70
g51
NtRp3163
(dp3164
g54
(dp3165
sg63
g3150
sg56
(lp3166
g49
(g50
g51
NtRp3167
(dp3168
g54
(dp3169
g62
I3
ssg63
g3163
sg56
(lp3170
S'1'
asbasbasbasbasbasbasbasbasbasbasbasbasbsS'frames'
p3171
(lp3172
(dp3173
S'file'
p3174
S'/home/mdipierro/web2py/gluon/restricted.py'
p3175
sS'dump'
p3176
(dp3177
sS'lnum'
p3178
I212
sS'lines'
p3179
(dp3180
sS'call'
p3181
S'(code=\'# coding: utf8\\n# try something like\\nimport rando...turn "no"\\n\\nresponse._vars=response._caller(show)\\n\', environment={\'A\': <class \'gluon.html.A\'>, \'Auth\': <class \'gluon.tools.Auth\'>, \'B\': <class \'gluon.html.B\'>, \'BEAUTIFY\': <class \'gluon.html.BEAUTIFY\'>, \'BODY\': <class \'gluon.html.BODY\'>, \'BR\': <class \'gluon.html.BR\'>, \'BUTTON\': <class \'gluon.html.BUTTON\'>, \'CAT\': <class \'gluon.html.CAT\'>, \'CENTER\': <class \'gluon.html.CENTER\'>, \'CLEANUP\': <class \'gluon.validators.CLEANUP\'>, ...}, layer=\'/Users/zamechek/Downloads/web2py/web2py.app/Cont...Resources/applications/hellow/controllers/game.py\')'
p3182
sS'func'
p3183
S'restricted'
p3184
sa(dp3185
g3174
S'/Users/zamechek/Downloads/web2py/web2py.app/Contents/Resources/applications/hellow/controllers/game.py'
p3186
sg3176
(dp3187
sg3178
I48
sg3179
(dp3188
I37
S'    if(random.randint(1, 10) > odds):'
p3189
sI38
S"        response.flash = 'You won'"
p3190
sI39
S'        return bet + balance'
p3191
sI40
S'    else:'
p3192
sI41
S"        response.flash = 'You lost'"
p3193
sI42
S'        return balance - bet'
p3194
sI43
S'def isWinner(cb, rb):'
p3195
sI44
S'    if (rb > cb):'
p3196
sI45
S'        return "yes"'
p3197
sI46
S'    else: return "no"'
p3198
ssg3181
S'()'
p3199
sg3183
S'<module>'
p3200
sa(dp3201
g3174
S'/home/mdipierro/web2py/gluon/globals.py'
p3202
sg3176
(dp3203
sg3178
I193
sg3179
(dp3204
sg3181
S'(f=<function show at 0x3b97ef0>)'
p3205
sg3183
S'<lambda>'
p3206
sa(dp3207
g3174
S'/Users/zamechek/Downloads/web2py/web2py.app/Contents/Resources/applications/hellow/controllers/game.py'
p3208
sg3176
(dp3209
sg3178
I8
sg3179
(dp3210
I3
S'import random'
p3211
sI4
S'import datetime'
p3212
sI5
S''
sI6
S''
sI7
S'def show():'
p3213
sI8
S'    id = request.args[0]'
p3214
sI9
S'    game = db.game(id)'
p3215
sI10
S'    auth_user = (game.auth_user)'
p3216
sI11
S''
sI12
S'    query=((db.game.id==db.game_slots.game)&(db.slot.id==db.game_slots.slot))'
p3217
ssg3181
S'()'
p3218
sg3183
S'show'
p3219
sasS'pyver'
p3220
S'Python 2.5.1: /Users/zamechek/Downloads/web2py/web2py.app/Contents/MacOS/python'
p3221
sS'session'
p3222
g49
(g50
g51
NtRp3223
(dp3224
g54
(dp3225
sg56
(lp3226
g49
(g58
g51
NtRp3227
(dp3228
g54
(dp3229
g62
I5
ssg63
Nsg56
(lp3230
g49
(g65
g51
NtRp3231
(dp3232
g54
(dp3233
sg63
g3227
sg56
(lp3234
g49
(g70
g51
NtRp3235
(dp3236
g54
(dp3237
g74
g75
ssg63
g3231
sg56
(lp3238
S'auth'
p3239
asbag49
(g70
g51
NtRp3240
(dp3241
g54
(dp3242
g81
g82
ssg63
g3231
sg56
(lp3243
S':'
asbag49
(g70
g51
NtRp3244
(dp3245
g54
(dp3246
sg63
g3231
sg56
(lp3247
g49
(g50
g51
NtRp3248
(dp3249
g54
(dp3250
g62
I5
ssg63
g3244
sg56
(lp3251
g49
(g58
g51
NtRp3252
(dp3253
g54
(dp3254
g62
I4
ssg63
Nsg56
(lp3255
g49
(g65
g51
NtRp3256
(dp3257
g54
(dp3258
sg63
g3252
sg56
(lp3259
g49
(g70
g51
NtRp3260
(dp3261
g54
(dp3262
g74
g75
ssg63
g3256
sg56
(lp3263
S'expiration'
p3264
asbag49
(g70
g51
NtRp3265
(dp3266
g54
(dp3267
g81
g82
ssg63
g3256
sg56
(lp3268
S':'
asbag49
(g70
g51
NtRp3269
(dp3270
g54
(dp3271
sg63
g3256
sg56
(lp3272
g49
(g50
g51
NtRp3273
(dp3274
g54
(dp3275
g62
I4
ssg63
g3269
sg56
(lp3276
S'3600'
p3277
asbasbasbag49
(g65
g51
NtRp3278
(dp3279
g54
(dp3280
sg63
g3252
sg56
(lp3281
g49
(g70
g51
NtRp3282
(dp3283
g54
(dp3284
g74
g75
ssg63
g3278
sg56
(lp3285
S'hmac_key'
p3286
asbag49
(g70
g51
NtRp3287
(dp3288
g54
(dp3289
g81
g82
ssg63
g3278
sg56
(lp3290
S':'
asbag49
(g70
g51
NtRp3291
(dp3292
g54
(dp3293
sg63
g3278
sg56
(lp3294
g49
(g50
g51
NtRp3295
(dp3296
g54
(dp3297
g62
I4
ssg63
g3291
sg56
(lp3298
S'a61fb62f-c16b-4bd1-9dd4-0b4a4959822c'
p3299
asbasbasbag49
(g65
g51
NtRp3300
(dp3301
g54
(dp3302
sg63
g3252
sg56
(lp3303
g49
(g70
g51
NtRp3304
(dp3305
g54
(dp3306
g74
g75
ssg63
g3300
sg56
(lp3307
S'last_visit'
p3308
asbag49
(g70
g51
NtRp3309
(dp3310
g54
(dp3311
g81
g82
ssg63
g3300
sg56
(lp3312
S':'
asbag49
(g70
g51
NtRp3313
(dp3314
g54
(dp3315
sg63
g3300
sg56
(lp3316
g49
(g50
g51
NtRp3317
(dp3318
g54
(dp3319
g62
I4
ssg63
g3313
sg56
(lp3320
S'datetime.datetime(2013, 3, 29, 12, 35, 58, 577782)'
p3321
asbasbasbag49
(g65
g51
NtRp3322
(dp3323
g54
(dp3324
sg63
g3252
sg56
(lp3325
g49
(g70
g51
NtRp3326
(dp3327
g54
(dp3328
g74
g75
ssg63
g3322
sg56
(lp3329
S'remember'
p3330
asbag49
(g70
g51
NtRp3331
(dp3332
g54
(dp3333
g81
g82
ssg63
g3322
sg56
(lp3334
S':'
asbag49
(g70
g51
NtRp3335
(dp3336
g54
(dp3337
sg63
g3322
sg56
(lp3338
g49
(g50
g51
NtRp3339
(dp3340
g54
(dp3341
g62
I4
ssg63
g3335
sg56
(lp3342
g92
asbasbasbag49
(g65
g51
NtRp3343
(dp3344
g54
(dp3345
sg63
g3252
sg56
(lp3346
g49
(g70
g51
NtRp3347
(dp3348
g54
(dp3349
g74
g75
ssg63
g3343
sg56
(lp3350
S'user'
p3351
asbag49
(g70
g51
NtRp3352
(dp3353
g54
(dp3354
g81
g82
ssg63
g3343
sg56
(lp3355
S':'
asbag49
(g70
g51
NtRp3356
(dp3357
g54
(dp3358
sg63
g3343
sg56
(lp3359
g49
(g50
g51
NtRp3360
(dp3361
g54
(dp3362
g62
I4
ssg63
g3356
sg56
(lp3363
g49
(g58
g51
NtRp3364
(dp3365
g54
(dp3366
g62
I3
ssg63
Nsg56
(lp3367
g49
(g65
g51
NtRp3368
(dp3369
g54
(dp3370
sg63
g3364
sg56
(lp3371
g49
(g70
g51
NtRp3372
(dp3373
g54
(dp3374
g74
g75
ssg63
g3368
sg56
(lp3375
S'email'
p3376
asbag49
(g70
g51
NtRp3377
(dp3378
g54
(dp3379
g81
g82
ssg63
g3368
sg56
(lp3380
S':'
asbag49
(g70
g51
NtRp3381
(dp3382
g54
(dp3383
sg63
g3368
sg56
(lp3384
g49
(g50
g51
NtRp3385
(dp3386
g54
(dp3387
g62
I3
ssg63
g3381
sg56
(lp3388
S'shawnzam@gmail.com'
p3389
asbasbasbag49
(g65
g51
NtRp3390
(dp3391
g54
(dp3392
sg63
g3364
sg56
(lp3393
g49
(g70
g51
NtRp3394
(dp3395
g54
(dp3396
g74
g75
ssg63
g3390
sg56
(lp3397
S'first_name'
p3398
asbag49
(g70
g51
NtRp3399
(dp3400
g54
(dp3401
g81
g82
ssg63
g3390
sg56
(lp3402
S':'
asbag49
(g70
g51
NtRp3403
(dp3404
g54
(dp3405
sg63
g3390
sg56
(lp3406
g49
(g50
g51
NtRp3407
(dp3408
g54
(dp3409
g62
I3
ssg63
g3403
sg56
(lp3410
S'Shawn'
p3411
asbasbasbag49
(g65
g51
NtRp3412
(dp3413
g54
(dp3414
sg63
g3364
sg56
(lp3415
g49
(g70
g51
NtRp3416
(dp3417
g54
(dp3418
g74
g75
ssg63
g3412
sg56
(lp3419
S'id'
p3420
asbag49
(g70
g51
NtRp3421
(dp3422
g54
(dp3423
g81
g82
ssg63
g3412
sg56
(lp3424
S':'
asbag49
(g70
g51
NtRp3425
(dp3426
g54
(dp3427
sg63
g3412
sg56
(lp3428
g49
(g50
g51
NtRp3429
(dp3430
g54
(dp3431
g62
I3
ssg63
g3425
sg56
(lp3432
S'1'
asbasbasbag49
(g65
g51
NtRp3433
(dp3434
g54
(dp3435
sg63
g3364
sg56
(lp3436
g49
(g70
g51
NtRp3437
(dp3438
g54
(dp3439
g74
g75
ssg63
g3433
sg56
(lp3440
S'last_name'
p3441
asbag49
(g70
g51
NtRp3442
(dp3443
g54
(dp3444
g81
g82
ssg63
g3433
sg56
(lp3445
S':'
asbag49
(g70
g51
NtRp3446
(dp3447
g54
(dp3448
sg63
g3433
sg56
(lp3449
g49
(g50
g51
NtRp3450
(dp3451
g54
(dp3452
g62
I3
ssg63
g3446
sg56
(lp3453
S'Zamechek'
p3454
asbasbasbag49
(g65
g51
NtRp3455
(dp3456
g54
(dp3457
sg63
g3364
sg56
(lp3458
g49
(g70
g51
NtRp3459
(dp3460
g54
(dp3461
g74
g75
ssg63
g3455
sg56
(lp3462
S'registration_id'
p3463
asbag49
(g70
g51
NtRp3464
(dp3465
g54
(dp3466
g81
g82
ssg63
g3455
sg56
(lp3467
S':'
asbag49
(g70
g51
NtRp3468
(dp3469
g54
(dp3470
sg63
g3455
sg56
(lp3471
g49
(g50
g51
NtRp3472
(dp3473
g54
(dp3474
g62
I3
ssg63
g3468
sg56
(lp3475
S''
asbasbasbag49
(g65
g51
NtRp3476
(dp3477
g54
(dp3478
sg63
g3364
sg56
(lp3479
g49
(g70
g51
NtRp3480
(dp3481
g54
(dp3482
g74
g75
ssg63
g3476
sg56
(lp3483
S'registration_key'
p3484
asbag49
(g70
g51
NtRp3485
(dp3486
g54
(dp3487
g81
g82
ssg63
g3476
sg56
(lp3488
S':'
asbag49
(g70
g51
NtRp3489
(dp3490
g54
(dp3491
sg63
g3476
sg56
(lp3492
g49
(g50
g51
NtRp3493
(dp3494
g54
(dp3495
g62
I3
ssg63
g3489
sg56
(lp3496
S''
asbasbasbag49
(g65
g51
NtRp3497
(dp3498
g54
(dp3499
sg63
g3364
sg56
(lp3500
g49
(g70
g51
NtRp3501
(dp3502
g54
(dp3503
g74
g75
ssg63
g3497
sg56
(lp3504
S'reset_password_key'
p3505
asbag49
(g70
g51
NtRp3506
(dp3507
g54
(dp3508
g81
g82
ssg63
g3497
sg56
(lp3509
S':'
asbag49
(g70
g51
NtRp3510
(dp3511
g54
(dp3512
sg63
g3497
sg56
(lp3513
g49
(g50
g51
NtRp3514
(dp3515
g54
(dp3516
g62
I3
ssg63
g3510
sg56
(lp3517
S''
asbasbasbasbasbasbasbag49
(g65
g51
NtRp3518
(dp3519
g54
(dp3520
sg63
g3252
sg56
(lp3521
g49
(g70
g51
NtRp3522
(dp3523
g54
(dp3524
g74
g75
ssg63
g3518
sg56
(lp3525
S'user_groups'
p3526
asbag49
(g70
g51
NtRp3527
(dp3528
g54
(dp3529
g81
g82
ssg63
g3518
sg56
(lp3530
S':'
asbag49
(g70
g51
NtRp3531
(dp3532
g54
(dp3533
sg63
g3518
sg56
(lp3534
g49
(g50
g51
NtRp3535
(dp3536
g54
(dp3537
g62
I4
ssg63
g3531
sg56
(lp3538
g49
(g58
g51
NtRp3539
(dp3540
g54
(dp3541
g62
I3
ssg63
Nsg56
(lp3542
g49
(g65
g51
NtRp3543
(dp3544
g54
(dp3545
sg63
g3539
sg56
(lp3546
g49
(g70
g51
NtRp3547
(dp3548
g54
(dp3549
g74
g75
ssg63
g3543
sg56
(lp3550
S'1'
asbag49
(g70
g51
NtRp3551
(dp3552
g54
(dp3553
g81
g82
ssg63
g3543
sg56
(lp3554
S':'
asbag49
(g70
g51
NtRp3555
(dp3556
g54
(dp3557
sg63
g3543
sg56
(lp3558
g49
(g50
g51
NtRp3559
(dp3560
g54
(dp3561
g62
I3
ssg63
g3555
sg56
(lp3562
S'admin'
p3563
asbasbasbasbasbasbasbasbasbasbasbag49
(g65
g51
NtRp3564
(dp3565
g54
(dp3566
sg63
g3227
sg56
(lp3567
g49
(g70
g51
NtRp3568
(dp3569
g54
(dp3570
g74
g75
ssg63
g3564
sg56
(lp3571
S'flash'
p3572
asbag49
(g70
g51
NtRp3573
(dp3574
g54
(dp3575
g81
g82
ssg63
g3564
sg56
(lp3576
S':'
asbag49
(g70
g51
NtRp3577
(dp3578
g54
(dp3579
sg63
g3564
sg56
(lp3580
g49
(g50
g51
NtRp3581
(dp3582
g54
(dp3583
g62
I5
ssg63
g3577
sg56
(lp3584
S'None'
p3585
asbasbasbag49
(g65
g51
NtRp3586
(dp3587
g54
(dp3588
sg63
g3227
sg56
(lp3589
g49
(g70
g51
NtRp3590
(dp3591
g54
(dp3592
g74
g75
ssg63
g3586
sg56
(lp3593
S'last_orderby'
p3594
asbag49
(g70
g51
NtRp3595
(dp3596
g54
(dp3597
g81
g82
ssg63
g3586
sg56
(lp3598
S':'
asbag49
(g70
g51
NtRp3599
(dp3600
g54
(dp3601
sg63
g3586
sg56
(lp3602
g49
(g50
g51
NtRp3603
(dp3604
g54
(dp3605
g62
I5
ssg63
g3599
sg56
(lp3606
S'None'
p3607
asbasbasbag49
(g65
g51
NtRp3608
(dp3609
g54
(dp3610
sg63
g3227
sg56
(lp3611
g49
(g70
g51
NtRp3612
(dp3613
g54
(dp3614
g74
g75
ssg63
g3608
sg56
(lp3615
S'last_query'
p3616
asbag49
(g70
g51
NtRp3617
(dp3618
g54
(dp3619
g81
g82
ssg63
g3608
sg56
(lp3620
S':'
asbag49
(g70
g51
NtRp3621
(dp3622
g54
(dp3623
sg63
g3608
sg56
(lp3624
g49
(g50
g51
NtRp3625
(dp3626
g54
(dp3627
g62
I5
ssg63
g3621
sg56
(lp3628
S'db.user_action.id>0'
p3629
asbasbasbasbasbsS'etype'
p3630
S"<type 'exceptions.IndexError'>"
p3631
sS'date'
p3632
S'Fri Mar 29 12:35:58 2013'
p3633
sS'response'
p3634
g49
(g50
g51
NtRp3635
(dp3636
g54
(dp3637
sg56
(lp3638
g49
(g58
g51
NtRp3639
(dp3640
g54
(dp3641
g62
I5
ssg63
Nsg56
(lp3642
g49
(g65
g51
NtRp3643
(dp3644
g54
(dp3645
sg63
g3639
sg56
(lp3646
g49
(g70
g51
NtRp3647
(dp3648
g54
(dp3649
g74
g75
ssg63
g3643
sg56
(lp3650
g147
asbag49
(g70
g51
NtRp3651
(dp3652
g54
(dp3653
g81
g82
ssg63
g3643
sg56
(lp3654
S':'
asbag49
(g70
g51
NtRp3655
(dp3656
g54
(dp3657
sg63
g3643
sg56
(lp3658
g49
(g50
g51
NtRp3659
(dp3660
g54
(dp3661
g62
I5
ssg63
g3655
sg56
(lp3662
S'<cStringIO.StringO object at 0x806fdc0>'
p3663
asbasbasbag49
(g65
g51
NtRp3664
(dp3665
g54
(dp3666
sg63
g3639
sg56
(lp3667
g49
(g70
g51
NtRp3668
(dp3669
g54
(dp3670
g74
g75
ssg63
g3664
sg56
(lp3671
g235
asbag49
(g70
g51
NtRp3672
(dp3673
g54
(dp3674
g81
g82
ssg63
g3664
sg56
(lp3675
S':'
asbag49
(g70
g51
NtRp3676
(dp3677
g54
(dp3678
sg63
g3664
sg56
(lp3679
g49
(g50
g51
NtRp3680
(dp3681
g54
(dp3682
g62
I5
ssg63
g3676
sg56
(lp3683
g49
(g58
g51
NtRp3684
(dp3685
g54
(dp3686
g62
I4
ssg63
Nsg56
(lp3687
g49
(g65
g51
NtRp3688
(dp3689
g54
(dp3690
sg63
g3684
sg56
(lp3691
g49
(g70
g51
NtRp3692
(dp3693
g54
(dp3694
g74
g75
ssg63
g3688
sg56
(lp3695
S'session_id_hellow'
p3696
asbag49
(g70
g51
NtRp3697
(dp3698
g54
(dp3699
g81
g82
ssg63
g3688
sg56
(lp3700
S':'
asbag49
(g70
g51
NtRp3701
(dp3702
g54
(dp3703
sg63
g3688
sg56
(lp3704
g49
(g50
g51
NtRp3705
(dp3706
g54
(dp3707
g62
I4
ssg63
g3701
sg56
(lp3708
g446
ag49
(g58
g51
NtRp3709
(dp3710
g54
(dp3711
g62
I3
ssg63
Nsg56
(lp3712
g49
(g65
g51
NtRp3713
(dp3714
g54
(dp3715
sg63
g3709
sg56
(lp3716
g49
(g70
g51
NtRp3717
(dp3718
g54
(dp3719
g74
g75
ssg63
g3713
sg56
(lp3720
g286
asbag49
(g70
g51
NtRp3721
(dp3722
g54
(dp3723
g81
g82
ssg63
g3713
sg56
(lp3724
S':'
asbag49
(g70
g51
NtRp3725
(dp3726
g54
(dp3727
sg63
g3713
sg56
(lp3728
g49
(g50
g51
NtRp3729
(dp3730
g54
(dp3731
g62
I3
ssg63
g3725
sg56
(lp3732
S''
asbasbasbag49
(g65
g51
NtRp3733
(dp3734
g54
(dp3735
sg63
g3709
sg56
(lp3736
g49
(g70
g51
NtRp3737
(dp3738
g54
(dp3739
g74
g75
ssg63
g3733
sg56
(lp3740
g307
asbag49
(g70
g51
NtRp3741
(dp3742
g54
(dp3743
g81
g82
ssg63
g3733
sg56
(lp3744
S':'
asbag49
(g70
g51
NtRp3745
(dp3746
g54
(dp3747
sg63
g3733
sg56
(lp3748
g49
(g50
g51
NtRp3749
(dp3750
g54
(dp3751
g62
I3
ssg63
g3745
sg56
(lp3752
S''
asbasbasbag49
(g65
g51
NtRp3753
(dp3754
g54
(dp3755
sg63
g3709
sg56
(lp3756
g49
(g70
g51
NtRp3757
(dp3758
g54
(dp3759
g74
g75
ssg63
g3753
sg56
(lp3760
g328
asbag49
(g70
g51
NtRp3761
(dp3762
g54
(dp3763
g81
g82
ssg63
g3753
sg56
(lp3764
S':'
asbag49
(g70
g51
NtRp3765
(dp3766
g54
(dp3767
sg63
g3753
sg56
(lp3768
g49
(g50
g51
NtRp3769
(dp3770
g54
(dp3771
g62
I3
ssg63
g3765
sg56
(lp3772
S''
asbasbasbag49
(g65
g51
NtRp3773
(dp3774
g54
(dp3775
sg63
g3709
sg56
(lp3776
g49
(g70
g51
NtRp3777
(dp3778
g54
(dp3779
g74
g75
ssg63
g3773
sg56
(lp3780
g349
asbag49
(g70
g51
NtRp3781
(dp3782
g54
(dp3783
g81
g82
ssg63
g3773
sg56
(lp3784
S':'
asbag49
(g70
g51
NtRp3785
(dp3786
g54
(dp3787
sg63
g3773
sg56
(lp3788
g49
(g50
g51
NtRp3789
(dp3790
g54
(dp3791
g62
I3
ssg63
g3785
sg56
(lp3792
S''
asbasbasbag49
(g65
g51
NtRp3793
(dp3794
g54
(dp3795
sg63
g3709
sg56
(lp3796
g49
(g70
g51
NtRp3797
(dp3798
g54
(dp3799
g74
g75
ssg63
g3793
sg56
(lp3800
g370
asbag49
(g70
g51
NtRp3801
(dp3802
g54
(dp3803
g81
g82
ssg63
g3793
sg56
(lp3804
S':'
asbag49
(g70
g51
NtRp3805
(dp3806
g54
(dp3807
sg63
g3793
sg56
(lp3808
g49
(g50
g51
NtRp3809
(dp3810
g54
(dp3811
g62
I3
ssg63
g3805
sg56
(lp3812
S'/'
asbasbasbag49
(g65
g51
NtRp3813
(dp3814
g54
(dp3815
sg63
g3709
sg56
(lp3816
g49
(g70
g51
NtRp3817
(dp3818
g54
(dp3819
g74
g75
ssg63
g3813
sg56
(lp3820
g391
asbag49
(g70
g51
NtRp3821
(dp3822
g54
(dp3823
g81
g82
ssg63
g3813
sg56
(lp3824
S':'
asbag49
(g70
g51
NtRp3825
(dp3826
g54
(dp3827
sg63
g3813
sg56
(lp3828
g49
(g50
g51
NtRp3829
(dp3830
g54
(dp3831
g62
I3
ssg63
g3825
sg56
(lp3832
S''
asbasbasbag49
(g65
g51
NtRp3833
(dp3834
g54
(dp3835
sg63
g3709
sg56
(lp3836
g49
(g70
g51
NtRp3837
(dp3838
g54
(dp3839
g74
g75
ssg63
g3833
sg56
(lp3840
g412
asbag49
(g70
g51
NtRp3841
(dp3842
g54
(dp3843
g81
g82
ssg63
g3833
sg56
(lp3844
S':'
asbag49
(g70
g51
NtRp3845
(dp3846
g54
(dp3847
sg63
g3833
sg56
(lp3848
g49
(g50
g51
NtRp3849
(dp3850
g54
(dp3851
g62
I3
ssg63
g3845
sg56
(lp3852
S''
asbasbasbasbasbasbasbasbasbasbasbag49
(g65
g51
NtRp3853
(dp3854
g54
(dp3855
sg63
g3639
sg56
(lp3856
g49
(g70
g51
NtRp3857
(dp3858
g54
(dp3859
g74
g75
ssg63
g3853
sg56
(lp3860
S'delimiters'
p3861
asbag49
(g70
g51
NtRp3862
(dp3863
g54
(dp3864
g81
g82
ssg63
g3853
sg56
(lp3865
S':'
asbag49
(g70
g51
NtRp3866
(dp3867
g54
(dp3868
sg63
g3853
sg56
(lp3869
g49
(g50
g51
NtRp3870
(dp3871
g54
(dp3872
g62
I5
ssg63
g3866
sg56
(lp3873
g49
(g58
g51
NtRp3874
(dp3875
g54
(dp3876
g62
I4
ssg63
Nsg56
(lp3877
g49
(g65
g51
NtRp3878
(dp3879
g54
(dp3880
sg63
g3874
sg56
(lp3881
g49
(g70
g51
NtRp3882
(dp3883
g54
(dp3884
sg63
g3878
sg56
(lp3885
g49
(g50
g51
NtRp3886
(dp3887
g54
(dp3888
g62
I4
ssg63
g3882
sg56
(lp3889
S'{{'
p3890
asbasbasbag49
(g65
g51
NtRp3891
(dp3892
g54
(dp3893
sg63
g3874
sg56
(lp3894
g49
(g70
g51
NtRp3895
(dp3896
g54
(dp3897
sg63
g3891
sg56
(lp3898
g49
(g50
g51
NtRp3899
(dp3900
g54
(dp3901
g62
I4
ssg63
g3895
sg56
(lp3902
S'}}'
p3903
asbasbasbasbasbasbasbag49
(g65
g51
NtRp3904
(dp3905
g54
(dp3906
sg63
g3639
sg56
(lp3907
g49
(g70
g51
NtRp3908
(dp3909
g54
(dp3910
g74
g75
ssg63
g3904
sg56
(lp3911
S'files'
p3912
asbag49
(g70
g51
NtRp3913
(dp3914
g54
(dp3915
g81
g82
ssg63
g3904
sg56
(lp3916
S':'
asbag49
(g70
g51
NtRp3917
(dp3918
g54
(dp3919
sg63
g3904
sg56
(lp3920
g49
(g50
g51
NtRp3921
(dp3922
g54
(dp3923
g62
I5
ssg63
g3917
sg56
(lp3924
g49
(g58
g51
NtRp3925
(dp3926
g54
(dp3927
g62
I4
ssg63
Nsg56
(lp3928
sbasbasbasbag49
(g65
g51
NtRp3929
(dp3930
g54
(dp3931
sg63
g3639
sg56
(lp3932
g49
(g70
g51
NtRp3933
(dp3934
g54
(dp3935
g74
g75
ssg63
g3929
sg56
(lp3936
S'flash'
p3937
asbag49
(g70
g51
NtRp3938
(dp3939
g54
(dp3940
g81
g82
ssg63
g3929
sg56
(lp3941
S':'
asbag49
(g70
g51
NtRp3942
(dp3943
g54
(dp3944
sg63
g3929
sg56
(lp3945
g49
(g50
g51
NtRp3946
(dp3947
g54
(dp3948
g62
I5
ssg63
g3942
sg56
(lp3949
S''
asbasbasbag49
(g65
g51
NtRp3950
(dp3951
g54
(dp3952
sg63
g3639
sg56
(lp3953
g49
(g70
g51
NtRp3954
(dp3955
g54
(dp3956
g74
g75
ssg63
g3950
sg56
(lp3957
S'generic_patterns'
p3958
asbag49
(g70
g51
NtRp3959
(dp3960
g54
(dp3961
g81
g82
ssg63
g3950
sg56
(lp3962
S':'
asbag49
(g70
g51
NtRp3963
(dp3964
g54
(dp3965
sg63
g3950
sg56
(lp3966
g49
(g50
g51
NtRp3967
(dp3968
g54
(dp3969
g62
I5
ssg63
g3963
sg56
(lp3970
g49
(g58
g51
NtRp3971
(dp3972
g54
(dp3973
g62
I4
ssg63
Nsg56
(lp3974
g49
(g65
g51
NtRp3975
(dp3976
g54
(dp3977
sg63
g3971
sg56
(lp3978
g49
(g70
g51
NtRp3979
(dp3980
g54
(dp3981
sg63
g3975
sg56
(lp3982
g49
(g50
g51
NtRp3983
(dp3984
g54
(dp3985
g62
I4
ssg63
g3979
sg56
(lp3986
S'*'
asbasbasbasbasbasbasbag49
(g65
g51
NtRp3987
(dp3988
g54
(dp3989
sg63
g3639
sg56
(lp3990
g49
(g70
g51
NtRp3991
(dp3992
g54
(dp3993
g74
g75
ssg63
g3987
sg56
(lp3994
S'google_analytics_id'
p3995
asbag49
(g70
g51
NtRp3996
(dp3997
g54
(dp3998
g81
g82
ssg63
g3987
sg56
(lp3999
S':'
asbag49
(g70
g51
NtRp4000
(dp4001
g54
(dp4002
sg63
g3987
sg56
(lp4003
g49
(g50
g51
NtRp4004
(dp4005
g54
(dp4006
g62
I5
ssg63
g4000
sg56
(lp4007
S'None'
p4008
asbasbasbag49
(g65
g51
NtRp4009
(dp4010
g54
(dp4011
sg63
g3639
sg56
(lp4012
g49
(g70
g51
NtRp4013
(dp4014
g54
(dp4015
g74
g75
ssg63
g4009
sg56
(lp4016
S'headers'
p4017
asbag49
(g70
g51
NtRp4018
(dp4019
g54
(dp4020
g81
g82
ssg63
g4009
sg56
(lp4021
S':'
asbag49
(g70
g51
NtRp4022
(dp4023
g54
(dp4024
sg63
g4009
sg56
(lp4025
g49
(g50
g51
NtRp4026
(dp4027
g54
(dp4028
g62
I5
ssg63
g4022
sg56
(lp4029
g49
(g58
g51
NtRp4030
(dp4031
g54
(dp4032
g62
I4
ssg63
Nsg56
(lp4033
g49
(g65
g51
NtRp4034
(dp4035
g54
(dp4036
sg63
g4030
sg56
(lp4037
g49
(g70
g51
NtRp4038
(dp4039
g54
(dp4040
g74
g75
ssg63
g4034
sg56
(lp4041
S'X-Powered-By'
p4042
asbag49
(g70
g51
NtRp4043
(dp4044
g54
(dp4045
g81
g82
ssg63
g4034
sg56
(lp4046
S':'
asbag49
(g70
g51
NtRp4047
(dp4048
g54
(dp4049
sg63
g4034
sg56
(lp4050
g49
(g50
g51
NtRp4051
(dp4052
g54
(dp4053
g62
I4
ssg63
g4047
sg56
(lp4054
S'web2py'
p4055
asbasbasbasbasbasbasbag49
(g65
g51
NtRp4056
(dp4057
g54
(dp4058
sg63
g3639
sg56
(lp4059
g49
(g70
g51
NtRp4060
(dp4061
g54
(dp4062
g74
g75
ssg63
g4056
sg56
(lp4063
S'logo'
p4064
asbag49
(g70
g51
NtRp4065
(dp4066
g54
(dp4067
g81
g82
ssg63
g4056
sg56
(lp4068
S':'
asbag49
(g70
g51
NtRp4069
(dp4070
g54
(dp4071
sg63
g4056
sg56
(lp4072
g49
(g50
g51
NtRp4073
(dp4074
g54
(dp4075
g62
I5
ssg63
g4069
sg56
(lp4076
g49
(cgluon.html
A
p4077
g51
NtRp4078
(dp4079
g54
(dp4080
S'_class'
p4081
S'brand'
p4082
sS'_href'
p4083
S'http://www.web2py.com/'
p4084
ssg63
Nsg56
(lp4085
g49
(cgluon.html
B
p4086
g51
NtRp4087
(dp4088
g54
(dp4089
sg63
g4078
sg56
(lp4090
S'web'
p4091
ag49
(cgluon.html
SPAN
p4092
g51
NtRp4093
(dp4094
g54
(dp4095
sg63
g4087
sg56
(lp4096
I2
asbaS'py'
p4097
asbacgluon.html
XML_unpickle
p4098
(S's\r\x00\x00\x00&trade;&nbsp;'
tRp4099
asbasbasbasbag49
(g65
g51
NtRp4100
(dp4101
g54
(dp4102
sg63
g3639
sg56
(lp4103
g49
(g70
g51
NtRp4104
(dp4105
g54
(dp4106
g74
g75
ssg63
g4100
sg56
(lp4107
S'menu'
p4108
asbag49
(g70
g51
NtRp4109
(dp4110
g54
(dp4111
g81
g82
ssg63
g4100
sg56
(lp4112
S':'
asbag49
(g70
g51
NtRp4113
(dp4114
g54
(dp4115
sg63
g4100
sg56
(lp4116
g49
(g50
g51
NtRp4117
(dp4118
g54
(dp4119
g62
I5
ssg63
g4113
sg56
(lp4120
g49
(g58
g51
NtRp4121
(dp4122
g54
(dp4123
g62
I4
ssg63
Nsg56
(lp4124
g49
(g65
g51
NtRp4125
(dp4126
g54
(dp4127
sg63
g4121
sg56
(lp4128
g49
(g70
g51
NtRp4129
(dp4130
g54
(dp4131
sg63
g4125
sg56
(lp4132
g49
(g50
g51
NtRp4133
(dp4134
g54
(dp4135
g62
I4
ssg63
g4129
sg56
(lp4136
g49
(g58
g51
NtRp4137
(dp4138
g54
(dp4139
g62
I3
ssg63
Nsg56
(lp4140
g49
(g65
g51
NtRp4141
(dp4142
g54
(dp4143
sg63
g4137
sg56
(lp4144
g49
(g70
g51
NtRp4145
(dp4146
g54
(dp4147
sg63
g4141
sg56
(lp4148
g49
(g50
g51
NtRp4149
(dp4150
g54
(dp4151
g62
I3
ssg63
g4145
sg56
(lp4152
cgluon.languages
lazyT_unpickle
p4153
(S't\x04\x00\x00\x00Home'
tRp4154
asbasbasbag49
(g65
g51
NtRp4155
(dp4156
g54
(dp4157
sg63
g4137
sg56
(lp4158
g49
(g70
g51
NtRp4159
(dp4160
g54
(dp4161
sg63
g4155
sg56
(lp4162
g49
(g50
g51
NtRp4163
(dp4164
g54
(dp4165
g62
I3
ssg63
g4159
sg56
(lp4166
g92
asbasbasbag49
(g65
g51
NtRp4167
(dp4168
g54
(dp4169
sg63
g4137
sg56
(lp4170
g49
(g70
g51
NtRp4171
(dp4172
g54
(dp4173
sg63
g4167
sg56
(lp4174
g49
(g50
g51
NtRp4175
(dp4176
g54
(dp4177
g62
I3
ssg63
g4171
sg56
(lp4178
S'/hellow/default/index'
p4179
asbasbasbag49
(g65
g51
NtRp4180
(dp4181
g54
(dp4182
sg63
g4137
sg56
(lp4183
g49
(g70
g51
NtRp4184
(dp4185
g54
(dp4186
sg63
g4180
sg56
(lp4187
g49
(g50
g51
NtRp4188
(dp4189
g54
(dp4190
g62
I3
ssg63
g4184
sg56
(lp4191
g49
(g58
g51
NtRp4192
(dp4193
g54
(dp4194
g62
I2
ssg63
Nsg56
(lp4195
sbasbasbasbasbasbasbasbag49
(g65
g51
NtRp4196
(dp4197
g54
(dp4198
sg63
g4121
sg56
(lp4199
g49
(g70
g51
NtRp4200
(dp4201
g54
(dp4202
sg63
g4196
sg56
(lp4203
g49
(g50
g51
NtRp4204
(dp4205
g54
(dp4206
g62
I4
ssg63
g4200
sg56
(lp4207
g49
(g58
g51
NtRp4208
(dp4209
g54
(dp4210
g62
I3
ssg63
Nsg56
(lp4211
g49
(g65
g51
NtRp4212
(dp4213
g54
(dp4214
sg63
g4208
sg56
(lp4215
g49
(g70
g51
NtRp4216
(dp4217
g54
(dp4218
sg63
g4212
sg56
(lp4219
g49
(g50
g51
NtRp4220
(dp4221
g54
(dp4222
g62
I3
ssg63
g4216
sg56
(lp4223
g49
(g4092
g51
NtRp4224
(dp4225
g54
(dp4226
g4081
S'highlighted'
p4227
ssg63
Nsg56
(lp4228
g4055
asbasbasbasbag49
(g65
g51
NtRp4229
(dp4230
g54
(dp4231
sg63
g4208
sg56
(lp4232
g49
(g70
g51
NtRp4233
(dp4234
g54
(dp4235
sg63
g4229
sg56
(lp4236
g49
(g50
g51
NtRp4237
(dp4238
g54
(dp4239
g62
I3
ssg63
g4233
sg56
(lp4240
g92
asbasbasbag49
(g65
g51
NtRp4241
(dp4242
g54
(dp4243
sg63
g4208
sg56
(lp4244
g49
(g70
g51
NtRp4245
(dp4246
g54
(dp4247
sg63
g4241
sg56
(lp4248
g49
(g50
g51
NtRp4249
(dp4250
g54
(dp4251
g62
I3
ssg63
g4245
sg56
(lp4252
S'http://web2py.com'
p4253
asbasbasbag49
(g65
g51
NtRp4254
(dp4255
g54
(dp4256
sg63
g4208
sg56
(lp4257
g49
(g70
g51
NtRp4258
(dp4259
g54
(dp4260
sg63
g4254
sg56
(lp4261
g49
(g50
g51
NtRp4262
(dp4263
g54
(dp4264
g62
I3
ssg63
g4258
sg56
(lp4265
g49
(g58
g51
NtRp4266
(dp4267
g54
(dp4268
g62
I2
ssg63
Nsg56
(lp4269
g49
(g65
g51
NtRp4270
(dp4271
g54
(dp4272
sg63
g4266
sg56
(lp4273
g49
(g70
g51
NtRp4274
(dp4275
g54
(dp4276
sg63
g4270
sg56
(lp4277
g49
(g50
g51
NtRp4278
(dp4279
g54
(dp4280
g62
I2
ssg63
g4274
sg56
(lp4281
g49
(g58
g51
NtRp4282
(dp4283
g54
(dp4284
g62
I1
ssg63
Nsg56
(lp4285
g49
(g65
g51
NtRp4286
(dp4287
g54
(dp4288
sg63
g4282
sg56
(lp4289
g49
(g70
g51
NtRp4290
(dp4291
g54
(dp4292
sg63
g4286
sg56
(lp4293
g49
(g50
g51
NtRp4294
(dp4295
g54
(dp4296
g62
I1
ssg63
g4290
sg56
(lp4297
g4153
(S's\x08\x00\x00\x00My Sites'
tRp4298
asbasbasbag49
(g65
g51
NtRp4299
(dp4300
g54
(dp4301
sg63
g4282
sg56
(lp4302
g49
(g70
g51
NtRp4303
(dp4304
g54
(dp4305
sg63
g4299
sg56
(lp4306
g49
(g50
g51
NtRp4307
(dp4308
g54
(dp4309
g62
I1
ssg63
g4303
sg56
(lp4310
I00
asbasbasbag49
(g65
g51
NtRp4311
(dp4312
g54
(dp4313
sg63
g4282
sg56
(lp4314
g49
(g70
g51
NtRp4315
(dp4316
g54
(dp4317
sg63
g4311
sg56
(lp4318
g49
(g50
g51
NtRp4319
(dp4320
g54
(dp4321
g62
I1
ssg63
g4315
sg56
(lp4322
S'/admin/default/site'
p4323
asbasbasbasbasbasbasbag49
(g65
g51
NtRp4324
(dp4325
g54
(dp4326
sg63
g4266
sg56
(lp4327
g49
(g70
g51
NtRp4328
(dp4329
g54
(dp4330
sg63
g4324
sg56
(lp4331
g49
(g50
g51
NtRp4332
(dp4333
g54
(dp4334
g62
I2
ssg63
g4328
sg56
(lp4335
g49
(g58
g51
NtRp4336
(dp4337
g54
(dp4338
g62
I1
ssg63
Nsg56
(lp4339
g49
(g65
g51
NtRp4340
(dp4341
g54
(dp4342
sg63
g4336
sg56
(lp4343
g49
(g70
g51
NtRp4344
(dp4345
g54
(dp4346
sg63
g4340
sg56
(lp4347
g49
(g50
g51
NtRp4348
(dp4349
g54
(dp4350
g62
I1
ssg63
g4344
sg56
(lp4351
g4153
(S's\x08\x00\x00\x00This App'
tRp4352
asbasbasbag49
(g65
g51
NtRp4353
(dp4354
g54
(dp4355
sg63
g4336
sg56
(lp4356
g49
(g70
g51
NtRp4357
(dp4358
g54
(dp4359
sg63
g4353
sg56
(lp4360
g49
(g50
g51
NtRp4361
(dp4362
g54
(dp4363
g62
I1
ssg63
g4357
sg56
(lp4364
I00
asbasbasbag49
(g65
g51
NtRp4365
(dp4366
g54
(dp4367
sg63
g4336
sg56
(lp4368
g49
(g70
g51
NtRp4369
(dp4370
g54
(dp4371
sg63
g4365
sg56
(lp4372
g49
(g50
g51
NtRp4373
(dp4374
g54
(dp4375
g62
I1
ssg63
g4369
sg56
(lp4376
S'/admin/default/design/hellow'
p4377
asbasbasbag49
(g65
g51
NtRp4378
(dp4379
g54
(dp4380
sg63
g4336
sg56
(lp4381
g49
(g70
g51
NtRp4382
(dp4383
g54
(dp4384
sg63
g4378
sg56
(lp4385
g49
(g50
g51
NtRp4386
(dp4387
g54
(dp4388
g62
I1
ssg63
g4382
sg56
(lp4389
(lp4390
(g4153
(S't\n\x00\x00\x00Controller'
tRp4391
I00
S'/admin/default/edit/hellow/controllers/game.py'
tp4392
a(g4153
(S't\x04\x00\x00\x00View'
tRp4393
I00
S'/admin/default/edit/hellow/views/game/show.html'
tp4394
a(g4153
(S't\x06\x00\x00\x00Layout'
tRp4395
I00
S'/admin/default/edit/hellow/views/layout.html'
tp4396
a(g4153
(S't\n\x00\x00\x00Stylesheet'
tRp4397
I00
S'/admin/default/edit/hellow/static/css/web2py.css'
tp4398
a(g4153
(S's\x08\x00\x00\x00DB Model'
tRp4399
I00
S'/admin/default/edit/hellow/models/db.py'
tp4400
a(g4153
(S's\n\x00\x00\x00Menu Model'
tRp4401
I00
S'/admin/default/edit/hellow/models/menu.py'
tp4402
a(g4153
(S't\x08\x00\x00\x00Database'
tRp4403
I00
S'/hellow/appadmin/index'
tp4404
a(g4153
(S't\x06\x00\x00\x00Errors'
tRp4405
I00
S'/admin/default/errors/hellow'
tp4406
a(g4153
(S't\x05\x00\x00\x00About'
tRp4407
I00
S'/admin/default/about/hellow'
tp4408
aasbasbasbasbasbasbasbag49
(g65
g51
NtRp4409
(dp4410
g54
(dp4411
sg63
g4266
sg56
(lp4412
g49
(g70
g51
NtRp4413
(dp4414
g54
(dp4415
sg63
g4409
sg56
(lp4416
g49
(g50
g51
NtRp4417
(dp4418
g54
(dp4419
g62
I2
ssg63
g4413
sg56
(lp4420
g49
(g58
g51
NtRp4421
(dp4422
g54
(dp4423
g62
I1
ssg63
Nsg56
(lp4424
g49
(g65
g51
NtRp4425
(dp4426
g54
(dp4427
sg63
g4421
sg56
(lp4428
g49
(g70
g51
NtRp4429
(dp4430
g54
(dp4431
sg63
g4425
sg56
(lp4432
g49
(g50
g51
NtRp4433
(dp4434
g54
(dp4435
g62
I1
ssg63
g4429
sg56
(lp4436
S'web2py.com'
p4437
asbasbasbag49
(g65
g51
NtRp4438
(dp4439
g54
(dp4440
sg63
g4421
sg56
(lp4441
g49
(g70
g51
NtRp4442
(dp4443
g54
(dp4444
sg63
g4438
sg56
(lp4445
g49
(g50
g51
NtRp4446
(dp4447
g54
(dp4448
g62
I1
ssg63
g4442
sg56
(lp4449
I00
asbasbasbag49
(g65
g51
NtRp4450
(dp4451
g54
(dp4452
sg63
g4421
sg56
(lp4453
g49
(g70
g51
NtRp4454
(dp4455
g54
(dp4456
sg63
g4450
sg56
(lp4457
g49
(g50
g51
NtRp4458
(dp4459
g54
(dp4460
g62
I1
ssg63
g4454
sg56
(lp4461
S'http://www.web2py.com'
p4462
asbasbasbag49
(g65
g51
NtRp4463
(dp4464
g54
(dp4465
sg63
g4421
sg56
(lp4466
g49
(g70
g51
NtRp4467
(dp4468
g54
(dp4469
sg63
g4463
sg56
(lp4470
g49
(g50
g51
NtRp4471
(dp4472
g54
(dp4473
g62
I1
ssg63
g4467
sg56
(lp4474
(lp4475
(g4153
(S't\x08\x00\x00\x00Download'
tRp4476
I00
S'http://www.web2py.com/examples/default/download'
p4477
tp4478
a(g4153
(S't\x07\x00\x00\x00Support'
tRp4479
I00
S'http://www.web2py.com/examples/default/support'
p4480
tp4481
a(g4153
(S't\x04\x00\x00\x00Demo'
tRp4482
I00
S'http://web2py.com/demo_admin'
p4483
tp4484
a(g4153
(S's\x0e\x00\x00\x00Quick Examples'
tRp4485
I00
S'http://web2py.com/examples/default/examples'
p4486
tp4487
a(g4153
(S't\x03\x00\x00\x00FAQ'
tRp4488
I00
S'http://web2py.com/AlterEgo'
p4489
tp4490
a(g4153
(S't\x06\x00\x00\x00Videos'
tRp4491
I00
S'http://www.web2py.com/examples/default/videos/'
p4492
tp4493
a(g4153
(S's\x11\x00\x00\x00Free Applications'
tRp4494
I00
S'http://web2py.com/appliances'
p4495
tp4496
a(g4153
(S't\x07\x00\x00\x00Plugins'
tRp4497
I00
S'http://web2py.com/plugins'
p4498
tp4499
a(g4153
(S't\x07\x00\x00\x00Layouts'
tRp4500
I00
S'http://web2py.com/layouts'
p4501
tp4502
a(g4153
(S't\x07\x00\x00\x00Recipes'
tRp4503
I00
S'http://web2pyslices.com/'
p4504
tp4505
a(g4153
(S't\x08\x00\x00\x00Semantic'
tRp4506
I00
S'http://web2py.com/semantic'
p4507
tp4508
aasbasbasbasbasbasbasbag49
(g65
g51
NtRp4509
(dp4510
g54
(dp4511
sg63
g4266
sg56
(lp4512
g49
(g70
g51
NtRp4513
(dp4514
g54
(dp4515
sg63
g4509
sg56
(lp4516
g49
(g50
g51
NtRp4517
(dp4518
g54
(dp4519
g62
I2
ssg63
g4513
sg56
(lp4520
g49
(g58
g51
NtRp4521
(dp4522
g54
(dp4523
g62
I1
ssg63
Nsg56
(lp4524
g49
(g65
g51
NtRp4525
(dp4526
g54
(dp4527
sg63
g4521
sg56
(lp4528
g49
(g70
g51
NtRp4529
(dp4530
g54
(dp4531
sg63
g4525
sg56
(lp4532
g49
(g50
g51
NtRp4533
(dp4534
g54
(dp4535
g62
I1
ssg63
g4529
sg56
(lp4536
g4153
(S't\r\x00\x00\x00Documentation'
tRp4537
asbasbasbag49
(g65
g51
NtRp4538
(dp4539
g54
(dp4540
sg63
g4521
sg56
(lp4541
g49
(g70
g51
NtRp4542
(dp4543
g54
(dp4544
sg63
g4538
sg56
(lp4545
g49
(g50
g51
NtRp4546
(dp4547
g54
(dp4548
g62
I1
ssg63
g4542
sg56
(lp4549
I00
asbasbasbag49
(g65
g51
NtRp4550
(dp4551
g54
(dp4552
sg63
g4521
sg56
(lp4553
g49
(g70
g51
NtRp4554
(dp4555
g54
(dp4556
sg63
g4550
sg56
(lp4557
g49
(g50
g51
NtRp4558
(dp4559
g54
(dp4560
g62
I1
ssg63
g4554
sg56
(lp4561
S'http://www.web2py.com/book'
p4562
asbasbasbag49
(g65
g51
NtRp4563
(dp4564
g54
(dp4565
sg63
g4521
sg56
(lp4566
g49
(g70
g51
NtRp4567
(dp4568
g54
(dp4569
sg63
g4563
sg56
(lp4570
g49
(g50
g51
NtRp4571
(dp4572
g54
(dp4573
g62
I1
ssg63
g4567
sg56
(lp4574
(lp4575
(g4153
(S't\x07\x00\x00\x00Preface'
tRp4576
I00
S'http://www.web2py.com/book/default/chapter/00'
p4577
tp4578
a(g4153
(S't\x0c\x00\x00\x00Introduction'
tRp4579
I00
S'http://www.web2py.com/book/default/chapter/01'
p4580
tp4581
a(g4153
(S't\x06\x00\x00\x00Python'
tRp4582
I00
S'http://www.web2py.com/book/default/chapter/02'
p4583
tp4584
a(g4153
(S't\x08\x00\x00\x00Overview'
tRp4585
I00
S'http://www.web2py.com/book/default/chapter/03'
p4586
tp4587
a(g4153
(S's\x08\x00\x00\x00The Core'
tRp4588
I00
S'http://www.web2py.com/book/default/chapter/04'
p4589
tp4590
a(g4153
(S's\t\x00\x00\x00The Views'
tRp4591
I00
S'http://www.web2py.com/book/default/chapter/05'
p4592
tp4593
a(g4153
(S't\x08\x00\x00\x00Database'
tRp4594
I00
S'http://www.web2py.com/book/default/chapter/06'
p4595
tp4596
a(g4153
(S's\x14\x00\x00\x00Forms and Validators'
tRp4597
I00
S'http://www.web2py.com/book/default/chapter/07'
p4598
tp4599
a(g4153
(S's\r\x00\x00\x00Email and SMS'
tRp4600
I00
S'http://www.web2py.com/book/default/chapter/08'
p4601
tp4602
a(g4153
(S's\x0e\x00\x00\x00Access Control'
tRp4603
I00
S'http://www.web2py.com/book/default/chapter/09'
p4604
tp4605
a(g4153
(S't\x08\x00\x00\x00Services'
tRp4606
I00
S'http://www.web2py.com/book/default/chapter/10'
p4607
tp4608
a(g4153
(S's\x0c\x00\x00\x00Ajax Recipes'
tRp4609
I00
S'http://www.web2py.com/book/default/chapter/11'
p4610
tp4611
a(g4153
(S's\x16\x00\x00\x00Components and Plugins'
tRp4612
I00
S'http://www.web2py.com/book/default/chapter/12'
p4613
tp4614
a(g4153
(S's\x12\x00\x00\x00Deployment Recipes'
tRp4615
I00
S'http://www.web2py.com/book/default/chapter/13'
p4616
tp4617
a(g4153
(S's\r\x00\x00\x00Other Recipes'
tRp4618
I00
S'http://www.web2py.com/book/default/chapter/14'
p4619
tp4620
a(g4153
(S's\r\x00\x00\x00Buy this book'
tRp4621
I00
S'http://stores.lulu.com/web2py'
p4622
tp4623
aasbasbasbasbasbasbasbag49
(g65
g51
NtRp4624
(dp4625
g54
(dp4626
sg63
g4266
sg56
(lp4627
g49
(g70
g51
NtRp4628
(dp4629
g54
(dp4630
sg63
g4624
sg56
(lp4631
g49
(g50
g51
NtRp4632
(dp4633
g54
(dp4634
g62
I2
ssg63
g4628
sg56
(lp4635
g49
(g58
g51
NtRp4636
(dp4637
g54
(dp4638
g62
I1
ssg63
Nsg56
(lp4639
g49
(g65
g51
NtRp4640
(dp4641
g54
(dp4642
sg63
g4636
sg56
(lp4643
g49
(g70
g51
NtRp4644
(dp4645
g54
(dp4646
sg63
g4640
sg56
(lp4647
g49
(g50
g51
NtRp4648
(dp4649
g54
(dp4650
g62
I1
ssg63
g4644
sg56
(lp4651
g4153
(S't\t\x00\x00\x00Community'
tRp4652
asbasbasbag49
(g65
g51
NtRp4653
(dp4654
g54
(dp4655
sg63
g4636
sg56
(lp4656
g49
(g70
g51
NtRp4657
(dp4658
g54
(dp4659
sg63
g4653
sg56
(lp4660
g49
(g50
g51
NtRp4661
(dp4662
g54
(dp4663
g62
I1
ssg63
g4657
sg56
(lp4664
I00
asbasbasbag49
(g65
g51
NtRp4665
(dp4666
g54
(dp4667
sg63
g4636
sg56
(lp4668
g49
(g70
g51
NtRp4669
(dp4670
g54
(dp4671
sg63
g4665
sg56
(lp4672
g49
(g50
g51
NtRp4673
(dp4674
g54
(dp4675
g62
I1
ssg63
g4669
sg56
(lp4676
Nasbasbasbag49
(g65
g51
NtRp4677
(dp4678
g54
(dp4679
sg63
g4636
sg56
(lp4680
g49
(g70
g51
NtRp4681
(dp4682
g54
(dp4683
sg63
g4677
sg56
(lp4684
g49
(g50
g51
NtRp4685
(dp4686
g54
(dp4687
g62
I1
ssg63
g4681
sg56
(lp4688
(lp4689
(g4153
(S't\x06\x00\x00\x00Groups'
tRp4690
I00
S'http://www.web2py.com/examples/default/usergroups'
p4691
tp4692
a(g4153
(S't\x07\x00\x00\x00Twitter'
tRp4693
I00
S'http://twitter.com/web2py'
p4694
tp4695
a(g4153
(S's\t\x00\x00\x00Live Chat'
tRp4696
I00
S'http://webchat.freenode.net/?channels=web2py'
p4697
tp4698
aasbasbasbasbasbasbasbag49
(g65
g51
NtRp4699
(dp4700
g54
(dp4701
sg63
g4266
sg56
(lp4702
g49
(g70
g51
NtRp4703
(dp4704
g54
(dp4705
sg63
g4699
sg56
(lp4706
g49
(g50
g51
NtRp4707
(dp4708
g54
(dp4709
g62
I2
ssg63
g4703
sg56
(lp4710
g49
(g58
g51
NtRp4711
(dp4712
g54
(dp4713
g62
I1
ssg63
Nsg56
(lp4714
g49
(g65
g51
NtRp4715
(dp4716
g54
(dp4717
sg63
g4711
sg56
(lp4718
g49
(g70
g51
NtRp4719
(dp4720
g54
(dp4721
sg63
g4715
sg56
(lp4722
g49
(g50
g51
NtRp4723
(dp4724
g54
(dp4725
g62
I1
ssg63
g4719
sg56
(lp4726
g4153
(S't\x07\x00\x00\x00Plugins'
tRp4727
asbasbasbag49
(g65
g51
NtRp4728
(dp4729
g54
(dp4730
sg63
g4711
sg56
(lp4731
g49
(g70
g51
NtRp4732
(dp4733
g54
(dp4734
sg63
g4728
sg56
(lp4735
g49
(g50
g51
NtRp4736
(dp4737
g54
(dp4738
g62
I1
ssg63
g4732
sg56
(lp4739
I00
asbasbasbag49
(g65
g51
NtRp4740
(dp4741
g54
(dp4742
sg63
g4711
sg56
(lp4743
g49
(g70
g51
NtRp4744
(dp4745
g54
(dp4746
sg63
g4740
sg56
(lp4747
g49
(g50
g51
NtRp4748
(dp4749
g54
(dp4750
g62
I1
ssg63
g4744
sg56
(lp4751
Nasbasbasbag49
(g65
g51
NtRp4752
(dp4753
g54
(dp4754
sg63
g4711
sg56
(lp4755
g49
(g70
g51
NtRp4756
(dp4757
g54
(dp4758
sg63
g4752
sg56
(lp4759
g49
(g50
g51
NtRp4760
(dp4761
g54
(dp4762
g62
I1
ssg63
g4756
sg56
(lp4763
(lp4764
(S'plugin_wiki'
p4765
I00
S'http://web2py.com/examples/default/download'
p4766
tp4767
a(g4153
(S's\r\x00\x00\x00Other Plugins'
tRp4768
I00
g4498
tp4769
a(g4153
(S's\x0e\x00\x00\x00Layout Plugins'
tRp4770
I00
g4501
tp4771
aasbasbasbasbasbasbasbasbasbasbasbasbasbasbasbasbasbasbasbag49
(g65
g51
NtRp4772
(dp4773
g54
(dp4774
sg63
g3639
sg56
(lp4775
g49
(g70
g51
NtRp4776
(dp4777
g54
(dp4778
g74
g75
ssg63
g4772
sg56
(lp4779
S'meta'
p4780
asbag49
(g70
g51
NtRp4781
(dp4782
g54
(dp4783
g81
g82
ssg63
g4772
sg56
(lp4784
S':'
asbag49
(g70
g51
NtRp4785
(dp4786
g54
(dp4787
sg63
g4772
sg56
(lp4788
g49
(g50
g51
NtRp4789
(dp4790
g54
(dp4791
g62
I5
ssg63
g4785
sg56
(lp4792
g49
(g58
g51
NtRp4793
(dp4794
g54
(dp4795
g62
I4
ssg63
Nsg56
(lp4796
g49
(g65
g51
NtRp4797
(dp4798
g54
(dp4799
sg63
g4793
sg56
(lp4800
g49
(g70
g51
NtRp4801
(dp4802
g54
(dp4803
g74
g75
ssg63
g4797
sg56
(lp4804
S'author'
p4805
asbag49
(g70
g51
NtRp4806
(dp4807
g54
(dp4808
g81
g82
ssg63
g4797
sg56
(lp4809
S':'
asbag49
(g70
g51
NtRp4810
(dp4811
g54
(dp4812
sg63
g4797
sg56
(lp4813
g49
(g50
g51
NtRp4814
(dp4815
g54
(dp4816
g62
I4
ssg63
g4810
sg56
(lp4817
S'Your Name <you@example.com>'
p4818
asbasbasbag49
(g65
g51
NtRp4819
(dp4820
g54
(dp4821
sg63
g4793
sg56
(lp4822
g49
(g70
g51
NtRp4823
(dp4824
g54
(dp4825
g74
g75
ssg63
g4819
sg56
(lp4826
S'description'
p4827
asbag49
(g70
g51
NtRp4828
(dp4829
g54
(dp4830
g81
g82
ssg63
g4819
sg56
(lp4831
S':'
asbag49
(g70
g51
NtRp4832
(dp4833
g54
(dp4834
sg63
g4819
sg56
(lp4835
g49
(g50
g51
NtRp4836
(dp4837
g54
(dp4838
g62
I4
ssg63
g4832
sg56
(lp4839
S'a cool new app'
p4840
asbasbasbag49
(g65
g51
NtRp4841
(dp4842
g54
(dp4843
sg63
g4793
sg56
(lp4844
g49
(g70
g51
NtRp4845
(dp4846
g54
(dp4847
g74
g75
ssg63
g4841
sg56
(lp4848
S'generator'
p4849
asbag49
(g70
g51
NtRp4850
(dp4851
g54
(dp4852
g81
g82
ssg63
g4841
sg56
(lp4853
S':'
asbag49
(g70
g51
NtRp4854
(dp4855
g54
(dp4856
sg63
g4841
sg56
(lp4857
g49
(g50
g51
NtRp4858
(dp4859
g54
(dp4860
g62
I4
ssg63
g4854
sg56
(lp4861
S'Web2py Web Framework'
p4862
asbasbasbag49
(g65
g51
NtRp4863
(dp4864
g54
(dp4865
sg63
g4793
sg56
(lp4866
g49
(g70
g51
NtRp4867
(dp4868
g54
(dp4869
g74
g75
ssg63
g4863
sg56
(lp4870
S'keywords'
p4871
asbag49
(g70
g51
NtRp4872
(dp4873
g54
(dp4874
g81
g82
ssg63
g4863
sg56
(lp4875
S':'
asbag49
(g70
g51
NtRp4876
(dp4877
g54
(dp4878
sg63
g4863
sg56
(lp4879
g49
(g50
g51
NtRp4880
(dp4881
g54
(dp4882
g62
I4
ssg63
g4876
sg56
(lp4883
S'web2py, python, framework'
p4884
asbasbasbasbasbasbasbag49
(g65
g51
NtRp4885
(dp4886
g54
(dp4887
sg63
g3639
sg56
(lp4888
g49
(g70
g51
NtRp4889
(dp4890
g54
(dp4891
g74
g75
ssg63
g4885
sg56
(lp4892
S'models_to_run'
p4893
asbag49
(g70
g51
NtRp4894
(dp4895
g54
(dp4896
g81
g82
ssg63
g4885
sg56
(lp4897
S':'
asbag49
(g70
g51
NtRp4898
(dp4899
g54
(dp4900
sg63
g4885
sg56
(lp4901
g49
(g50
g51
NtRp4902
(dp4903
g54
(dp4904
g62
I5
ssg63
g4898
sg56
(lp4905
g49
(g58
g51
NtRp4906
(dp4907
g54
(dp4908
g62
I4
ssg63
Nsg56
(lp4909
g49
(g65
g51
NtRp4910
(dp4911
g54
(dp4912
sg63
g4906
sg56
(lp4913
g49
(g70
g51
NtRp4914
(dp4915
g54
(dp4916
sg63
g4910
sg56
(lp4917
g49
(g50
g51
NtRp4918
(dp4919
g54
(dp4920
g62
I4
ssg63
g4914
sg56
(lp4921
S'^\\w+\\.py$'
p4922
asbasbasbag49
(g65
g51
NtRp4923
(dp4924
g54
(dp4925
sg63
g4906
sg56
(lp4926
g49
(g70
g51
NtRp4927
(dp4928
g54
(dp4929
sg63
g4923
sg56
(lp4930
g49
(g50
g51
NtRp4931
(dp4932
g54
(dp4933
g62
I4
ssg63
g4927
sg56
(lp4934
S'^game/\\w+\\.py$'
p4935
asbasbasbag49
(g65
g51
NtRp4936
(dp4937
g54
(dp4938
sg63
g4906
sg56
(lp4939
g49
(g70
g51
NtRp4940
(dp4941
g54
(dp4942
sg63
g4936
sg56
(lp4943
g49
(g50
g51
NtRp4944
(dp4945
g54
(dp4946
g62
I4
ssg63
g4940
sg56
(lp4947
S'^game/show/\\w+\\.py$'
p4948
asbasbasbasbasbasbasbag49
(g65
g51
NtRp4949
(dp4950
g54
(dp4951
sg63
g3639
sg56
(lp4952
g49
(g70
g51
NtRp4953
(dp4954
g54
(dp4955
g74
g75
ssg63
g4949
sg56
(lp4956
S'postprocessing'
p4957
asbag49
(g70
g51
NtRp4958
(dp4959
g54
(dp4960
g81
g82
ssg63
g4949
sg56
(lp4961
S':'
asbag49
(g70
g51
NtRp4962
(dp4963
g54
(dp4964
sg63
g4949
sg56
(lp4965
g49
(g50
g51
NtRp4966
(dp4967
g54
(dp4968
g62
I5
ssg63
g4962
sg56
(lp4969
g49
(g58
g51
NtRp4970
(dp4971
g54
(dp4972
g62
I4
ssg63
Nsg56
(lp4973
sbasbasbasbag49
(g65
g51
NtRp4974
(dp4975
g54
(dp4976
sg63
g3639
sg56
(lp4977
g49
(g70
g51
NtRp4978
(dp4979
g54
(dp4980
g74
g75
ssg63
g4974
sg56
(lp4981
S'session_cookie_expires'
p4982
asbag49
(g70
g51
NtRp4983
(dp4984
g54
(dp4985
g81
g82
ssg63
g4974
sg56
(lp4986
S':'
asbag49
(g70
g51
NtRp4987
(dp4988
g54
(dp4989
sg63
g4974
sg56
(lp4990
g49
(g50
g51
NtRp4991
(dp4992
g54
(dp4993
g62
I5
ssg63
g4987
sg56
(lp4994
S'None'
p4995
asbasbasbag49
(g65
g51
NtRp4996
(dp4997
g54
(dp4998
sg63
g3639
sg56
(lp4999
g49
(g70
g51
NtRp5000
(dp5001
g54
(dp5002
g74
g75
ssg63
g4996
sg56
(lp5003
S'session_data_name'
p5004
asbag49
(g70
g51
NtRp5005
(dp5006
g54
(dp5007
g81
g82
ssg63
g4996
sg56
(lp5008
S':'
asbag49
(g70
g51
NtRp5009
(dp5010
g54
(dp5011
sg63
g4996
sg56
(lp5012
g49
(g50
g51
NtRp5013
(dp5014
g54
(dp5015
g62
I5
ssg63
g5009
sg56
(lp5016
S'session_data_hellow'
p5017
asbasbasbag49
(g65
g51
NtRp5018
(dp5019
g54
(dp5020
sg63
g3639
sg56
(lp5021
g49
(g70
g51
NtRp5022
(dp5023
g54
(dp5024
g74
g75
ssg63
g5018
sg56
(lp5025
S'session_file'
p5026
asbag49
(g70
g51
NtRp5027
(dp5028
g54
(dp5029
g81
g82
ssg63
g5018
sg56
(lp5030
S':'
asbag49
(g70
g51
NtRp5031
(dp5032
g54
(dp5033
sg63
g5018
sg56
(lp5034
g49
(g50
g51
NtRp5035
(dp5036
g54
(dp5037
g62
I5
ssg63
g5031
sg56
(lp5038
S"<open file '/Users/zamechek/Downloads/web2py/web2py.app/Contents/Resources/applications/hellow/sessions/127.0.0.1-bbea59f2-333e-4593-a45c-2c44a5133d77', mode 'rb+' at 0x6ea6698>"
p5039
asbasbasbag49
(g65
g51
NtRp5040
(dp5041
g54
(dp5042
sg63
g3639
sg56
(lp5043
g49
(g70
g51
NtRp5044
(dp5045
g54
(dp5046
g74
g75
ssg63
g5040
sg56
(lp5047
S'session_filename'
p5048
asbag49
(g70
g51
NtRp5049
(dp5050
g54
(dp5051
g81
g82
ssg63
g5040
sg56
(lp5052
S':'
asbag49
(g70
g51
NtRp5053
(dp5054
g54
(dp5055
sg63
g5040
sg56
(lp5056
g49
(g50
g51
NtRp5057
(dp5058
g54
(dp5059
g62
I5
ssg63
g5053
sg56
(lp5060
S'/Users/zamechek/Downloads/web2py/web2py.app/Contents/Resources/applications/hellow/sessions/127.0.0.1-bbea59f2-333e-4593-a45c-2c44a5133d77'
p5061
asbasbasbag49
(g65
g51
NtRp5062
(dp5063
g54
(dp5064
sg63
g3639
sg56
(lp5065
g49
(g70
g51
NtRp5066
(dp5067
g54
(dp5068
g74
g75
ssg63
g5062
sg56
(lp5069
S'session_id'
p5070
asbag49
(g70
g51
NtRp5071
(dp5072
g54
(dp5073
g81
g82
ssg63
g5062
sg56
(lp5074
S':'
asbag49
(g70
g51
NtRp5075
(dp5076
g54
(dp5077
sg63
g5062
sg56
(lp5078
g49
(g50
g51
NtRp5079
(dp5080
g54
(dp5081
g62
I5
ssg63
g5075
sg56
(lp5082
g446
asbasbasbag49
(g65
g51
NtRp5083
(dp5084
g54
(dp5085
sg63
g3639
sg56
(lp5086
g49
(g70
g51
NtRp5087
(dp5088
g54
(dp5089
g74
g75
ssg63
g5083
sg56
(lp5090
S'session_id_name'
p5091
asbag49
(g70
g51
NtRp5092
(dp5093
g54
(dp5094
g81
g82
ssg63
g5083
sg56
(lp5095
S':'
asbag49
(g70
g51
NtRp5096
(dp5097
g54
(dp5098
sg63
g5083
sg56
(lp5099
g49
(g50
g51
NtRp5100
(dp5101
g54
(dp5102
g62
I5
ssg63
g5096
sg56
(lp5103
g3696
asbasbasbag49
(g65
g51
NtRp5104
(dp5105
g54
(dp5106
sg63
g3639
sg56
(lp5107
g49
(g70
g51
NtRp5108
(dp5109
g54
(dp5110
g74
g75
ssg63
g5104
sg56
(lp5111
S'session_locked'
p5112
asbag49
(g70
g51
NtRp5113
(dp5114
g54
(dp5115
g81
g82
ssg63
g5104
sg56
(lp5116
S':'
asbag49
(g70
g51
NtRp5117
(dp5118
g54
(dp5119
sg63
g5104
sg56
(lp5120
g49
(g50
g51
NtRp5121
(dp5122
g54
(dp5123
g62
I5
ssg63
g5117
sg56
(lp5124
g916
asbasbasbag49
(g65
g51
NtRp5125
(dp5126
g54
(dp5127
sg63
g3639
sg56
(lp5128
g49
(g70
g51
NtRp5129
(dp5130
g54
(dp5131
g74
g75
ssg63
g5125
sg56
(lp5132
S'session_new'
p5133
asbag49
(g70
g51
NtRp5134
(dp5135
g54
(dp5136
g81
g82
ssg63
g5125
sg56
(lp5137
S':'
asbag49
(g70
g51
NtRp5138
(dp5139
g54
(dp5140
sg63
g5125
sg56
(lp5141
g49
(g50
g51
NtRp5142
(dp5143
g54
(dp5144
g62
I5
ssg63
g5138
sg56
(lp5145
g92
asbasbasbag49
(g65
g51
NtRp5146
(dp5147
g54
(dp5148
sg63
g3639
sg56
(lp5149
g49
(g70
g51
NtRp5150
(dp5151
g54
(dp5152
g74
g75
ssg63
g5146
sg56
(lp5153
S'session_storage_type'
p5154
asbag49
(g70
g51
NtRp5155
(dp5156
g54
(dp5157
g81
g82
ssg63
g5146
sg56
(lp5158
S':'
asbag49
(g70
g51
NtRp5159
(dp5160
g54
(dp5161
sg63
g5146
sg56
(lp5162
g49
(g50
g51
NtRp5163
(dp5164
g54
(dp5165
g62
I5
ssg63
g5159
sg56
(lp5166
g3174
asbasbasbag49
(g65
g51
NtRp5167
(dp5168
g54
(dp5169
sg63
g3639
sg56
(lp5170
g49
(g70
g51
NtRp5171
(dp5172
g54
(dp5173
g74
g75
ssg63
g5167
sg56
(lp5174
S'status'
p5175
asbag49
(g70
g51
NtRp5176
(dp5177
g54
(dp5178
g81
g82
ssg63
g5167
sg56
(lp5179
S':'
asbag49
(g70
g51
NtRp5180
(dp5181
g54
(dp5182
sg63
g5167
sg56
(lp5183
g49
(g50
g51
NtRp5184
(dp5185
g54
(dp5186
g62
I5
ssg63
g5180
sg56
(lp5187
S'200'
p5188
asbasbasbag49
(g65
g51
NtRp5189
(dp5190
g54
(dp5191
sg63
g3639
sg56
(lp5192
g49
(g70
g51
NtRp5193
(dp5194
g54
(dp5195
g74
g75
ssg63
g5189
sg56
(lp5196
S'subtitle'
p5197
asbag49
(g70
g51
NtRp5198
(dp5199
g54
(dp5200
g81
g82
ssg63
g5189
sg56
(lp5201
S':'
asbag49
(g70
g51
NtRp5202
(dp5203
g54
(dp5204
sg63
g5189
sg56
(lp5205
g49
(g50
g51
NtRp5206
(dp5207
g54
(dp5208
g62
I5
ssg63
g5202
sg56
(lp5209
g4153
(S's\r\x00\x00\x00customize me!'
tRp5210
asbasbasbag49
(g65
g51
NtRp5211
(dp5212
g54
(dp5213
sg63
g3639
sg56
(lp5214
g49
(g70
g51
NtRp5215
(dp5216
g54
(dp5217
g74
g75
ssg63
g5211
sg56
(lp5218
S'title'
p5219
asbag49
(g70
g51
NtRp5220
(dp5221
g54
(dp5222
g81
g82
ssg63
g5211
sg56
(lp5223
S':'
asbag49
(g70
g51
NtRp5224
(dp5225
g54
(dp5226
sg63
g5211
sg56
(lp5227
g49
(g50
g51
NtRp5228
(dp5229
g54
(dp5230
g62
I5
ssg63
g5224
sg56
(lp5231
S'Hellow'
p5232
asbasbasbag49
(g65
g51
NtRp5233
(dp5234
g54
(dp5235
sg63
g3639
sg56
(lp5236
g49
(g70
g51
NtRp5237
(dp5238
g54
(dp5239
g74
g75
ssg63
g5233
sg56
(lp5240
S'view'
p5241
asbag49
(g70
g51
NtRp5242
(dp5243
g54
(dp5244
g81
g82
ssg63
g5233
sg56
(lp5245
S':'
asbag49
(g70
g51
NtRp5246
(dp5247
g54
(dp5248
sg63
g5233
sg56
(lp5249
g49
(g50
g51
NtRp5250
(dp5251
g54
(dp5252
g62
I5
ssg63
g5246
sg56
(lp5253
S'game/show.html'
p5254
asbasbasbasbasbsS'locals'
p5255
(dp5256
ssS'traceback'
p5257
S'Traceback (most recent call last):\n  File "/home/mdipierro/web2py/gluon/restricted.py", line 212, in restricted\n  File "/Users/zamechek/Downloads/web2py/web2py.app/Contents/Resources/applications/hellow/controllers/game.py", line 48, in <module>\n  File "/home/mdipierro/web2py/gluon/globals.py", line 193, in <lambda>\n  File "/Users/zamechek/Downloads/web2py/web2py.app/Contents/Resources/applications/hellow/controllers/game.py", line 8, in show\nIndexError: list index out of range\n'
p5258
s.