(dp1
S'output'
p2
S"<type 'exceptions.TypeError'> __init__() takes at least 3 arguments (2 given)"
p3
sS'layer'
p4
S'/Users/zamechek/Downloads/web2py/web2py.app/Contents/Resources/applications/hellow/controllers/game.py'
p5
sS'code'
p6
S'# coding: utf8\n# try something like\n\ndef show():\n    id = request.args[0]\n    game = db.game(id)\n    auth_user = (game.auth_user)\n    \n    query=((db.game.id==db.game_slots.game)&(db.slot.id==db.game_slots.slot))\n    #game_and_slots=(db.game.id==db.game_slots.game)&(db.slot.id==db.game_slots.slot)\n    rows = db(query).select(db.slot.id, db.slot.odds)\n    form = display_form(rows)\n    otherForm = form_from_factory(rows, id)\n    return dict(name=auth_user.first_name.capitalize() + " " + auth_user.last_name.capitalize(), balance = game.balance, slots = rows, gameid = id, form=form, otherForm=otherForm)\n    \ndef display_form(rows):\n   form = SQLFORM(db.user_action)\n   Field(\'slot\', type=\'radio\', requires=IS_IN_SET(rows, labels=[\'1\',\'2\']))\n   if form.process().accepted:\n       response.flash = \'form accepted\'\n   elif form.errors:\n       response.flash = \'form has errors\'\n   else:\n       response.flash = \'please fill out the form\'\n   return form\n   \ndef form_from_factory(rows, id):\n       \n    otherForm = SQLFORM.factory(\n        Field(\'bet\', requires=IS_NOT_EMPTY()),\n        Field(\'slot\', requires=IS_IN_DB(db(db.game_slots.game, db.game_slots.game))))\n        #IS_IN_DB(db(db.table_one.name.like(\'h%\'))\n    if otherForm.process().accepted:\n        response.flash = \'form accepted\'\n\n    elif otherForm.errors:\n        response.flash = \'form has errors\'\n    return otherForm\n\nresponse._vars=response._caller(show)\n'
p7
sS'snapshot'
p8
(dp9
S'exception'
p10
(dp11
S'__hash__'
p12
S"<method-wrapper '__hash__' of exceptions.TypeError object at 0x93dd850>"
p13
sS'__setattr__'
p14
S"<method-wrapper '__setattr__' of exceptions.TypeError object at 0x93dd850>"
p15
sS'__reduce_ex__'
p16
S'<built-in method __reduce_ex__ of exceptions.TypeError object at 0x93dd850>'
p17
sS'__getslice__'
p18
S"<method-wrapper '__getslice__' of exceptions.TypeError object at 0x93dd850>"
p19
sS'__getitem__'
p20
S"<method-wrapper '__getitem__' of exceptions.TypeError object at 0x93dd850>"
p21
sS'__setstate__'
p22
S'<built-in method __setstate__ of exceptions.TypeError object at 0x93dd850>'
p23
sS'__reduce__'
p24
S'<built-in method __reduce__ of exceptions.TypeError object at 0x93dd850>'
p25
sS'__str__'
p26
S"<method-wrapper '__str__' of exceptions.TypeError object at 0x93dd850>"
p27
sS'args'
p28
S"('__init__() takes at least 3 arguments (2 given)',)"
p29
sS'__getattribute__'
p30
S"<method-wrapper '__getattribute__' of exceptions.TypeError object at 0x93dd850>"
p31
sS'__class__'
p32
S"<type 'exceptions.TypeError'>"
p33
sS'__delattr__'
p34
S"<method-wrapper '__delattr__' of exceptions.TypeError object at 0x93dd850>"
p35
sS'__repr__'
p36
S"<method-wrapper '__repr__' of exceptions.TypeError object at 0x93dd850>"
p37
sS'__dict__'
p38
S'{}'
p39
sS'__doc__'
p40
S"'Inappropriate argument type.'"
p41
sS'__init__'
p42
S"<method-wrapper '__init__' of exceptions.TypeError object at 0x93dd850>"
p43
sS'__new__'
p44
S'<built-in method __new__ of type object at 0x5fa140>'
p45
ssS'evalue'
p46
S'__init__() takes at least 3 arguments (2 given)'
p47
sS'request'
p48
ccopy_reg
_reconstructor
p49
(cgluon.html
BEAUTIFY
p50
c__builtin__
object
p51
NtRp52
(dp53
S'attributes'
p54
(dp55
sS'components'
p56
(lp57
g49
(cgluon.html
TABLE
p58
g51
NtRp59
(dp60
g54
(dp61
S'level'
p62
I5
ssS'parent'
p63
Nsg56
(lp64
g49
(cgluon.html
TR
p65
g51
NtRp66
(dp67
g54
(dp68
sg63
g59
sg56
(lp69
g49
(cgluon.html
TD
p70
g51
NtRp71
(dp72
g54
(dp73
S'_style'
p74
S'font-weight:bold;vertical-align:top'
p75
ssg63
g66
sg56
(lp76
S'ajax'
p77
asbag49
(g70
g51
NtRp78
(dp79
g54
(dp80
S'_valign'
p81
S'top'
p82
ssg63
g66
sg56
(lp83
S':'
asbag49
(g70
g51
NtRp84
(dp85
g54
(dp86
sg63
g66
sg56
(lp87
g49
(g50
g51
NtRp88
(dp89
g54
(dp90
g62
I5
ssg63
g84
sg56
(lp91
S'False'
p92
asbasbasbag49
(g65
g51
NtRp93
(dp94
g54
(dp95
sg63
g59
sg56
(lp96
g49
(g70
g51
NtRp97
(dp98
g54
(dp99
g74
g75
ssg63
g93
sg56
(lp100
S'application'
p101
asbag49
(g70
g51
NtRp102
(dp103
g54
(dp104
g81
g82
ssg63
g93
sg56
(lp105
S':'
asbag49
(g70
g51
NtRp106
(dp107
g54
(dp108
sg63
g93
sg56
(lp109
g49
(g50
g51
NtRp110
(dp111
g54
(dp112
g62
I5
ssg63
g106
sg56
(lp113
S'hellow'
p114
asbasbasbag49
(g65
g51
NtRp115
(dp116
g54
(dp117
sg63
g59
sg56
(lp118
g49
(g70
g51
NtRp119
(dp120
g54
(dp121
g74
g75
ssg63
g115
sg56
(lp122
g28
asbag49
(g70
g51
NtRp123
(dp124
g54
(dp125
g81
g82
ssg63
g115
sg56
(lp126
S':'
asbag49
(g70
g51
NtRp127
(dp128
g54
(dp129
sg63
g115
sg56
(lp130
g49
(g50
g51
NtRp131
(dp132
g54
(dp133
g62
I5
ssg63
g127
sg56
(lp134
g49
(g58
g51
NtRp135
(dp136
g54
(dp137
g62
I4
ssg63
Nsg56
(lp138
g49
(g65
g51
NtRp139
(dp140
g54
(dp141
sg63
g135
sg56
(lp142
g49
(g70
g51
NtRp143
(dp144
g54
(dp145
sg63
g139
sg56
(lp146
g49
(g50
g51
NtRp147
(dp148
g54
(dp149
g62
I4
ssg63
g143
sg56
(lp150
S'1'
asbasbasbasbasbasbasbag49
(g65
g51
NtRp151
(dp152
g54
(dp153
sg63
g59
sg56
(lp154
g49
(g70
g51
NtRp155
(dp156
g54
(dp157
g74
g75
ssg63
g151
sg56
(lp158
S'body'
p159
asbag49
(g70
g51
NtRp160
(dp161
g54
(dp162
g81
g82
ssg63
g151
sg56
(lp163
S':'
asbag49
(g70
g51
NtRp164
(dp165
g54
(dp166
sg63
g151
sg56
(lp167
g49
(g50
g51
NtRp168
(dp169
g54
(dp170
g62
I5
ssg63
g164
sg56
(lp171
S'<cStringIO.StringO object at 0x803a9c0>'
p172
asbasbasbag49
(g65
g51
NtRp173
(dp174
g54
(dp175
sg63
g59
sg56
(lp176
g49
(g70
g51
NtRp177
(dp178
g54
(dp179
g74
g75
ssg63
g173
sg56
(lp180
S'cid'
p181
asbag49
(g70
g51
NtRp182
(dp183
g54
(dp184
g81
g82
ssg63
g173
sg56
(lp185
S':'
asbag49
(g70
g51
NtRp186
(dp187
g54
(dp188
sg63
g173
sg56
(lp189
g49
(g50
g51
NtRp190
(dp191
g54
(dp192
g62
I5
ssg63
g186
sg56
(lp193
S'None'
p194
asbasbasbag49
(g65
g51
NtRp195
(dp196
g54
(dp197
sg63
g59
sg56
(lp198
g49
(g70
g51
NtRp199
(dp200
g54
(dp201
g74
g75
ssg63
g195
sg56
(lp202
S'client'
p203
asbag49
(g70
g51
NtRp204
(dp205
g54
(dp206
g81
g82
ssg63
g195
sg56
(lp207
S':'
asbag49
(g70
g51
NtRp208
(dp209
g54
(dp210
sg63
g195
sg56
(lp211
g49
(g50
g51
NtRp212
(dp213
g54
(dp214
g62
I5
ssg63
g208
sg56
(lp215
S'127.0.0.1'
p216
asbasbasbag49
(g65
g51
NtRp217
(dp218
g54
(dp219
sg63
g59
sg56
(lp220
g49
(g70
g51
NtRp221
(dp222
g54
(dp223
g74
g75
ssg63
g217
sg56
(lp224
S'controller'
p225
asbag49
(g70
g51
NtRp226
(dp227
g54
(dp228
g81
g82
ssg63
g217
sg56
(lp229
S':'
asbag49
(g70
g51
NtRp230
(dp231
g54
(dp232
sg63
g217
sg56
(lp233
g49
(g50
g51
NtRp234
(dp235
g54
(dp236
g62
I5
ssg63
g230
sg56
(lp237
S'game'
p238
asbasbasbag49
(g65
g51
NtRp239
(dp240
g54
(dp241
sg63
g59
sg56
(lp242
g49
(g70
g51
NtRp243
(dp244
g54
(dp245
g74
g75
ssg63
g239
sg56
(lp246
S'cookies'
p247
asbag49
(g70
g51
NtRp248
(dp249
g54
(dp250
g81
g82
ssg63
g239
sg56
(lp251
S':'
asbag49
(g70
g51
NtRp252
(dp253
g54
(dp254
sg63
g239
sg56
(lp255
g49
(g50
g51
NtRp256
(dp257
g54
(dp258
g62
I5
ssg63
g252
sg56
(lp259
g49
(g58
g51
NtRp260
(dp261
g54
(dp262
g62
I4
ssg63
Nsg56
(lp263
g49
(g65
g51
NtRp264
(dp265
g54
(dp266
sg63
g260
sg56
(lp267
g49
(g70
g51
NtRp268
(dp269
g54
(dp270
g74
g75
ssg63
g264
sg56
(lp271
S'session_id_admin'
p272
asbag49
(g70
g51
NtRp273
(dp274
g54
(dp275
g81
g82
ssg63
g264
sg56
(lp276
S':'
asbag49
(g70
g51
NtRp277
(dp278
g54
(dp279
sg63
g264
sg56
(lp280
g49
(g50
g51
NtRp281
(dp282
g54
(dp283
g62
I4
ssg63
g277
sg56
(lp284
S'127.0.0.1-bf448199-cadc-41e3-b1a7-bed302e89a3e'
p285
ag49
(g58
g51
NtRp286
(dp287
g54
(dp288
g62
I3
ssg63
Nsg56
(lp289
g49
(g65
g51
NtRp290
(dp291
g54
(dp292
sg63
g286
sg56
(lp293
g49
(g70
g51
NtRp294
(dp295
g54
(dp296
g74
g75
ssg63
g290
sg56
(lp297
S'comment'
p298
asbag49
(g70
g51
NtRp299
(dp300
g54
(dp301
g81
g82
ssg63
g290
sg56
(lp302
S':'
asbag49
(g70
g51
NtRp303
(dp304
g54
(dp305
sg63
g290
sg56
(lp306
g49
(g50
g51
NtRp307
(dp308
g54
(dp309
g62
I3
ssg63
g303
sg56
(lp310
S''
asbasbasbag49
(g65
g51
NtRp311
(dp312
g54
(dp313
sg63
g286
sg56
(lp314
g49
(g70
g51
NtRp315
(dp316
g54
(dp317
g74
g75
ssg63
g311
sg56
(lp318
S'domain'
p319
asbag49
(g70
g51
NtRp320
(dp321
g54
(dp322
g81
g82
ssg63
g311
sg56
(lp323
S':'
asbag49
(g70
g51
NtRp324
(dp325
g54
(dp326
sg63
g311
sg56
(lp327
g49
(g50
g51
NtRp328
(dp329
g54
(dp330
g62
I3
ssg63
g324
sg56
(lp331
S''
asbasbasbag49
(g65
g51
NtRp332
(dp333
g54
(dp334
sg63
g286
sg56
(lp335
g49
(g70
g51
NtRp336
(dp337
g54
(dp338
g74
g75
ssg63
g332
sg56
(lp339
S'expires'
p340
asbag49
(g70
g51
NtRp341
(dp342
g54
(dp343
g81
g82
ssg63
g332
sg56
(lp344
S':'
asbag49
(g70
g51
NtRp345
(dp346
g54
(dp347
sg63
g332
sg56
(lp348
g49
(g50
g51
NtRp349
(dp350
g54
(dp351
g62
I3
ssg63
g345
sg56
(lp352
S''
asbasbasbag49
(g65
g51
NtRp353
(dp354
g54
(dp355
sg63
g286
sg56
(lp356
g49
(g70
g51
NtRp357
(dp358
g54
(dp359
g74
g75
ssg63
g353
sg56
(lp360
S'max-age'
p361
asbag49
(g70
g51
NtRp362
(dp363
g54
(dp364
g81
g82
ssg63
g353
sg56
(lp365
S':'
asbag49
(g70
g51
NtRp366
(dp367
g54
(dp368
sg63
g353
sg56
(lp369
g49
(g50
g51
NtRp370
(dp371
g54
(dp372
g62
I3
ssg63
g366
sg56
(lp373
S''
asbasbasbag49
(g65
g51
NtRp374
(dp375
g54
(dp376
sg63
g286
sg56
(lp377
g49
(g70
g51
NtRp378
(dp379
g54
(dp380
g74
g75
ssg63
g374
sg56
(lp381
S'path'
p382
asbag49
(g70
g51
NtRp383
(dp384
g54
(dp385
g81
g82
ssg63
g374
sg56
(lp386
S':'
asbag49
(g70
g51
NtRp387
(dp388
g54
(dp389
sg63
g374
sg56
(lp390
g49
(g50
g51
NtRp391
(dp392
g54
(dp393
g62
I3
ssg63
g387
sg56
(lp394
S''
asbasbasbag49
(g65
g51
NtRp395
(dp396
g54
(dp397
sg63
g286
sg56
(lp398
g49
(g70
g51
NtRp399
(dp400
g54
(dp401
g74
g75
ssg63
g395
sg56
(lp402
S'secure'
p403
asbag49
(g70
g51
NtRp404
(dp405
g54
(dp406
g81
g82
ssg63
g395
sg56
(lp407
S':'
asbag49
(g70
g51
NtRp408
(dp409
g54
(dp410
sg63
g395
sg56
(lp411
g49
(g50
g51
NtRp412
(dp413
g54
(dp414
g62
I3
ssg63
g408
sg56
(lp415
S''
asbasbasbag49
(g65
g51
NtRp416
(dp417
g54
(dp418
sg63
g286
sg56
(lp419
g49
(g70
g51
NtRp420
(dp421
g54
(dp422
g74
g75
ssg63
g416
sg56
(lp423
S'version'
p424
asbag49
(g70
g51
NtRp425
(dp426
g54
(dp427
g81
g82
ssg63
g416
sg56
(lp428
S':'
asbag49
(g70
g51
NtRp429
(dp430
g54
(dp431
sg63
g416
sg56
(lp432
g49
(g50
g51
NtRp433
(dp434
g54
(dp435
g62
I3
ssg63
g429
sg56
(lp436
S''
asbasbasbasbasbasbasbag49
(g65
g51
NtRp437
(dp438
g54
(dp439
sg63
g260
sg56
(lp440
g49
(g70
g51
NtRp441
(dp442
g54
(dp443
g74
g75
ssg63
g437
sg56
(lp444
S'session_id_hellow'
p445
asbag49
(g70
g51
NtRp446
(dp447
g54
(dp448
g81
g82
ssg63
g437
sg56
(lp449
S':'
asbag49
(g70
g51
NtRp450
(dp451
g54
(dp452
sg63
g437
sg56
(lp453
g49
(g50
g51
NtRp454
(dp455
g54
(dp456
g62
I4
ssg63
g450
sg56
(lp457
S'127.0.0.1-bbea59f2-333e-4593-a45c-2c44a5133d77'
p458
ag49
(g58
g51
NtRp459
(dp460
g54
(dp461
g62
I3
ssg63
Nsg56
(lp462
g49
(g65
g51
NtRp463
(dp464
g54
(dp465
sg63
g459
sg56
(lp466
g49
(g70
g51
NtRp467
(dp468
g54
(dp469
g74
g75
ssg63
g463
sg56
(lp470
g298
asbag49
(g70
g51
NtRp471
(dp472
g54
(dp473
g81
g82
ssg63
g463
sg56
(lp474
S':'
asbag49
(g70
g51
NtRp475
(dp476
g54
(dp477
sg63
g463
sg56
(lp478
g49
(g50
g51
NtRp479
(dp480
g54
(dp481
g62
I3
ssg63
g475
sg56
(lp482
S''
asbasbasbag49
(g65
g51
NtRp483
(dp484
g54
(dp485
sg63
g459
sg56
(lp486
g49
(g70
g51
NtRp487
(dp488
g54
(dp489
g74
g75
ssg63
g483
sg56
(lp490
g319
asbag49
(g70
g51
NtRp491
(dp492
g54
(dp493
g81
g82
ssg63
g483
sg56
(lp494
S':'
asbag49
(g70
g51
NtRp495
(dp496
g54
(dp497
sg63
g483
sg56
(lp498
g49
(g50
g51
NtRp499
(dp500
g54
(dp501
g62
I3
ssg63
g495
sg56
(lp502
S''
asbasbasbag49
(g65
g51
NtRp503
(dp504
g54
(dp505
sg63
g459
sg56
(lp506
g49
(g70
g51
NtRp507
(dp508
g54
(dp509
g74
g75
ssg63
g503
sg56
(lp510
g340
asbag49
(g70
g51
NtRp511
(dp512
g54
(dp513
g81
g82
ssg63
g503
sg56
(lp514
S':'
asbag49
(g70
g51
NtRp515
(dp516
g54
(dp517
sg63
g503
sg56
(lp518
g49
(g50
g51
NtRp519
(dp520
g54
(dp521
g62
I3
ssg63
g515
sg56
(lp522
S''
asbasbasbag49
(g65
g51
NtRp523
(dp524
g54
(dp525
sg63
g459
sg56
(lp526
g49
(g70
g51
NtRp527
(dp528
g54
(dp529
g74
g75
ssg63
g523
sg56
(lp530
g361
asbag49
(g70
g51
NtRp531
(dp532
g54
(dp533
g81
g82
ssg63
g523
sg56
(lp534
S':'
asbag49
(g70
g51
NtRp535
(dp536
g54
(dp537
sg63
g523
sg56
(lp538
g49
(g50
g51
NtRp539
(dp540
g54
(dp541
g62
I3
ssg63
g535
sg56
(lp542
S''
asbasbasbag49
(g65
g51
NtRp543
(dp544
g54
(dp545
sg63
g459
sg56
(lp546
g49
(g70
g51
NtRp547
(dp548
g54
(dp549
g74
g75
ssg63
g543
sg56
(lp550
g382
asbag49
(g70
g51
NtRp551
(dp552
g54
(dp553
g81
g82
ssg63
g543
sg56
(lp554
S':'
asbag49
(g70
g51
NtRp555
(dp556
g54
(dp557
sg63
g543
sg56
(lp558
g49
(g50
g51
NtRp559
(dp560
g54
(dp561
g62
I3
ssg63
g555
sg56
(lp562
S''
asbasbasbag49
(g65
g51
NtRp563
(dp564
g54
(dp565
sg63
g459
sg56
(lp566
g49
(g70
g51
NtRp567
(dp568
g54
(dp569
g74
g75
ssg63
g563
sg56
(lp570
g403
asbag49
(g70
g51
NtRp571
(dp572
g54
(dp573
g81
g82
ssg63
g563
sg56
(lp574
S':'
asbag49
(g70
g51
NtRp575
(dp576
g54
(dp577
sg63
g563
sg56
(lp578
g49
(g50
g51
NtRp579
(dp580
g54
(dp581
g62
I3
ssg63
g575
sg56
(lp582
S''
asbasbasbag49
(g65
g51
NtRp583
(dp584
g54
(dp585
sg63
g459
sg56
(lp586
g49
(g70
g51
NtRp587
(dp588
g54
(dp589
g74
g75
ssg63
g583
sg56
(lp590
g424
asbag49
(g70
g51
NtRp591
(dp592
g54
(dp593
g81
g82
ssg63
g583
sg56
(lp594
S':'
asbag49
(g70
g51
NtRp595
(dp596
g54
(dp597
sg63
g583
sg56
(lp598
g49
(g50
g51
NtRp599
(dp600
g54
(dp601
g62
I3
ssg63
g595
sg56
(lp602
S''
asbasbasbasbasbasbasbag49
(g65
g51
NtRp603
(dp604
g54
(dp605
sg63
g260
sg56
(lp606
g49
(g70
g51
NtRp607
(dp608
g54
(dp609
g74
g75
ssg63
g603
sg56
(lp610
S'session_id_welcome'
p611
asbag49
(g70
g51
NtRp612
(dp613
g54
(dp614
g81
g82
ssg63
g603
sg56
(lp615
S':'
asbag49
(g70
g51
NtRp616
(dp617
g54
(dp618
sg63
g603
sg56
(lp619
g49
(g50
g51
NtRp620
(dp621
g54
(dp622
g62
I4
ssg63
g616
sg56
(lp623
S'127.0.0.1-dfebfa33-25aa-4072-bce4-08f7e89e2d04'
p624
ag49
(g58
g51
NtRp625
(dp626
g54
(dp627
g62
I3
ssg63
Nsg56
(lp628
g49
(g65
g51
NtRp629
(dp630
g54
(dp631
sg63
g625
sg56
(lp632
g49
(g70
g51
NtRp633
(dp634
g54
(dp635
g74
g75
ssg63
g629
sg56
(lp636
g298
asbag49
(g70
g51
NtRp637
(dp638
g54
(dp639
g81
g82
ssg63
g629
sg56
(lp640
S':'
asbag49
(g70
g51
NtRp641
(dp642
g54
(dp643
sg63
g629
sg56
(lp644
g49
(g50
g51
NtRp645
(dp646
g54
(dp647
g62
I3
ssg63
g641
sg56
(lp648
S''
asbasbasbag49
(g65
g51
NtRp649
(dp650
g54
(dp651
sg63
g625
sg56
(lp652
g49
(g70
g51
NtRp653
(dp654
g54
(dp655
g74
g75
ssg63
g649
sg56
(lp656
g319
asbag49
(g70
g51
NtRp657
(dp658
g54
(dp659
g81
g82
ssg63
g649
sg56
(lp660
S':'
asbag49
(g70
g51
NtRp661
(dp662
g54
(dp663
sg63
g649
sg56
(lp664
g49
(g50
g51
NtRp665
(dp666
g54
(dp667
g62
I3
ssg63
g661
sg56
(lp668
S''
asbasbasbag49
(g65
g51
NtRp669
(dp670
g54
(dp671
sg63
g625
sg56
(lp672
g49
(g70
g51
NtRp673
(dp674
g54
(dp675
g74
g75
ssg63
g669
sg56
(lp676
g340
asbag49
(g70
g51
NtRp677
(dp678
g54
(dp679
g81
g82
ssg63
g669
sg56
(lp680
S':'
asbag49
(g70
g51
NtRp681
(dp682
g54
(dp683
sg63
g669
sg56
(lp684
g49
(g50
g51
NtRp685
(dp686
g54
(dp687
g62
I3
ssg63
g681
sg56
(lp688
S''
asbasbasbag49
(g65
g51
NtRp689
(dp690
g54
(dp691
sg63
g625
sg56
(lp692
g49
(g70
g51
NtRp693
(dp694
g54
(dp695
g74
g75
ssg63
g689
sg56
(lp696
g361
asbag49
(g70
g51
NtRp697
(dp698
g54
(dp699
g81
g82
ssg63
g689
sg56
(lp700
S':'
asbag49
(g70
g51
NtRp701
(dp702
g54
(dp703
sg63
g689
sg56
(lp704
g49
(g50
g51
NtRp705
(dp706
g54
(dp707
g62
I3
ssg63
g701
sg56
(lp708
S''
asbasbasbag49
(g65
g51
NtRp709
(dp710
g54
(dp711
sg63
g625
sg56
(lp712
g49
(g70
g51
NtRp713
(dp714
g54
(dp715
g74
g75
ssg63
g709
sg56
(lp716
g382
asbag49
(g70
g51
NtRp717
(dp718
g54
(dp719
g81
g82
ssg63
g709
sg56
(lp720
S':'
asbag49
(g70
g51
NtRp721
(dp722
g54
(dp723
sg63
g709
sg56
(lp724
g49
(g50
g51
NtRp725
(dp726
g54
(dp727
g62
I3
ssg63
g721
sg56
(lp728
S''
asbasbasbag49
(g65
g51
NtRp729
(dp730
g54
(dp731
sg63
g625
sg56
(lp732
g49
(g70
g51
NtRp733
(dp734
g54
(dp735
g74
g75
ssg63
g729
sg56
(lp736
g403
asbag49
(g70
g51
NtRp737
(dp738
g54
(dp739
g81
g82
ssg63
g729
sg56
(lp740
S':'
asbag49
(g70
g51
NtRp741
(dp742
g54
(dp743
sg63
g729
sg56
(lp744
g49
(g50
g51
NtRp745
(dp746
g54
(dp747
g62
I3
ssg63
g741
sg56
(lp748
S''
asbasbasbag49
(g65
g51
NtRp749
(dp750
g54
(dp751
sg63
g625
sg56
(lp752
g49
(g70
g51
NtRp753
(dp754
g54
(dp755
g74
g75
ssg63
g749
sg56
(lp756
g424
asbag49
(g70
g51
NtRp757
(dp758
g54
(dp759
g81
g82
ssg63
g749
sg56
(lp760
S':'
asbag49
(g70
g51
NtRp761
(dp762
g54
(dp763
sg63
g749
sg56
(lp764
g49
(g50
g51
NtRp765
(dp766
g54
(dp767
g62
I3
ssg63
g761
sg56
(lp768
S''
asbasbasbasbasbasbasbasbasbasbasbag49
(g65
g51
NtRp769
(dp770
g54
(dp771
sg63
g59
sg56
(lp772
g49
(g70
g51
NtRp773
(dp774
g54
(dp775
g74
g75
ssg63
g769
sg56
(lp776
S'env'
p777
asbag49
(g70
g51
NtRp778
(dp779
g54
(dp780
g81
g82
ssg63
g769
sg56
(lp781
S':'
asbag49
(g70
g51
NtRp782
(dp783
g54
(dp784
sg63
g769
sg56
(lp785
g49
(g50
g51
NtRp786
(dp787
g54
(dp788
g62
I5
ssg63
g782
sg56
(lp789
g49
(g58
g51
NtRp790
(dp791
g54
(dp792
g62
I4
ssg63
Nsg56
(lp793
g49
(g65
g51
NtRp794
(dp795
g54
(dp796
sg63
g790
sg56
(lp797
g49
(g70
g51
NtRp798
(dp799
g54
(dp800
g74
g75
ssg63
g794
sg56
(lp801
S'app_folders'
p802
asbag49
(g70
g51
NtRp803
(dp804
g54
(dp805
g81
g82
ssg63
g794
sg56
(lp806
S':'
asbag49
(g70
g51
NtRp807
(dp808
g54
(dp809
sg63
g794
sg56
(lp810
g49
(g50
g51
NtRp811
(dp812
g54
(dp813
g62
I4
ssg63
g807
sg56
(lp814
S"set(['/Users/zamechek/Downloads/web2py/web2py.app/Contents/Resources/applications/hellow/', '/Users/zamechek/Downloads/web2py/web2py.app/Contents/Resources/applications/admin/', '/Users/zamechek/Downloads/web2py/web2py.app/Contents/Resources/applications/welcome/'])"
p815
asbasbasbag49
(g65
g51
NtRp816
(dp817
g54
(dp818
sg63
g790
sg56
(lp819
g49
(g70
g51
NtRp820
(dp821
g54
(dp822
g74
g75
ssg63
g816
sg56
(lp823
S'applications_parent'
p824
asbag49
(g70
g51
NtRp825
(dp826
g54
(dp827
g81
g82
ssg63
g816
sg56
(lp828
S':'
asbag49
(g70
g51
NtRp829
(dp830
g54
(dp831
sg63
g816
sg56
(lp832
g49
(g50
g51
NtRp833
(dp834
g54
(dp835
g62
I4
ssg63
g829
sg56
(lp836
S'/Users/zamechek/Downloads/web2py/web2py.app/Contents/Resources'
p837
asbasbasbag49
(g65
g51
NtRp838
(dp839
g54
(dp840
sg63
g790
sg56
(lp841
g49
(g70
g51
NtRp842
(dp843
g54
(dp844
g74
g75
ssg63
g838
sg56
(lp845
S'cmd_args'
p846
asbag49
(g70
g51
NtRp847
(dp848
g54
(dp849
g81
g82
ssg63
g838
sg56
(lp850
S':'
asbag49
(g70
g51
NtRp851
(dp852
g54
(dp853
sg63
g838
sg56
(lp854
g49
(g50
g51
NtRp855
(dp856
g54
(dp857
g62
I4
ssg63
g851
sg56
(lp858
g49
(g58
g51
NtRp859
(dp860
g54
(dp861
g62
I3
ssg63
Nsg56
(lp862
sbasbasbasbag49
(g65
g51
NtRp863
(dp864
g54
(dp865
sg63
g790
sg56
(lp866
g49
(g70
g51
NtRp867
(dp868
g54
(dp869
g74
g75
ssg63
g863
sg56
(lp870
S'cmd_options'
p871
asbag49
(g70
g51
NtRp872
(dp873
g54
(dp874
g81
g82
ssg63
g863
sg56
(lp875
S':'
asbag49
(g70
g51
NtRp876
(dp877
g54
(dp878
sg63
g863
sg56
(lp879
g49
(g50
g51
NtRp880
(dp881
g54
(dp882
g62
I4
ssg63
g876
sg56
(lp883
S"<Values at 0x478bf58: {'verbose': False, 'ip': '127.0.0.1', 'with_scheduler': False, 'ips': ['130.91.149.119'], 'shutdown_timeout': 5, 'taskbar': False, 'port': 8000, 'maxthreads': None, 'softcron': False, 'server_name': 'hntvlan5310374.wlan.sas.upenn.edu', 'bpython': False, 'nogui': False, 'pid_filename': 'httpserver.pid', 'extcron': False, 'runcron': False, 'run_system_tests': False, 'test': None, 'folder': '/Users/zamechek/Downloads/web2py/web2py.app/Contents/Resources', 'config': '', 'import_models': False, 'winservice': '', 'shell': None, 'run': '', 'log_filename': 'httpserver.log', 'debuglevel': 30, 'args': [''], 'socket_timeout': 5, 'ssl_ca_certificate': None, 'scheduler': None, 'profiler_filename': None, 'ssl_private_key': '', 'scheduler_groups': None, 'password': '<ask>', 'request_queue_size': 5, 'ssl_certificate': '', 'cronjob': False, 'numthreads': None, 'quiet': False, 'interfaces': None, 'minthreads': None, 'timeout': 10, 'plain': False, 'nobanner': False}>"
p884
asbasbasbag49
(g65
g51
NtRp885
(dp886
g54
(dp887
sg63
g790
sg56
(lp888
g49
(g70
g51
NtRp889
(dp890
g54
(dp891
g74
g75
ssg63
g885
sg56
(lp892
S'db_sessions'
p893
asbag49
(g70
g51
NtRp894
(dp895
g54
(dp896
g81
g82
ssg63
g885
sg56
(lp897
S':'
asbag49
(g70
g51
NtRp898
(dp899
g54
(dp900
sg63
g885
sg56
(lp901
g49
(g50
g51
NtRp902
(dp903
g54
(dp904
g62
I4
ssg63
g898
sg56
(lp905
S'set([])'
p906
asbasbasbag49
(g65
g51
NtRp907
(dp908
g54
(dp909
sg63
g790
sg56
(lp910
g49
(g70
g51
NtRp911
(dp912
g54
(dp913
g74
g75
ssg63
g907
sg56
(lp914
S'debugging'
p915
asbag49
(g70
g51
NtRp916
(dp917
g54
(dp918
g81
g82
ssg63
g907
sg56
(lp919
S':'
asbag49
(g70
g51
NtRp920
(dp921
g54
(dp922
sg63
g907
sg56
(lp923
g49
(g50
g51
NtRp924
(dp925
g54
(dp926
g62
I4
ssg63
g920
sg56
(lp927
S'True'
p928
asbasbasbag49
(g65
g51
NtRp929
(dp930
g54
(dp931
sg63
g790
sg56
(lp932
g49
(g70
g51
NtRp933
(dp934
g54
(dp935
g74
g75
ssg63
g929
sg56
(lp936
S'gluon_parent'
p937
asbag49
(g70
g51
NtRp938
(dp939
g54
(dp940
g81
g82
ssg63
g929
sg56
(lp941
S':'
asbag49
(g70
g51
NtRp942
(dp943
g54
(dp944
sg63
g929
sg56
(lp945
g49
(g50
g51
NtRp946
(dp947
g54
(dp948
g62
I4
ssg63
g942
sg56
(lp949
S'/Users/zamechek/Downloads/web2py/web2py.app/Contents/Resources'
p950
asbasbasbag49
(g65
g51
NtRp951
(dp952
g54
(dp953
sg63
g790
sg56
(lp954
g49
(g70
g51
NtRp955
(dp956
g54
(dp957
g74
g75
ssg63
g951
sg56
(lp958
S'http_accept'
p959
asbag49
(g70
g51
NtRp960
(dp961
g54
(dp962
g81
g82
ssg63
g951
sg56
(lp963
S':'
asbag49
(g70
g51
NtRp964
(dp965
g54
(dp966
sg63
g951
sg56
(lp967
g49
(g50
g51
NtRp968
(dp969
g54
(dp970
g62
I4
ssg63
g964
sg56
(lp971
S'text/html,application/xhtml+xml,application/xml;q=0.9,*/*;q=0.8'
p972
asbasbasbag49
(g65
g51
NtRp973
(dp974
g54
(dp975
sg63
g790
sg56
(lp976
g49
(g70
g51
NtRp977
(dp978
g54
(dp979
g74
g75
ssg63
g973
sg56
(lp980
S'http_accept_charset'
p981
asbag49
(g70
g51
NtRp982
(dp983
g54
(dp984
g81
g82
ssg63
g973
sg56
(lp985
S':'
asbag49
(g70
g51
NtRp986
(dp987
g54
(dp988
sg63
g973
sg56
(lp989
g49
(g50
g51
NtRp990
(dp991
g54
(dp992
g62
I4
ssg63
g986
sg56
(lp993
S'ISO-8859-1,utf-8;q=0.7,*;q=0.3'
p994
asbasbasbag49
(g65
g51
NtRp995
(dp996
g54
(dp997
sg63
g790
sg56
(lp998
g49
(g70
g51
NtRp999
(dp1000
g54
(dp1001
g74
g75
ssg63
g995
sg56
(lp1002
S'http_accept_encoding'
p1003
asbag49
(g70
g51
NtRp1004
(dp1005
g54
(dp1006
g81
g82
ssg63
g995
sg56
(lp1007
S':'
asbag49
(g70
g51
NtRp1008
(dp1009
g54
(dp1010
sg63
g995
sg56
(lp1011
g49
(g50
g51
NtRp1012
(dp1013
g54
(dp1014
g62
I4
ssg63
g1008
sg56
(lp1015
S'gzip,deflate,sdch'
p1016
asbasbasbag49
(g65
g51
NtRp1017
(dp1018
g54
(dp1019
sg63
g790
sg56
(lp1020
g49
(g70
g51
NtRp1021
(dp1022
g54
(dp1023
g74
g75
ssg63
g1017
sg56
(lp1024
S'http_accept_language'
p1025
asbag49
(g70
g51
NtRp1026
(dp1027
g54
(dp1028
g81
g82
ssg63
g1017
sg56
(lp1029
S':'
asbag49
(g70
g51
NtRp1030
(dp1031
g54
(dp1032
sg63
g1017
sg56
(lp1033
g49
(g50
g51
NtRp1034
(dp1035
g54
(dp1036
g62
I4
ssg63
g1030
sg56
(lp1037
S'en-US,en;q=0.8'
p1038
asbasbasbag49
(g65
g51
NtRp1039
(dp1040
g54
(dp1041
sg63
g790
sg56
(lp1042
g49
(g70
g51
NtRp1043
(dp1044
g54
(dp1045
g74
g75
ssg63
g1039
sg56
(lp1046
S'http_cache_control'
p1047
asbag49
(g70
g51
NtRp1048
(dp1049
g54
(dp1050
g81
g82
ssg63
g1039
sg56
(lp1051
S':'
asbag49
(g70
g51
NtRp1052
(dp1053
g54
(dp1054
sg63
g1039
sg56
(lp1055
g49
(g50
g51
NtRp1056
(dp1057
g54
(dp1058
g62
I4
ssg63
g1052
sg56
(lp1059
S'max-age=0'
p1060
asbasbasbag49
(g65
g51
NtRp1061
(dp1062
g54
(dp1063
sg63
g790
sg56
(lp1064
g49
(g70
g51
NtRp1065
(dp1066
g54
(dp1067
g74
g75
ssg63
g1061
sg56
(lp1068
S'http_connection'
p1069
asbag49
(g70
g51
NtRp1070
(dp1071
g54
(dp1072
g81
g82
ssg63
g1061
sg56
(lp1073
S':'
asbag49
(g70
g51
NtRp1074
(dp1075
g54
(dp1076
sg63
g1061
sg56
(lp1077
g49
(g50
g51
NtRp1078
(dp1079
g54
(dp1080
g62
I4
ssg63
g1074
sg56
(lp1081
S'keep-alive'
p1082
asbasbasbag49
(g65
g51
NtRp1083
(dp1084
g54
(dp1085
sg63
g790
sg56
(lp1086
g49
(g70
g51
NtRp1087
(dp1088
g54
(dp1089
g74
g75
ssg63
g1083
sg56
(lp1090
S'http_cookie'
p1091
asbag49
(g70
g51
NtRp1092
(dp1093
g54
(dp1094
g81
g82
ssg63
g1083
sg56
(lp1095
S':'
asbag49
(g70
g51
NtRp1096
(dp1097
g54
(dp1098
sg63
g1083
sg56
(lp1099
g49
(g50
g51
NtRp1100
(dp1101
g54
(dp1102
g62
I4
ssg63
g1096
sg56
(lp1103
S'_define_session=BAh7CEkiD3Nlc3Npb25faWQGOgZFRkkiJTVmM2YzOTE4ZmYyNzY4ZDRjYjY5YjcyOGNkZTAxODEwBjsAVEkiEF9jc3JmX3Rva2VuBjsARkkiMVY4MTBXWE1hdGNGUGR0ZzhxeStGc3FiajlCNzB6UkpqcHZUalZJNjRFNms9BjsARkkiGXdhcmRlbi51c2VyLnVzZXIua2V5BjsAVFsISSIJVXNlcgY7AEZbBmkGSSIiJDJhJDEwJGxpeDBzN29QMk5ocFJWZUl4RXZ4WXUGOwBU--36fb82eb40ee1558fc8e56b5bce1c04bba1a6c00; _bs_session=BAh7B0kiD3Nlc3Npb25faWQGOgZFRkkiJWFhOTlmNjdkODEzYjIwNGMyNGUwMTZmNjlkMDBjMjlhBjsAVEkiEF9jc3JmX3Rva2VuBjsARkkiMUJjek16b0JSUDluYk5MekI0YlNTMklPb2Q3V3pNQzJXcHQ1enY1RDgrT3c9BjsARg%3D%3D--80cc0f5e6211d60923eda39a15903de5a280521a; _table_session=BAh7B0kiD3Nlc3Npb25faWQGOgZFRkkiJTdhZTA3MzFhMGMxM2Q4YTAxZGQ3ZTNlMDM2ODIwOWY3BjsAVEkiEF9jc3JmX3Rva2VuBjsARkkiMWxKWVRtT3hGU3dxT0tnbmJ1OG1iL3FXSW9jWVRJdnZhZHJmNTN2b1BqR2M9BjsARg%3D%3D--a8b8801fe97e379d91991be9a0d21a60f46bc09e; _usertable_session=BAh7CEkiD3Nlc3Npb25faWQGOgZFRkkiJTRmY2NiMWMyOTE1ZThhYzE1MzVlYmU3ODMxZjdhM2NmBjsAVEkiEF9jc3JmX3Rva2VuBjsARkkiMXlibkQxRk5wVVFFU05OcDVxMEQvUURSZWRJQVlRY1JwYTdoSkRucEtlYXc9BjsARkkiCmZsYXNoBjsARm86JUFjdGlvbkRpc3BhdGNoOjpGbGFzaDo6Rmxhc2hIYXNoCToKQHVzZWRvOghTZXQGOgpAaGFzaHsAOgxAY2xvc2VkRjoNQGZsYXNoZXN7BjoLbm90aWNlSSItRmllbGQgcmVsYXRpb24gd2FzIHN1Y2Nlc3NmdWxseSBjcmVhdGVkLgY7AEY6CUBub3cw--c455129d4f2ca1e085c6ad184fd200aecc0b7061; _tbls_session=BAh7B0kiD3Nlc3Npb25faWQGOgZFRkkiJWY5MmM2Mzk2ZWQ0M2ZlODZkN2E5YjMxYmViOTU4NTI2BjsAVEkiEF9jc3JmX3Rva2VuBjsARkkiMVZjemQ4UGhpZXhnaEhnOUE2alRCRmdGSXFBclViMFhwQlo5Ulg2VTRhdFk9BjsARg%3D%3D--53586c2b8499a2c56c427cd8b8e3de116331bd4d; _typel_session=BAh7CEkiD3Nlc3Npb25faWQGOgZFRkkiJWQzMjkxZGExNGY5ZTQzNzIzZTk5MWZmZTM0NDY2NTFiBjsAVEkiEF9jc3JmX3Rva2VuBjsARkkiMWM5cVg1c3pKalpQSjd3Yk5lanQ5alpjZW4zRmNOVXdQS29YNExGOXJIUWM9BjsARkkiGXdhcmRlbi51c2VyLnVzZXIua2V5BjsAVFsISSIJVXNlcgY7AEZbBmkGSSIiJDJhJDEwJEVybm5aY0RTdm9sRjRETENhdjRveGUGOwBU--df06a9ed1ab2763964f111c2534c9f2a3630c12c; _ampersand_factory_session=BAh7CUkiD3Nlc3Npb25faWQGOgZFRkkiJWI2NTFmMThjZDNkMWU4NTNhNmI4OWU1MjNhYjMyZmQ0BjsAVEkiDWluc3RhbmNlBjsARmkGSSIQX2NzcmZfdG9rZW4GOwBGSSIxTEtBZER3MFlQQUV6Nmh1NW95TG4vUTFGcFdXa1ozWTVJaUx5aXh4ZndTVT0GOwBGSSIbd2FyZGVuLnVzZXIud29ya2VyLmtleQY7AFRbCEkiC1dvcmtlcgY7AEZbBmkGSSIiJDJhJDEwJGlEdndMRmhzQXB5eE1tLnhjMFM2di4GOwBU--e6bc7e5d4e945842bb7862fd547d433b3c7bfdcb; _lang_session=BAh7B0kiD3Nlc3Npb25faWQGOgZFRkkiJTY2YzI4YTY5NDkzNzE1ZGIzYzUwNWM3ZDg2ZmY1MWNiBjsAVEkiEF9jc3JmX3Rva2VuBjsARkkiMVdVczNjYnUvY2tZaHFvMVlwLy9zemdCcFliUytKdTlUTGZ3M1RIUlI3aHc9BjsARg%3D%3D--52f16b665cb4cfc5b54cea21c7b082ab6b75b1bf; session_id_welcome=127.0.0.1-dfebfa33-25aa-4072-bce4-08f7e89e2d04; session_id_hellow=127.0.0.1-bbea59f2-333e-4593-a45c-2c44a5133d77; session_id_admin=127.0.0.1-bf448199-cadc-41e3-b1a7-bed302e89a3e'
p1104
asbasbasbag49
(g65
g51
NtRp1105
(dp1106
g54
(dp1107
sg63
g790
sg56
(lp1108
g49
(g70
g51
NtRp1109
(dp1110
g54
(dp1111
g74
g75
ssg63
g1105
sg56
(lp1112
S'http_host'
p1113
asbag49
(g70
g51
NtRp1114
(dp1115
g54
(dp1116
g81
g82
ssg63
g1105
sg56
(lp1117
S':'
asbag49
(g70
g51
NtRp1118
(dp1119
g54
(dp1120
sg63
g1105
sg56
(lp1121
g49
(g50
g51
NtRp1122
(dp1123
g54
(dp1124
g62
I4
ssg63
g1118
sg56
(lp1125
S'localhost:8887'
p1126
asbasbasbag49
(g65
g51
NtRp1127
(dp1128
g54
(dp1129
sg63
g790
sg56
(lp1130
g49
(g70
g51
NtRp1131
(dp1132
g54
(dp1133
g74
g75
ssg63
g1127
sg56
(lp1134
S'http_referer'
p1135
asbag49
(g70
g51
NtRp1136
(dp1137
g54
(dp1138
g81
g82
ssg63
g1127
sg56
(lp1139
S':'
asbag49
(g70
g51
NtRp1140
(dp1141
g54
(dp1142
sg63
g1127
sg56
(lp1143
g49
(g50
g51
NtRp1144
(dp1145
g54
(dp1146
g62
I4
ssg63
g1140
sg56
(lp1147
S'http://www.google.com/url?sa=D&q=http://localhost:8887/hellow/game/show/1&usg=AFQjCNFP42i8qlsVY8UeH6ZnJ69wfDMATA'
p1148
asbasbasbag49
(g65
g51
NtRp1149
(dp1150
g54
(dp1151
sg63
g790
sg56
(lp1152
g49
(g70
g51
NtRp1153
(dp1154
g54
(dp1155
g74
g75
ssg63
g1149
sg56
(lp1156
S'http_user_agent'
p1157
asbag49
(g70
g51
NtRp1158
(dp1159
g54
(dp1160
g81
g82
ssg63
g1149
sg56
(lp1161
S':'
asbag49
(g70
g51
NtRp1162
(dp1163
g54
(dp1164
sg63
g1149
sg56
(lp1165
g49
(g50
g51
NtRp1166
(dp1167
g54
(dp1168
g62
I4
ssg63
g1162
sg56
(lp1169
S'Mozilla/5.0 (Macintosh; Intel Mac OS X 10_8_3) AppleWebKit/537.22 (KHTML, like Gecko) Chrome/25.0.1364.172 Safari/537.22'
p1170
asbasbasbag49
(g65
g51
NtRp1171
(dp1172
g54
(dp1173
sg63
g790
sg56
(lp1174
g49
(g70
g51
NtRp1175
(dp1176
g54
(dp1177
g74
g75
ssg63
g1171
sg56
(lp1178
S'is_jython'
p1179
asbag49
(g70
g51
NtRp1180
(dp1181
g54
(dp1182
g81
g82
ssg63
g1171
sg56
(lp1183
S':'
asbag49
(g70
g51
NtRp1184
(dp1185
g54
(dp1186
sg63
g1171
sg56
(lp1187
g49
(g50
g51
NtRp1188
(dp1189
g54
(dp1190
g62
I4
ssg63
g1184
sg56
(lp1191
g92
asbasbasbag49
(g65
g51
NtRp1192
(dp1193
g54
(dp1194
sg63
g790
sg56
(lp1195
g49
(g70
g51
NtRp1196
(dp1197
g54
(dp1198
g74
g75
ssg63
g1192
sg56
(lp1199
S'is_pypy'
p1200
asbag49
(g70
g51
NtRp1201
(dp1202
g54
(dp1203
g81
g82
ssg63
g1192
sg56
(lp1204
S':'
asbag49
(g70
g51
NtRp1205
(dp1206
g54
(dp1207
sg63
g1192
sg56
(lp1208
g49
(g50
g51
NtRp1209
(dp1210
g54
(dp1211
g62
I4
ssg63
g1205
sg56
(lp1212
g92
asbasbasbag49
(g65
g51
NtRp1213
(dp1214
g54
(dp1215
sg63
g790
sg56
(lp1216
g49
(g70
g51
NtRp1217
(dp1218
g54
(dp1219
g74
g75
ssg63
g1213
sg56
(lp1220
S'local_hosts'
p1221
asbag49
(g70
g51
NtRp1222
(dp1223
g54
(dp1224
g81
g82
ssg63
g1213
sg56
(lp1225
S':'
asbag49
(g70
g51
NtRp1226
(dp1227
g54
(dp1228
sg63
g1213
sg56
(lp1229
g49
(g50
g51
NtRp1230
(dp1231
g54
(dp1232
g62
I4
ssg63
g1226
sg56
(lp1233
g49
(g58
g51
NtRp1234
(dp1235
g54
(dp1236
g62
I3
ssg63
Nsg56
(lp1237
g49
(g65
g51
NtRp1238
(dp1239
g54
(dp1240
sg63
g1234
sg56
(lp1241
g49
(g70
g51
NtRp1242
(dp1243
g54
(dp1244
sg63
g1238
sg56
(lp1245
g49
(g50
g51
NtRp1246
(dp1247
g54
(dp1248
g62
I3
ssg63
g1242
sg56
(lp1249
S'::1'
p1250
asbasbasbag49
(g65
g51
NtRp1251
(dp1252
g54
(dp1253
sg63
g1234
sg56
(lp1254
g49
(g70
g51
NtRp1255
(dp1256
g54
(dp1257
sg63
g1251
sg56
(lp1258
g49
(g50
g51
NtRp1259
(dp1260
g54
(dp1261
g62
I3
ssg63
g1255
sg56
(lp1262
S'130.91.149.119'
p1263
asbasbasbag49
(g65
g51
NtRp1264
(dp1265
g54
(dp1266
sg63
g1234
sg56
(lp1267
g49
(g70
g51
NtRp1268
(dp1269
g54
(dp1270
sg63
g1264
sg56
(lp1271
g49
(g50
g51
NtRp1272
(dp1273
g54
(dp1274
g62
I3
ssg63
g1268
sg56
(lp1275
S'::ffff:127.0.0.1'
p1276
asbasbasbag49
(g65
g51
NtRp1277
(dp1278
g54
(dp1279
sg63
g1234
sg56
(lp1280
g49
(g70
g51
NtRp1281
(dp1282
g54
(dp1283
sg63
g1277
sg56
(lp1284
g49
(g50
g51
NtRp1285
(dp1286
g54
(dp1287
g62
I3
ssg63
g1281
sg56
(lp1288
S'127.0.0.1'
p1289
asbasbasbag49
(g65
g51
NtRp1290
(dp1291
g54
(dp1292
sg63
g1234
sg56
(lp1293
g49
(g70
g51
NtRp1294
(dp1295
g54
(dp1296
sg63
g1290
sg56
(lp1297
g49
(g50
g51
NtRp1298
(dp1299
g54
(dp1300
g62
I3
ssg63
g1294
sg56
(lp1301
S'hntvlan5310374.wlan.sas.upenn.edu'
p1302
asbasbasbasbasbasbasbag49
(g65
g51
NtRp1303
(dp1304
g54
(dp1305
sg63
g790
sg56
(lp1306
g49
(g70
g51
NtRp1307
(dp1308
g54
(dp1309
g74
g75
ssg63
g1303
sg56
(lp1310
S'path_info'
p1311
asbag49
(g70
g51
NtRp1312
(dp1313
g54
(dp1314
g81
g82
ssg63
g1303
sg56
(lp1315
S':'
asbag49
(g70
g51
NtRp1316
(dp1317
g54
(dp1318
sg63
g1303
sg56
(lp1319
g49
(g50
g51
NtRp1320
(dp1321
g54
(dp1322
g62
I4
ssg63
g1316
sg56
(lp1323
S'/hellow/game/show/1'
p1324
asbasbasbag49
(g65
g51
NtRp1325
(dp1326
g54
(dp1327
sg63
g790
sg56
(lp1328
g49
(g70
g51
NtRp1329
(dp1330
g54
(dp1331
g74
g75
ssg63
g1325
sg56
(lp1332
S'query_string'
p1333
asbag49
(g70
g51
NtRp1334
(dp1335
g54
(dp1336
g81
g82
ssg63
g1325
sg56
(lp1337
S':'
asbag49
(g70
g51
NtRp1338
(dp1339
g54
(dp1340
sg63
g1325
sg56
(lp1341
g49
(g50
g51
NtRp1342
(dp1343
g54
(dp1344
g62
I4
ssg63
g1338
sg56
(lp1345
S''
asbasbasbag49
(g65
g51
NtRp1346
(dp1347
g54
(dp1348
sg63
g790
sg56
(lp1349
g49
(g70
g51
NtRp1350
(dp1351
g54
(dp1352
g74
g75
ssg63
g1346
sg56
(lp1353
S'remote_addr'
p1354
asbag49
(g70
g51
NtRp1355
(dp1356
g54
(dp1357
g81
g82
ssg63
g1346
sg56
(lp1358
S':'
asbag49
(g70
g51
NtRp1359
(dp1360
g54
(dp1361
sg63
g1346
sg56
(lp1362
g49
(g50
g51
NtRp1363
(dp1364
g54
(dp1365
g62
I4
ssg63
g1359
sg56
(lp1366
g216
asbasbasbag49
(g65
g51
NtRp1367
(dp1368
g54
(dp1369
sg63
g790
sg56
(lp1370
g49
(g70
g51
NtRp1371
(dp1372
g54
(dp1373
g74
g75
ssg63
g1367
sg56
(lp1374
S'remote_port'
p1375
asbag49
(g70
g51
NtRp1376
(dp1377
g54
(dp1378
g81
g82
ssg63
g1367
sg56
(lp1379
S':'
asbag49
(g70
g51
NtRp1380
(dp1381
g54
(dp1382
sg63
g1367
sg56
(lp1383
g49
(g50
g51
NtRp1384
(dp1385
g54
(dp1386
g62
I4
ssg63
g1380
sg56
(lp1387
S'58351'
p1388
asbasbasbag49
(g65
g51
NtRp1389
(dp1390
g54
(dp1391
sg63
g790
sg56
(lp1392
g49
(g70
g51
NtRp1393
(dp1394
g54
(dp1395
g74
g75
ssg63
g1389
sg56
(lp1396
S'request_method'
p1397
asbag49
(g70
g51
NtRp1398
(dp1399
g54
(dp1400
g81
g82
ssg63
g1389
sg56
(lp1401
S':'
asbag49
(g70
g51
NtRp1402
(dp1403
g54
(dp1404
sg63
g1389
sg56
(lp1405
g49
(g50
g51
NtRp1406
(dp1407
g54
(dp1408
g62
I4
ssg63
g1402
sg56
(lp1409
S'GET'
p1410
asbasbasbag49
(g65
g51
NtRp1411
(dp1412
g54
(dp1413
sg63
g790
sg56
(lp1414
g49
(g70
g51
NtRp1415
(dp1416
g54
(dp1417
g74
g75
ssg63
g1411
sg56
(lp1418
S'request_uri'
p1419
asbag49
(g70
g51
NtRp1420
(dp1421
g54
(dp1422
g81
g82
ssg63
g1411
sg56
(lp1423
S':'
asbag49
(g70
g51
NtRp1424
(dp1425
g54
(dp1426
sg63
g1411
sg56
(lp1427
g49
(g50
g51
NtRp1428
(dp1429
g54
(dp1430
g62
I4
ssg63
g1424
sg56
(lp1431
g1324
asbasbasbag49
(g65
g51
NtRp1432
(dp1433
g54
(dp1434
sg63
g790
sg56
(lp1435
g49
(g70
g51
NtRp1436
(dp1437
g54
(dp1438
g74
g75
ssg63
g1432
sg56
(lp1439
S'script_name'
p1440
asbag49
(g70
g51
NtRp1441
(dp1442
g54
(dp1443
g81
g82
ssg63
g1432
sg56
(lp1444
S':'
asbag49
(g70
g51
NtRp1445
(dp1446
g54
(dp1447
sg63
g1432
sg56
(lp1448
g49
(g50
g51
NtRp1449
(dp1450
g54
(dp1451
g62
I4
ssg63
g1445
sg56
(lp1452
S''
asbasbasbag49
(g65
g51
NtRp1453
(dp1454
g54
(dp1455
sg63
g790
sg56
(lp1456
g49
(g70
g51
NtRp1457
(dp1458
g54
(dp1459
g74
g75
ssg63
g1453
sg56
(lp1460
S'server_name'
p1461
asbag49
(g70
g51
NtRp1462
(dp1463
g54
(dp1464
g81
g82
ssg63
g1453
sg56
(lp1465
S':'
asbag49
(g70
g51
NtRp1466
(dp1467
g54
(dp1468
sg63
g1453
sg56
(lp1469
g49
(g50
g51
NtRp1470
(dp1471
g54
(dp1472
g62
I4
ssg63
g1466
sg56
(lp1473
S'hntvlan5310374.wlan.sas.upenn.edu'
p1474
asbasbasbag49
(g65
g51
NtRp1475
(dp1476
g54
(dp1477
sg63
g790
sg56
(lp1478
g49
(g70
g51
NtRp1479
(dp1480
g54
(dp1481
g74
g75
ssg63
g1475
sg56
(lp1482
S'server_port'
p1483
asbag49
(g70
g51
NtRp1484
(dp1485
g54
(dp1486
g81
g82
ssg63
g1475
sg56
(lp1487
S':'
asbag49
(g70
g51
NtRp1488
(dp1489
g54
(dp1490
sg63
g1475
sg56
(lp1491
g49
(g50
g51
NtRp1492
(dp1493
g54
(dp1494
g62
I4
ssg63
g1488
sg56
(lp1495
S'8887'
p1496
asbasbasbag49
(g65
g51
NtRp1497
(dp1498
g54
(dp1499
sg63
g790
sg56
(lp1500
g49
(g70
g51
NtRp1501
(dp1502
g54
(dp1503
g74
g75
ssg63
g1497
sg56
(lp1504
S'server_protocol'
p1505
asbag49
(g70
g51
NtRp1506
(dp1507
g54
(dp1508
g81
g82
ssg63
g1497
sg56
(lp1509
S':'
asbag49
(g70
g51
NtRp1510
(dp1511
g54
(dp1512
sg63
g1497
sg56
(lp1513
g49
(g50
g51
NtRp1514
(dp1515
g54
(dp1516
g62
I4
ssg63
g1510
sg56
(lp1517
S'HTTP/1.1'
p1518
asbasbasbag49
(g65
g51
NtRp1519
(dp1520
g54
(dp1521
sg63
g790
sg56
(lp1522
g49
(g70
g51
NtRp1523
(dp1524
g54
(dp1525
g74
g75
ssg63
g1519
sg56
(lp1526
S'server_software'
p1527
asbag49
(g70
g51
NtRp1528
(dp1529
g54
(dp1530
g81
g82
ssg63
g1519
sg56
(lp1531
S':'
asbag49
(g70
g51
NtRp1532
(dp1533
g54
(dp1534
sg63
g1519
sg56
(lp1535
g49
(g50
g51
NtRp1536
(dp1537
g54
(dp1538
g62
I4
ssg63
g1532
sg56
(lp1539
S'Rocket 1.2.6'
p1540
asbasbasbag49
(g65
g51
NtRp1541
(dp1542
g54
(dp1543
sg63
g790
sg56
(lp1544
g49
(g70
g51
NtRp1545
(dp1546
g54
(dp1547
g74
g75
ssg63
g1541
sg56
(lp1548
S'web2py_path'
p1549
asbag49
(g70
g51
NtRp1550
(dp1551
g54
(dp1552
g81
g82
ssg63
g1541
sg56
(lp1553
S':'
asbag49
(g70
g51
NtRp1554
(dp1555
g54
(dp1556
sg63
g1541
sg56
(lp1557
g49
(g50
g51
NtRp1558
(dp1559
g54
(dp1560
g62
I4
ssg63
g1554
sg56
(lp1561
g837
asbasbasbag49
(g65
g51
NtRp1562
(dp1563
g54
(dp1564
sg63
g790
sg56
(lp1565
g49
(g70
g51
NtRp1566
(dp1567
g54
(dp1568
g74
g75
ssg63
g1562
sg56
(lp1569
S'web2py_version'
p1570
asbag49
(g70
g51
NtRp1571
(dp1572
g54
(dp1573
g81
g82
ssg63
g1562
sg56
(lp1574
S':'
asbag49
(g70
g51
NtRp1575
(dp1576
g54
(dp1577
sg63
g1562
sg56
(lp1578
g49
(g50
g51
NtRp1579
(dp1580
g54
(dp1581
g62
I4
ssg63
g1575
sg56
(lp1582
g49
(g58
g51
NtRp1583
(dp1584
g54
(dp1585
g62
I3
ssg63
Nsg56
(lp1586
g49
(g65
g51
NtRp1587
(dp1588
g54
(dp1589
sg63
g1583
sg56
(lp1590
g49
(g70
g51
NtRp1591
(dp1592
g54
(dp1593
sg63
g1587
sg56
(lp1594
g49
(g50
g51
NtRp1595
(dp1596
g54
(dp1597
g62
I3
ssg63
g1591
sg56
(lp1598
S'2'
asbasbasbag49
(g65
g51
NtRp1599
(dp1600
g54
(dp1601
sg63
g1583
sg56
(lp1602
g49
(g70
g51
NtRp1603
(dp1604
g54
(dp1605
sg63
g1599
sg56
(lp1606
g49
(g50
g51
NtRp1607
(dp1608
g54
(dp1609
g62
I3
ssg63
g1603
sg56
(lp1610
S'4'
asbasbasbag49
(g65
g51
NtRp1611
(dp1612
g54
(dp1613
sg63
g1583
sg56
(lp1614
g49
(g70
g51
NtRp1615
(dp1616
g54
(dp1617
sg63
g1611
sg56
(lp1618
g49
(g50
g51
NtRp1619
(dp1620
g54
(dp1621
g62
I3
ssg63
g1615
sg56
(lp1622
S'5'
asbasbasbag49
(g65
g51
NtRp1623
(dp1624
g54
(dp1625
sg63
g1583
sg56
(lp1626
g49
(g70
g51
NtRp1627
(dp1628
g54
(dp1629
sg63
g1623
sg56
(lp1630
g49
(g50
g51
NtRp1631
(dp1632
g54
(dp1633
g62
I3
ssg63
g1627
sg56
(lp1634
S'stable'
p1635
asbasbasbag49
(g65
g51
NtRp1636
(dp1637
g54
(dp1638
sg63
g1583
sg56
(lp1639
g49
(g70
g51
NtRp1640
(dp1641
g54
(dp1642
sg63
g1636
sg56
(lp1643
g49
(g50
g51
NtRp1644
(dp1645
g54
(dp1646
g62
I3
ssg63
g1640
sg56
(lp1647
S'datetime.datetime(2013, 3, 18, 22, 46, 22)'
p1648
asbasbasbasbasbasbasbag49
(g65
g51
NtRp1649
(dp1650
g54
(dp1651
sg63
g790
sg56
(lp1652
g49
(g70
g51
NtRp1653
(dp1654
g54
(dp1655
g74
g75
ssg63
g1649
sg56
(lp1656
S'wsgi_errors'
p1657
asbag49
(g70
g51
NtRp1658
(dp1659
g54
(dp1660
g81
g82
ssg63
g1649
sg56
(lp1661
S':'
asbag49
(g70
g51
NtRp1662
(dp1663
g54
(dp1664
sg63
g1649
sg56
(lp1665
g49
(g50
g51
NtRp1666
(dp1667
g54
(dp1668
g62
I4
ssg63
g1662
sg56
(lp1669
S"<open file '<stderr>', mode 'w' at 0x540b0>"
p1670
asbasbasbag49
(g65
g51
NtRp1671
(dp1672
g54
(dp1673
sg63
g790
sg56
(lp1674
g49
(g70
g51
NtRp1675
(dp1676
g54
(dp1677
g74
g75
ssg63
g1671
sg56
(lp1678
S'wsgi_file_wrapper'
p1679
asbag49
(g70
g51
NtRp1680
(dp1681
g54
(dp1682
g81
g82
ssg63
g1671
sg56
(lp1683
S':'
asbag49
(g70
g51
NtRp1684
(dp1685
g54
(dp1686
sg63
g1671
sg56
(lp1687
g49
(g50
g51
NtRp1688
(dp1689
g54
(dp1690
g62
I4
ssg63
g1684
sg56
(lp1691
S'<class wsgiref.util.FileWrapper at 0x4761060>'
p1692
asbasbasbag49
(g65
g51
NtRp1693
(dp1694
g54
(dp1695
sg63
g790
sg56
(lp1696
g49
(g70
g51
NtRp1697
(dp1698
g54
(dp1699
g74
g75
ssg63
g1693
sg56
(lp1700
S'wsgi_input'
p1701
asbag49
(g70
g51
NtRp1702
(dp1703
g54
(dp1704
g81
g82
ssg63
g1693
sg56
(lp1705
S':'
asbag49
(g70
g51
NtRp1706
(dp1707
g54
(dp1708
sg63
g1693
sg56
(lp1709
g49
(g50
g51
NtRp1710
(dp1711
g54
(dp1712
g62
I4
ssg63
g1706
sg56
(lp1713
S'<socket._fileobject object at 0x8f27030>'
p1714
asbasbasbag49
(g65
g51
NtRp1715
(dp1716
g54
(dp1717
sg63
g790
sg56
(lp1718
g49
(g70
g51
NtRp1719
(dp1720
g54
(dp1721
g74
g75
ssg63
g1715
sg56
(lp1722
S'wsgi_multiprocess'
p1723
asbag49
(g70
g51
NtRp1724
(dp1725
g54
(dp1726
g81
g82
ssg63
g1715
sg56
(lp1727
S':'
asbag49
(g70
g51
NtRp1728
(dp1729
g54
(dp1730
sg63
g1715
sg56
(lp1731
g49
(g50
g51
NtRp1732
(dp1733
g54
(dp1734
g62
I4
ssg63
g1728
sg56
(lp1735
g92
asbasbasbag49
(g65
g51
NtRp1736
(dp1737
g54
(dp1738
sg63
g790
sg56
(lp1739
g49
(g70
g51
NtRp1740
(dp1741
g54
(dp1742
g74
g75
ssg63
g1736
sg56
(lp1743
S'wsgi_multithread'
p1744
asbag49
(g70
g51
NtRp1745
(dp1746
g54
(dp1747
g81
g82
ssg63
g1736
sg56
(lp1748
S':'
asbag49
(g70
g51
NtRp1749
(dp1750
g54
(dp1751
sg63
g1736
sg56
(lp1752
g49
(g50
g51
NtRp1753
(dp1754
g54
(dp1755
g62
I4
ssg63
g1749
sg56
(lp1756
g928
asbasbasbag49
(g65
g51
NtRp1757
(dp1758
g54
(dp1759
sg63
g790
sg56
(lp1760
g49
(g70
g51
NtRp1761
(dp1762
g54
(dp1763
g74
g75
ssg63
g1757
sg56
(lp1764
S'wsgi_run_once'
p1765
asbag49
(g70
g51
NtRp1766
(dp1767
g54
(dp1768
g81
g82
ssg63
g1757
sg56
(lp1769
S':'
asbag49
(g70
g51
NtRp1770
(dp1771
g54
(dp1772
sg63
g1757
sg56
(lp1773
g49
(g50
g51
NtRp1774
(dp1775
g54
(dp1776
g62
I4
ssg63
g1770
sg56
(lp1777
g92
asbasbasbag49
(g65
g51
NtRp1778
(dp1779
g54
(dp1780
sg63
g790
sg56
(lp1781
g49
(g70
g51
NtRp1782
(dp1783
g54
(dp1784
g74
g75
ssg63
g1778
sg56
(lp1785
S'wsgi_url_scheme'
p1786
asbag49
(g70
g51
NtRp1787
(dp1788
g54
(dp1789
g81
g82
ssg63
g1778
sg56
(lp1790
S':'
asbag49
(g70
g51
NtRp1791
(dp1792
g54
(dp1793
sg63
g1778
sg56
(lp1794
g49
(g50
g51
NtRp1795
(dp1796
g54
(dp1797
g62
I4
ssg63
g1791
sg56
(lp1798
S'http'
p1799
asbasbasbag49
(g65
g51
NtRp1800
(dp1801
g54
(dp1802
sg63
g790
sg56
(lp1803
g49
(g70
g51
NtRp1804
(dp1805
g54
(dp1806
g74
g75
ssg63
g1800
sg56
(lp1807
S'wsgi_version'
p1808
asbag49
(g70
g51
NtRp1809
(dp1810
g54
(dp1811
g81
g82
ssg63
g1800
sg56
(lp1812
S':'
asbag49
(g70
g51
NtRp1813
(dp1814
g54
(dp1815
sg63
g1800
sg56
(lp1816
g49
(g50
g51
NtRp1817
(dp1818
g54
(dp1819
g62
I4
ssg63
g1813
sg56
(lp1820
g49
(g58
g51
NtRp1821
(dp1822
g54
(dp1823
g62
I3
ssg63
Nsg56
(lp1824
g49
(g65
g51
NtRp1825
(dp1826
g54
(dp1827
sg63
g1821
sg56
(lp1828
g49
(g70
g51
NtRp1829
(dp1830
g54
(dp1831
sg63
g1825
sg56
(lp1832
g49
(g50
g51
NtRp1833
(dp1834
g54
(dp1835
g62
I3
ssg63
g1829
sg56
(lp1836
S'1'
asbasbasbag49
(g65
g51
NtRp1837
(dp1838
g54
(dp1839
sg63
g1821
sg56
(lp1840
g49
(g70
g51
NtRp1841
(dp1842
g54
(dp1843
sg63
g1837
sg56
(lp1844
g49
(g50
g51
NtRp1845
(dp1846
g54
(dp1847
g62
I3
ssg63
g1841
sg56
(lp1848
S'0'
asbasbasbasbasbasbasbasbasbasbasbag49
(g65
g51
NtRp1849
(dp1850
g54
(dp1851
sg63
g59
sg56
(lp1852
g49
(g70
g51
NtRp1853
(dp1854
g54
(dp1855
g74
g75
ssg63
g1849
sg56
(lp1856
S'extension'
p1857
asbag49
(g70
g51
NtRp1858
(dp1859
g54
(dp1860
g81
g82
ssg63
g1849
sg56
(lp1861
S':'
asbag49
(g70
g51
NtRp1862
(dp1863
g54
(dp1864
sg63
g1849
sg56
(lp1865
g49
(g50
g51
NtRp1866
(dp1867
g54
(dp1868
g62
I5
ssg63
g1862
sg56
(lp1869
S'html'
p1870
asbasbasbag49
(g65
g51
NtRp1871
(dp1872
g54
(dp1873
sg63
g59
sg56
(lp1874
g49
(g70
g51
NtRp1875
(dp1876
g54
(dp1877
g74
g75
ssg63
g1871
sg56
(lp1878
S'folder'
p1879
asbag49
(g70
g51
NtRp1880
(dp1881
g54
(dp1882
g81
g82
ssg63
g1871
sg56
(lp1883
S':'
asbag49
(g70
g51
NtRp1884
(dp1885
g54
(dp1886
sg63
g1871
sg56
(lp1887
g49
(g50
g51
NtRp1888
(dp1889
g54
(dp1890
g62
I5
ssg63
g1884
sg56
(lp1891
S'/Users/zamechek/Downloads/web2py/web2py.app/Contents/Resources/applications/hellow/'
p1892
asbasbasbag49
(g65
g51
NtRp1893
(dp1894
g54
(dp1895
sg63
g59
sg56
(lp1896
g49
(g70
g51
NtRp1897
(dp1898
g54
(dp1899
g74
g75
ssg63
g1893
sg56
(lp1900
S'function'
p1901
asbag49
(g70
g51
NtRp1902
(dp1903
g54
(dp1904
g81
g82
ssg63
g1893
sg56
(lp1905
S':'
asbag49
(g70
g51
NtRp1906
(dp1907
g54
(dp1908
sg63
g1893
sg56
(lp1909
g49
(g50
g51
NtRp1910
(dp1911
g54
(dp1912
g62
I5
ssg63
g1906
sg56
(lp1913
S'show'
p1914
asbasbasbag49
(g65
g51
NtRp1915
(dp1916
g54
(dp1917
sg63
g59
sg56
(lp1918
g49
(g70
g51
NtRp1919
(dp1920
g54
(dp1921
g74
g75
ssg63
g1915
sg56
(lp1922
S'get_vars'
p1923
asbag49
(g70
g51
NtRp1924
(dp1925
g54
(dp1926
g81
g82
ssg63
g1915
sg56
(lp1927
S':'
asbag49
(g70
g51
NtRp1928
(dp1929
g54
(dp1930
sg63
g1915
sg56
(lp1931
g49
(g50
g51
NtRp1932
(dp1933
g54
(dp1934
g62
I5
ssg63
g1928
sg56
(lp1935
g49
(g58
g51
NtRp1936
(dp1937
g54
(dp1938
g62
I4
ssg63
Nsg56
(lp1939
sbasbasbasbag49
(g65
g51
NtRp1940
(dp1941
g54
(dp1942
sg63
g59
sg56
(lp1943
g49
(g70
g51
NtRp1944
(dp1945
g54
(dp1946
g74
g75
ssg63
g1940
sg56
(lp1947
S'global_settings'
p1948
asbag49
(g70
g51
NtRp1949
(dp1950
g54
(dp1951
g81
g82
ssg63
g1940
sg56
(lp1952
S':'
asbag49
(g70
g51
NtRp1953
(dp1954
g54
(dp1955
sg63
g1940
sg56
(lp1956
g49
(g50
g51
NtRp1957
(dp1958
g54
(dp1959
g62
I5
ssg63
g1953
sg56
(lp1960
g49
(g58
g51
NtRp1961
(dp1962
g54
(dp1963
g62
I4
ssg63
Nsg56
(lp1964
g49
(g65
g51
NtRp1965
(dp1966
g54
(dp1967
sg63
g1961
sg56
(lp1968
g49
(g70
g51
NtRp1969
(dp1970
g54
(dp1971
g74
g75
ssg63
g1965
sg56
(lp1972
g802
asbag49
(g70
g51
NtRp1973
(dp1974
g54
(dp1975
g81
g82
ssg63
g1965
sg56
(lp1976
S':'
asbag49
(g70
g51
NtRp1977
(dp1978
g54
(dp1979
sg63
g1965
sg56
(lp1980
g49
(g50
g51
NtRp1981
(dp1982
g54
(dp1983
g62
I4
ssg63
g1977
sg56
(lp1984
S"set(['/Users/zamechek/Downloads/web2py/web2py.app/Contents/Resources/applications/hellow/', '/Users/zamechek/Downloads/web2py/web2py.app/Contents/Resources/applications/admin/', '/Users/zamechek/Downloads/web2py/web2py.app/Contents/Resources/applications/welcome/'])"
p1985
asbasbasbag49
(g65
g51
NtRp1986
(dp1987
g54
(dp1988
sg63
g1961
sg56
(lp1989
g49
(g70
g51
NtRp1990
(dp1991
g54
(dp1992
g74
g75
ssg63
g1986
sg56
(lp1993
g824
asbag49
(g70
g51
NtRp1994
(dp1995
g54
(dp1996
g81
g82
ssg63
g1986
sg56
(lp1997
S':'
asbag49
(g70
g51
NtRp1998
(dp1999
g54
(dp2000
sg63
g1986
sg56
(lp2001
g49
(g50
g51
NtRp2002
(dp2003
g54
(dp2004
g62
I4
ssg63
g1998
sg56
(lp2005
g837
asbasbasbag49
(g65
g51
NtRp2006
(dp2007
g54
(dp2008
sg63
g1961
sg56
(lp2009
g49
(g70
g51
NtRp2010
(dp2011
g54
(dp2012
g74
g75
ssg63
g2006
sg56
(lp2013
g846
asbag49
(g70
g51
NtRp2014
(dp2015
g54
(dp2016
g81
g82
ssg63
g2006
sg56
(lp2017
S':'
asbag49
(g70
g51
NtRp2018
(dp2019
g54
(dp2020
sg63
g2006
sg56
(lp2021
g49
(g50
g51
NtRp2022
(dp2023
g54
(dp2024
g62
I4
ssg63
g2018
sg56
(lp2025
g49
(g58
g51
NtRp2026
(dp2027
g54
(dp2028
g62
I3
ssg63
Nsg56
(lp2029
sbasbasbasbag49
(g65
g51
NtRp2030
(dp2031
g54
(dp2032
sg63
g1961
sg56
(lp2033
g49
(g70
g51
NtRp2034
(dp2035
g54
(dp2036
g74
g75
ssg63
g2030
sg56
(lp2037
g871
asbag49
(g70
g51
NtRp2038
(dp2039
g54
(dp2040
g81
g82
ssg63
g2030
sg56
(lp2041
S':'
asbag49
(g70
g51
NtRp2042
(dp2043
g54
(dp2044
sg63
g2030
sg56
(lp2045
g49
(g50
g51
NtRp2046
(dp2047
g54
(dp2048
g62
I4
ssg63
g2042
sg56
(lp2049
S"<Values at 0x478bf58: {'verbose': False, 'ip': '127.0.0.1', 'with_scheduler': False, 'ips': ['130.91.149.119'], 'shutdown_timeout': 5, 'taskbar': False, 'port': 8000, 'maxthreads': None, 'softcron': False, 'server_name': 'hntvlan5310374.wlan.sas.upenn.edu', 'bpython': False, 'nogui': False, 'pid_filename': 'httpserver.pid', 'extcron': False, 'runcron': False, 'run_system_tests': False, 'test': None, 'folder': '/Users/zamechek/Downloads/web2py/web2py.app/Contents/Resources', 'config': '', 'import_models': False, 'winservice': '', 'shell': None, 'run': '', 'log_filename': 'httpserver.log', 'debuglevel': 30, 'args': [''], 'socket_timeout': 5, 'ssl_ca_certificate': None, 'scheduler': None, 'profiler_filename': None, 'ssl_private_key': '', 'scheduler_groups': None, 'password': '<ask>', 'request_queue_size': 5, 'ssl_certificate': '', 'cronjob': False, 'numthreads': None, 'quiet': False, 'interfaces': None, 'minthreads': None, 'timeout': 10, 'plain': False, 'nobanner': False}>"
p2050
asbasbasbag49
(g65
g51
NtRp2051
(dp2052
g54
(dp2053
sg63
g1961
sg56
(lp2054
g49
(g70
g51
NtRp2055
(dp2056
g54
(dp2057
g74
g75
ssg63
g2051
sg56
(lp2058
g893
asbag49
(g70
g51
NtRp2059
(dp2060
g54
(dp2061
g81
g82
ssg63
g2051
sg56
(lp2062
S':'
asbag49
(g70
g51
NtRp2063
(dp2064
g54
(dp2065
sg63
g2051
sg56
(lp2066
g49
(g50
g51
NtRp2067
(dp2068
g54
(dp2069
g62
I4
ssg63
g2063
sg56
(lp2070
S'set([])'
p2071
asbasbasbag49
(g65
g51
NtRp2072
(dp2073
g54
(dp2074
sg63
g1961
sg56
(lp2075
g49
(g70
g51
NtRp2076
(dp2077
g54
(dp2078
g74
g75
ssg63
g2072
sg56
(lp2079
g915
asbag49
(g70
g51
NtRp2080
(dp2081
g54
(dp2082
g81
g82
ssg63
g2072
sg56
(lp2083
S':'
asbag49
(g70
g51
NtRp2084
(dp2085
g54
(dp2086
sg63
g2072
sg56
(lp2087
g49
(g50
g51
NtRp2088
(dp2089
g54
(dp2090
g62
I4
ssg63
g2084
sg56
(lp2091
g928
asbasbasbag49
(g65
g51
NtRp2092
(dp2093
g54
(dp2094
sg63
g1961
sg56
(lp2095
g49
(g70
g51
NtRp2096
(dp2097
g54
(dp2098
g74
g75
ssg63
g2092
sg56
(lp2099
g937
asbag49
(g70
g51
NtRp2100
(dp2101
g54
(dp2102
g81
g82
ssg63
g2092
sg56
(lp2103
S':'
asbag49
(g70
g51
NtRp2104
(dp2105
g54
(dp2106
sg63
g2092
sg56
(lp2107
g49
(g50
g51
NtRp2108
(dp2109
g54
(dp2110
g62
I4
ssg63
g2104
sg56
(lp2111
g950
asbasbasbag49
(g65
g51
NtRp2112
(dp2113
g54
(dp2114
sg63
g1961
sg56
(lp2115
g49
(g70
g51
NtRp2116
(dp2117
g54
(dp2118
g74
g75
ssg63
g2112
sg56
(lp2119
g1179
asbag49
(g70
g51
NtRp2120
(dp2121
g54
(dp2122
g81
g82
ssg63
g2112
sg56
(lp2123
S':'
asbag49
(g70
g51
NtRp2124
(dp2125
g54
(dp2126
sg63
g2112
sg56
(lp2127
g49
(g50
g51
NtRp2128
(dp2129
g54
(dp2130
g62
I4
ssg63
g2124
sg56
(lp2131
g92
asbasbasbag49
(g65
g51
NtRp2132
(dp2133
g54
(dp2134
sg63
g1961
sg56
(lp2135
g49
(g70
g51
NtRp2136
(dp2137
g54
(dp2138
g74
g75
ssg63
g2132
sg56
(lp2139
g1200
asbag49
(g70
g51
NtRp2140
(dp2141
g54
(dp2142
g81
g82
ssg63
g2132
sg56
(lp2143
S':'
asbag49
(g70
g51
NtRp2144
(dp2145
g54
(dp2146
sg63
g2132
sg56
(lp2147
g49
(g50
g51
NtRp2148
(dp2149
g54
(dp2150
g62
I4
ssg63
g2144
sg56
(lp2151
g92
asbasbasbag49
(g65
g51
NtRp2152
(dp2153
g54
(dp2154
sg63
g1961
sg56
(lp2155
g49
(g70
g51
NtRp2156
(dp2157
g54
(dp2158
g74
g75
ssg63
g2152
sg56
(lp2159
g1221
asbag49
(g70
g51
NtRp2160
(dp2161
g54
(dp2162
g81
g82
ssg63
g2152
sg56
(lp2163
S':'
asbag49
(g70
g51
NtRp2164
(dp2165
g54
(dp2166
sg63
g2152
sg56
(lp2167
g49
(g50
g51
NtRp2168
(dp2169
g54
(dp2170
g62
I4
ssg63
g2164
sg56
(lp2171
g49
(g58
g51
NtRp2172
(dp2173
g54
(dp2174
g62
I3
ssg63
Nsg56
(lp2175
g49
(g65
g51
NtRp2176
(dp2177
g54
(dp2178
sg63
g2172
sg56
(lp2179
g49
(g70
g51
NtRp2180
(dp2181
g54
(dp2182
sg63
g2176
sg56
(lp2183
g49
(g50
g51
NtRp2184
(dp2185
g54
(dp2186
g62
I3
ssg63
g2180
sg56
(lp2187
g1250
asbasbasbag49
(g65
g51
NtRp2188
(dp2189
g54
(dp2190
sg63
g2172
sg56
(lp2191
g49
(g70
g51
NtRp2192
(dp2193
g54
(dp2194
sg63
g2188
sg56
(lp2195
g49
(g50
g51
NtRp2196
(dp2197
g54
(dp2198
g62
I3
ssg63
g2192
sg56
(lp2199
g1263
asbasbasbag49
(g65
g51
NtRp2200
(dp2201
g54
(dp2202
sg63
g2172
sg56
(lp2203
g49
(g70
g51
NtRp2204
(dp2205
g54
(dp2206
sg63
g2200
sg56
(lp2207
g49
(g50
g51
NtRp2208
(dp2209
g54
(dp2210
g62
I3
ssg63
g2204
sg56
(lp2211
g1276
asbasbasbag49
(g65
g51
NtRp2212
(dp2213
g54
(dp2214
sg63
g2172
sg56
(lp2215
g49
(g70
g51
NtRp2216
(dp2217
g54
(dp2218
sg63
g2212
sg56
(lp2219
g49
(g50
g51
NtRp2220
(dp2221
g54
(dp2222
g62
I3
ssg63
g2216
sg56
(lp2223
g1289
asbasbasbag49
(g65
g51
NtRp2224
(dp2225
g54
(dp2226
sg63
g2172
sg56
(lp2227
g49
(g70
g51
NtRp2228
(dp2229
g54
(dp2230
sg63
g2224
sg56
(lp2231
g49
(g50
g51
NtRp2232
(dp2233
g54
(dp2234
g62
I3
ssg63
g2228
sg56
(lp2235
g1302
asbasbasbasbasbasbasbag49
(g65
g51
NtRp2236
(dp2237
g54
(dp2238
sg63
g1961
sg56
(lp2239
g49
(g70
g51
NtRp2240
(dp2241
g54
(dp2242
g74
g75
ssg63
g2236
sg56
(lp2243
g1570
asbag49
(g70
g51
NtRp2244
(dp2245
g54
(dp2246
g81
g82
ssg63
g2236
sg56
(lp2247
S':'
asbag49
(g70
g51
NtRp2248
(dp2249
g54
(dp2250
sg63
g2236
sg56
(lp2251
g49
(g50
g51
NtRp2252
(dp2253
g54
(dp2254
g62
I4
ssg63
g2248
sg56
(lp2255
g49
(g58
g51
NtRp2256
(dp2257
g54
(dp2258
g62
I3
ssg63
Nsg56
(lp2259
g49
(g65
g51
NtRp2260
(dp2261
g54
(dp2262
sg63
g2256
sg56
(lp2263
g49
(g70
g51
NtRp2264
(dp2265
g54
(dp2266
sg63
g2260
sg56
(lp2267
g49
(g50
g51
NtRp2268
(dp2269
g54
(dp2270
g62
I3
ssg63
g2264
sg56
(lp2271
S'2'
asbasbasbag49
(g65
g51
NtRp2272
(dp2273
g54
(dp2274
sg63
g2256
sg56
(lp2275
g49
(g70
g51
NtRp2276
(dp2277
g54
(dp2278
sg63
g2272
sg56
(lp2279
g49
(g50
g51
NtRp2280
(dp2281
g54
(dp2282
g62
I3
ssg63
g2276
sg56
(lp2283
S'4'
asbasbasbag49
(g65
g51
NtRp2284
(dp2285
g54
(dp2286
sg63
g2256
sg56
(lp2287
g49
(g70
g51
NtRp2288
(dp2289
g54
(dp2290
sg63
g2284
sg56
(lp2291
g49
(g50
g51
NtRp2292
(dp2293
g54
(dp2294
g62
I3
ssg63
g2288
sg56
(lp2295
S'5'
asbasbasbag49
(g65
g51
NtRp2296
(dp2297
g54
(dp2298
sg63
g2256
sg56
(lp2299
g49
(g70
g51
NtRp2300
(dp2301
g54
(dp2302
sg63
g2296
sg56
(lp2303
g49
(g50
g51
NtRp2304
(dp2305
g54
(dp2306
g62
I3
ssg63
g2300
sg56
(lp2307
g1635
asbasbasbag49
(g65
g51
NtRp2308
(dp2309
g54
(dp2310
sg63
g2256
sg56
(lp2311
g49
(g70
g51
NtRp2312
(dp2313
g54
(dp2314
sg63
g2308
sg56
(lp2315
g49
(g50
g51
NtRp2316
(dp2317
g54
(dp2318
g62
I3
ssg63
g2312
sg56
(lp2319
S'datetime.datetime(2013, 3, 18, 22, 46, 22)'
p2320
asbasbasbasbasbasbasbasbasbasbasbag49
(g65
g51
NtRp2321
(dp2322
g54
(dp2323
sg63
g59
sg56
(lp2324
g49
(g70
g51
NtRp2325
(dp2326
g54
(dp2327
g74
g75
ssg63
g2321
sg56
(lp2328
S'is_https'
p2329
asbag49
(g70
g51
NtRp2330
(dp2331
g54
(dp2332
g81
g82
ssg63
g2321
sg56
(lp2333
S':'
asbag49
(g70
g51
NtRp2334
(dp2335
g54
(dp2336
sg63
g2321
sg56
(lp2337
g49
(g50
g51
NtRp2338
(dp2339
g54
(dp2340
g62
I5
ssg63
g2334
sg56
(lp2341
g92
asbasbasbag49
(g65
g51
NtRp2342
(dp2343
g54
(dp2344
sg63
g59
sg56
(lp2345
g49
(g70
g51
NtRp2346
(dp2347
g54
(dp2348
g74
g75
ssg63
g2342
sg56
(lp2349
S'is_local'
p2350
asbag49
(g70
g51
NtRp2351
(dp2352
g54
(dp2353
g81
g82
ssg63
g2342
sg56
(lp2354
S':'
asbag49
(g70
g51
NtRp2355
(dp2356
g54
(dp2357
sg63
g2342
sg56
(lp2358
g49
(g50
g51
NtRp2359
(dp2360
g54
(dp2361
g62
I5
ssg63
g2355
sg56
(lp2362
g928
asbasbasbag49
(g65
g51
NtRp2363
(dp2364
g54
(dp2365
sg63
g59
sg56
(lp2366
g49
(g70
g51
NtRp2367
(dp2368
g54
(dp2369
g74
g75
ssg63
g2363
sg56
(lp2370
S'is_restful'
p2371
asbag49
(g70
g51
NtRp2372
(dp2373
g54
(dp2374
g81
g82
ssg63
g2363
sg56
(lp2375
S':'
asbag49
(g70
g51
NtRp2376
(dp2377
g54
(dp2378
sg63
g2363
sg56
(lp2379
g49
(g50
g51
NtRp2380
(dp2381
g54
(dp2382
g62
I5
ssg63
g2376
sg56
(lp2383
g92
asbasbasbag49
(g65
g51
NtRp2384
(dp2385
g54
(dp2386
sg63
g59
sg56
(lp2387
g49
(g70
g51
NtRp2388
(dp2389
g54
(dp2390
g74
g75
ssg63
g2384
sg56
(lp2391
S'now'
p2392
asbag49
(g70
g51
NtRp2393
(dp2394
g54
(dp2395
g81
g82
ssg63
g2384
sg56
(lp2396
S':'
asbag49
(g70
g51
NtRp2397
(dp2398
g54
(dp2399
sg63
g2384
sg56
(lp2400
g49
(g50
g51
NtRp2401
(dp2402
g54
(dp2403
g62
I5
ssg63
g2397
sg56
(lp2404
S'datetime.datetime(2013, 3, 27, 12, 50, 36, 979122)'
p2405
asbasbasbag49
(g65
g51
NtRp2406
(dp2407
g54
(dp2408
sg63
g59
sg56
(lp2409
g49
(g70
g51
NtRp2410
(dp2411
g54
(dp2412
g74
g75
ssg63
g2406
sg56
(lp2413
S'post_vars'
p2414
asbag49
(g70
g51
NtRp2415
(dp2416
g54
(dp2417
g81
g82
ssg63
g2406
sg56
(lp2418
S':'
asbag49
(g70
g51
NtRp2419
(dp2420
g54
(dp2421
sg63
g2406
sg56
(lp2422
g49
(g50
g51
NtRp2423
(dp2424
g54
(dp2425
g62
I5
ssg63
g2419
sg56
(lp2426
g49
(g58
g51
NtRp2427
(dp2428
g54
(dp2429
g62
I4
ssg63
Nsg56
(lp2430
sbasbasbasbag49
(g65
g51
NtRp2431
(dp2432
g54
(dp2433
sg63
g59
sg56
(lp2434
g49
(g70
g51
NtRp2435
(dp2436
g54
(dp2437
g74
g75
ssg63
g2431
sg56
(lp2438
S'raw_args'
p2439
asbag49
(g70
g51
NtRp2440
(dp2441
g54
(dp2442
g81
g82
ssg63
g2431
sg56
(lp2443
S':'
asbag49
(g70
g51
NtRp2444
(dp2445
g54
(dp2446
sg63
g2431
sg56
(lp2447
g49
(g50
g51
NtRp2448
(dp2449
g54
(dp2450
g62
I5
ssg63
g2444
sg56
(lp2451
S'1'
asbasbasbag49
(g65
g51
NtRp2452
(dp2453
g54
(dp2454
sg63
g59
sg56
(lp2455
g49
(g70
g51
NtRp2456
(dp2457
g54
(dp2458
g74
g75
ssg63
g2452
sg56
(lp2459
S'raw_extension'
p2460
asbag49
(g70
g51
NtRp2461
(dp2462
g54
(dp2463
g81
g82
ssg63
g2452
sg56
(lp2464
S':'
asbag49
(g70
g51
NtRp2465
(dp2466
g54
(dp2467
sg63
g2452
sg56
(lp2468
g49
(g50
g51
NtRp2469
(dp2470
g54
(dp2471
g62
I5
ssg63
g2465
sg56
(lp2472
S'None'
p2473
asbasbasbag49
(g65
g51
NtRp2474
(dp2475
g54
(dp2476
sg63
g59
sg56
(lp2477
g49
(g70
g51
NtRp2478
(dp2479
g54
(dp2480
g74
g75
ssg63
g2474
sg56
(lp2481
S'url'
p2482
asbag49
(g70
g51
NtRp2483
(dp2484
g54
(dp2485
g81
g82
ssg63
g2474
sg56
(lp2486
S':'
asbag49
(g70
g51
NtRp2487
(dp2488
g54
(dp2489
sg63
g2474
sg56
(lp2490
g49
(g50
g51
NtRp2491
(dp2492
g54
(dp2493
g62
I5
ssg63
g2487
sg56
(lp2494
g1324
asbasbasbag49
(g65
g51
NtRp2495
(dp2496
g54
(dp2497
sg63
g59
sg56
(lp2498
g49
(g70
g51
NtRp2499
(dp2500
g54
(dp2501
g74
g75
ssg63
g2495
sg56
(lp2502
S'utcnow'
p2503
asbag49
(g70
g51
NtRp2504
(dp2505
g54
(dp2506
g81
g82
ssg63
g2495
sg56
(lp2507
S':'
asbag49
(g70
g51
NtRp2508
(dp2509
g54
(dp2510
sg63
g2495
sg56
(lp2511
g49
(g50
g51
NtRp2512
(dp2513
g54
(dp2514
g62
I5
ssg63
g2508
sg56
(lp2515
S'datetime.datetime(2013, 3, 27, 16, 50, 36, 979133)'
p2516
asbasbasbag49
(g65
g51
NtRp2517
(dp2518
g54
(dp2519
sg63
g59
sg56
(lp2520
g49
(g70
g51
NtRp2521
(dp2522
g54
(dp2523
g74
g75
ssg63
g2517
sg56
(lp2524
S'uuid'
p2525
asbag49
(g70
g51
NtRp2526
(dp2527
g54
(dp2528
g81
g82
ssg63
g2517
sg56
(lp2529
S':'
asbag49
(g70
g51
NtRp2530
(dp2531
g54
(dp2532
sg63
g2517
sg56
(lp2533
g49
(g50
g51
NtRp2534
(dp2535
g54
(dp2536
g62
I5
ssg63
g2530
sg56
(lp2537
S'hellow/127.0.0.1.2013-03-27.12-50-36.d35b21f3-9d68-4231-bdb8-ebea7f78ab7c'
p2538
asbasbasbag49
(g65
g51
NtRp2539
(dp2540
g54
(dp2541
sg63
g59
sg56
(lp2542
g49
(g70
g51
NtRp2543
(dp2544
g54
(dp2545
g74
g75
ssg63
g2539
sg56
(lp2546
S'vars'
p2547
asbag49
(g70
g51
NtRp2548
(dp2549
g54
(dp2550
g81
g82
ssg63
g2539
sg56
(lp2551
S':'
asbag49
(g70
g51
NtRp2552
(dp2553
g54
(dp2554
sg63
g2539
sg56
(lp2555
g49
(g50
g51
NtRp2556
(dp2557
g54
(dp2558
g62
I5
ssg63
g2552
sg56
(lp2559
g49
(g58
g51
NtRp2560
(dp2561
g54
(dp2562
g62
I4
ssg63
Nsg56
(lp2563
sbasbasbasbag49
(g65
g51
NtRp2564
(dp2565
g54
(dp2566
sg63
g59
sg56
(lp2567
g49
(g70
g51
NtRp2568
(dp2569
g54
(dp2570
g74
g75
ssg63
g2564
sg56
(lp2571
S'wsgi'
p2572
asbag49
(g70
g51
NtRp2573
(dp2574
g54
(dp2575
g81
g82
ssg63
g2564
sg56
(lp2576
S':'
asbag49
(g70
g51
NtRp2577
(dp2578
g54
(dp2579
sg63
g2564
sg56
(lp2580
g49
(g50
g51
NtRp2581
(dp2582
g54
(dp2583
g62
I5
ssg63
g2577
sg56
(lp2584
g49
(g58
g51
NtRp2585
(dp2586
g54
(dp2587
g62
I4
ssg63
Nsg56
(lp2588
g49
(g65
g51
NtRp2589
(dp2590
g54
(dp2591
sg63
g2585
sg56
(lp2592
g49
(g70
g51
NtRp2593
(dp2594
g54
(dp2595
g74
g75
ssg63
g2589
sg56
(lp2596
S'environ'
p2597
asbag49
(g70
g51
NtRp2598
(dp2599
g54
(dp2600
g81
g82
ssg63
g2589
sg56
(lp2601
S':'
asbag49
(g70
g51
NtRp2602
(dp2603
g54
(dp2604
sg63
g2589
sg56
(lp2605
g49
(g50
g51
NtRp2606
(dp2607
g54
(dp2608
g62
I4
ssg63
g2602
sg56
(lp2609
g49
(g58
g51
NtRp2610
(dp2611
g54
(dp2612
g62
I3
ssg63
Nsg56
(lp2613
g49
(g65
g51
NtRp2614
(dp2615
g54
(dp2616
sg63
g2610
sg56
(lp2617
g49
(g70
g51
NtRp2618
(dp2619
g54
(dp2620
g74
g75
ssg63
g2614
sg56
(lp2621
S'HTTP_ACCEPT'
p2622
asbag49
(g70
g51
NtRp2623
(dp2624
g54
(dp2625
g81
g82
ssg63
g2614
sg56
(lp2626
S':'
asbag49
(g70
g51
NtRp2627
(dp2628
g54
(dp2629
sg63
g2614
sg56
(lp2630
g49
(g50
g51
NtRp2631
(dp2632
g54
(dp2633
g62
I3
ssg63
g2627
sg56
(lp2634
g972
asbasbasbag49
(g65
g51
NtRp2635
(dp2636
g54
(dp2637
sg63
g2610
sg56
(lp2638
g49
(g70
g51
NtRp2639
(dp2640
g54
(dp2641
g74
g75
ssg63
g2635
sg56
(lp2642
S'HTTP_ACCEPT_CHARSET'
p2643
asbag49
(g70
g51
NtRp2644
(dp2645
g54
(dp2646
g81
g82
ssg63
g2635
sg56
(lp2647
S':'
asbag49
(g70
g51
NtRp2648
(dp2649
g54
(dp2650
sg63
g2635
sg56
(lp2651
g49
(g50
g51
NtRp2652
(dp2653
g54
(dp2654
g62
I3
ssg63
g2648
sg56
(lp2655
g994
asbasbasbag49
(g65
g51
NtRp2656
(dp2657
g54
(dp2658
sg63
g2610
sg56
(lp2659
g49
(g70
g51
NtRp2660
(dp2661
g54
(dp2662
g74
g75
ssg63
g2656
sg56
(lp2663
S'HTTP_ACCEPT_ENCODING'
p2664
asbag49
(g70
g51
NtRp2665
(dp2666
g54
(dp2667
g81
g82
ssg63
g2656
sg56
(lp2668
S':'
asbag49
(g70
g51
NtRp2669
(dp2670
g54
(dp2671
sg63
g2656
sg56
(lp2672
g49
(g50
g51
NtRp2673
(dp2674
g54
(dp2675
g62
I3
ssg63
g2669
sg56
(lp2676
g1016
asbasbasbag49
(g65
g51
NtRp2677
(dp2678
g54
(dp2679
sg63
g2610
sg56
(lp2680
g49
(g70
g51
NtRp2681
(dp2682
g54
(dp2683
g74
g75
ssg63
g2677
sg56
(lp2684
S'HTTP_ACCEPT_LANGUAGE'
p2685
asbag49
(g70
g51
NtRp2686
(dp2687
g54
(dp2688
g81
g82
ssg63
g2677
sg56
(lp2689
S':'
asbag49
(g70
g51
NtRp2690
(dp2691
g54
(dp2692
sg63
g2677
sg56
(lp2693
g49
(g50
g51
NtRp2694
(dp2695
g54
(dp2696
g62
I3
ssg63
g2690
sg56
(lp2697
g1038
asbasbasbag49
(g65
g51
NtRp2698
(dp2699
g54
(dp2700
sg63
g2610
sg56
(lp2701
g49
(g70
g51
NtRp2702
(dp2703
g54
(dp2704
g74
g75
ssg63
g2698
sg56
(lp2705
S'HTTP_CACHE_CONTROL'
p2706
asbag49
(g70
g51
NtRp2707
(dp2708
g54
(dp2709
g81
g82
ssg63
g2698
sg56
(lp2710
S':'
asbag49
(g70
g51
NtRp2711
(dp2712
g54
(dp2713
sg63
g2698
sg56
(lp2714
g49
(g50
g51
NtRp2715
(dp2716
g54
(dp2717
g62
I3
ssg63
g2711
sg56
(lp2718
g1060
asbasbasbag49
(g65
g51
NtRp2719
(dp2720
g54
(dp2721
sg63
g2610
sg56
(lp2722
g49
(g70
g51
NtRp2723
(dp2724
g54
(dp2725
g74
g75
ssg63
g2719
sg56
(lp2726
S'HTTP_CONNECTION'
p2727
asbag49
(g70
g51
NtRp2728
(dp2729
g54
(dp2730
g81
g82
ssg63
g2719
sg56
(lp2731
S':'
asbag49
(g70
g51
NtRp2732
(dp2733
g54
(dp2734
sg63
g2719
sg56
(lp2735
g49
(g50
g51
NtRp2736
(dp2737
g54
(dp2738
g62
I3
ssg63
g2732
sg56
(lp2739
g1082
asbasbasbag49
(g65
g51
NtRp2740
(dp2741
g54
(dp2742
sg63
g2610
sg56
(lp2743
g49
(g70
g51
NtRp2744
(dp2745
g54
(dp2746
g74
g75
ssg63
g2740
sg56
(lp2747
S'HTTP_COOKIE'
p2748
asbag49
(g70
g51
NtRp2749
(dp2750
g54
(dp2751
g81
g82
ssg63
g2740
sg56
(lp2752
S':'
asbag49
(g70
g51
NtRp2753
(dp2754
g54
(dp2755
sg63
g2740
sg56
(lp2756
g49
(g50
g51
NtRp2757
(dp2758
g54
(dp2759
g62
I3
ssg63
g2753
sg56
(lp2760
g1104
asbasbasbag49
(g65
g51
NtRp2761
(dp2762
g54
(dp2763
sg63
g2610
sg56
(lp2764
g49
(g70
g51
NtRp2765
(dp2766
g54
(dp2767
g74
g75
ssg63
g2761
sg56
(lp2768
S'HTTP_HOST'
p2769
asbag49
(g70
g51
NtRp2770
(dp2771
g54
(dp2772
g81
g82
ssg63
g2761
sg56
(lp2773
S':'
asbag49
(g70
g51
NtRp2774
(dp2775
g54
(dp2776
sg63
g2761
sg56
(lp2777
g49
(g50
g51
NtRp2778
(dp2779
g54
(dp2780
g62
I3
ssg63
g2774
sg56
(lp2781
g1126
asbasbasbag49
(g65
g51
NtRp2782
(dp2783
g54
(dp2784
sg63
g2610
sg56
(lp2785
g49
(g70
g51
NtRp2786
(dp2787
g54
(dp2788
g74
g75
ssg63
g2782
sg56
(lp2789
S'HTTP_REFERER'
p2790
asbag49
(g70
g51
NtRp2791
(dp2792
g54
(dp2793
g81
g82
ssg63
g2782
sg56
(lp2794
S':'
asbag49
(g70
g51
NtRp2795
(dp2796
g54
(dp2797
sg63
g2782
sg56
(lp2798
g49
(g50
g51
NtRp2799
(dp2800
g54
(dp2801
g62
I3
ssg63
g2795
sg56
(lp2802
g1148
asbasbasbag49
(g65
g51
NtRp2803
(dp2804
g54
(dp2805
sg63
g2610
sg56
(lp2806
g49
(g70
g51
NtRp2807
(dp2808
g54
(dp2809
g74
g75
ssg63
g2803
sg56
(lp2810
S'HTTP_USER_AGENT'
p2811
asbag49
(g70
g51
NtRp2812
(dp2813
g54
(dp2814
g81
g82
ssg63
g2803
sg56
(lp2815
S':'
asbag49
(g70
g51
NtRp2816
(dp2817
g54
(dp2818
sg63
g2803
sg56
(lp2819
g49
(g50
g51
NtRp2820
(dp2821
g54
(dp2822
g62
I3
ssg63
g2816
sg56
(lp2823
g1170
asbasbasbag49
(g65
g51
NtRp2824
(dp2825
g54
(dp2826
sg63
g2610
sg56
(lp2827
g49
(g70
g51
NtRp2828
(dp2829
g54
(dp2830
g74
g75
ssg63
g2824
sg56
(lp2831
S'PATH_INFO'
p2832
asbag49
(g70
g51
NtRp2833
(dp2834
g54
(dp2835
g81
g82
ssg63
g2824
sg56
(lp2836
S':'
asbag49
(g70
g51
NtRp2837
(dp2838
g54
(dp2839
sg63
g2824
sg56
(lp2840
g49
(g50
g51
NtRp2841
(dp2842
g54
(dp2843
g62
I3
ssg63
g2837
sg56
(lp2844
g1324
asbasbasbag49
(g65
g51
NtRp2845
(dp2846
g54
(dp2847
sg63
g2610
sg56
(lp2848
g49
(g70
g51
NtRp2849
(dp2850
g54
(dp2851
g74
g75
ssg63
g2845
sg56
(lp2852
S'QUERY_STRING'
p2853
asbag49
(g70
g51
NtRp2854
(dp2855
g54
(dp2856
g81
g82
ssg63
g2845
sg56
(lp2857
S':'
asbag49
(g70
g51
NtRp2858
(dp2859
g54
(dp2860
sg63
g2845
sg56
(lp2861
g49
(g50
g51
NtRp2862
(dp2863
g54
(dp2864
g62
I3
ssg63
g2858
sg56
(lp2865
S''
asbasbasbag49
(g65
g51
NtRp2866
(dp2867
g54
(dp2868
sg63
g2610
sg56
(lp2869
g49
(g70
g51
NtRp2870
(dp2871
g54
(dp2872
g74
g75
ssg63
g2866
sg56
(lp2873
S'REMOTE_ADDR'
p2874
asbag49
(g70
g51
NtRp2875
(dp2876
g54
(dp2877
g81
g82
ssg63
g2866
sg56
(lp2878
S':'
asbag49
(g70
g51
NtRp2879
(dp2880
g54
(dp2881
sg63
g2866
sg56
(lp2882
g49
(g50
g51
NtRp2883
(dp2884
g54
(dp2885
g62
I3
ssg63
g2879
sg56
(lp2886
g216
asbasbasbag49
(g65
g51
NtRp2887
(dp2888
g54
(dp2889
sg63
g2610
sg56
(lp2890
g49
(g70
g51
NtRp2891
(dp2892
g54
(dp2893
g74
g75
ssg63
g2887
sg56
(lp2894
S'REMOTE_PORT'
p2895
asbag49
(g70
g51
NtRp2896
(dp2897
g54
(dp2898
g81
g82
ssg63
g2887
sg56
(lp2899
S':'
asbag49
(g70
g51
NtRp2900
(dp2901
g54
(dp2902
sg63
g2887
sg56
(lp2903
g49
(g50
g51
NtRp2904
(dp2905
g54
(dp2906
g62
I3
ssg63
g2900
sg56
(lp2907
g1388
asbasbasbag49
(g65
g51
NtRp2908
(dp2909
g54
(dp2910
sg63
g2610
sg56
(lp2911
g49
(g70
g51
NtRp2912
(dp2913
g54
(dp2914
g74
g75
ssg63
g2908
sg56
(lp2915
S'REQUEST_METHOD'
p2916
asbag49
(g70
g51
NtRp2917
(dp2918
g54
(dp2919
g81
g82
ssg63
g2908
sg56
(lp2920
S':'
asbag49
(g70
g51
NtRp2921
(dp2922
g54
(dp2923
sg63
g2908
sg56
(lp2924
g49
(g50
g51
NtRp2925
(dp2926
g54
(dp2927
g62
I3
ssg63
g2921
sg56
(lp2928
g1410
asbasbasbag49
(g65
g51
NtRp2929
(dp2930
g54
(dp2931
sg63
g2610
sg56
(lp2932
g49
(g70
g51
NtRp2933
(dp2934
g54
(dp2935
g74
g75
ssg63
g2929
sg56
(lp2936
S'REQUEST_URI'
p2937
asbag49
(g70
g51
NtRp2938
(dp2939
g54
(dp2940
g81
g82
ssg63
g2929
sg56
(lp2941
S':'
asbag49
(g70
g51
NtRp2942
(dp2943
g54
(dp2944
sg63
g2929
sg56
(lp2945
g49
(g50
g51
NtRp2946
(dp2947
g54
(dp2948
g62
I3
ssg63
g2942
sg56
(lp2949
g1324
asbasbasbag49
(g65
g51
NtRp2950
(dp2951
g54
(dp2952
sg63
g2610
sg56
(lp2953
g49
(g70
g51
NtRp2954
(dp2955
g54
(dp2956
g74
g75
ssg63
g2950
sg56
(lp2957
S'SCRIPT_NAME'
p2958
asbag49
(g70
g51
NtRp2959
(dp2960
g54
(dp2961
g81
g82
ssg63
g2950
sg56
(lp2962
S':'
asbag49
(g70
g51
NtRp2963
(dp2964
g54
(dp2965
sg63
g2950
sg56
(lp2966
g49
(g50
g51
NtRp2967
(dp2968
g54
(dp2969
g62
I3
ssg63
g2963
sg56
(lp2970
S''
asbasbasbag49
(g65
g51
NtRp2971
(dp2972
g54
(dp2973
sg63
g2610
sg56
(lp2974
g49
(g70
g51
NtRp2975
(dp2976
g54
(dp2977
g74
g75
ssg63
g2971
sg56
(lp2978
S'SERVER_NAME'
p2979
asbag49
(g70
g51
NtRp2980
(dp2981
g54
(dp2982
g81
g82
ssg63
g2971
sg56
(lp2983
S':'
asbag49
(g70
g51
NtRp2984
(dp2985
g54
(dp2986
sg63
g2971
sg56
(lp2987
g49
(g50
g51
NtRp2988
(dp2989
g54
(dp2990
g62
I3
ssg63
g2984
sg56
(lp2991
g1474
asbasbasbag49
(g65
g51
NtRp2992
(dp2993
g54
(dp2994
sg63
g2610
sg56
(lp2995
g49
(g70
g51
NtRp2996
(dp2997
g54
(dp2998
g74
g75
ssg63
g2992
sg56
(lp2999
S'SERVER_PORT'
p3000
asbag49
(g70
g51
NtRp3001
(dp3002
g54
(dp3003
g81
g82
ssg63
g2992
sg56
(lp3004
S':'
asbag49
(g70
g51
NtRp3005
(dp3006
g54
(dp3007
sg63
g2992
sg56
(lp3008
g49
(g50
g51
NtRp3009
(dp3010
g54
(dp3011
g62
I3
ssg63
g3005
sg56
(lp3012
g1496
asbasbasbag49
(g65
g51
NtRp3013
(dp3014
g54
(dp3015
sg63
g2610
sg56
(lp3016
g49
(g70
g51
NtRp3017
(dp3018
g54
(dp3019
g74
g75
ssg63
g3013
sg56
(lp3020
S'SERVER_PROTOCOL'
p3021
asbag49
(g70
g51
NtRp3022
(dp3023
g54
(dp3024
g81
g82
ssg63
g3013
sg56
(lp3025
S':'
asbag49
(g70
g51
NtRp3026
(dp3027
g54
(dp3028
sg63
g3013
sg56
(lp3029
g49
(g50
g51
NtRp3030
(dp3031
g54
(dp3032
g62
I3
ssg63
g3026
sg56
(lp3033
g1518
asbasbasbag49
(g65
g51
NtRp3034
(dp3035
g54
(dp3036
sg63
g2610
sg56
(lp3037
g49
(g70
g51
NtRp3038
(dp3039
g54
(dp3040
g74
g75
ssg63
g3034
sg56
(lp3041
S'SERVER_SOFTWARE'
p3042
asbag49
(g70
g51
NtRp3043
(dp3044
g54
(dp3045
g81
g82
ssg63
g3034
sg56
(lp3046
S':'
asbag49
(g70
g51
NtRp3047
(dp3048
g54
(dp3049
sg63
g3034
sg56
(lp3050
g49
(g50
g51
NtRp3051
(dp3052
g54
(dp3053
g62
I3
ssg63
g3047
sg56
(lp3054
g1540
asbasbasbag49
(g65
g51
NtRp3055
(dp3056
g54
(dp3057
sg63
g2610
sg56
(lp3058
g49
(g70
g51
NtRp3059
(dp3060
g54
(dp3061
g74
g75
ssg63
g3055
sg56
(lp3062
S'wsgi.errors'
p3063
asbag49
(g70
g51
NtRp3064
(dp3065
g54
(dp3066
g81
g82
ssg63
g3055
sg56
(lp3067
S':'
asbag49
(g70
g51
NtRp3068
(dp3069
g54
(dp3070
sg63
g3055
sg56
(lp3071
g49
(g50
g51
NtRp3072
(dp3073
g54
(dp3074
g62
I3
ssg63
g3068
sg56
(lp3075
S"<open file '<stderr>', mode 'w' at 0x540b0>"
p3076
asbasbasbag49
(g65
g51
NtRp3077
(dp3078
g54
(dp3079
sg63
g2610
sg56
(lp3080
g49
(g70
g51
NtRp3081
(dp3082
g54
(dp3083
g74
g75
ssg63
g3077
sg56
(lp3084
S'wsgi.file_wrapper'
p3085
asbag49
(g70
g51
NtRp3086
(dp3087
g54
(dp3088
g81
g82
ssg63
g3077
sg56
(lp3089
S':'
asbag49
(g70
g51
NtRp3090
(dp3091
g54
(dp3092
sg63
g3077
sg56
(lp3093
g49
(g50
g51
NtRp3094
(dp3095
g54
(dp3096
g62
I3
ssg63
g3090
sg56
(lp3097
S'<class wsgiref.util.FileWrapper at 0x4761060>'
p3098
asbasbasbag49
(g65
g51
NtRp3099
(dp3100
g54
(dp3101
sg63
g2610
sg56
(lp3102
g49
(g70
g51
NtRp3103
(dp3104
g54
(dp3105
g74
g75
ssg63
g3099
sg56
(lp3106
S'wsgi.input'
p3107
asbag49
(g70
g51
NtRp3108
(dp3109
g54
(dp3110
g81
g82
ssg63
g3099
sg56
(lp3111
S':'
asbag49
(g70
g51
NtRp3112
(dp3113
g54
(dp3114
sg63
g3099
sg56
(lp3115
g49
(g50
g51
NtRp3116
(dp3117
g54
(dp3118
g62
I3
ssg63
g3112
sg56
(lp3119
S'<cStringIO.StringO object at 0x803a9c0>'
p3120
asbasbasbag49
(g65
g51
NtRp3121
(dp3122
g54
(dp3123
sg63
g2610
sg56
(lp3124
g49
(g70
g51
NtRp3125
(dp3126
g54
(dp3127
g74
g75
ssg63
g3121
sg56
(lp3128
S'wsgi.multiprocess'
p3129
asbag49
(g70
g51
NtRp3130
(dp3131
g54
(dp3132
g81
g82
ssg63
g3121
sg56
(lp3133
S':'
asbag49
(g70
g51
NtRp3134
(dp3135
g54
(dp3136
sg63
g3121
sg56
(lp3137
g49
(g50
g51
NtRp3138
(dp3139
g54
(dp3140
g62
I3
ssg63
g3134
sg56
(lp3141
g92
asbasbasbag49
(g65
g51
NtRp3142
(dp3143
g54
(dp3144
sg63
g2610
sg56
(lp3145
g49
(g70
g51
NtRp3146
(dp3147
g54
(dp3148
g74
g75
ssg63
g3142
sg56
(lp3149
S'wsgi.multithread'
p3150
asbag49
(g70
g51
NtRp3151
(dp3152
g54
(dp3153
g81
g82
ssg63
g3142
sg56
(lp3154
S':'
asbag49
(g70
g51
NtRp3155
(dp3156
g54
(dp3157
sg63
g3142
sg56
(lp3158
g49
(g50
g51
NtRp3159
(dp3160
g54
(dp3161
g62
I3
ssg63
g3155
sg56
(lp3162
g928
asbasbasbag49
(g65
g51
NtRp3163
(dp3164
g54
(dp3165
sg63
g2610
sg56
(lp3166
g49
(g70
g51
NtRp3167
(dp3168
g54
(dp3169
g74
g75
ssg63
g3163
sg56
(lp3170
S'wsgi.run_once'
p3171
asbag49
(g70
g51
NtRp3172
(dp3173
g54
(dp3174
g81
g82
ssg63
g3163
sg56
(lp3175
S':'
asbag49
(g70
g51
NtRp3176
(dp3177
g54
(dp3178
sg63
g3163
sg56
(lp3179
g49
(g50
g51
NtRp3180
(dp3181
g54
(dp3182
g62
I3
ssg63
g3176
sg56
(lp3183
g92
asbasbasbag49
(g65
g51
NtRp3184
(dp3185
g54
(dp3186
sg63
g2610
sg56
(lp3187
g49
(g70
g51
NtRp3188
(dp3189
g54
(dp3190
g74
g75
ssg63
g3184
sg56
(lp3191
S'wsgi.url_scheme'
p3192
asbag49
(g70
g51
NtRp3193
(dp3194
g54
(dp3195
g81
g82
ssg63
g3184
sg56
(lp3196
S':'
asbag49
(g70
g51
NtRp3197
(dp3198
g54
(dp3199
sg63
g3184
sg56
(lp3200
g49
(g50
g51
NtRp3201
(dp3202
g54
(dp3203
g62
I3
ssg63
g3197
sg56
(lp3204
g1799
asbasbasbag49
(g65
g51
NtRp3205
(dp3206
g54
(dp3207
sg63
g2610
sg56
(lp3208
g49
(g70
g51
NtRp3209
(dp3210
g54
(dp3211
g74
g75
ssg63
g3205
sg56
(lp3212
S'wsgi.version'
p3213
asbag49
(g70
g51
NtRp3214
(dp3215
g54
(dp3216
g81
g82
ssg63
g3205
sg56
(lp3217
S':'
asbag49
(g70
g51
NtRp3218
(dp3219
g54
(dp3220
sg63
g3205
sg56
(lp3221
g49
(g50
g51
NtRp3222
(dp3223
g54
(dp3224
g62
I3
ssg63
g3218
sg56
(lp3225
S'1'
asbasbasbasbasbasbasbasbasbasbasbasbasbsS'frames'
p3226
(lp3227
(dp3228
S'file'
p3229
S'/home/mdipierro/web2py/gluon/restricted.py'
p3230
sS'dump'
p3231
(dp3232
sS'lnum'
p3233
I212
sS'lines'
p3234
(dp3235
sS'call'
p3236
S"(code='# coding: utf8\\n# try something like\\n\\ndef show():...otherForm\\n\\nresponse._vars=response._caller(show)\\n', environment={'A': <class 'gluon.html.A'>, 'Auth': <class 'gluon.tools.Auth'>, 'B': <class 'gluon.html.B'>, 'BEAUTIFY': <class 'gluon.html.BEAUTIFY'>, 'BODY': <class 'gluon.html.BODY'>, 'BR': <class 'gluon.html.BR'>, 'BUTTON': <class 'gluon.html.BUTTON'>, 'CAT': <class 'gluon.html.CAT'>, 'CENTER': <class 'gluon.html.CENTER'>, 'CLEANUP': <class 'gluon.validators.CLEANUP'>, ...}, layer='/Users/zamechek/Downloads/web2py/web2py.app/Cont...Resources/applications/hellow/controllers/game.py')"
p3237
sS'func'
p3238
S'restricted'
p3239
sa(dp3240
g3229
S'/Users/zamechek/Downloads/web2py/web2py.app/Contents/Resources/applications/hellow/controllers/game.py'
p3241
sg3231
(dp3242
sg3233
I40
sg3234
(dp3243
I32
S"        #IS_IN_DB(db(db.table_one.name.like('h%'))"
p3244
sI33
S'    if otherForm.process().accepted:'
p3245
sI34
S"        response.flash = 'form accepted'"
p3246
sI35
S''
sI36
S'    elif otherForm.errors:'
p3247
sI37
S"        response.flash = 'form has errors'"
p3248
sI38
S'    return otherForm'
p3249
sI29
S'    otherForm = SQLFORM.factory('
p3250
sI30
S"        Field('bet', requires=IS_NOT_EMPTY()),"
p3251
sI31
S"        Field('slot', requires=IS_IN_DB(db(db.game_slots.game, db.game_slots.game))))"
p3252
ssg3236
S'()'
p3253
sg3238
S'<module>'
p3254
sa(dp3255
g3229
S'/home/mdipierro/web2py/gluon/globals.py'
p3256
sg3231
(dp3257
sg3233
I193
sg3234
(dp3258
sg3236
S'(f=<function show at 0x928d230>)'
p3259
sg3238
S'<lambda>'
p3260
sa(dp3261
g3229
S'/Users/zamechek/Downloads/web2py/web2py.app/Contents/Resources/applications/hellow/controllers/game.py'
p3262
sg3231
(dp3263
sg3233
I13
sg3234
(dp3264
I8
S''
sI9
S'    query=((db.game.id==db.game_slots.game)&(db.slot.id==db.game_slots.slot))'
p3265
sI10
S'    #game_and_slots=(db.game.id==db.game_slots.game)&(db.slot.id==db.game_slots.slot)'
p3266
sI11
S'    rows = db(query).select(db.slot.id, db.slot.odds)'
p3267
sI12
S'    form = display_form(rows)'
p3268
sI13
S'    otherForm = form_from_factory(rows, id)'
p3269
sI14
S'    return dict(name=auth_user.first_name.capitalize() + " " + auth_user.last_name.capitalize(), balance = game.balance, slots = rows, gameid = id, form=form, otherForm=otherForm)'
p3270
sI15
S''
sI16
S'def display_form(rows):'
p3271
sI17
S'   form = SQLFORM(db.user_action)'
p3272
ssg3236
S'()'
p3273
sg3238
S'show'
p3274
sa(dp3275
g3229
S'/Users/zamechek/Downloads/web2py/web2py.app/Contents/Resources/applications/hellow/controllers/game.py'
p3276
sg3231
(dp3277
sg3233
I31
sg3234
(dp3278
I32
S"        #IS_IN_DB(db(db.table_one.name.like('h%'))"
p3279
sI33
S'    if otherForm.process().accepted:'
p3280
sI34
S"        response.flash = 'form accepted'"
p3281
sI35
S''
sI26
S''
sI27
S'def form_from_factory(rows, id):'
p3282
sI28
S''
sI29
S'    otherForm = SQLFORM.factory('
p3283
sI30
S"        Field('bet', requires=IS_NOT_EMPTY()),"
p3284
sI31
S"        Field('slot', requires=IS_IN_DB(db(db.game_slots.game, db.game_slots.game))))"
p3285
ssg3236
S"(rows=<Rows (2)>, id='1')"
p3286
sg3238
S'form_from_factory'
p3287
sasS'pyver'
p3288
S'Python 2.5.1: /Users/zamechek/Downloads/web2py/web2py.app/Contents/MacOS/python'
p3289
sS'session'
p3290
g49
(g50
g51
NtRp3291
(dp3292
g54
(dp3293
sg56
(lp3294
g49
(g58
g51
NtRp3295
(dp3296
g54
(dp3297
g62
I5
ssg63
Nsg56
(lp3298
g49
(g65
g51
NtRp3299
(dp3300
g54
(dp3301
sg63
g3295
sg56
(lp3302
g49
(g70
g51
NtRp3303
(dp3304
g54
(dp3305
g74
g75
ssg63
g3299
sg56
(lp3306
S'last_orderby'
p3307
asbag49
(g70
g51
NtRp3308
(dp3309
g54
(dp3310
g81
g82
ssg63
g3299
sg56
(lp3311
S':'
asbag49
(g70
g51
NtRp3312
(dp3313
g54
(dp3314
sg63
g3299
sg56
(lp3315
g49
(g50
g51
NtRp3316
(dp3317
g54
(dp3318
g62
I5
ssg63
g3312
sg56
(lp3319
S'None'
p3320
asbasbasbag49
(g65
g51
NtRp3321
(dp3322
g54
(dp3323
sg63
g3295
sg56
(lp3324
g49
(g70
g51
NtRp3325
(dp3326
g54
(dp3327
g74
g75
ssg63
g3321
sg56
(lp3328
S'last_query'
p3329
asbag49
(g70
g51
NtRp3330
(dp3331
g54
(dp3332
g81
g82
ssg63
g3321
sg56
(lp3333
S':'
asbag49
(g70
g51
NtRp3334
(dp3335
g54
(dp3336
sg63
g3321
sg56
(lp3337
g49
(g50
g51
NtRp3338
(dp3339
g54
(dp3340
g62
I5
ssg63
g3334
sg56
(lp3341
S'db.game_slots.id>0'
p3342
asbasbasbasbasbsS'etype'
p3343
S"<type 'exceptions.TypeError'>"
p3344
sS'date'
p3345
S'Wed Mar 27 12:50:37 2013'
p3346
sS'response'
p3347
g49
(g50
g51
NtRp3348
(dp3349
g54
(dp3350
sg56
(lp3351
g49
(g58
g51
NtRp3352
(dp3353
g54
(dp3354
g62
I5
ssg63
Nsg56
(lp3355
g49
(g65
g51
NtRp3356
(dp3357
g54
(dp3358
sg63
g3352
sg56
(lp3359
g49
(g70
g51
NtRp3360
(dp3361
g54
(dp3362
g74
g75
ssg63
g3356
sg56
(lp3363
g159
asbag49
(g70
g51
NtRp3364
(dp3365
g54
(dp3366
g81
g82
ssg63
g3356
sg56
(lp3367
S':'
asbag49
(g70
g51
NtRp3368
(dp3369
g54
(dp3370
sg63
g3356
sg56
(lp3371
g49
(g50
g51
NtRp3372
(dp3373
g54
(dp3374
g62
I5
ssg63
g3368
sg56
(lp3375
S'<cStringIO.StringO object at 0x8f9be20>'
p3376
asbasbasbag49
(g65
g51
NtRp3377
(dp3378
g54
(dp3379
sg63
g3352
sg56
(lp3380
g49
(g70
g51
NtRp3381
(dp3382
g54
(dp3383
g74
g75
ssg63
g3377
sg56
(lp3384
g247
asbag49
(g70
g51
NtRp3385
(dp3386
g54
(dp3387
g81
g82
ssg63
g3377
sg56
(lp3388
S':'
asbag49
(g70
g51
NtRp3389
(dp3390
g54
(dp3391
sg63
g3377
sg56
(lp3392
g49
(g50
g51
NtRp3393
(dp3394
g54
(dp3395
g62
I5
ssg63
g3389
sg56
(lp3396
g49
(g58
g51
NtRp3397
(dp3398
g54
(dp3399
g62
I4
ssg63
Nsg56
(lp3400
g49
(g65
g51
NtRp3401
(dp3402
g54
(dp3403
sg63
g3397
sg56
(lp3404
g49
(g70
g51
NtRp3405
(dp3406
g54
(dp3407
g74
g75
ssg63
g3401
sg56
(lp3408
S'session_id_hellow'
p3409
asbag49
(g70
g51
NtRp3410
(dp3411
g54
(dp3412
g81
g82
ssg63
g3401
sg56
(lp3413
S':'
asbag49
(g70
g51
NtRp3414
(dp3415
g54
(dp3416
sg63
g3401
sg56
(lp3417
g49
(g50
g51
NtRp3418
(dp3419
g54
(dp3420
g62
I4
ssg63
g3414
sg56
(lp3421
g458
ag49
(g58
g51
NtRp3422
(dp3423
g54
(dp3424
g62
I3
ssg63
Nsg56
(lp3425
g49
(g65
g51
NtRp3426
(dp3427
g54
(dp3428
sg63
g3422
sg56
(lp3429
g49
(g70
g51
NtRp3430
(dp3431
g54
(dp3432
g74
g75
ssg63
g3426
sg56
(lp3433
g298
asbag49
(g70
g51
NtRp3434
(dp3435
g54
(dp3436
g81
g82
ssg63
g3426
sg56
(lp3437
S':'
asbag49
(g70
g51
NtRp3438
(dp3439
g54
(dp3440
sg63
g3426
sg56
(lp3441
g49
(g50
g51
NtRp3442
(dp3443
g54
(dp3444
g62
I3
ssg63
g3438
sg56
(lp3445
S''
asbasbasbag49
(g65
g51
NtRp3446
(dp3447
g54
(dp3448
sg63
g3422
sg56
(lp3449
g49
(g70
g51
NtRp3450
(dp3451
g54
(dp3452
g74
g75
ssg63
g3446
sg56
(lp3453
g319
asbag49
(g70
g51
NtRp3454
(dp3455
g54
(dp3456
g81
g82
ssg63
g3446
sg56
(lp3457
S':'
asbag49
(g70
g51
NtRp3458
(dp3459
g54
(dp3460
sg63
g3446
sg56
(lp3461
g49
(g50
g51
NtRp3462
(dp3463
g54
(dp3464
g62
I3
ssg63
g3458
sg56
(lp3465
S''
asbasbasbag49
(g65
g51
NtRp3466
(dp3467
g54
(dp3468
sg63
g3422
sg56
(lp3469
g49
(g70
g51
NtRp3470
(dp3471
g54
(dp3472
g74
g75
ssg63
g3466
sg56
(lp3473
g340
asbag49
(g70
g51
NtRp3474
(dp3475
g54
(dp3476
g81
g82
ssg63
g3466
sg56
(lp3477
S':'
asbag49
(g70
g51
NtRp3478
(dp3479
g54
(dp3480
sg63
g3466
sg56
(lp3481
g49
(g50
g51
NtRp3482
(dp3483
g54
(dp3484
g62
I3
ssg63
g3478
sg56
(lp3485
S''
asbasbasbag49
(g65
g51
NtRp3486
(dp3487
g54
(dp3488
sg63
g3422
sg56
(lp3489
g49
(g70
g51
NtRp3490
(dp3491
g54
(dp3492
g74
g75
ssg63
g3486
sg56
(lp3493
g361
asbag49
(g70
g51
NtRp3494
(dp3495
g54
(dp3496
g81
g82
ssg63
g3486
sg56
(lp3497
S':'
asbag49
(g70
g51
NtRp3498
(dp3499
g54
(dp3500
sg63
g3486
sg56
(lp3501
g49
(g50
g51
NtRp3502
(dp3503
g54
(dp3504
g62
I3
ssg63
g3498
sg56
(lp3505
S''
asbasbasbag49
(g65
g51
NtRp3506
(dp3507
g54
(dp3508
sg63
g3422
sg56
(lp3509
g49
(g70
g51
NtRp3510
(dp3511
g54
(dp3512
g74
g75
ssg63
g3506
sg56
(lp3513
g382
asbag49
(g70
g51
NtRp3514
(dp3515
g54
(dp3516
g81
g82
ssg63
g3506
sg56
(lp3517
S':'
asbag49
(g70
g51
NtRp3518
(dp3519
g54
(dp3520
sg63
g3506
sg56
(lp3521
g49
(g50
g51
NtRp3522
(dp3523
g54
(dp3524
g62
I3
ssg63
g3518
sg56
(lp3525
S'/'
asbasbasbag49
(g65
g51
NtRp3526
(dp3527
g54
(dp3528
sg63
g3422
sg56
(lp3529
g49
(g70
g51
NtRp3530
(dp3531
g54
(dp3532
g74
g75
ssg63
g3526
sg56
(lp3533
g403
asbag49
(g70
g51
NtRp3534
(dp3535
g54
(dp3536
g81
g82
ssg63
g3526
sg56
(lp3537
S':'
asbag49
(g70
g51
NtRp3538
(dp3539
g54
(dp3540
sg63
g3526
sg56
(lp3541
g49
(g50
g51
NtRp3542
(dp3543
g54
(dp3544
g62
I3
ssg63
g3538
sg56
(lp3545
S''
asbasbasbag49
(g65
g51
NtRp3546
(dp3547
g54
(dp3548
sg63
g3422
sg56
(lp3549
g49
(g70
g51
NtRp3550
(dp3551
g54
(dp3552
g74
g75
ssg63
g3546
sg56
(lp3553
g424
asbag49
(g70
g51
NtRp3554
(dp3555
g54
(dp3556
g81
g82
ssg63
g3546
sg56
(lp3557
S':'
asbag49
(g70
g51
NtRp3558
(dp3559
g54
(dp3560
sg63
g3546
sg56
(lp3561
g49
(g50
g51
NtRp3562
(dp3563
g54
(dp3564
g62
I3
ssg63
g3558
sg56
(lp3565
S''
asbasbasbasbasbasbasbasbasbasbasbag49
(g65
g51
NtRp3566
(dp3567
g54
(dp3568
sg63
g3352
sg56
(lp3569
g49
(g70
g51
NtRp3570
(dp3571
g54
(dp3572
g74
g75
ssg63
g3566
sg56
(lp3573
S'delimiters'
p3574
asbag49
(g70
g51
NtRp3575
(dp3576
g54
(dp3577
g81
g82
ssg63
g3566
sg56
(lp3578
S':'
asbag49
(g70
g51
NtRp3579
(dp3580
g54
(dp3581
sg63
g3566
sg56
(lp3582
g49
(g50
g51
NtRp3583
(dp3584
g54
(dp3585
g62
I5
ssg63
g3579
sg56
(lp3586
g49
(g58
g51
NtRp3587
(dp3588
g54
(dp3589
g62
I4
ssg63
Nsg56
(lp3590
g49
(g65
g51
NtRp3591
(dp3592
g54
(dp3593
sg63
g3587
sg56
(lp3594
g49
(g70
g51
NtRp3595
(dp3596
g54
(dp3597
sg63
g3591
sg56
(lp3598
g49
(g50
g51
NtRp3599
(dp3600
g54
(dp3601
g62
I4
ssg63
g3595
sg56
(lp3602
S'{{'
p3603
asbasbasbag49
(g65
g51
NtRp3604
(dp3605
g54
(dp3606
sg63
g3587
sg56
(lp3607
g49
(g70
g51
NtRp3608
(dp3609
g54
(dp3610
sg63
g3604
sg56
(lp3611
g49
(g50
g51
NtRp3612
(dp3613
g54
(dp3614
g62
I4
ssg63
g3608
sg56
(lp3615
S'}}'
p3616
asbasbasbasbasbasbasbag49
(g65
g51
NtRp3617
(dp3618
g54
(dp3619
sg63
g3352
sg56
(lp3620
g49
(g70
g51
NtRp3621
(dp3622
g54
(dp3623
g74
g75
ssg63
g3617
sg56
(lp3624
S'files'
p3625
asbag49
(g70
g51
NtRp3626
(dp3627
g54
(dp3628
g81
g82
ssg63
g3617
sg56
(lp3629
S':'
asbag49
(g70
g51
NtRp3630
(dp3631
g54
(dp3632
sg63
g3617
sg56
(lp3633
g49
(g50
g51
NtRp3634
(dp3635
g54
(dp3636
g62
I5
ssg63
g3630
sg56
(lp3637
g49
(g58
g51
NtRp3638
(dp3639
g54
(dp3640
g62
I4
ssg63
Nsg56
(lp3641
sbasbasbasbag49
(g65
g51
NtRp3642
(dp3643
g54
(dp3644
sg63
g3352
sg56
(lp3645
g49
(g70
g51
NtRp3646
(dp3647
g54
(dp3648
g74
g75
ssg63
g3642
sg56
(lp3649
S'flash'
p3650
asbag49
(g70
g51
NtRp3651
(dp3652
g54
(dp3653
g81
g82
ssg63
g3642
sg56
(lp3654
S':'
asbag49
(g70
g51
NtRp3655
(dp3656
g54
(dp3657
sg63
g3642
sg56
(lp3658
g49
(g50
g51
NtRp3659
(dp3660
g54
(dp3661
g62
I5
ssg63
g3655
sg56
(lp3662
S'please fill out the form'
p3663
asbasbasbag49
(g65
g51
NtRp3664
(dp3665
g54
(dp3666
sg63
g3352
sg56
(lp3667
g49
(g70
g51
NtRp3668
(dp3669
g54
(dp3670
g74
g75
ssg63
g3664
sg56
(lp3671
S'generic_patterns'
p3672
asbag49
(g70
g51
NtRp3673
(dp3674
g54
(dp3675
g81
g82
ssg63
g3664
sg56
(lp3676
S':'
asbag49
(g70
g51
NtRp3677
(dp3678
g54
(dp3679
sg63
g3664
sg56
(lp3680
g49
(g50
g51
NtRp3681
(dp3682
g54
(dp3683
g62
I5
ssg63
g3677
sg56
(lp3684
g49
(g58
g51
NtRp3685
(dp3686
g54
(dp3687
g62
I4
ssg63
Nsg56
(lp3688
g49
(g65
g51
NtRp3689
(dp3690
g54
(dp3691
sg63
g3685
sg56
(lp3692
g49
(g70
g51
NtRp3693
(dp3694
g54
(dp3695
sg63
g3689
sg56
(lp3696
g49
(g50
g51
NtRp3697
(dp3698
g54
(dp3699
g62
I4
ssg63
g3693
sg56
(lp3700
S'*'
asbasbasbasbasbasbasbag49
(g65
g51
NtRp3701
(dp3702
g54
(dp3703
sg63
g3352
sg56
(lp3704
g49
(g70
g51
NtRp3705
(dp3706
g54
(dp3707
g74
g75
ssg63
g3701
sg56
(lp3708
S'google_analytics_id'
p3709
asbag49
(g70
g51
NtRp3710
(dp3711
g54
(dp3712
g81
g82
ssg63
g3701
sg56
(lp3713
S':'
asbag49
(g70
g51
NtRp3714
(dp3715
g54
(dp3716
sg63
g3701
sg56
(lp3717
g49
(g50
g51
NtRp3718
(dp3719
g54
(dp3720
g62
I5
ssg63
g3714
sg56
(lp3721
S'None'
p3722
asbasbasbag49
(g65
g51
NtRp3723
(dp3724
g54
(dp3725
sg63
g3352
sg56
(lp3726
g49
(g70
g51
NtRp3727
(dp3728
g54
(dp3729
g74
g75
ssg63
g3723
sg56
(lp3730
S'headers'
p3731
asbag49
(g70
g51
NtRp3732
(dp3733
g54
(dp3734
g81
g82
ssg63
g3723
sg56
(lp3735
S':'
asbag49
(g70
g51
NtRp3736
(dp3737
g54
(dp3738
sg63
g3723
sg56
(lp3739
g49
(g50
g51
NtRp3740
(dp3741
g54
(dp3742
g62
I5
ssg63
g3736
sg56
(lp3743
g49
(g58
g51
NtRp3744
(dp3745
g54
(dp3746
g62
I4
ssg63
Nsg56
(lp3747
g49
(g65
g51
NtRp3748
(dp3749
g54
(dp3750
sg63
g3744
sg56
(lp3751
g49
(g70
g51
NtRp3752
(dp3753
g54
(dp3754
g74
g75
ssg63
g3748
sg56
(lp3755
S'X-Powered-By'
p3756
asbag49
(g70
g51
NtRp3757
(dp3758
g54
(dp3759
g81
g82
ssg63
g3748
sg56
(lp3760
S':'
asbag49
(g70
g51
NtRp3761
(dp3762
g54
(dp3763
sg63
g3748
sg56
(lp3764
g49
(g50
g51
NtRp3765
(dp3766
g54
(dp3767
g62
I4
ssg63
g3761
sg56
(lp3768
S'web2py'
p3769
asbasbasbasbasbasbasbag49
(g65
g51
NtRp3770
(dp3771
g54
(dp3772
sg63
g3352
sg56
(lp3773
g49
(g70
g51
NtRp3774
(dp3775
g54
(dp3776
g74
g75
ssg63
g3770
sg56
(lp3777
S'logo'
p3778
asbag49
(g70
g51
NtRp3779
(dp3780
g54
(dp3781
g81
g82
ssg63
g3770
sg56
(lp3782
S':'
asbag49
(g70
g51
NtRp3783
(dp3784
g54
(dp3785
sg63
g3770
sg56
(lp3786
g49
(g50
g51
NtRp3787
(dp3788
g54
(dp3789
g62
I5
ssg63
g3783
sg56
(lp3790
g49
(cgluon.html
A
p3791
g51
NtRp3792
(dp3793
g54
(dp3794
S'_class'
p3795
S'brand'
p3796
sS'_href'
p3797
S'http://www.web2py.com/'
p3798
ssg63
Nsg56
(lp3799
g49
(cgluon.html
B
p3800
g51
NtRp3801
(dp3802
g54
(dp3803
sg63
g3792
sg56
(lp3804
S'web'
p3805
ag49
(cgluon.html
SPAN
p3806
g51
NtRp3807
(dp3808
g54
(dp3809
sg63
g3801
sg56
(lp3810
I2
asbaS'py'
p3811
asbacgluon.html
XML_unpickle
p3812
(S's\r\x00\x00\x00&trade;&nbsp;'
tRp3813
asbasbasbasbag49
(g65
g51
NtRp3814
(dp3815
g54
(dp3816
sg63
g3352
sg56
(lp3817
g49
(g70
g51
NtRp3818
(dp3819
g54
(dp3820
g74
g75
ssg63
g3814
sg56
(lp3821
S'menu'
p3822
asbag49
(g70
g51
NtRp3823
(dp3824
g54
(dp3825
g81
g82
ssg63
g3814
sg56
(lp3826
S':'
asbag49
(g70
g51
NtRp3827
(dp3828
g54
(dp3829
sg63
g3814
sg56
(lp3830
g49
(g50
g51
NtRp3831
(dp3832
g54
(dp3833
g62
I5
ssg63
g3827
sg56
(lp3834
g49
(g58
g51
NtRp3835
(dp3836
g54
(dp3837
g62
I4
ssg63
Nsg56
(lp3838
g49
(g65
g51
NtRp3839
(dp3840
g54
(dp3841
sg63
g3835
sg56
(lp3842
g49
(g70
g51
NtRp3843
(dp3844
g54
(dp3845
sg63
g3839
sg56
(lp3846
g49
(g50
g51
NtRp3847
(dp3848
g54
(dp3849
g62
I4
ssg63
g3843
sg56
(lp3850
g49
(g58
g51
NtRp3851
(dp3852
g54
(dp3853
g62
I3
ssg63
Nsg56
(lp3854
g49
(g65
g51
NtRp3855
(dp3856
g54
(dp3857
sg63
g3851
sg56
(lp3858
g49
(g70
g51
NtRp3859
(dp3860
g54
(dp3861
sg63
g3855
sg56
(lp3862
g49
(g50
g51
NtRp3863
(dp3864
g54
(dp3865
g62
I3
ssg63
g3859
sg56
(lp3866
cgluon.languages
lazyT_unpickle
p3867
(S't\x04\x00\x00\x00Home'
tRp3868
asbasbasbag49
(g65
g51
NtRp3869
(dp3870
g54
(dp3871
sg63
g3851
sg56
(lp3872
g49
(g70
g51
NtRp3873
(dp3874
g54
(dp3875
sg63
g3869
sg56
(lp3876
g49
(g50
g51
NtRp3877
(dp3878
g54
(dp3879
g62
I3
ssg63
g3873
sg56
(lp3880
g92
asbasbasbag49
(g65
g51
NtRp3881
(dp3882
g54
(dp3883
sg63
g3851
sg56
(lp3884
g49
(g70
g51
NtRp3885
(dp3886
g54
(dp3887
sg63
g3881
sg56
(lp3888
g49
(g50
g51
NtRp3889
(dp3890
g54
(dp3891
g62
I3
ssg63
g3885
sg56
(lp3892
S'/hellow/default/index'
p3893
asbasbasbag49
(g65
g51
NtRp3894
(dp3895
g54
(dp3896
sg63
g3851
sg56
(lp3897
g49
(g70
g51
NtRp3898
(dp3899
g54
(dp3900
sg63
g3894
sg56
(lp3901
g49
(g50
g51
NtRp3902
(dp3903
g54
(dp3904
g62
I3
ssg63
g3898
sg56
(lp3905
g49
(g58
g51
NtRp3906
(dp3907
g54
(dp3908
g62
I2
ssg63
Nsg56
(lp3909
sbasbasbasbasbasbasbasbag49
(g65
g51
NtRp3910
(dp3911
g54
(dp3912
sg63
g3835
sg56
(lp3913
g49
(g70
g51
NtRp3914
(dp3915
g54
(dp3916
sg63
g3910
sg56
(lp3917
g49
(g50
g51
NtRp3918
(dp3919
g54
(dp3920
g62
I4
ssg63
g3914
sg56
(lp3921
g49
(g58
g51
NtRp3922
(dp3923
g54
(dp3924
g62
I3
ssg63
Nsg56
(lp3925
g49
(g65
g51
NtRp3926
(dp3927
g54
(dp3928
sg63
g3922
sg56
(lp3929
g49
(g70
g51
NtRp3930
(dp3931
g54
(dp3932
sg63
g3926
sg56
(lp3933
g49
(g50
g51
NtRp3934
(dp3935
g54
(dp3936
g62
I3
ssg63
g3930
sg56
(lp3937
g49
(g3806
g51
NtRp3938
(dp3939
g54
(dp3940
g3795
S'highlighted'
p3941
ssg63
Nsg56
(lp3942
g3769
asbasbasbasbag49
(g65
g51
NtRp3943
(dp3944
g54
(dp3945
sg63
g3922
sg56
(lp3946
g49
(g70
g51
NtRp3947
(dp3948
g54
(dp3949
sg63
g3943
sg56
(lp3950
g49
(g50
g51
NtRp3951
(dp3952
g54
(dp3953
g62
I3
ssg63
g3947
sg56
(lp3954
g92
asbasbasbag49
(g65
g51
NtRp3955
(dp3956
g54
(dp3957
sg63
g3922
sg56
(lp3958
g49
(g70
g51
NtRp3959
(dp3960
g54
(dp3961
sg63
g3955
sg56
(lp3962
g49
(g50
g51
NtRp3963
(dp3964
g54
(dp3965
g62
I3
ssg63
g3959
sg56
(lp3966
S'http://web2py.com'
p3967
asbasbasbag49
(g65
g51
NtRp3968
(dp3969
g54
(dp3970
sg63
g3922
sg56
(lp3971
g49
(g70
g51
NtRp3972
(dp3973
g54
(dp3974
sg63
g3968
sg56
(lp3975
g49
(g50
g51
NtRp3976
(dp3977
g54
(dp3978
g62
I3
ssg63
g3972
sg56
(lp3979
g49
(g58
g51
NtRp3980
(dp3981
g54
(dp3982
g62
I2
ssg63
Nsg56
(lp3983
g49
(g65
g51
NtRp3984
(dp3985
g54
(dp3986
sg63
g3980
sg56
(lp3987
g49
(g70
g51
NtRp3988
(dp3989
g54
(dp3990
sg63
g3984
sg56
(lp3991
g49
(g50
g51
NtRp3992
(dp3993
g54
(dp3994
g62
I2
ssg63
g3988
sg56
(lp3995
g49
(g58
g51
NtRp3996
(dp3997
g54
(dp3998
g62
I1
ssg63
Nsg56
(lp3999
g49
(g65
g51
NtRp4000
(dp4001
g54
(dp4002
sg63
g3996
sg56
(lp4003
g49
(g70
g51
NtRp4004
(dp4005
g54
(dp4006
sg63
g4000
sg56
(lp4007
g49
(g50
g51
NtRp4008
(dp4009
g54
(dp4010
g62
I1
ssg63
g4004
sg56
(lp4011
g3867
(S's\x08\x00\x00\x00My Sites'
tRp4012
asbasbasbag49
(g65
g51
NtRp4013
(dp4014
g54
(dp4015
sg63
g3996
sg56
(lp4016
g49
(g70
g51
NtRp4017
(dp4018
g54
(dp4019
sg63
g4013
sg56
(lp4020
g49
(g50
g51
NtRp4021
(dp4022
g54
(dp4023
g62
I1
ssg63
g4017
sg56
(lp4024
I00
asbasbasbag49
(g65
g51
NtRp4025
(dp4026
g54
(dp4027
sg63
g3996
sg56
(lp4028
g49
(g70
g51
NtRp4029
(dp4030
g54
(dp4031
sg63
g4025
sg56
(lp4032
g49
(g50
g51
NtRp4033
(dp4034
g54
(dp4035
g62
I1
ssg63
g4029
sg56
(lp4036
S'/admin/default/site'
p4037
asbasbasbasbasbasbasbag49
(g65
g51
NtRp4038
(dp4039
g54
(dp4040
sg63
g3980
sg56
(lp4041
g49
(g70
g51
NtRp4042
(dp4043
g54
(dp4044
sg63
g4038
sg56
(lp4045
g49
(g50
g51
NtRp4046
(dp4047
g54
(dp4048
g62
I2
ssg63
g4042
sg56
(lp4049
g49
(g58
g51
NtRp4050
(dp4051
g54
(dp4052
g62
I1
ssg63
Nsg56
(lp4053
g49
(g65
g51
NtRp4054
(dp4055
g54
(dp4056
sg63
g4050
sg56
(lp4057
g49
(g70
g51
NtRp4058
(dp4059
g54
(dp4060
sg63
g4054
sg56
(lp4061
g49
(g50
g51
NtRp4062
(dp4063
g54
(dp4064
g62
I1
ssg63
g4058
sg56
(lp4065
g3867
(S's\x08\x00\x00\x00This App'
tRp4066
asbasbasbag49
(g65
g51
NtRp4067
(dp4068
g54
(dp4069
sg63
g4050
sg56
(lp4070
g49
(g70
g51
NtRp4071
(dp4072
g54
(dp4073
sg63
g4067
sg56
(lp4074
g49
(g50
g51
NtRp4075
(dp4076
g54
(dp4077
g62
I1
ssg63
g4071
sg56
(lp4078
I00
asbasbasbag49
(g65
g51
NtRp4079
(dp4080
g54
(dp4081
sg63
g4050
sg56
(lp4082
g49
(g70
g51
NtRp4083
(dp4084
g54
(dp4085
sg63
g4079
sg56
(lp4086
g49
(g50
g51
NtRp4087
(dp4088
g54
(dp4089
g62
I1
ssg63
g4083
sg56
(lp4090
S'/admin/default/design/hellow'
p4091
asbasbasbag49
(g65
g51
NtRp4092
(dp4093
g54
(dp4094
sg63
g4050
sg56
(lp4095
g49
(g70
g51
NtRp4096
(dp4097
g54
(dp4098
sg63
g4092
sg56
(lp4099
g49
(g50
g51
NtRp4100
(dp4101
g54
(dp4102
g62
I1
ssg63
g4096
sg56
(lp4103
(lp4104
(g3867
(S't\n\x00\x00\x00Controller'
tRp4105
I00
S'/admin/default/edit/hellow/controllers/game.py'
tp4106
a(g3867
(S't\x04\x00\x00\x00View'
tRp4107
I00
S'/admin/default/edit/hellow/views/game/show.html'
tp4108
a(g3867
(S't\x06\x00\x00\x00Layout'
tRp4109
I00
S'/admin/default/edit/hellow/views/layout.html'
tp4110
a(g3867
(S't\n\x00\x00\x00Stylesheet'
tRp4111
I00
S'/admin/default/edit/hellow/static/css/web2py.css'
tp4112
a(g3867
(S's\x08\x00\x00\x00DB Model'
tRp4113
I00
S'/admin/default/edit/hellow/models/db.py'
tp4114
a(g3867
(S's\n\x00\x00\x00Menu Model'
tRp4115
I00
S'/admin/default/edit/hellow/models/menu.py'
tp4116
a(g3867
(S't\x08\x00\x00\x00Database'
tRp4117
I00
S'/hellow/appadmin/index'
tp4118
a(g3867
(S't\x06\x00\x00\x00Errors'
tRp4119
I00
S'/admin/default/errors/hellow'
tp4120
a(g3867
(S't\x05\x00\x00\x00About'
tRp4121
I00
S'/admin/default/about/hellow'
tp4122
aasbasbasbasbasbasbasbag49
(g65
g51
NtRp4123
(dp4124
g54
(dp4125
sg63
g3980
sg56
(lp4126
g49
(g70
g51
NtRp4127
(dp4128
g54
(dp4129
sg63
g4123
sg56
(lp4130
g49
(g50
g51
NtRp4131
(dp4132
g54
(dp4133
g62
I2
ssg63
g4127
sg56
(lp4134
g49
(g58
g51
NtRp4135
(dp4136
g54
(dp4137
g62
I1
ssg63
Nsg56
(lp4138
g49
(g65
g51
NtRp4139
(dp4140
g54
(dp4141
sg63
g4135
sg56
(lp4142
g49
(g70
g51
NtRp4143
(dp4144
g54
(dp4145
sg63
g4139
sg56
(lp4146
g49
(g50
g51
NtRp4147
(dp4148
g54
(dp4149
g62
I1
ssg63
g4143
sg56
(lp4150
S'web2py.com'
p4151
asbasbasbag49
(g65
g51
NtRp4152
(dp4153
g54
(dp4154
sg63
g4135
sg56
(lp4155
g49
(g70
g51
NtRp4156
(dp4157
g54
(dp4158
sg63
g4152
sg56
(lp4159
g49
(g50
g51
NtRp4160
(dp4161
g54
(dp4162
g62
I1
ssg63
g4156
sg56
(lp4163
I00
asbasbasbag49
(g65
g51
NtRp4164
(dp4165
g54
(dp4166
sg63
g4135
sg56
(lp4167
g49
(g70
g51
NtRp4168
(dp4169
g54
(dp4170
sg63
g4164
sg56
(lp4171
g49
(g50
g51
NtRp4172
(dp4173
g54
(dp4174
g62
I1
ssg63
g4168
sg56
(lp4175
S'http://www.web2py.com'
p4176
asbasbasbag49
(g65
g51
NtRp4177
(dp4178
g54
(dp4179
sg63
g4135
sg56
(lp4180
g49
(g70
g51
NtRp4181
(dp4182
g54
(dp4183
sg63
g4177
sg56
(lp4184
g49
(g50
g51
NtRp4185
(dp4186
g54
(dp4187
g62
I1
ssg63
g4181
sg56
(lp4188
(lp4189
(g3867
(S't\x08\x00\x00\x00Download'
tRp4190
I00
S'http://www.web2py.com/examples/default/download'
p4191
tp4192
a(g3867
(S't\x07\x00\x00\x00Support'
tRp4193
I00
S'http://www.web2py.com/examples/default/support'
p4194
tp4195
a(g3867
(S't\x04\x00\x00\x00Demo'
tRp4196
I00
S'http://web2py.com/demo_admin'
p4197
tp4198
a(g3867
(S's\x0e\x00\x00\x00Quick Examples'
tRp4199
I00
S'http://web2py.com/examples/default/examples'
p4200
tp4201
a(g3867
(S't\x03\x00\x00\x00FAQ'
tRp4202
I00
S'http://web2py.com/AlterEgo'
p4203
tp4204
a(g3867
(S't\x06\x00\x00\x00Videos'
tRp4205
I00
S'http://www.web2py.com/examples/default/videos/'
p4206
tp4207
a(g3867
(S's\x11\x00\x00\x00Free Applications'
tRp4208
I00
S'http://web2py.com/appliances'
p4209
tp4210
a(g3867
(S't\x07\x00\x00\x00Plugins'
tRp4211
I00
S'http://web2py.com/plugins'
p4212
tp4213
a(g3867
(S't\x07\x00\x00\x00Layouts'
tRp4214
I00
S'http://web2py.com/layouts'
p4215
tp4216
a(g3867
(S't\x07\x00\x00\x00Recipes'
tRp4217
I00
S'http://web2pyslices.com/'
p4218
tp4219
a(g3867
(S't\x08\x00\x00\x00Semantic'
tRp4220
I00
S'http://web2py.com/semantic'
p4221
tp4222
aasbasbasbasbasbasbasbag49
(g65
g51
NtRp4223
(dp4224
g54
(dp4225
sg63
g3980
sg56
(lp4226
g49
(g70
g51
NtRp4227
(dp4228
g54
(dp4229
sg63
g4223
sg56
(lp4230
g49
(g50
g51
NtRp4231
(dp4232
g54
(dp4233
g62
I2
ssg63
g4227
sg56
(lp4234
g49
(g58
g51
NtRp4235
(dp4236
g54
(dp4237
g62
I1
ssg63
Nsg56
(lp4238
g49
(g65
g51
NtRp4239
(dp4240
g54
(dp4241
sg63
g4235
sg56
(lp4242
g49
(g70
g51
NtRp4243
(dp4244
g54
(dp4245
sg63
g4239
sg56
(lp4246
g49
(g50
g51
NtRp4247
(dp4248
g54
(dp4249
g62
I1
ssg63
g4243
sg56
(lp4250
g3867
(S't\r\x00\x00\x00Documentation'
tRp4251
asbasbasbag49
(g65
g51
NtRp4252
(dp4253
g54
(dp4254
sg63
g4235
sg56
(lp4255
g49
(g70
g51
NtRp4256
(dp4257
g54
(dp4258
sg63
g4252
sg56
(lp4259
g49
(g50
g51
NtRp4260
(dp4261
g54
(dp4262
g62
I1
ssg63
g4256
sg56
(lp4263
I00
asbasbasbag49
(g65
g51
NtRp4264
(dp4265
g54
(dp4266
sg63
g4235
sg56
(lp4267
g49
(g70
g51
NtRp4268
(dp4269
g54
(dp4270
sg63
g4264
sg56
(lp4271
g49
(g50
g51
NtRp4272
(dp4273
g54
(dp4274
g62
I1
ssg63
g4268
sg56
(lp4275
S'http://www.web2py.com/book'
p4276
asbasbasbag49
(g65
g51
NtRp4277
(dp4278
g54
(dp4279
sg63
g4235
sg56
(lp4280
g49
(g70
g51
NtRp4281
(dp4282
g54
(dp4283
sg63
g4277
sg56
(lp4284
g49
(g50
g51
NtRp4285
(dp4286
g54
(dp4287
g62
I1
ssg63
g4281
sg56
(lp4288
(lp4289
(g3867
(S't\x07\x00\x00\x00Preface'
tRp4290
I00
S'http://www.web2py.com/book/default/chapter/00'
p4291
tp4292
a(g3867
(S't\x0c\x00\x00\x00Introduction'
tRp4293
I00
S'http://www.web2py.com/book/default/chapter/01'
p4294
tp4295
a(g3867
(S't\x06\x00\x00\x00Python'
tRp4296
I00
S'http://www.web2py.com/book/default/chapter/02'
p4297
tp4298
a(g3867
(S't\x08\x00\x00\x00Overview'
tRp4299
I00
S'http://www.web2py.com/book/default/chapter/03'
p4300
tp4301
a(g3867
(S's\x08\x00\x00\x00The Core'
tRp4302
I00
S'http://www.web2py.com/book/default/chapter/04'
p4303
tp4304
a(g3867
(S's\t\x00\x00\x00The Views'
tRp4305
I00
S'http://www.web2py.com/book/default/chapter/05'
p4306
tp4307
a(g3867
(S't\x08\x00\x00\x00Database'
tRp4308
I00
S'http://www.web2py.com/book/default/chapter/06'
p4309
tp4310
a(g3867
(S's\x14\x00\x00\x00Forms and Validators'
tRp4311
I00
S'http://www.web2py.com/book/default/chapter/07'
p4312
tp4313
a(g3867
(S's\r\x00\x00\x00Email and SMS'
tRp4314
I00
S'http://www.web2py.com/book/default/chapter/08'
p4315
tp4316
a(g3867
(S's\x0e\x00\x00\x00Access Control'
tRp4317
I00
S'http://www.web2py.com/book/default/chapter/09'
p4318
tp4319
a(g3867
(S't\x08\x00\x00\x00Services'
tRp4320
I00
S'http://www.web2py.com/book/default/chapter/10'
p4321
tp4322
a(g3867
(S's\x0c\x00\x00\x00Ajax Recipes'
tRp4323
I00
S'http://www.web2py.com/book/default/chapter/11'
p4324
tp4325
a(g3867
(S's\x16\x00\x00\x00Components and Plugins'
tRp4326
I00
S'http://www.web2py.com/book/default/chapter/12'
p4327
tp4328
a(g3867
(S's\x12\x00\x00\x00Deployment Recipes'
tRp4329
I00
S'http://www.web2py.com/book/default/chapter/13'
p4330
tp4331
a(g3867
(S's\r\x00\x00\x00Other Recipes'
tRp4332
I00
S'http://www.web2py.com/book/default/chapter/14'
p4333
tp4334
a(g3867
(S's\r\x00\x00\x00Buy this book'
tRp4335
I00
S'http://stores.lulu.com/web2py'
p4336
tp4337
aasbasbasbasbasbasbasbag49
(g65
g51
NtRp4338
(dp4339
g54
(dp4340
sg63
g3980
sg56
(lp4341
g49
(g70
g51
NtRp4342
(dp4343
g54
(dp4344
sg63
g4338
sg56
(lp4345
g49
(g50
g51
NtRp4346
(dp4347
g54
(dp4348
g62
I2
ssg63
g4342
sg56
(lp4349
g49
(g58
g51
NtRp4350
(dp4351
g54
(dp4352
g62
I1
ssg63
Nsg56
(lp4353
g49
(g65
g51
NtRp4354
(dp4355
g54
(dp4356
sg63
g4350
sg56
(lp4357
g49
(g70
g51
NtRp4358
(dp4359
g54
(dp4360
sg63
g4354
sg56
(lp4361
g49
(g50
g51
NtRp4362
(dp4363
g54
(dp4364
g62
I1
ssg63
g4358
sg56
(lp4365
g3867
(S't\t\x00\x00\x00Community'
tRp4366
asbasbasbag49
(g65
g51
NtRp4367
(dp4368
g54
(dp4369
sg63
g4350
sg56
(lp4370
g49
(g70
g51
NtRp4371
(dp4372
g54
(dp4373
sg63
g4367
sg56
(lp4374
g49
(g50
g51
NtRp4375
(dp4376
g54
(dp4377
g62
I1
ssg63
g4371
sg56
(lp4378
I00
asbasbasbag49
(g65
g51
NtRp4379
(dp4380
g54
(dp4381
sg63
g4350
sg56
(lp4382
g49
(g70
g51
NtRp4383
(dp4384
g54
(dp4385
sg63
g4379
sg56
(lp4386
g49
(g50
g51
NtRp4387
(dp4388
g54
(dp4389
g62
I1
ssg63
g4383
sg56
(lp4390
Nasbasbasbag49
(g65
g51
NtRp4391
(dp4392
g54
(dp4393
sg63
g4350
sg56
(lp4394
g49
(g70
g51
NtRp4395
(dp4396
g54
(dp4397
sg63
g4391
sg56
(lp4398
g49
(g50
g51
NtRp4399
(dp4400
g54
(dp4401
g62
I1
ssg63
g4395
sg56
(lp4402
(lp4403
(g3867
(S't\x06\x00\x00\x00Groups'
tRp4404
I00
S'http://www.web2py.com/examples/default/usergroups'
p4405
tp4406
a(g3867
(S't\x07\x00\x00\x00Twitter'
tRp4407
I00
S'http://twitter.com/web2py'
p4408
tp4409
a(g3867
(S's\t\x00\x00\x00Live Chat'
tRp4410
I00
S'http://webchat.freenode.net/?channels=web2py'
p4411
tp4412
aasbasbasbasbasbasbasbag49
(g65
g51
NtRp4413
(dp4414
g54
(dp4415
sg63
g3980
sg56
(lp4416
g49
(g70
g51
NtRp4417
(dp4418
g54
(dp4419
sg63
g4413
sg56
(lp4420
g49
(g50
g51
NtRp4421
(dp4422
g54
(dp4423
g62
I2
ssg63
g4417
sg56
(lp4424
g49
(g58
g51
NtRp4425
(dp4426
g54
(dp4427
g62
I1
ssg63
Nsg56
(lp4428
g49
(g65
g51
NtRp4429
(dp4430
g54
(dp4431
sg63
g4425
sg56
(lp4432
g49
(g70
g51
NtRp4433
(dp4434
g54
(dp4435
sg63
g4429
sg56
(lp4436
g49
(g50
g51
NtRp4437
(dp4438
g54
(dp4439
g62
I1
ssg63
g4433
sg56
(lp4440
g3867
(S't\x07\x00\x00\x00Plugins'
tRp4441
asbasbasbag49
(g65
g51
NtRp4442
(dp4443
g54
(dp4444
sg63
g4425
sg56
(lp4445
g49
(g70
g51
NtRp4446
(dp4447
g54
(dp4448
sg63
g4442
sg56
(lp4449
g49
(g50
g51
NtRp4450
(dp4451
g54
(dp4452
g62
I1
ssg63
g4446
sg56
(lp4453
I00
asbasbasbag49
(g65
g51
NtRp4454
(dp4455
g54
(dp4456
sg63
g4425
sg56
(lp4457
g49
(g70
g51
NtRp4458
(dp4459
g54
(dp4460
sg63
g4454
sg56
(lp4461
g49
(g50
g51
NtRp4462
(dp4463
g54
(dp4464
g62
I1
ssg63
g4458
sg56
(lp4465
Nasbasbasbag49
(g65
g51
NtRp4466
(dp4467
g54
(dp4468
sg63
g4425
sg56
(lp4469
g49
(g70
g51
NtRp4470
(dp4471
g54
(dp4472
sg63
g4466
sg56
(lp4473
g49
(g50
g51
NtRp4474
(dp4475
g54
(dp4476
g62
I1
ssg63
g4470
sg56
(lp4477
(lp4478
(S'plugin_wiki'
p4479
I00
S'http://web2py.com/examples/default/download'
p4480
tp4481
a(g3867
(S's\r\x00\x00\x00Other Plugins'
tRp4482
I00
g4212
tp4483
a(g3867
(S's\x0e\x00\x00\x00Layout Plugins'
tRp4484
I00
g4215
tp4485
aasbasbasbasbasbasbasbasbasbasbasbasbasbasbasbasbasbasbasbag49
(g65
g51
NtRp4486
(dp4487
g54
(dp4488
sg63
g3352
sg56
(lp4489
g49
(g70
g51
NtRp4490
(dp4491
g54
(dp4492
g74
g75
ssg63
g4486
sg56
(lp4493
S'meta'
p4494
asbag49
(g70
g51
NtRp4495
(dp4496
g54
(dp4497
g81
g82
ssg63
g4486
sg56
(lp4498
S':'
asbag49
(g70
g51
NtRp4499
(dp4500
g54
(dp4501
sg63
g4486
sg56
(lp4502
g49
(g50
g51
NtRp4503
(dp4504
g54
(dp4505
g62
I5
ssg63
g4499
sg56
(lp4506
g49
(g58
g51
NtRp4507
(dp4508
g54
(dp4509
g62
I4
ssg63
Nsg56
(lp4510
g49
(g65
g51
NtRp4511
(dp4512
g54
(dp4513
sg63
g4507
sg56
(lp4514
g49
(g70
g51
NtRp4515
(dp4516
g54
(dp4517
g74
g75
ssg63
g4511
sg56
(lp4518
S'author'
p4519
asbag49
(g70
g51
NtRp4520
(dp4521
g54
(dp4522
g81
g82
ssg63
g4511
sg56
(lp4523
S':'
asbag49
(g70
g51
NtRp4524
(dp4525
g54
(dp4526
sg63
g4511
sg56
(lp4527
g49
(g50
g51
NtRp4528
(dp4529
g54
(dp4530
g62
I4
ssg63
g4524
sg56
(lp4531
S'Your Name <you@example.com>'
p4532
asbasbasbag49
(g65
g51
NtRp4533
(dp4534
g54
(dp4535
sg63
g4507
sg56
(lp4536
g49
(g70
g51
NtRp4537
(dp4538
g54
(dp4539
g74
g75
ssg63
g4533
sg56
(lp4540
S'description'
p4541
asbag49
(g70
g51
NtRp4542
(dp4543
g54
(dp4544
g81
g82
ssg63
g4533
sg56
(lp4545
S':'
asbag49
(g70
g51
NtRp4546
(dp4547
g54
(dp4548
sg63
g4533
sg56
(lp4549
g49
(g50
g51
NtRp4550
(dp4551
g54
(dp4552
g62
I4
ssg63
g4546
sg56
(lp4553
S'a cool new app'
p4554
asbasbasbag49
(g65
g51
NtRp4555
(dp4556
g54
(dp4557
sg63
g4507
sg56
(lp4558
g49
(g70
g51
NtRp4559
(dp4560
g54
(dp4561
g74
g75
ssg63
g4555
sg56
(lp4562
S'generator'
p4563
asbag49
(g70
g51
NtRp4564
(dp4565
g54
(dp4566
g81
g82
ssg63
g4555
sg56
(lp4567
S':'
asbag49
(g70
g51
NtRp4568
(dp4569
g54
(dp4570
sg63
g4555
sg56
(lp4571
g49
(g50
g51
NtRp4572
(dp4573
g54
(dp4574
g62
I4
ssg63
g4568
sg56
(lp4575
S'Web2py Web Framework'
p4576
asbasbasbag49
(g65
g51
NtRp4577
(dp4578
g54
(dp4579
sg63
g4507
sg56
(lp4580
g49
(g70
g51
NtRp4581
(dp4582
g54
(dp4583
g74
g75
ssg63
g4577
sg56
(lp4584
S'keywords'
p4585
asbag49
(g70
g51
NtRp4586
(dp4587
g54
(dp4588
g81
g82
ssg63
g4577
sg56
(lp4589
S':'
asbag49
(g70
g51
NtRp4590
(dp4591
g54
(dp4592
sg63
g4577
sg56
(lp4593
g49
(g50
g51
NtRp4594
(dp4595
g54
(dp4596
g62
I4
ssg63
g4590
sg56
(lp4597
S'web2py, python, framework'
p4598
asbasbasbasbasbasbasbag49
(g65
g51
NtRp4599
(dp4600
g54
(dp4601
sg63
g3352
sg56
(lp4602
g49
(g70
g51
NtRp4603
(dp4604
g54
(dp4605
g74
g75
ssg63
g4599
sg56
(lp4606
S'models_to_run'
p4607
asbag49
(g70
g51
NtRp4608
(dp4609
g54
(dp4610
g81
g82
ssg63
g4599
sg56
(lp4611
S':'
asbag49
(g70
g51
NtRp4612
(dp4613
g54
(dp4614
sg63
g4599
sg56
(lp4615
g49
(g50
g51
NtRp4616
(dp4617
g54
(dp4618
g62
I5
ssg63
g4612
sg56
(lp4619
g49
(g58
g51
NtRp4620
(dp4621
g54
(dp4622
g62
I4
ssg63
Nsg56
(lp4623
g49
(g65
g51
NtRp4624
(dp4625
g54
(dp4626
sg63
g4620
sg56
(lp4627
g49
(g70
g51
NtRp4628
(dp4629
g54
(dp4630
sg63
g4624
sg56
(lp4631
g49
(g50
g51
NtRp4632
(dp4633
g54
(dp4634
g62
I4
ssg63
g4628
sg56
(lp4635
S'^\\w+\\.py$'
p4636
asbasbasbag49
(g65
g51
NtRp4637
(dp4638
g54
(dp4639
sg63
g4620
sg56
(lp4640
g49
(g70
g51
NtRp4641
(dp4642
g54
(dp4643
sg63
g4637
sg56
(lp4644
g49
(g50
g51
NtRp4645
(dp4646
g54
(dp4647
g62
I4
ssg63
g4641
sg56
(lp4648
S'^game/\\w+\\.py$'
p4649
asbasbasbag49
(g65
g51
NtRp4650
(dp4651
g54
(dp4652
sg63
g4620
sg56
(lp4653
g49
(g70
g51
NtRp4654
(dp4655
g54
(dp4656
sg63
g4650
sg56
(lp4657
g49
(g50
g51
NtRp4658
(dp4659
g54
(dp4660
g62
I4
ssg63
g4654
sg56
(lp4661
S'^game/show/\\w+\\.py$'
p4662
asbasbasbasbasbasbasbag49
(g65
g51
NtRp4663
(dp4664
g54
(dp4665
sg63
g3352
sg56
(lp4666
g49
(g70
g51
NtRp4667
(dp4668
g54
(dp4669
g74
g75
ssg63
g4663
sg56
(lp4670
S'postprocessing'
p4671
asbag49
(g70
g51
NtRp4672
(dp4673
g54
(dp4674
g81
g82
ssg63
g4663
sg56
(lp4675
S':'
asbag49
(g70
g51
NtRp4676
(dp4677
g54
(dp4678
sg63
g4663
sg56
(lp4679
g49
(g50
g51
NtRp4680
(dp4681
g54
(dp4682
g62
I5
ssg63
g4676
sg56
(lp4683
g49
(g58
g51
NtRp4684
(dp4685
g54
(dp4686
g62
I4
ssg63
Nsg56
(lp4687
sbasbasbasbag49
(g65
g51
NtRp4688
(dp4689
g54
(dp4690
sg63
g3352
sg56
(lp4691
g49
(g70
g51
NtRp4692
(dp4693
g54
(dp4694
g74
g75
ssg63
g4688
sg56
(lp4695
S'session_cookie_expires'
p4696
asbag49
(g70
g51
NtRp4697
(dp4698
g54
(dp4699
g81
g82
ssg63
g4688
sg56
(lp4700
S':'
asbag49
(g70
g51
NtRp4701
(dp4702
g54
(dp4703
sg63
g4688
sg56
(lp4704
g49
(g50
g51
NtRp4705
(dp4706
g54
(dp4707
g62
I5
ssg63
g4701
sg56
(lp4708
S'None'
p4709
asbasbasbag49
(g65
g51
NtRp4710
(dp4711
g54
(dp4712
sg63
g3352
sg56
(lp4713
g49
(g70
g51
NtRp4714
(dp4715
g54
(dp4716
g74
g75
ssg63
g4710
sg56
(lp4717
S'session_data_name'
p4718
asbag49
(g70
g51
NtRp4719
(dp4720
g54
(dp4721
g81
g82
ssg63
g4710
sg56
(lp4722
S':'
asbag49
(g70
g51
NtRp4723
(dp4724
g54
(dp4725
sg63
g4710
sg56
(lp4726
g49
(g50
g51
NtRp4727
(dp4728
g54
(dp4729
g62
I5
ssg63
g4723
sg56
(lp4730
S'session_data_hellow'
p4731
asbasbasbag49
(g65
g51
NtRp4732
(dp4733
g54
(dp4734
sg63
g3352
sg56
(lp4735
g49
(g70
g51
NtRp4736
(dp4737
g54
(dp4738
g74
g75
ssg63
g4732
sg56
(lp4739
S'session_file'
p4740
asbag49
(g70
g51
NtRp4741
(dp4742
g54
(dp4743
g81
g82
ssg63
g4732
sg56
(lp4744
S':'
asbag49
(g70
g51
NtRp4745
(dp4746
g54
(dp4747
sg63
g4732
sg56
(lp4748
g49
(g50
g51
NtRp4749
(dp4750
g54
(dp4751
g62
I5
ssg63
g4745
sg56
(lp4752
S"<open file '/Users/zamechek/Downloads/web2py/web2py.app/Contents/Resources/applications/hellow/sessions/127.0.0.1-bbea59f2-333e-4593-a45c-2c44a5133d77', mode 'rb+' at 0x92c2d58>"
p4753
asbasbasbag49
(g65
g51
NtRp4754
(dp4755
g54
(dp4756
sg63
g3352
sg56
(lp4757
g49
(g70
g51
NtRp4758
(dp4759
g54
(dp4760
g74
g75
ssg63
g4754
sg56
(lp4761
S'session_filename'
p4762
asbag49
(g70
g51
NtRp4763
(dp4764
g54
(dp4765
g81
g82
ssg63
g4754
sg56
(lp4766
S':'
asbag49
(g70
g51
NtRp4767
(dp4768
g54
(dp4769
sg63
g4754
sg56
(lp4770
g49
(g50
g51
NtRp4771
(dp4772
g54
(dp4773
g62
I5
ssg63
g4767
sg56
(lp4774
S'/Users/zamechek/Downloads/web2py/web2py.app/Contents/Resources/applications/hellow/sessions/127.0.0.1-bbea59f2-333e-4593-a45c-2c44a5133d77'
p4775
asbasbasbag49
(g65
g51
NtRp4776
(dp4777
g54
(dp4778
sg63
g3352
sg56
(lp4779
g49
(g70
g51
NtRp4780
(dp4781
g54
(dp4782
g74
g75
ssg63
g4776
sg56
(lp4783
S'session_id'
p4784
asbag49
(g70
g51
NtRp4785
(dp4786
g54
(dp4787
g81
g82
ssg63
g4776
sg56
(lp4788
S':'
asbag49
(g70
g51
NtRp4789
(dp4790
g54
(dp4791
sg63
g4776
sg56
(lp4792
g49
(g50
g51
NtRp4793
(dp4794
g54
(dp4795
g62
I5
ssg63
g4789
sg56
(lp4796
g458
asbasbasbag49
(g65
g51
NtRp4797
(dp4798
g54
(dp4799
sg63
g3352
sg56
(lp4800
g49
(g70
g51
NtRp4801
(dp4802
g54
(dp4803
g74
g75
ssg63
g4797
sg56
(lp4804
S'session_id_name'
p4805
asbag49
(g70
g51
NtRp4806
(dp4807
g54
(dp4808
g81
g82
ssg63
g4797
sg56
(lp4809
S':'
asbag49
(g70
g51
NtRp4810
(dp4811
g54
(dp4812
sg63
g4797
sg56
(lp4813
g49
(g50
g51
NtRp4814
(dp4815
g54
(dp4816
g62
I5
ssg63
g4810
sg56
(lp4817
g3409
asbasbasbag49
(g65
g51
NtRp4818
(dp4819
g54
(dp4820
sg63
g3352
sg56
(lp4821
g49
(g70
g51
NtRp4822
(dp4823
g54
(dp4824
g74
g75
ssg63
g4818
sg56
(lp4825
S'session_locked'
p4826
asbag49
(g70
g51
NtRp4827
(dp4828
g54
(dp4829
g81
g82
ssg63
g4818
sg56
(lp4830
S':'
asbag49
(g70
g51
NtRp4831
(dp4832
g54
(dp4833
sg63
g4818
sg56
(lp4834
g49
(g50
g51
NtRp4835
(dp4836
g54
(dp4837
g62
I5
ssg63
g4831
sg56
(lp4838
g928
asbasbasbag49
(g65
g51
NtRp4839
(dp4840
g54
(dp4841
sg63
g3352
sg56
(lp4842
g49
(g70
g51
NtRp4843
(dp4844
g54
(dp4845
g74
g75
ssg63
g4839
sg56
(lp4846
S'session_new'
p4847
asbag49
(g70
g51
NtRp4848
(dp4849
g54
(dp4850
g81
g82
ssg63
g4839
sg56
(lp4851
S':'
asbag49
(g70
g51
NtRp4852
(dp4853
g54
(dp4854
sg63
g4839
sg56
(lp4855
g49
(g50
g51
NtRp4856
(dp4857
g54
(dp4858
g62
I5
ssg63
g4852
sg56
(lp4859
g92
asbasbasbag49
(g65
g51
NtRp4860
(dp4861
g54
(dp4862
sg63
g3352
sg56
(lp4863
g49
(g70
g51
NtRp4864
(dp4865
g54
(dp4866
g74
g75
ssg63
g4860
sg56
(lp4867
S'session_storage_type'
p4868
asbag49
(g70
g51
NtRp4869
(dp4870
g54
(dp4871
g81
g82
ssg63
g4860
sg56
(lp4872
S':'
asbag49
(g70
g51
NtRp4873
(dp4874
g54
(dp4875
sg63
g4860
sg56
(lp4876
g49
(g50
g51
NtRp4877
(dp4878
g54
(dp4879
g62
I5
ssg63
g4873
sg56
(lp4880
g3229
asbasbasbag49
(g65
g51
NtRp4881
(dp4882
g54
(dp4883
sg63
g3352
sg56
(lp4884
g49
(g70
g51
NtRp4885
(dp4886
g54
(dp4887
g74
g75
ssg63
g4881
sg56
(lp4888
S'status'
p4889
asbag49
(g70
g51
NtRp4890
(dp4891
g54
(dp4892
g81
g82
ssg63
g4881
sg56
(lp4893
S':'
asbag49
(g70
g51
NtRp4894
(dp4895
g54
(dp4896
sg63
g4881
sg56
(lp4897
g49
(g50
g51
NtRp4898
(dp4899
g54
(dp4900
g62
I5
ssg63
g4894
sg56
(lp4901
S'200'
p4902
asbasbasbag49
(g65
g51
NtRp4903
(dp4904
g54
(dp4905
sg63
g3352
sg56
(lp4906
g49
(g70
g51
NtRp4907
(dp4908
g54
(dp4909
g74
g75
ssg63
g4903
sg56
(lp4910
S'subtitle'
p4911
asbag49
(g70
g51
NtRp4912
(dp4913
g54
(dp4914
g81
g82
ssg63
g4903
sg56
(lp4915
S':'
asbag49
(g70
g51
NtRp4916
(dp4917
g54
(dp4918
sg63
g4903
sg56
(lp4919
g49
(g50
g51
NtRp4920
(dp4921
g54
(dp4922
g62
I5
ssg63
g4916
sg56
(lp4923
g3867
(S's\r\x00\x00\x00customize me!'
tRp4924
asbasbasbag49
(g65
g51
NtRp4925
(dp4926
g54
(dp4927
sg63
g3352
sg56
(lp4928
g49
(g70
g51
NtRp4929
(dp4930
g54
(dp4931
g74
g75
ssg63
g4925
sg56
(lp4932
S'title'
p4933
asbag49
(g70
g51
NtRp4934
(dp4935
g54
(dp4936
g81
g82
ssg63
g4925
sg56
(lp4937
S':'
asbag49
(g70
g51
NtRp4938
(dp4939
g54
(dp4940
sg63
g4925
sg56
(lp4941
g49
(g50
g51
NtRp4942
(dp4943
g54
(dp4944
g62
I5
ssg63
g4938
sg56
(lp4945
S'Hellow'
p4946
asbasbasbag49
(g65
g51
NtRp4947
(dp4948
g54
(dp4949
sg63
g3352
sg56
(lp4950
g49
(g70
g51
NtRp4951
(dp4952
g54
(dp4953
g74
g75
ssg63
g4947
sg56
(lp4954
S'view'
p4955
asbag49
(g70
g51
NtRp4956
(dp4957
g54
(dp4958
g81
g82
ssg63
g4947
sg56
(lp4959
S':'
asbag49
(g70
g51
NtRp4960
(dp4961
g54
(dp4962
sg63
g4947
sg56
(lp4963
g49
(g50
g51
NtRp4964
(dp4965
g54
(dp4966
g62
I5
ssg63
g4960
sg56
(lp4967
S'game/show.html'
p4968
asbasbasbasbasbsS'locals'
p4969
(dp4970
S'rows'
p4971
S'<Rows (2)>'
p4972
sS'id'
p4973
S"'1'"
p4974
sssS'traceback'
p4975
S'Traceback (most recent call last):\n  File "/home/mdipierro/web2py/gluon/restricted.py", line 212, in restricted\n  File "/Users/zamechek/Downloads/web2py/web2py.app/Contents/Resources/applications/hellow/controllers/game.py", line 40, in <module>\n  File "/home/mdipierro/web2py/gluon/globals.py", line 193, in <lambda>\n  File "/Users/zamechek/Downloads/web2py/web2py.app/Contents/Resources/applications/hellow/controllers/game.py", line 13, in show\n  File "/Users/zamechek/Downloads/web2py/web2py.app/Contents/Resources/applications/hellow/controllers/game.py", line 31, in form_from_factory\nTypeError: __init__() takes at least 3 arguments (2 given)\n'
p4976
s.