(dp1
S'output'
p2
S"<type 'exceptions.NameError'> name 'rows' is not defined"
p3
sS'layer'
p4
S'/Users/zamechek/Downloads/web2py/web2py.app/Contents/Resources/applications/hellow/views/game/show.html'
p5
sS'code'
p6
S'response.write(\'<!--[if HTML5]><![endif]-->\\n<!DOCTYPE html>\\n<!-- paulirish.com/2008/conditional-stylesheets-vs-css-hacks-answer-neither/ -->\\n<!--[if lt IE 7]><html class="ie ie6 ie-lte9 ie-lte8 ie-lte7 no-js" lang="\', escape=False)\nresponse.write(T.accepted_language or \'en\')\nresponse.write(\'"> <![endif]-->\\n<!--[if IE 7]><html class="ie ie7 ie-lte9 ie-lte8 ie-lte7 no-js" lang="\', escape=False)\nresponse.write(T.accepted_language or \'en\')\nresponse.write(\'"> <![endif]-->\\n<!--[if IE 8]><html class="ie ie8 ie-lte9 ie-lte8 no-js" lang="\', escape=False)\nresponse.write(T.accepted_language or \'en\')\nresponse.write(\'"> <![endif]-->\\n<!--[if IE 9]><html class="ie9 ie-lte9 no-js" lang="\', escape=False)\nresponse.write(T.accepted_language or \'en\')\nresponse.write(\'"> <![endif]-->\\n<!--[if (gt IE 9)|!(IE)]><!--> <html class="no-js" lang="\', escape=False)\nresponse.write(T.accepted_language or \'en\')\nresponse.write(\'"> <!--<![endif]-->\\n<head>\\n<title>\', escape=False)\nresponse.write(response.title or request.application)\nresponse.write(\'</title>\\n  <!--[if !HTML5]>\\n      <meta http-equiv="X-UA-Compatible" content="IE=edge\', escape=False)\nresponse.write(not request.is_local and \',chrome=1\' or \'\')\nresponse.write(\'">\\n  <![endif]-->\\n  <!-- www.phpied.com/conditional-comments-block-downloads/ -->\\n  <!-- Always force latest IE rendering engine\\n       (even in intranet) & Chrome Frame\\n       Remove this if you use the .htaccess -->\\n\\t   \\n  <meta charset="utf-8" />\\n\\n  <!-- http://dev.w3.org/html5/markup/meta.name.html -->\\n  <meta name="application-name" content="\', escape=False)\nresponse.write(request.application)\nresponse.write(\'" />\\n\\n  <!-- Speaking of Google, don\\\'t forget to set your site up:\\n       http://google.com/webmasters -->\\n  <meta name="google-site-verification" content="" />\\n\\n  <!--  Mobile Viewport Fix\\n        j.mp/mobileviewport & davidbcalhoun.com/2010/viewport-metatag\\n        device-width: Occupy full width of the screen in its current orientation\\n        initial-scale = 1.0 retains dimensions instead of zooming out if page height > device height\\n        user-scalable = yes allows the user to zoom in -->\\n  <meta name="viewport" content="width=device-width, initial-scale=1.0" />\\n\\n  <link rel="shortcut icon" href="\', escape=False)\nresponse.write(URL(\'static\',\'images/favicon.ico\'))\nresponse.write(\'" type="image/x-icon">\\n  <link rel="apple-touch-icon" href="\', escape=False)\nresponse.write(URL(\'static\',\'images/favicon.png\'))\nresponse.write(\'">\\n\\n  <!-- All JavaScript at the bottom, except for Modernizr which enables\\n       HTML5 elements & feature detects -->\\n  <script src="\', escape=False)\nresponse.write(URL(\'static\',\'js/modernizr.custom.js\'))\nresponse.write(\'"></script>\\n\\n  <!-- include stylesheets -->\\n  \', escape=False)\nresponse.files.append(URL(\'static\',\'css/web2py.css\'))\nresponse.files.append(URL(\'static\',\'css/bootstrap.min.css\'))\nresponse.files.append(URL(\'static\',\'css/bootstrap-responsive.min.css\'))\nresponse.files.append(URL(\'static\',\'css/web2py_bootstrap.css\'))\nresponse.write(\'\\n\\n  \', escape=False)\nresponse.write(\'<script type="text/javascript"><!--\\n    // These variables are used by the web2py_ajax_init function in web2py_ajax.js (which is loaded below).\\n    var w2p_ajax_confirm_message = "\', escape=False)\nresponse.write(T(\'Are you sure you want to delete this object?\'))\nresponse.write(\'";\\n    var w2p_ajax_date_format = "\', escape=False)\nresponse.write(T(\'%Y-%m-%d\'))\nresponse.write(\'";\\n    var w2p_ajax_datetime_format = "\', escape=False)\nresponse.write(T(\'%Y-%m-%d %H:%M:%S\'))\nresponse.write(\'";\\n    var ajax_error_500 = \\\'\', escape=False)\nresponse.write(XML(T(\'An error occured, please %s the page\') % A(T(\'reload\'), _href=URL(args=request.args, vars=request.vars))))\nresponse.write("\'\\n    //--></script>\\n", escape=False)\nresponse.files.insert(0,URL(\'static\',\'js/jquery.js\'))\nresponse.files.insert(1,URL(\'static\',\'css/calendar.css\'))\nresponse.files.insert(2,URL(\'static\',\'js/calendar.js\'))\nresponse.files.insert(3,URL(\'static\',\'js/web2py.js\'))\nresponse.include_meta()\nresponse.include_files()\nresponse.write(\'\\n\', escape=False)\nresponse.write(\'\\n\\n  \', escape=False)\n# using sidebars need to know what sidebar you want to use\nleft_sidebar_enabled = globals().get(\'left_sidebar_enabled\',False)\nright_sidebar_enabled = globals().get(\'right_sidebar_enabled\',False)\nmiddle_columns = {0:\'span12\',1:\'span9\',2:\'span6\'}[\n(left_sidebar_enabled and 1 or 0)+(right_sidebar_enabled and 1 or 0)]\nresponse.write(\'\\n\\n  <!-- uncomment here to load jquery-ui\\n       <link rel="stylesheet" href="http://ajax.googleapis.com/ajax/libs/jqueryui/1.8.16/themes/base/jquery-ui.css" type="text/css" media="all" />\\n       <script src="http://ajax.googleapis.com/ajax/libs/jqueryui/1.8.16/jquery-ui.min.js" type="text/javascript"></script>\\n       uncomment to load jquery-ui //-->\\n  <noscript><link href="\', escape=False)\nresponse.write(URL(\'static\', \'css/web2py_bootstrap_nojs.css\'))\nresponse.write(\'" rel="stylesheet" type="text/css" /></noscript>\\n  \', escape=False)\nresponse.write(\'\\n</head>\\n\\n<body>\\n  <!-- Navbar ================================================== -->\\n  <div class="navbar navbar-inverse navbar-fixed-top">\\n    <div class="flash">\', escape=False)\nresponse.write(response.flash or \'\')\nresponse.write(\'</div>\\n    <div class="navbar-inner">\\n      <div class="container">\\n        <!-- the next tag is necessary for bootstrap menus, do not remove -->\\n        <button type="button" class="btn btn-navbar" data-toggle="collapse" data-target=".nav-collapse">\\n          <span class="icon-bar"></span>\\n          <span class="icon-bar"></span>\\n          <span class="icon-bar"></span>\\n        </button>\\n\\t\', escape=False)\nresponse.write(response.logo or \'\')\nresponse.write(\'\\n        <ul id="navbar" class="nav pull-right">\', escape=False)\nresponse.write(\'auth\' in globals() and auth.navbar(mode="dropdown") or \'\')\nresponse.write(\'</ul>\\n        <div class="nav-collapse">\\n          \', escape=False)\nis_mobile=request.user_agent().is_mobile\nresponse.write(\'\\n          \', escape=False)\nif response.menu:\n    response.write(\'\\n          \', escape=False)\n    response.write(MENU(response.menu, _class=\'mobile-menu nav\' if is_mobile else \'nav\',mobile=is_mobile,li_class=\'dropdown\',ul_class=\'dropdown-menu\'))\n    response.write(\'\\n          \', escape=False)\n    pass\nresponse.write(\'\\n        </div><!--/.nav-collapse -->\\n      </div>\\n    </div>\\n  </div><!--/top navbar -->\\n\\n  <div class="container">\\n    <!-- Masthead ================================================== -->\\n    <header class="mastheader row" id="header">\\n        <div class="span12">\\n            <div class="page-header">\\n                <h1>\\n                    \', escape=False)\nresponse.write(response.title or request.application)\nresponse.write(\'\\n                    <small>\', escape=False)\nresponse.write(response.subtitle or \'\')\nresponse.write(\'</small>\\n                </h1>\\n            </div>\\n        </div>\\n    </header>\\n\\n    <section id="main" class="main row">\\n        \', escape=False)\nif left_sidebar_enabled:\n    response.write(\'\\n        <div class="span3 left-sidebar">\\n            \', escape=False)\n    response.write(\'\\n            <h3>Left Sidebar</h3>\\n            <p></p>\\n            \', escape=False)\n    response.write(\'\\n        </div>\\n        \', escape=False)\n    pass\nresponse.write(\'\\n\\n        <div class="\', escape=False)\nresponse.write(middle_columns)\nresponse.write(\'">\\n            \', escape=False)\nresponse.write(\'\\n            \', escape=False)\nresponse.write(\'\\n<h1>Game \', escape=False)\nresponse.write(gameid)\nresponse.write(\'</h1>\\n<div>\\n\\t<ul>\\n        <li>Name = \', escape=False)\nresponse.write(name)\nresponse.write(\'</li>\\n        <li>Balance = \', escape=False)\nresponse.write(balance)\nresponse.write(\'</li>\\n    </ul>\\n\\t<h2>Input form</h2>\\n    <form>\\n        \', escape=False)\nfor row in rows:\n    response.write(\' <input type="radio" name=\', escape=False)\n    response.write(row.id)\n    response.write(\' value={=row.id}}>{=row.id}}<br>\', escape=False)\n    pass\nresponse.write(\'\\n    \\t<input type="submit" value="Submit">\\n    </form>\\n\\t<h2>Submitted variables</h2>\\n\\t\', escape=False)\nresponse.write(BEAUTIFY(request.vars))\nresponse.write(\'\\n\\t<h2>Errors in form</h2>\\n\\t\', escape=False)\nresponse.write(BEAUTIFY(form.errors))\nresponse.write(\'\\n</div>\\n\', escape=False)\nresponse.write(\'\\n            \', escape=False)\nresponse.write(\'\\n        </div>\\n\\n        \', escape=False)\nif right_sidebar_enabled:\n    response.write(\'\\n        <div class="span3">\\n            \', escape=False)\n    response.write(\'\\n            <h3>Right Sidebar</h3>\\n            <p></p>\\n            \', escape=False)\n    response.write(\'\\n        </div>\\n        \', escape=False)\n    pass\nresponse.write(\'\\n    </section><!--/main-->\\n\\n    <!-- Footer ================================================== -->\\n    <div class="row">\\n        <footer class="footer span12" id="footer">\\n            <div class="footer-content">\\n                \', escape=False)\nresponse.write(\' <!-- this is default footer -->\\n                <div class="copyright pull-left">\', escape=False)\nresponse.write(T(\'Copyright\'))\nresponse.write(\' &#169; \', escape=False)\nresponse.write(request.now.year)\nresponse.write(\'</div>\\n                <div id="poweredBy" class="pull-right">\\n                    \', escape=False)\nresponse.write(T(\'Powered by\'))\nresponse.write(\'\\n                    <a href="http://www.web2py.com/">web2py</a>\\n                </div>\\n                \', escape=False)\nresponse.write(\'\\n            </div>\\n        </footer>\\n    </div>\\n\\n  </div> <!-- /container -->\\n\\n  <!-- The javascript =============================================\\n       (Placed at the end of the document so the pages load faster) -->\\n  <script src="\', escape=False)\nresponse.write(URL(\'static\',\'js/bootstrap.min.js\'))\nresponse.write(\'"></script>\\n  <script src="\', escape=False)\nresponse.write(URL(\'static\',\'js/web2py_bootstrap.js\'))\nresponse.write(\'"></script>\\n  <!--[if lt IE 7 ]>\\n      <script src="\', escape=False)\nresponse.write(URL(\'static\',\'js/dd_belatedpng.js\'))\nresponse.write(\'"></script>\\n      <script> DD_belatedPNG.fix(\\\'img, .png_bg\\\'); //fix any <img> or .png_bg background-images </script>\\n      <![endif]-->\\n  \\n  \', escape=False)\nif response.google_analytics_id:\n    response.write(\'\\n  <script src="\', escape=False)\n    response.write(URL(\'static\',\'js/analytics.min.js\'))\n    response.write(\'"></script>\\n  <script type="text/javascript">\\n  analytics.initialize({\\n    \\\'Google Analytics\\\':{trackingId:\\\'\', escape=False)\n    response.write(response.google_analytics_id)\n    response.write("\'} \\n  });</script>\\n  ", escape=False)\n    pass\nresponse.write(\'\\n  <script src="\', escape=False)\nresponse.write(URL(\'static\',\'js/share.js\',vars=dict(static=URL(\'static\',\'images\'))))\nresponse.write(\'"></script>\\n</body>\\n</html>\\n\\n\', escape=False)'
p7
sS'snapshot'
p8
(dp9
S'exception'
p10
(dp11
S'__hash__'
p12
S"<method-wrapper '__hash__' of exceptions.NameError object at 0x33032b0>"
p13
sS'__setattr__'
p14
S"<method-wrapper '__setattr__' of exceptions.NameError object at 0x33032b0>"
p15
sS'__reduce_ex__'
p16
S'<built-in method __reduce_ex__ of exceptions.NameError object at 0x33032b0>'
p17
sS'__getslice__'
p18
S"<method-wrapper '__getslice__' of exceptions.NameError object at 0x33032b0>"
p19
sS'__getitem__'
p20
S"<method-wrapper '__getitem__' of exceptions.NameError object at 0x33032b0>"
p21
sS'__setstate__'
p22
S'<built-in method __setstate__ of exceptions.NameError object at 0x33032b0>'
p23
sS'__reduce__'
p24
S'<built-in method __reduce__ of exceptions.NameError object at 0x33032b0>'
p25
sS'__str__'
p26
S"<method-wrapper '__str__' of exceptions.NameError object at 0x33032b0>"
p27
sS'args'
p28
S'("name \'rows\' is not defined",)'
p29
sS'__getattribute__'
p30
S"<method-wrapper '__getattribute__' of exceptions.NameError object at 0x33032b0>"
p31
sS'__class__'
p32
S"<type 'exceptions.NameError'>"
p33
sS'__delattr__'
p34
S"<method-wrapper '__delattr__' of exceptions.NameError object at 0x33032b0>"
p35
sS'__repr__'
p36
S"<method-wrapper '__repr__' of exceptions.NameError object at 0x33032b0>"
p37
sS'__dict__'
p38
S'{}'
p39
sS'__doc__'
p40
S"'Name not found globally.'"
p41
sS'__init__'
p42
S"<method-wrapper '__init__' of exceptions.NameError object at 0x33032b0>"
p43
sS'__new__'
p44
S'<built-in method __new__ of type object at 0x5f9640>'
p45
ssS'evalue'
p46
S"name 'rows' is not defined"
p47
sS'request'
p48
ccopy_reg
_reconstructor
p49
(cgluon.html
BEAUTIFY
p50
c__builtin__
object
p51
NtRp52
(dp53
S'attributes'
p54
(dp55
sS'components'
p56
(lp57
g49
(cgluon.html
TABLE
p58
g51
NtRp59
(dp60
g54
(dp61
S'level'
p62
I5
ssS'parent'
p63
Nsg56
(lp64
g49
(cgluon.html
TR
p65
g51
NtRp66
(dp67
g54
(dp68
sg63
g59
sg56
(lp69
g49
(cgluon.html
TD
p70
g51
NtRp71
(dp72
g54
(dp73
S'_style'
p74
S'font-weight:bold;vertical-align:top'
p75
ssg63
g66
sg56
(lp76
S'ajax'
p77
asbag49
(g70
g51
NtRp78
(dp79
g54
(dp80
S'_valign'
p81
S'top'
p82
ssg63
g66
sg56
(lp83
S':'
asbag49
(g70
g51
NtRp84
(dp85
g54
(dp86
sg63
g66
sg56
(lp87
g49
(g50
g51
NtRp88
(dp89
g54
(dp90
g62
I5
ssg63
g84
sg56
(lp91
S'False'
p92
asbasbasbag49
(g65
g51
NtRp93
(dp94
g54
(dp95
sg63
g59
sg56
(lp96
g49
(g70
g51
NtRp97
(dp98
g54
(dp99
g74
g75
ssg63
g93
sg56
(lp100
S'application'
p101
asbag49
(g70
g51
NtRp102
(dp103
g54
(dp104
g81
g82
ssg63
g93
sg56
(lp105
S':'
asbag49
(g70
g51
NtRp106
(dp107
g54
(dp108
sg63
g93
sg56
(lp109
g49
(g50
g51
NtRp110
(dp111
g54
(dp112
g62
I5
ssg63
g106
sg56
(lp113
S'hellow'
p114
asbasbasbag49
(g65
g51
NtRp115
(dp116
g54
(dp117
sg63
g59
sg56
(lp118
g49
(g70
g51
NtRp119
(dp120
g54
(dp121
g74
g75
ssg63
g115
sg56
(lp122
g28
asbag49
(g70
g51
NtRp123
(dp124
g54
(dp125
g81
g82
ssg63
g115
sg56
(lp126
S':'
asbag49
(g70
g51
NtRp127
(dp128
g54
(dp129
sg63
g115
sg56
(lp130
g49
(g50
g51
NtRp131
(dp132
g54
(dp133
g62
I5
ssg63
g127
sg56
(lp134
g49
(g58
g51
NtRp135
(dp136
g54
(dp137
g62
I4
ssg63
Nsg56
(lp138
g49
(g65
g51
NtRp139
(dp140
g54
(dp141
sg63
g135
sg56
(lp142
g49
(g70
g51
NtRp143
(dp144
g54
(dp145
sg63
g139
sg56
(lp146
g49
(g50
g51
NtRp147
(dp148
g54
(dp149
g62
I4
ssg63
g143
sg56
(lp150
S'1'
asbasbasbasbasbasbasbag49
(g65
g51
NtRp151
(dp152
g54
(dp153
sg63
g59
sg56
(lp154
g49
(g70
g51
NtRp155
(dp156
g54
(dp157
g74
g75
ssg63
g151
sg56
(lp158
S'body'
p159
asbag49
(g70
g51
NtRp160
(dp161
g54
(dp162
g81
g82
ssg63
g151
sg56
(lp163
S':'
asbag49
(g70
g51
NtRp164
(dp165
g54
(dp166
sg63
g151
sg56
(lp167
g49
(g50
g51
NtRp168
(dp169
g54
(dp170
g62
I5
ssg63
g164
sg56
(lp171
S'<cStringIO.StringO object at 0xc32af60>'
p172
asbasbasbag49
(g65
g51
NtRp173
(dp174
g54
(dp175
sg63
g59
sg56
(lp176
g49
(g70
g51
NtRp177
(dp178
g54
(dp179
g74
g75
ssg63
g173
sg56
(lp180
S'cid'
p181
asbag49
(g70
g51
NtRp182
(dp183
g54
(dp184
g81
g82
ssg63
g173
sg56
(lp185
S':'
asbag49
(g70
g51
NtRp186
(dp187
g54
(dp188
sg63
g173
sg56
(lp189
g49
(g50
g51
NtRp190
(dp191
g54
(dp192
g62
I5
ssg63
g186
sg56
(lp193
S'None'
p194
asbasbasbag49
(g65
g51
NtRp195
(dp196
g54
(dp197
sg63
g59
sg56
(lp198
g49
(g70
g51
NtRp199
(dp200
g54
(dp201
g74
g75
ssg63
g195
sg56
(lp202
S'client'
p203
asbag49
(g70
g51
NtRp204
(dp205
g54
(dp206
g81
g82
ssg63
g195
sg56
(lp207
S':'
asbag49
(g70
g51
NtRp208
(dp209
g54
(dp210
sg63
g195
sg56
(lp211
g49
(g50
g51
NtRp212
(dp213
g54
(dp214
g62
I5
ssg63
g208
sg56
(lp215
S'127.0.0.1'
p216
asbasbasbag49
(g65
g51
NtRp217
(dp218
g54
(dp219
sg63
g59
sg56
(lp220
g49
(g70
g51
NtRp221
(dp222
g54
(dp223
g74
g75
ssg63
g217
sg56
(lp224
S'controller'
p225
asbag49
(g70
g51
NtRp226
(dp227
g54
(dp228
g81
g82
ssg63
g217
sg56
(lp229
S':'
asbag49
(g70
g51
NtRp230
(dp231
g54
(dp232
sg63
g217
sg56
(lp233
g49
(g50
g51
NtRp234
(dp235
g54
(dp236
g62
I5
ssg63
g230
sg56
(lp237
S'game'
p238
asbasbasbag49
(g65
g51
NtRp239
(dp240
g54
(dp241
sg63
g59
sg56
(lp242
g49
(g70
g51
NtRp243
(dp244
g54
(dp245
g74
g75
ssg63
g239
sg56
(lp246
S'cookies'
p247
asbag49
(g70
g51
NtRp248
(dp249
g54
(dp250
g81
g82
ssg63
g239
sg56
(lp251
S':'
asbag49
(g70
g51
NtRp252
(dp253
g54
(dp254
sg63
g239
sg56
(lp255
g49
(g50
g51
NtRp256
(dp257
g54
(dp258
g62
I5
ssg63
g252
sg56
(lp259
g49
(g58
g51
NtRp260
(dp261
g54
(dp262
g62
I4
ssg63
Nsg56
(lp263
g49
(g65
g51
NtRp264
(dp265
g54
(dp266
sg63
g260
sg56
(lp267
g49
(g70
g51
NtRp268
(dp269
g54
(dp270
g74
g75
ssg63
g264
sg56
(lp271
S'session_id_admin'
p272
asbag49
(g70
g51
NtRp273
(dp274
g54
(dp275
g81
g82
ssg63
g264
sg56
(lp276
S':'
asbag49
(g70
g51
NtRp277
(dp278
g54
(dp279
sg63
g264
sg56
(lp280
g49
(g50
g51
NtRp281
(dp282
g54
(dp283
g62
I4
ssg63
g277
sg56
(lp284
S'127.0.0.1-bf448199-cadc-41e3-b1a7-bed302e89a3e'
p285
ag49
(g58
g51
NtRp286
(dp287
g54
(dp288
g62
I3
ssg63
Nsg56
(lp289
g49
(g65
g51
NtRp290
(dp291
g54
(dp292
sg63
g286
sg56
(lp293
g49
(g70
g51
NtRp294
(dp295
g54
(dp296
g74
g75
ssg63
g290
sg56
(lp297
S'comment'
p298
asbag49
(g70
g51
NtRp299
(dp300
g54
(dp301
g81
g82
ssg63
g290
sg56
(lp302
S':'
asbag49
(g70
g51
NtRp303
(dp304
g54
(dp305
sg63
g290
sg56
(lp306
g49
(g50
g51
NtRp307
(dp308
g54
(dp309
g62
I3
ssg63
g303
sg56
(lp310
S''
asbasbasbag49
(g65
g51
NtRp311
(dp312
g54
(dp313
sg63
g286
sg56
(lp314
g49
(g70
g51
NtRp315
(dp316
g54
(dp317
g74
g75
ssg63
g311
sg56
(lp318
S'domain'
p319
asbag49
(g70
g51
NtRp320
(dp321
g54
(dp322
g81
g82
ssg63
g311
sg56
(lp323
S':'
asbag49
(g70
g51
NtRp324
(dp325
g54
(dp326
sg63
g311
sg56
(lp327
g49
(g50
g51
NtRp328
(dp329
g54
(dp330
g62
I3
ssg63
g324
sg56
(lp331
S''
asbasbasbag49
(g65
g51
NtRp332
(dp333
g54
(dp334
sg63
g286
sg56
(lp335
g49
(g70
g51
NtRp336
(dp337
g54
(dp338
g74
g75
ssg63
g332
sg56
(lp339
S'expires'
p340
asbag49
(g70
g51
NtRp341
(dp342
g54
(dp343
g81
g82
ssg63
g332
sg56
(lp344
S':'
asbag49
(g70
g51
NtRp345
(dp346
g54
(dp347
sg63
g332
sg56
(lp348
g49
(g50
g51
NtRp349
(dp350
g54
(dp351
g62
I3
ssg63
g345
sg56
(lp352
S''
asbasbasbag49
(g65
g51
NtRp353
(dp354
g54
(dp355
sg63
g286
sg56
(lp356
g49
(g70
g51
NtRp357
(dp358
g54
(dp359
g74
g75
ssg63
g353
sg56
(lp360
S'max-age'
p361
asbag49
(g70
g51
NtRp362
(dp363
g54
(dp364
g81
g82
ssg63
g353
sg56
(lp365
S':'
asbag49
(g70
g51
NtRp366
(dp367
g54
(dp368
sg63
g353
sg56
(lp369
g49
(g50
g51
NtRp370
(dp371
g54
(dp372
g62
I3
ssg63
g366
sg56
(lp373
S''
asbasbasbag49
(g65
g51
NtRp374
(dp375
g54
(dp376
sg63
g286
sg56
(lp377
g49
(g70
g51
NtRp378
(dp379
g54
(dp380
g74
g75
ssg63
g374
sg56
(lp381
S'path'
p382
asbag49
(g70
g51
NtRp383
(dp384
g54
(dp385
g81
g82
ssg63
g374
sg56
(lp386
S':'
asbag49
(g70
g51
NtRp387
(dp388
g54
(dp389
sg63
g374
sg56
(lp390
g49
(g50
g51
NtRp391
(dp392
g54
(dp393
g62
I3
ssg63
g387
sg56
(lp394
S''
asbasbasbag49
(g65
g51
NtRp395
(dp396
g54
(dp397
sg63
g286
sg56
(lp398
g49
(g70
g51
NtRp399
(dp400
g54
(dp401
g74
g75
ssg63
g395
sg56
(lp402
S'secure'
p403
asbag49
(g70
g51
NtRp404
(dp405
g54
(dp406
g81
g82
ssg63
g395
sg56
(lp407
S':'
asbag49
(g70
g51
NtRp408
(dp409
g54
(dp410
sg63
g395
sg56
(lp411
g49
(g50
g51
NtRp412
(dp413
g54
(dp414
g62
I3
ssg63
g408
sg56
(lp415
S''
asbasbasbag49
(g65
g51
NtRp416
(dp417
g54
(dp418
sg63
g286
sg56
(lp419
g49
(g70
g51
NtRp420
(dp421
g54
(dp422
g74
g75
ssg63
g416
sg56
(lp423
S'version'
p424
asbag49
(g70
g51
NtRp425
(dp426
g54
(dp427
g81
g82
ssg63
g416
sg56
(lp428
S':'
asbag49
(g70
g51
NtRp429
(dp430
g54
(dp431
sg63
g416
sg56
(lp432
g49
(g50
g51
NtRp433
(dp434
g54
(dp435
g62
I3
ssg63
g429
sg56
(lp436
S''
asbasbasbasbasbasbasbag49
(g65
g51
NtRp437
(dp438
g54
(dp439
sg63
g260
sg56
(lp440
g49
(g70
g51
NtRp441
(dp442
g54
(dp443
g74
g75
ssg63
g437
sg56
(lp444
S'session_id_hellow'
p445
asbag49
(g70
g51
NtRp446
(dp447
g54
(dp448
g81
g82
ssg63
g437
sg56
(lp449
S':'
asbag49
(g70
g51
NtRp450
(dp451
g54
(dp452
sg63
g437
sg56
(lp453
g49
(g50
g51
NtRp454
(dp455
g54
(dp456
g62
I4
ssg63
g450
sg56
(lp457
S'127.0.0.1-bbea59f2-333e-4593-a45c-2c44a5133d77'
p458
ag49
(g58
g51
NtRp459
(dp460
g54
(dp461
g62
I3
ssg63
Nsg56
(lp462
g49
(g65
g51
NtRp463
(dp464
g54
(dp465
sg63
g459
sg56
(lp466
g49
(g70
g51
NtRp467
(dp468
g54
(dp469
g74
g75
ssg63
g463
sg56
(lp470
g298
asbag49
(g70
g51
NtRp471
(dp472
g54
(dp473
g81
g82
ssg63
g463
sg56
(lp474
S':'
asbag49
(g70
g51
NtRp475
(dp476
g54
(dp477
sg63
g463
sg56
(lp478
g49
(g50
g51
NtRp479
(dp480
g54
(dp481
g62
I3
ssg63
g475
sg56
(lp482
S''
asbasbasbag49
(g65
g51
NtRp483
(dp484
g54
(dp485
sg63
g459
sg56
(lp486
g49
(g70
g51
NtRp487
(dp488
g54
(dp489
g74
g75
ssg63
g483
sg56
(lp490
g319
asbag49
(g70
g51
NtRp491
(dp492
g54
(dp493
g81
g82
ssg63
g483
sg56
(lp494
S':'
asbag49
(g70
g51
NtRp495
(dp496
g54
(dp497
sg63
g483
sg56
(lp498
g49
(g50
g51
NtRp499
(dp500
g54
(dp501
g62
I3
ssg63
g495
sg56
(lp502
S''
asbasbasbag49
(g65
g51
NtRp503
(dp504
g54
(dp505
sg63
g459
sg56
(lp506
g49
(g70
g51
NtRp507
(dp508
g54
(dp509
g74
g75
ssg63
g503
sg56
(lp510
g340
asbag49
(g70
g51
NtRp511
(dp512
g54
(dp513
g81
g82
ssg63
g503
sg56
(lp514
S':'
asbag49
(g70
g51
NtRp515
(dp516
g54
(dp517
sg63
g503
sg56
(lp518
g49
(g50
g51
NtRp519
(dp520
g54
(dp521
g62
I3
ssg63
g515
sg56
(lp522
S''
asbasbasbag49
(g65
g51
NtRp523
(dp524
g54
(dp525
sg63
g459
sg56
(lp526
g49
(g70
g51
NtRp527
(dp528
g54
(dp529
g74
g75
ssg63
g523
sg56
(lp530
g361
asbag49
(g70
g51
NtRp531
(dp532
g54
(dp533
g81
g82
ssg63
g523
sg56
(lp534
S':'
asbag49
(g70
g51
NtRp535
(dp536
g54
(dp537
sg63
g523
sg56
(lp538
g49
(g50
g51
NtRp539
(dp540
g54
(dp541
g62
I3
ssg63
g535
sg56
(lp542
S''
asbasbasbag49
(g65
g51
NtRp543
(dp544
g54
(dp545
sg63
g459
sg56
(lp546
g49
(g70
g51
NtRp547
(dp548
g54
(dp549
g74
g75
ssg63
g543
sg56
(lp550
g382
asbag49
(g70
g51
NtRp551
(dp552
g54
(dp553
g81
g82
ssg63
g543
sg56
(lp554
S':'
asbag49
(g70
g51
NtRp555
(dp556
g54
(dp557
sg63
g543
sg56
(lp558
g49
(g50
g51
NtRp559
(dp560
g54
(dp561
g62
I3
ssg63
g555
sg56
(lp562
S''
asbasbasbag49
(g65
g51
NtRp563
(dp564
g54
(dp565
sg63
g459
sg56
(lp566
g49
(g70
g51
NtRp567
(dp568
g54
(dp569
g74
g75
ssg63
g563
sg56
(lp570
g403
asbag49
(g70
g51
NtRp571
(dp572
g54
(dp573
g81
g82
ssg63
g563
sg56
(lp574
S':'
asbag49
(g70
g51
NtRp575
(dp576
g54
(dp577
sg63
g563
sg56
(lp578
g49
(g50
g51
NtRp579
(dp580
g54
(dp581
g62
I3
ssg63
g575
sg56
(lp582
S''
asbasbasbag49
(g65
g51
NtRp583
(dp584
g54
(dp585
sg63
g459
sg56
(lp586
g49
(g70
g51
NtRp587
(dp588
g54
(dp589
g74
g75
ssg63
g583
sg56
(lp590
g424
asbag49
(g70
g51
NtRp591
(dp592
g54
(dp593
g81
g82
ssg63
g583
sg56
(lp594
S':'
asbag49
(g70
g51
NtRp595
(dp596
g54
(dp597
sg63
g583
sg56
(lp598
g49
(g50
g51
NtRp599
(dp600
g54
(dp601
g62
I3
ssg63
g595
sg56
(lp602
S''
asbasbasbasbasbasbasbag49
(g65
g51
NtRp603
(dp604
g54
(dp605
sg63
g260
sg56
(lp606
g49
(g70
g51
NtRp607
(dp608
g54
(dp609
g74
g75
ssg63
g603
sg56
(lp610
S'session_id_welcome'
p611
asbag49
(g70
g51
NtRp612
(dp613
g54
(dp614
g81
g82
ssg63
g603
sg56
(lp615
S':'
asbag49
(g70
g51
NtRp616
(dp617
g54
(dp618
sg63
g603
sg56
(lp619
g49
(g50
g51
NtRp620
(dp621
g54
(dp622
g62
I4
ssg63
g616
sg56
(lp623
S'127.0.0.1-dfebfa33-25aa-4072-bce4-08f7e89e2d04'
p624
ag49
(g58
g51
NtRp625
(dp626
g54
(dp627
g62
I3
ssg63
Nsg56
(lp628
g49
(g65
g51
NtRp629
(dp630
g54
(dp631
sg63
g625
sg56
(lp632
g49
(g70
g51
NtRp633
(dp634
g54
(dp635
g74
g75
ssg63
g629
sg56
(lp636
g298
asbag49
(g70
g51
NtRp637
(dp638
g54
(dp639
g81
g82
ssg63
g629
sg56
(lp640
S':'
asbag49
(g70
g51
NtRp641
(dp642
g54
(dp643
sg63
g629
sg56
(lp644
g49
(g50
g51
NtRp645
(dp646
g54
(dp647
g62
I3
ssg63
g641
sg56
(lp648
S''
asbasbasbag49
(g65
g51
NtRp649
(dp650
g54
(dp651
sg63
g625
sg56
(lp652
g49
(g70
g51
NtRp653
(dp654
g54
(dp655
g74
g75
ssg63
g649
sg56
(lp656
g319
asbag49
(g70
g51
NtRp657
(dp658
g54
(dp659
g81
g82
ssg63
g649
sg56
(lp660
S':'
asbag49
(g70
g51
NtRp661
(dp662
g54
(dp663
sg63
g649
sg56
(lp664
g49
(g50
g51
NtRp665
(dp666
g54
(dp667
g62
I3
ssg63
g661
sg56
(lp668
S''
asbasbasbag49
(g65
g51
NtRp669
(dp670
g54
(dp671
sg63
g625
sg56
(lp672
g49
(g70
g51
NtRp673
(dp674
g54
(dp675
g74
g75
ssg63
g669
sg56
(lp676
g340
asbag49
(g70
g51
NtRp677
(dp678
g54
(dp679
g81
g82
ssg63
g669
sg56
(lp680
S':'
asbag49
(g70
g51
NtRp681
(dp682
g54
(dp683
sg63
g669
sg56
(lp684
g49
(g50
g51
NtRp685
(dp686
g54
(dp687
g62
I3
ssg63
g681
sg56
(lp688
S''
asbasbasbag49
(g65
g51
NtRp689
(dp690
g54
(dp691
sg63
g625
sg56
(lp692
g49
(g70
g51
NtRp693
(dp694
g54
(dp695
g74
g75
ssg63
g689
sg56
(lp696
g361
asbag49
(g70
g51
NtRp697
(dp698
g54
(dp699
g81
g82
ssg63
g689
sg56
(lp700
S':'
asbag49
(g70
g51
NtRp701
(dp702
g54
(dp703
sg63
g689
sg56
(lp704
g49
(g50
g51
NtRp705
(dp706
g54
(dp707
g62
I3
ssg63
g701
sg56
(lp708
S''
asbasbasbag49
(g65
g51
NtRp709
(dp710
g54
(dp711
sg63
g625
sg56
(lp712
g49
(g70
g51
NtRp713
(dp714
g54
(dp715
g74
g75
ssg63
g709
sg56
(lp716
g382
asbag49
(g70
g51
NtRp717
(dp718
g54
(dp719
g81
g82
ssg63
g709
sg56
(lp720
S':'
asbag49
(g70
g51
NtRp721
(dp722
g54
(dp723
sg63
g709
sg56
(lp724
g49
(g50
g51
NtRp725
(dp726
g54
(dp727
g62
I3
ssg63
g721
sg56
(lp728
S''
asbasbasbag49
(g65
g51
NtRp729
(dp730
g54
(dp731
sg63
g625
sg56
(lp732
g49
(g70
g51
NtRp733
(dp734
g54
(dp735
g74
g75
ssg63
g729
sg56
(lp736
g403
asbag49
(g70
g51
NtRp737
(dp738
g54
(dp739
g81
g82
ssg63
g729
sg56
(lp740
S':'
asbag49
(g70
g51
NtRp741
(dp742
g54
(dp743
sg63
g729
sg56
(lp744
g49
(g50
g51
NtRp745
(dp746
g54
(dp747
g62
I3
ssg63
g741
sg56
(lp748
S''
asbasbasbag49
(g65
g51
NtRp749
(dp750
g54
(dp751
sg63
g625
sg56
(lp752
g49
(g70
g51
NtRp753
(dp754
g54
(dp755
g74
g75
ssg63
g749
sg56
(lp756
g424
asbag49
(g70
g51
NtRp757
(dp758
g54
(dp759
g81
g82
ssg63
g749
sg56
(lp760
S':'
asbag49
(g70
g51
NtRp761
(dp762
g54
(dp763
sg63
g749
sg56
(lp764
g49
(g50
g51
NtRp765
(dp766
g54
(dp767
g62
I3
ssg63
g761
sg56
(lp768
S''
asbasbasbasbasbasbasbasbasbasbasbag49
(g65
g51
NtRp769
(dp770
g54
(dp771
sg63
g59
sg56
(lp772
g49
(g70
g51
NtRp773
(dp774
g54
(dp775
g74
g75
ssg63
g769
sg56
(lp776
S'env'
p777
asbag49
(g70
g51
NtRp778
(dp779
g54
(dp780
g81
g82
ssg63
g769
sg56
(lp781
S':'
asbag49
(g70
g51
NtRp782
(dp783
g54
(dp784
sg63
g769
sg56
(lp785
g49
(g50
g51
NtRp786
(dp787
g54
(dp788
g62
I5
ssg63
g782
sg56
(lp789
g49
(g58
g51
NtRp790
(dp791
g54
(dp792
g62
I4
ssg63
Nsg56
(lp793
g49
(g65
g51
NtRp794
(dp795
g54
(dp796
sg63
g790
sg56
(lp797
g49
(g70
g51
NtRp798
(dp799
g54
(dp800
g74
g75
ssg63
g794
sg56
(lp801
S'app_folders'
p802
asbag49
(g70
g51
NtRp803
(dp804
g54
(dp805
g81
g82
ssg63
g794
sg56
(lp806
S':'
asbag49
(g70
g51
NtRp807
(dp808
g54
(dp809
sg63
g794
sg56
(lp810
g49
(g50
g51
NtRp811
(dp812
g54
(dp813
g62
I4
ssg63
g807
sg56
(lp814
S"set(['/Users/zamechek/Downloads/web2py/web2py.app/Contents/Resources/applications/examples/', '/Users/zamechek/Downloads/web2py/web2py.app/Contents/Resources/applications/hellow/', '/Users/zamechek/Downloads/web2py/web2py.app/Contents/Resources/applications/admin/', '/Users/zamechek/Downloads/web2py/web2py.app/Contents/Resources/applications/slots/', '/Users/zamechek/Downloads/web2py/web2py.app/Contents/Resources/applications/welcome/'])"
p815
asbasbasbag49
(g65
g51
NtRp816
(dp817
g54
(dp818
sg63
g790
sg56
(lp819
g49
(g70
g51
NtRp820
(dp821
g54
(dp822
g74
g75
ssg63
g816
sg56
(lp823
S'applications_parent'
p824
asbag49
(g70
g51
NtRp825
(dp826
g54
(dp827
g81
g82
ssg63
g816
sg56
(lp828
S':'
asbag49
(g70
g51
NtRp829
(dp830
g54
(dp831
sg63
g816
sg56
(lp832
g49
(g50
g51
NtRp833
(dp834
g54
(dp835
g62
I4
ssg63
g829
sg56
(lp836
S'/Users/zamechek/Downloads/web2py/web2py.app/Contents/Resources'
p837
asbasbasbag49
(g65
g51
NtRp838
(dp839
g54
(dp840
sg63
g790
sg56
(lp841
g49
(g70
g51
NtRp842
(dp843
g54
(dp844
g74
g75
ssg63
g838
sg56
(lp845
S'cmd_args'
p846
asbag49
(g70
g51
NtRp847
(dp848
g54
(dp849
g81
g82
ssg63
g838
sg56
(lp850
S':'
asbag49
(g70
g51
NtRp851
(dp852
g54
(dp853
sg63
g838
sg56
(lp854
g49
(g50
g51
NtRp855
(dp856
g54
(dp857
g62
I4
ssg63
g851
sg56
(lp858
g49
(g58
g51
NtRp859
(dp860
g54
(dp861
g62
I3
ssg63
Nsg56
(lp862
sbasbasbasbag49
(g65
g51
NtRp863
(dp864
g54
(dp865
sg63
g790
sg56
(lp866
g49
(g70
g51
NtRp867
(dp868
g54
(dp869
g74
g75
ssg63
g863
sg56
(lp870
S'cmd_options'
p871
asbag49
(g70
g51
NtRp872
(dp873
g54
(dp874
g81
g82
ssg63
g863
sg56
(lp875
S':'
asbag49
(g70
g51
NtRp876
(dp877
g54
(dp878
sg63
g863
sg56
(lp879
g49
(g50
g51
NtRp880
(dp881
g54
(dp882
g62
I4
ssg63
g876
sg56
(lp883
S"<Values at 0x32c8f58: {'verbose': False, 'ip': '127.0.0.1', 'with_scheduler': False, 'ips': ['130.91.151.157'], 'shutdown_timeout': 5, 'taskbar': False, 'port': 8000, 'maxthreads': None, 'softcron': False, 'server_name': 'hntvlan531.0924.wlan.wireless-pennnet.upenn.edu', 'bpython': False, 'nogui': False, 'pid_filename': 'httpserver.pid', 'extcron': False, 'runcron': False, 'run_system_tests': False, 'test': None, 'folder': '/Users/zamechek/Downloads/web2py/web2py.app/Contents/Resources', 'config': '', 'import_models': False, 'winservice': '', 'shell': None, 'run': '', 'log_filename': 'httpserver.log', 'debuglevel': 30, 'args': [''], 'socket_timeout': 5, 'ssl_ca_certificate': None, 'scheduler': None, 'profiler_filename': None, 'ssl_private_key': '', 'scheduler_groups': None, 'password': '<ask>', 'request_queue_size': 5, 'ssl_certificate': '', 'cronjob': False, 'numthreads': None, 'quiet': False, 'interfaces': None, 'minthreads': None, 'timeout': 10, 'plain': False, 'nobanner': False}>"
p884
asbasbasbag49
(g65
g51
NtRp885
(dp886
g54
(dp887
sg63
g790
sg56
(lp888
g49
(g70
g51
NtRp889
(dp890
g54
(dp891
g74
g75
ssg63
g885
sg56
(lp892
S'db_sessions'
p893
asbag49
(g70
g51
NtRp894
(dp895
g54
(dp896
g81
g82
ssg63
g885
sg56
(lp897
S':'
asbag49
(g70
g51
NtRp898
(dp899
g54
(dp900
sg63
g885
sg56
(lp901
g49
(g50
g51
NtRp902
(dp903
g54
(dp904
g62
I4
ssg63
g898
sg56
(lp905
S'set([])'
p906
asbasbasbag49
(g65
g51
NtRp907
(dp908
g54
(dp909
sg63
g790
sg56
(lp910
g49
(g70
g51
NtRp911
(dp912
g54
(dp913
g74
g75
ssg63
g907
sg56
(lp914
S'debugging'
p915
asbag49
(g70
g51
NtRp916
(dp917
g54
(dp918
g81
g82
ssg63
g907
sg56
(lp919
S':'
asbag49
(g70
g51
NtRp920
(dp921
g54
(dp922
sg63
g907
sg56
(lp923
g49
(g50
g51
NtRp924
(dp925
g54
(dp926
g62
I4
ssg63
g920
sg56
(lp927
S'True'
p928
asbasbasbag49
(g65
g51
NtRp929
(dp930
g54
(dp931
sg63
g790
sg56
(lp932
g49
(g70
g51
NtRp933
(dp934
g54
(dp935
g74
g75
ssg63
g929
sg56
(lp936
S'gluon_parent'
p937
asbag49
(g70
g51
NtRp938
(dp939
g54
(dp940
g81
g82
ssg63
g929
sg56
(lp941
S':'
asbag49
(g70
g51
NtRp942
(dp943
g54
(dp944
sg63
g929
sg56
(lp945
g49
(g50
g51
NtRp946
(dp947
g54
(dp948
g62
I4
ssg63
g942
sg56
(lp949
S'/Users/zamechek/Downloads/web2py/web2py.app/Contents/Resources'
p950
asbasbasbag49
(g65
g51
NtRp951
(dp952
g54
(dp953
sg63
g790
sg56
(lp954
g49
(g70
g51
NtRp955
(dp956
g54
(dp957
g74
g75
ssg63
g951
sg56
(lp958
S'http_accept'
p959
asbag49
(g70
g51
NtRp960
(dp961
g54
(dp962
g81
g82
ssg63
g951
sg56
(lp963
S':'
asbag49
(g70
g51
NtRp964
(dp965
g54
(dp966
sg63
g951
sg56
(lp967
g49
(g50
g51
NtRp968
(dp969
g54
(dp970
g62
I4
ssg63
g964
sg56
(lp971
S'text/html,application/xhtml+xml,application/xml;q=0.9,*/*;q=0.8'
p972
asbasbasbag49
(g65
g51
NtRp973
(dp974
g54
(dp975
sg63
g790
sg56
(lp976
g49
(g70
g51
NtRp977
(dp978
g54
(dp979
g74
g75
ssg63
g973
sg56
(lp980
S'http_accept_charset'
p981
asbag49
(g70
g51
NtRp982
(dp983
g54
(dp984
g81
g82
ssg63
g973
sg56
(lp985
S':'
asbag49
(g70
g51
NtRp986
(dp987
g54
(dp988
sg63
g973
sg56
(lp989
g49
(g50
g51
NtRp990
(dp991
g54
(dp992
g62
I4
ssg63
g986
sg56
(lp993
S'ISO-8859-1,utf-8;q=0.7,*;q=0.3'
p994
asbasbasbag49
(g65
g51
NtRp995
(dp996
g54
(dp997
sg63
g790
sg56
(lp998
g49
(g70
g51
NtRp999
(dp1000
g54
(dp1001
g74
g75
ssg63
g995
sg56
(lp1002
S'http_accept_encoding'
p1003
asbag49
(g70
g51
NtRp1004
(dp1005
g54
(dp1006
g81
g82
ssg63
g995
sg56
(lp1007
S':'
asbag49
(g70
g51
NtRp1008
(dp1009
g54
(dp1010
sg63
g995
sg56
(lp1011
g49
(g50
g51
NtRp1012
(dp1013
g54
(dp1014
g62
I4
ssg63
g1008
sg56
(lp1015
S'gzip,deflate,sdch'
p1016
asbasbasbag49
(g65
g51
NtRp1017
(dp1018
g54
(dp1019
sg63
g790
sg56
(lp1020
g49
(g70
g51
NtRp1021
(dp1022
g54
(dp1023
g74
g75
ssg63
g1017
sg56
(lp1024
S'http_accept_language'
p1025
asbag49
(g70
g51
NtRp1026
(dp1027
g54
(dp1028
g81
g82
ssg63
g1017
sg56
(lp1029
S':'
asbag49
(g70
g51
NtRp1030
(dp1031
g54
(dp1032
sg63
g1017
sg56
(lp1033
g49
(g50
g51
NtRp1034
(dp1035
g54
(dp1036
g62
I4
ssg63
g1030
sg56
(lp1037
S'en-US,en;q=0.8'
p1038
asbasbasbag49
(g65
g51
NtRp1039
(dp1040
g54
(dp1041
sg63
g790
sg56
(lp1042
g49
(g70
g51
NtRp1043
(dp1044
g54
(dp1045
g74
g75
ssg63
g1039
sg56
(lp1046
S'http_cache_control'
p1047
asbag49
(g70
g51
NtRp1048
(dp1049
g54
(dp1050
g81
g82
ssg63
g1039
sg56
(lp1051
S':'
asbag49
(g70
g51
NtRp1052
(dp1053
g54
(dp1054
sg63
g1039
sg56
(lp1055
g49
(g50
g51
NtRp1056
(dp1057
g54
(dp1058
g62
I4
ssg63
g1052
sg56
(lp1059
S'max-age=0'
p1060
asbasbasbag49
(g65
g51
NtRp1061
(dp1062
g54
(dp1063
sg63
g790
sg56
(lp1064
g49
(g70
g51
NtRp1065
(dp1066
g54
(dp1067
g74
g75
ssg63
g1061
sg56
(lp1068
S'http_connection'
p1069
asbag49
(g70
g51
NtRp1070
(dp1071
g54
(dp1072
g81
g82
ssg63
g1061
sg56
(lp1073
S':'
asbag49
(g70
g51
NtRp1074
(dp1075
g54
(dp1076
sg63
g1061
sg56
(lp1077
g49
(g50
g51
NtRp1078
(dp1079
g54
(dp1080
g62
I4
ssg63
g1074
sg56
(lp1081
S'keep-alive'
p1082
asbasbasbag49
(g65
g51
NtRp1083
(dp1084
g54
(dp1085
sg63
g790
sg56
(lp1086
g49
(g70
g51
NtRp1087
(dp1088
g54
(dp1089
g74
g75
ssg63
g1083
sg56
(lp1090
S'http_cookie'
p1091
asbag49
(g70
g51
NtRp1092
(dp1093
g54
(dp1094
g81
g82
ssg63
g1083
sg56
(lp1095
S':'
asbag49
(g70
g51
NtRp1096
(dp1097
g54
(dp1098
sg63
g1083
sg56
(lp1099
g49
(g50
g51
NtRp1100
(dp1101
g54
(dp1102
g62
I4
ssg63
g1096
sg56
(lp1103
S'_define_session=BAh7CEkiD3Nlc3Npb25faWQGOgZFRkkiJTVmM2YzOTE4ZmYyNzY4ZDRjYjY5YjcyOGNkZTAxODEwBjsAVEkiEF9jc3JmX3Rva2VuBjsARkkiMVY4MTBXWE1hdGNGUGR0ZzhxeStGc3FiajlCNzB6UkpqcHZUalZJNjRFNms9BjsARkkiGXdhcmRlbi51c2VyLnVzZXIua2V5BjsAVFsISSIJVXNlcgY7AEZbBmkGSSIiJDJhJDEwJGxpeDBzN29QMk5ocFJWZUl4RXZ4WXUGOwBU--36fb82eb40ee1558fc8e56b5bce1c04bba1a6c00; _bs_session=BAh7B0kiD3Nlc3Npb25faWQGOgZFRkkiJWFhOTlmNjdkODEzYjIwNGMyNGUwMTZmNjlkMDBjMjlhBjsAVEkiEF9jc3JmX3Rva2VuBjsARkkiMUJjek16b0JSUDluYk5MekI0YlNTMklPb2Q3V3pNQzJXcHQ1enY1RDgrT3c9BjsARg%3D%3D--80cc0f5e6211d60923eda39a15903de5a280521a; _table_session=BAh7B0kiD3Nlc3Npb25faWQGOgZFRkkiJTdhZTA3MzFhMGMxM2Q4YTAxZGQ3ZTNlMDM2ODIwOWY3BjsAVEkiEF9jc3JmX3Rva2VuBjsARkkiMWxKWVRtT3hGU3dxT0tnbmJ1OG1iL3FXSW9jWVRJdnZhZHJmNTN2b1BqR2M9BjsARg%3D%3D--a8b8801fe97e379d91991be9a0d21a60f46bc09e; _usertable_session=BAh7CEkiD3Nlc3Npb25faWQGOgZFRkkiJTRmY2NiMWMyOTE1ZThhYzE1MzVlYmU3ODMxZjdhM2NmBjsAVEkiEF9jc3JmX3Rva2VuBjsARkkiMXlibkQxRk5wVVFFU05OcDVxMEQvUURSZWRJQVlRY1JwYTdoSkRucEtlYXc9BjsARkkiCmZsYXNoBjsARm86JUFjdGlvbkRpc3BhdGNoOjpGbGFzaDo6Rmxhc2hIYXNoCToKQHVzZWRvOghTZXQGOgpAaGFzaHsAOgxAY2xvc2VkRjoNQGZsYXNoZXN7BjoLbm90aWNlSSItRmllbGQgcmVsYXRpb24gd2FzIHN1Y2Nlc3NmdWxseSBjcmVhdGVkLgY7AEY6CUBub3cw--c455129d4f2ca1e085c6ad184fd200aecc0b7061; _tbls_session=BAh7B0kiD3Nlc3Npb25faWQGOgZFRkkiJWY5MmM2Mzk2ZWQ0M2ZlODZkN2E5YjMxYmViOTU4NTI2BjsAVEkiEF9jc3JmX3Rva2VuBjsARkkiMVZjemQ4UGhpZXhnaEhnOUE2alRCRmdGSXFBclViMFhwQlo5Ulg2VTRhdFk9BjsARg%3D%3D--53586c2b8499a2c56c427cd8b8e3de116331bd4d; _typel_session=BAh7CEkiD3Nlc3Npb25faWQGOgZFRkkiJWQzMjkxZGExNGY5ZTQzNzIzZTk5MWZmZTM0NDY2NTFiBjsAVEkiEF9jc3JmX3Rva2VuBjsARkkiMWM5cVg1c3pKalpQSjd3Yk5lanQ5alpjZW4zRmNOVXdQS29YNExGOXJIUWM9BjsARkkiGXdhcmRlbi51c2VyLnVzZXIua2V5BjsAVFsISSIJVXNlcgY7AEZbBmkGSSIiJDJhJDEwJEVybm5aY0RTdm9sRjRETENhdjRveGUGOwBU--df06a9ed1ab2763964f111c2534c9f2a3630c12c; _ampersand_factory_session=BAh7CUkiD3Nlc3Npb25faWQGOgZFRkkiJWI2NTFmMThjZDNkMWU4NTNhNmI4OWU1MjNhYjMyZmQ0BjsAVEkiDWluc3RhbmNlBjsARmkGSSIQX2NzcmZfdG9rZW4GOwBGSSIxTEtBZER3MFlQQUV6Nmh1NW95TG4vUTFGcFdXa1ozWTVJaUx5aXh4ZndTVT0GOwBGSSIbd2FyZGVuLnVzZXIud29ya2VyLmtleQY7AFRbCEkiC1dvcmtlcgY7AEZbBmkGSSIiJDJhJDEwJGlEdndMRmhzQXB5eE1tLnhjMFM2di4GOwBU--e6bc7e5d4e945842bb7862fd547d433b3c7bfdcb; _lang_session=BAh7B0kiD3Nlc3Npb25faWQGOgZFRkkiJTY2YzI4YTY5NDkzNzE1ZGIzYzUwNWM3ZDg2ZmY1MWNiBjsAVEkiEF9jc3JmX3Rva2VuBjsARkkiMVdVczNjYnUvY2tZaHFvMVlwLy9zemdCcFliUytKdTlUTGZ3M1RIUlI3aHc9BjsARg%3D%3D--52f16b665cb4cfc5b54cea21c7b082ab6b75b1bf; session_id_welcome=127.0.0.1-dfebfa33-25aa-4072-bce4-08f7e89e2d04; session_id_hellow=127.0.0.1-bbea59f2-333e-4593-a45c-2c44a5133d77; session_id_admin=127.0.0.1-bf448199-cadc-41e3-b1a7-bed302e89a3e'
p1104
asbasbasbag49
(g65
g51
NtRp1105
(dp1106
g54
(dp1107
sg63
g790
sg56
(lp1108
g49
(g70
g51
NtRp1109
(dp1110
g54
(dp1111
g74
g75
ssg63
g1105
sg56
(lp1112
S'http_host'
p1113
asbag49
(g70
g51
NtRp1114
(dp1115
g54
(dp1116
g81
g82
ssg63
g1105
sg56
(lp1117
S':'
asbag49
(g70
g51
NtRp1118
(dp1119
g54
(dp1120
sg63
g1105
sg56
(lp1121
g49
(g50
g51
NtRp1122
(dp1123
g54
(dp1124
g62
I4
ssg63
g1118
sg56
(lp1125
S'localhost:8887'
p1126
asbasbasbag49
(g65
g51
NtRp1127
(dp1128
g54
(dp1129
sg63
g790
sg56
(lp1130
g49
(g70
g51
NtRp1131
(dp1132
g54
(dp1133
g74
g75
ssg63
g1127
sg56
(lp1134
S'http_user_agent'
p1135
asbag49
(g70
g51
NtRp1136
(dp1137
g54
(dp1138
g81
g82
ssg63
g1127
sg56
(lp1139
S':'
asbag49
(g70
g51
NtRp1140
(dp1141
g54
(dp1142
sg63
g1127
sg56
(lp1143
g49
(g50
g51
NtRp1144
(dp1145
g54
(dp1146
g62
I4
ssg63
g1140
sg56
(lp1147
S'Mozilla/5.0 (Macintosh; Intel Mac OS X 10_8_3) AppleWebKit/537.22 (KHTML, like Gecko) Chrome/25.0.1364.172 Safari/537.22'
p1148
asbasbasbag49
(g65
g51
NtRp1149
(dp1150
g54
(dp1151
sg63
g790
sg56
(lp1152
g49
(g70
g51
NtRp1153
(dp1154
g54
(dp1155
g74
g75
ssg63
g1149
sg56
(lp1156
S'is_jython'
p1157
asbag49
(g70
g51
NtRp1158
(dp1159
g54
(dp1160
g81
g82
ssg63
g1149
sg56
(lp1161
S':'
asbag49
(g70
g51
NtRp1162
(dp1163
g54
(dp1164
sg63
g1149
sg56
(lp1165
g49
(g50
g51
NtRp1166
(dp1167
g54
(dp1168
g62
I4
ssg63
g1162
sg56
(lp1169
g92
asbasbasbag49
(g65
g51
NtRp1170
(dp1171
g54
(dp1172
sg63
g790
sg56
(lp1173
g49
(g70
g51
NtRp1174
(dp1175
g54
(dp1176
g74
g75
ssg63
g1170
sg56
(lp1177
S'is_pypy'
p1178
asbag49
(g70
g51
NtRp1179
(dp1180
g54
(dp1181
g81
g82
ssg63
g1170
sg56
(lp1182
S':'
asbag49
(g70
g51
NtRp1183
(dp1184
g54
(dp1185
sg63
g1170
sg56
(lp1186
g49
(g50
g51
NtRp1187
(dp1188
g54
(dp1189
g62
I4
ssg63
g1183
sg56
(lp1190
g92
asbasbasbag49
(g65
g51
NtRp1191
(dp1192
g54
(dp1193
sg63
g790
sg56
(lp1194
g49
(g70
g51
NtRp1195
(dp1196
g54
(dp1197
g74
g75
ssg63
g1191
sg56
(lp1198
S'local_hosts'
p1199
asbag49
(g70
g51
NtRp1200
(dp1201
g54
(dp1202
g81
g82
ssg63
g1191
sg56
(lp1203
S':'
asbag49
(g70
g51
NtRp1204
(dp1205
g54
(dp1206
sg63
g1191
sg56
(lp1207
g49
(g50
g51
NtRp1208
(dp1209
g54
(dp1210
g62
I4
ssg63
g1204
sg56
(lp1211
g49
(g58
g51
NtRp1212
(dp1213
g54
(dp1214
g62
I3
ssg63
Nsg56
(lp1215
g49
(g65
g51
NtRp1216
(dp1217
g54
(dp1218
sg63
g1212
sg56
(lp1219
g49
(g70
g51
NtRp1220
(dp1221
g54
(dp1222
sg63
g1216
sg56
(lp1223
g49
(g50
g51
NtRp1224
(dp1225
g54
(dp1226
g62
I3
ssg63
g1220
sg56
(lp1227
S'130.91.151.157'
p1228
asbasbasbag49
(g65
g51
NtRp1229
(dp1230
g54
(dp1231
sg63
g1212
sg56
(lp1232
g49
(g70
g51
NtRp1233
(dp1234
g54
(dp1235
sg63
g1229
sg56
(lp1236
g49
(g50
g51
NtRp1237
(dp1238
g54
(dp1239
g62
I3
ssg63
g1233
sg56
(lp1240
S'::1'
p1241
asbasbasbag49
(g65
g51
NtRp1242
(dp1243
g54
(dp1244
sg63
g1212
sg56
(lp1245
g49
(g70
g51
NtRp1246
(dp1247
g54
(dp1248
sg63
g1242
sg56
(lp1249
g49
(g50
g51
NtRp1250
(dp1251
g54
(dp1252
g62
I3
ssg63
g1246
sg56
(lp1253
S'::ffff:127.0.0.1'
p1254
asbasbasbag49
(g65
g51
NtRp1255
(dp1256
g54
(dp1257
sg63
g1212
sg56
(lp1258
g49
(g70
g51
NtRp1259
(dp1260
g54
(dp1261
sg63
g1255
sg56
(lp1262
g49
(g50
g51
NtRp1263
(dp1264
g54
(dp1265
g62
I3
ssg63
g1259
sg56
(lp1266
S'127.0.0.1'
p1267
asbasbasbag49
(g65
g51
NtRp1268
(dp1269
g54
(dp1270
sg63
g1212
sg56
(lp1271
g49
(g70
g51
NtRp1272
(dp1273
g54
(dp1274
sg63
g1268
sg56
(lp1275
g49
(g50
g51
NtRp1276
(dp1277
g54
(dp1278
g62
I3
ssg63
g1272
sg56
(lp1279
S'hntvlan531.0924.wlan.wireless-pennnet.upenn.edu'
p1280
asbasbasbasbasbasbasbag49
(g65
g51
NtRp1281
(dp1282
g54
(dp1283
sg63
g790
sg56
(lp1284
g49
(g70
g51
NtRp1285
(dp1286
g54
(dp1287
g74
g75
ssg63
g1281
sg56
(lp1288
S'path_info'
p1289
asbag49
(g70
g51
NtRp1290
(dp1291
g54
(dp1292
g81
g82
ssg63
g1281
sg56
(lp1293
S':'
asbag49
(g70
g51
NtRp1294
(dp1295
g54
(dp1296
sg63
g1281
sg56
(lp1297
g49
(g50
g51
NtRp1298
(dp1299
g54
(dp1300
g62
I4
ssg63
g1294
sg56
(lp1301
S'/hellow/game/show/1'
p1302
asbasbasbag49
(g65
g51
NtRp1303
(dp1304
g54
(dp1305
sg63
g790
sg56
(lp1306
g49
(g70
g51
NtRp1307
(dp1308
g54
(dp1309
g74
g75
ssg63
g1303
sg56
(lp1310
S'query_string'
p1311
asbag49
(g70
g51
NtRp1312
(dp1313
g54
(dp1314
g81
g82
ssg63
g1303
sg56
(lp1315
S':'
asbag49
(g70
g51
NtRp1316
(dp1317
g54
(dp1318
sg63
g1303
sg56
(lp1319
g49
(g50
g51
NtRp1320
(dp1321
g54
(dp1322
g62
I4
ssg63
g1316
sg56
(lp1323
S''
asbasbasbag49
(g65
g51
NtRp1324
(dp1325
g54
(dp1326
sg63
g790
sg56
(lp1327
g49
(g70
g51
NtRp1328
(dp1329
g54
(dp1330
g74
g75
ssg63
g1324
sg56
(lp1331
S'remote_addr'
p1332
asbag49
(g70
g51
NtRp1333
(dp1334
g54
(dp1335
g81
g82
ssg63
g1324
sg56
(lp1336
S':'
asbag49
(g70
g51
NtRp1337
(dp1338
g54
(dp1339
sg63
g1324
sg56
(lp1340
g49
(g50
g51
NtRp1341
(dp1342
g54
(dp1343
g62
I4
ssg63
g1337
sg56
(lp1344
g216
asbasbasbag49
(g65
g51
NtRp1345
(dp1346
g54
(dp1347
sg63
g790
sg56
(lp1348
g49
(g70
g51
NtRp1349
(dp1350
g54
(dp1351
g74
g75
ssg63
g1345
sg56
(lp1352
S'remote_port'
p1353
asbag49
(g70
g51
NtRp1354
(dp1355
g54
(dp1356
g81
g82
ssg63
g1345
sg56
(lp1357
S':'
asbag49
(g70
g51
NtRp1358
(dp1359
g54
(dp1360
sg63
g1345
sg56
(lp1361
g49
(g50
g51
NtRp1362
(dp1363
g54
(dp1364
g62
I4
ssg63
g1358
sg56
(lp1365
S'53999'
p1366
asbasbasbag49
(g65
g51
NtRp1367
(dp1368
g54
(dp1369
sg63
g790
sg56
(lp1370
g49
(g70
g51
NtRp1371
(dp1372
g54
(dp1373
g74
g75
ssg63
g1367
sg56
(lp1374
S'request_method'
p1375
asbag49
(g70
g51
NtRp1376
(dp1377
g54
(dp1378
g81
g82
ssg63
g1367
sg56
(lp1379
S':'
asbag49
(g70
g51
NtRp1380
(dp1381
g54
(dp1382
sg63
g1367
sg56
(lp1383
g49
(g50
g51
NtRp1384
(dp1385
g54
(dp1386
g62
I4
ssg63
g1380
sg56
(lp1387
S'GET'
p1388
asbasbasbag49
(g65
g51
NtRp1389
(dp1390
g54
(dp1391
sg63
g790
sg56
(lp1392
g49
(g70
g51
NtRp1393
(dp1394
g54
(dp1395
g74
g75
ssg63
g1389
sg56
(lp1396
S'request_uri'
p1397
asbag49
(g70
g51
NtRp1398
(dp1399
g54
(dp1400
g81
g82
ssg63
g1389
sg56
(lp1401
S':'
asbag49
(g70
g51
NtRp1402
(dp1403
g54
(dp1404
sg63
g1389
sg56
(lp1405
g49
(g50
g51
NtRp1406
(dp1407
g54
(dp1408
g62
I4
ssg63
g1402
sg56
(lp1409
g1302
asbasbasbag49
(g65
g51
NtRp1410
(dp1411
g54
(dp1412
sg63
g790
sg56
(lp1413
g49
(g70
g51
NtRp1414
(dp1415
g54
(dp1416
g74
g75
ssg63
g1410
sg56
(lp1417
S'script_name'
p1418
asbag49
(g70
g51
NtRp1419
(dp1420
g54
(dp1421
g81
g82
ssg63
g1410
sg56
(lp1422
S':'
asbag49
(g70
g51
NtRp1423
(dp1424
g54
(dp1425
sg63
g1410
sg56
(lp1426
g49
(g50
g51
NtRp1427
(dp1428
g54
(dp1429
g62
I4
ssg63
g1423
sg56
(lp1430
S''
asbasbasbag49
(g65
g51
NtRp1431
(dp1432
g54
(dp1433
sg63
g790
sg56
(lp1434
g49
(g70
g51
NtRp1435
(dp1436
g54
(dp1437
g74
g75
ssg63
g1431
sg56
(lp1438
S'server_name'
p1439
asbag49
(g70
g51
NtRp1440
(dp1441
g54
(dp1442
g81
g82
ssg63
g1431
sg56
(lp1443
S':'
asbag49
(g70
g51
NtRp1444
(dp1445
g54
(dp1446
sg63
g1431
sg56
(lp1447
g49
(g50
g51
NtRp1448
(dp1449
g54
(dp1450
g62
I4
ssg63
g1444
sg56
(lp1451
S'hntvlan531.0924.wlan.wireless-pennnet.upenn.edu'
p1452
asbasbasbag49
(g65
g51
NtRp1453
(dp1454
g54
(dp1455
sg63
g790
sg56
(lp1456
g49
(g70
g51
NtRp1457
(dp1458
g54
(dp1459
g74
g75
ssg63
g1453
sg56
(lp1460
S'server_port'
p1461
asbag49
(g70
g51
NtRp1462
(dp1463
g54
(dp1464
g81
g82
ssg63
g1453
sg56
(lp1465
S':'
asbag49
(g70
g51
NtRp1466
(dp1467
g54
(dp1468
sg63
g1453
sg56
(lp1469
g49
(g50
g51
NtRp1470
(dp1471
g54
(dp1472
g62
I4
ssg63
g1466
sg56
(lp1473
S'8887'
p1474
asbasbasbag49
(g65
g51
NtRp1475
(dp1476
g54
(dp1477
sg63
g790
sg56
(lp1478
g49
(g70
g51
NtRp1479
(dp1480
g54
(dp1481
g74
g75
ssg63
g1475
sg56
(lp1482
S'server_protocol'
p1483
asbag49
(g70
g51
NtRp1484
(dp1485
g54
(dp1486
g81
g82
ssg63
g1475
sg56
(lp1487
S':'
asbag49
(g70
g51
NtRp1488
(dp1489
g54
(dp1490
sg63
g1475
sg56
(lp1491
g49
(g50
g51
NtRp1492
(dp1493
g54
(dp1494
g62
I4
ssg63
g1488
sg56
(lp1495
S'HTTP/1.1'
p1496
asbasbasbag49
(g65
g51
NtRp1497
(dp1498
g54
(dp1499
sg63
g790
sg56
(lp1500
g49
(g70
g51
NtRp1501
(dp1502
g54
(dp1503
g74
g75
ssg63
g1497
sg56
(lp1504
S'server_software'
p1505
asbag49
(g70
g51
NtRp1506
(dp1507
g54
(dp1508
g81
g82
ssg63
g1497
sg56
(lp1509
S':'
asbag49
(g70
g51
NtRp1510
(dp1511
g54
(dp1512
sg63
g1497
sg56
(lp1513
g49
(g50
g51
NtRp1514
(dp1515
g54
(dp1516
g62
I4
ssg63
g1510
sg56
(lp1517
S'Rocket 1.2.6'
p1518
asbasbasbag49
(g65
g51
NtRp1519
(dp1520
g54
(dp1521
sg63
g790
sg56
(lp1522
g49
(g70
g51
NtRp1523
(dp1524
g54
(dp1525
g74
g75
ssg63
g1519
sg56
(lp1526
S'web2py_path'
p1527
asbag49
(g70
g51
NtRp1528
(dp1529
g54
(dp1530
g81
g82
ssg63
g1519
sg56
(lp1531
S':'
asbag49
(g70
g51
NtRp1532
(dp1533
g54
(dp1534
sg63
g1519
sg56
(lp1535
g49
(g50
g51
NtRp1536
(dp1537
g54
(dp1538
g62
I4
ssg63
g1532
sg56
(lp1539
g837
asbasbasbag49
(g65
g51
NtRp1540
(dp1541
g54
(dp1542
sg63
g790
sg56
(lp1543
g49
(g70
g51
NtRp1544
(dp1545
g54
(dp1546
g74
g75
ssg63
g1540
sg56
(lp1547
S'web2py_version'
p1548
asbag49
(g70
g51
NtRp1549
(dp1550
g54
(dp1551
g81
g82
ssg63
g1540
sg56
(lp1552
S':'
asbag49
(g70
g51
NtRp1553
(dp1554
g54
(dp1555
sg63
g1540
sg56
(lp1556
g49
(g50
g51
NtRp1557
(dp1558
g54
(dp1559
g62
I4
ssg63
g1553
sg56
(lp1560
g49
(g58
g51
NtRp1561
(dp1562
g54
(dp1563
g62
I3
ssg63
Nsg56
(lp1564
g49
(g65
g51
NtRp1565
(dp1566
g54
(dp1567
sg63
g1561
sg56
(lp1568
g49
(g70
g51
NtRp1569
(dp1570
g54
(dp1571
sg63
g1565
sg56
(lp1572
g49
(g50
g51
NtRp1573
(dp1574
g54
(dp1575
g62
I3
ssg63
g1569
sg56
(lp1576
S'2'
asbasbasbag49
(g65
g51
NtRp1577
(dp1578
g54
(dp1579
sg63
g1561
sg56
(lp1580
g49
(g70
g51
NtRp1581
(dp1582
g54
(dp1583
sg63
g1577
sg56
(lp1584
g49
(g50
g51
NtRp1585
(dp1586
g54
(dp1587
g62
I3
ssg63
g1581
sg56
(lp1588
S'4'
asbasbasbag49
(g65
g51
NtRp1589
(dp1590
g54
(dp1591
sg63
g1561
sg56
(lp1592
g49
(g70
g51
NtRp1593
(dp1594
g54
(dp1595
sg63
g1589
sg56
(lp1596
g49
(g50
g51
NtRp1597
(dp1598
g54
(dp1599
g62
I3
ssg63
g1593
sg56
(lp1600
S'5'
asbasbasbag49
(g65
g51
NtRp1601
(dp1602
g54
(dp1603
sg63
g1561
sg56
(lp1604
g49
(g70
g51
NtRp1605
(dp1606
g54
(dp1607
sg63
g1601
sg56
(lp1608
g49
(g50
g51
NtRp1609
(dp1610
g54
(dp1611
g62
I3
ssg63
g1605
sg56
(lp1612
S'stable'
p1613
asbasbasbag49
(g65
g51
NtRp1614
(dp1615
g54
(dp1616
sg63
g1561
sg56
(lp1617
g49
(g70
g51
NtRp1618
(dp1619
g54
(dp1620
sg63
g1614
sg56
(lp1621
g49
(g50
g51
NtRp1622
(dp1623
g54
(dp1624
g62
I3
ssg63
g1618
sg56
(lp1625
S'datetime.datetime(2013, 3, 18, 22, 46, 22)'
p1626
asbasbasbasbasbasbasbag49
(g65
g51
NtRp1627
(dp1628
g54
(dp1629
sg63
g790
sg56
(lp1630
g49
(g70
g51
NtRp1631
(dp1632
g54
(dp1633
g74
g75
ssg63
g1627
sg56
(lp1634
S'wsgi_errors'
p1635
asbag49
(g70
g51
NtRp1636
(dp1637
g54
(dp1638
g81
g82
ssg63
g1627
sg56
(lp1639
S':'
asbag49
(g70
g51
NtRp1640
(dp1641
g54
(dp1642
sg63
g1627
sg56
(lp1643
g49
(g50
g51
NtRp1644
(dp1645
g54
(dp1646
g62
I4
ssg63
g1640
sg56
(lp1647
S"<open file '<stderr>', mode 'w' at 0x540b0>"
p1648
asbasbasbag49
(g65
g51
NtRp1649
(dp1650
g54
(dp1651
sg63
g790
sg56
(lp1652
g49
(g70
g51
NtRp1653
(dp1654
g54
(dp1655
g74
g75
ssg63
g1649
sg56
(lp1656
S'wsgi_file_wrapper'
p1657
asbag49
(g70
g51
NtRp1658
(dp1659
g54
(dp1660
g81
g82
ssg63
g1649
sg56
(lp1661
S':'
asbag49
(g70
g51
NtRp1662
(dp1663
g54
(dp1664
sg63
g1649
sg56
(lp1665
g49
(g50
g51
NtRp1666
(dp1667
g54
(dp1668
g62
I4
ssg63
g1662
sg56
(lp1669
S'<class wsgiref.util.FileWrapper at 0x329d060>'
p1670
asbasbasbag49
(g65
g51
NtRp1671
(dp1672
g54
(dp1673
sg63
g790
sg56
(lp1674
g49
(g70
g51
NtRp1675
(dp1676
g54
(dp1677
g74
g75
ssg63
g1671
sg56
(lp1678
S'wsgi_input'
p1679
asbag49
(g70
g51
NtRp1680
(dp1681
g54
(dp1682
g81
g82
ssg63
g1671
sg56
(lp1683
S':'
asbag49
(g70
g51
NtRp1684
(dp1685
g54
(dp1686
sg63
g1671
sg56
(lp1687
g49
(g50
g51
NtRp1688
(dp1689
g54
(dp1690
g62
I4
ssg63
g1684
sg56
(lp1691
S'<socket._fileobject object at 0xa80cd70>'
p1692
asbasbasbag49
(g65
g51
NtRp1693
(dp1694
g54
(dp1695
sg63
g790
sg56
(lp1696
g49
(g70
g51
NtRp1697
(dp1698
g54
(dp1699
g74
g75
ssg63
g1693
sg56
(lp1700
S'wsgi_multiprocess'
p1701
asbag49
(g70
g51
NtRp1702
(dp1703
g54
(dp1704
g81
g82
ssg63
g1693
sg56
(lp1705
S':'
asbag49
(g70
g51
NtRp1706
(dp1707
g54
(dp1708
sg63
g1693
sg56
(lp1709
g49
(g50
g51
NtRp1710
(dp1711
g54
(dp1712
g62
I4
ssg63
g1706
sg56
(lp1713
g92
asbasbasbag49
(g65
g51
NtRp1714
(dp1715
g54
(dp1716
sg63
g790
sg56
(lp1717
g49
(g70
g51
NtRp1718
(dp1719
g54
(dp1720
g74
g75
ssg63
g1714
sg56
(lp1721
S'wsgi_multithread'
p1722
asbag49
(g70
g51
NtRp1723
(dp1724
g54
(dp1725
g81
g82
ssg63
g1714
sg56
(lp1726
S':'
asbag49
(g70
g51
NtRp1727
(dp1728
g54
(dp1729
sg63
g1714
sg56
(lp1730
g49
(g50
g51
NtRp1731
(dp1732
g54
(dp1733
g62
I4
ssg63
g1727
sg56
(lp1734
g928
asbasbasbag49
(g65
g51
NtRp1735
(dp1736
g54
(dp1737
sg63
g790
sg56
(lp1738
g49
(g70
g51
NtRp1739
(dp1740
g54
(dp1741
g74
g75
ssg63
g1735
sg56
(lp1742
S'wsgi_run_once'
p1743
asbag49
(g70
g51
NtRp1744
(dp1745
g54
(dp1746
g81
g82
ssg63
g1735
sg56
(lp1747
S':'
asbag49
(g70
g51
NtRp1748
(dp1749
g54
(dp1750
sg63
g1735
sg56
(lp1751
g49
(g50
g51
NtRp1752
(dp1753
g54
(dp1754
g62
I4
ssg63
g1748
sg56
(lp1755
g92
asbasbasbag49
(g65
g51
NtRp1756
(dp1757
g54
(dp1758
sg63
g790
sg56
(lp1759
g49
(g70
g51
NtRp1760
(dp1761
g54
(dp1762
g74
g75
ssg63
g1756
sg56
(lp1763
S'wsgi_url_scheme'
p1764
asbag49
(g70
g51
NtRp1765
(dp1766
g54
(dp1767
g81
g82
ssg63
g1756
sg56
(lp1768
S':'
asbag49
(g70
g51
NtRp1769
(dp1770
g54
(dp1771
sg63
g1756
sg56
(lp1772
g49
(g50
g51
NtRp1773
(dp1774
g54
(dp1775
g62
I4
ssg63
g1769
sg56
(lp1776
S'http'
p1777
asbasbasbag49
(g65
g51
NtRp1778
(dp1779
g54
(dp1780
sg63
g790
sg56
(lp1781
g49
(g70
g51
NtRp1782
(dp1783
g54
(dp1784
g74
g75
ssg63
g1778
sg56
(lp1785
S'wsgi_version'
p1786
asbag49
(g70
g51
NtRp1787
(dp1788
g54
(dp1789
g81
g82
ssg63
g1778
sg56
(lp1790
S':'
asbag49
(g70
g51
NtRp1791
(dp1792
g54
(dp1793
sg63
g1778
sg56
(lp1794
g49
(g50
g51
NtRp1795
(dp1796
g54
(dp1797
g62
I4
ssg63
g1791
sg56
(lp1798
g49
(g58
g51
NtRp1799
(dp1800
g54
(dp1801
g62
I3
ssg63
Nsg56
(lp1802
g49
(g65
g51
NtRp1803
(dp1804
g54
(dp1805
sg63
g1799
sg56
(lp1806
g49
(g70
g51
NtRp1807
(dp1808
g54
(dp1809
sg63
g1803
sg56
(lp1810
g49
(g50
g51
NtRp1811
(dp1812
g54
(dp1813
g62
I3
ssg63
g1807
sg56
(lp1814
S'1'
asbasbasbag49
(g65
g51
NtRp1815
(dp1816
g54
(dp1817
sg63
g1799
sg56
(lp1818
g49
(g70
g51
NtRp1819
(dp1820
g54
(dp1821
sg63
g1815
sg56
(lp1822
g49
(g50
g51
NtRp1823
(dp1824
g54
(dp1825
g62
I3
ssg63
g1819
sg56
(lp1826
S'0'
asbasbasbasbasbasbasbasbasbasbasbag49
(g65
g51
NtRp1827
(dp1828
g54
(dp1829
sg63
g59
sg56
(lp1830
g49
(g70
g51
NtRp1831
(dp1832
g54
(dp1833
g74
g75
ssg63
g1827
sg56
(lp1834
S'extension'
p1835
asbag49
(g70
g51
NtRp1836
(dp1837
g54
(dp1838
g81
g82
ssg63
g1827
sg56
(lp1839
S':'
asbag49
(g70
g51
NtRp1840
(dp1841
g54
(dp1842
sg63
g1827
sg56
(lp1843
g49
(g50
g51
NtRp1844
(dp1845
g54
(dp1846
g62
I5
ssg63
g1840
sg56
(lp1847
S'html'
p1848
asbasbasbag49
(g65
g51
NtRp1849
(dp1850
g54
(dp1851
sg63
g59
sg56
(lp1852
g49
(g70
g51
NtRp1853
(dp1854
g54
(dp1855
g74
g75
ssg63
g1849
sg56
(lp1856
S'folder'
p1857
asbag49
(g70
g51
NtRp1858
(dp1859
g54
(dp1860
g81
g82
ssg63
g1849
sg56
(lp1861
S':'
asbag49
(g70
g51
NtRp1862
(dp1863
g54
(dp1864
sg63
g1849
sg56
(lp1865
g49
(g50
g51
NtRp1866
(dp1867
g54
(dp1868
g62
I5
ssg63
g1862
sg56
(lp1869
S'/Users/zamechek/Downloads/web2py/web2py.app/Contents/Resources/applications/hellow/'
p1870
asbasbasbag49
(g65
g51
NtRp1871
(dp1872
g54
(dp1873
sg63
g59
sg56
(lp1874
g49
(g70
g51
NtRp1875
(dp1876
g54
(dp1877
g74
g75
ssg63
g1871
sg56
(lp1878
S'function'
p1879
asbag49
(g70
g51
NtRp1880
(dp1881
g54
(dp1882
g81
g82
ssg63
g1871
sg56
(lp1883
S':'
asbag49
(g70
g51
NtRp1884
(dp1885
g54
(dp1886
sg63
g1871
sg56
(lp1887
g49
(g50
g51
NtRp1888
(dp1889
g54
(dp1890
g62
I5
ssg63
g1884
sg56
(lp1891
S'show'
p1892
asbasbasbag49
(g65
g51
NtRp1893
(dp1894
g54
(dp1895
sg63
g59
sg56
(lp1896
g49
(g70
g51
NtRp1897
(dp1898
g54
(dp1899
g74
g75
ssg63
g1893
sg56
(lp1900
S'get_vars'
p1901
asbag49
(g70
g51
NtRp1902
(dp1903
g54
(dp1904
g81
g82
ssg63
g1893
sg56
(lp1905
S':'
asbag49
(g70
g51
NtRp1906
(dp1907
g54
(dp1908
sg63
g1893
sg56
(lp1909
g49
(g50
g51
NtRp1910
(dp1911
g54
(dp1912
g62
I5
ssg63
g1906
sg56
(lp1913
g49
(g58
g51
NtRp1914
(dp1915
g54
(dp1916
g62
I4
ssg63
Nsg56
(lp1917
sbasbasbasbag49
(g65
g51
NtRp1918
(dp1919
g54
(dp1920
sg63
g59
sg56
(lp1921
g49
(g70
g51
NtRp1922
(dp1923
g54
(dp1924
g74
g75
ssg63
g1918
sg56
(lp1925
S'global_settings'
p1926
asbag49
(g70
g51
NtRp1927
(dp1928
g54
(dp1929
g81
g82
ssg63
g1918
sg56
(lp1930
S':'
asbag49
(g70
g51
NtRp1931
(dp1932
g54
(dp1933
sg63
g1918
sg56
(lp1934
g49
(g50
g51
NtRp1935
(dp1936
g54
(dp1937
g62
I5
ssg63
g1931
sg56
(lp1938
g49
(g58
g51
NtRp1939
(dp1940
g54
(dp1941
g62
I4
ssg63
Nsg56
(lp1942
g49
(g65
g51
NtRp1943
(dp1944
g54
(dp1945
sg63
g1939
sg56
(lp1946
g49
(g70
g51
NtRp1947
(dp1948
g54
(dp1949
g74
g75
ssg63
g1943
sg56
(lp1950
g802
asbag49
(g70
g51
NtRp1951
(dp1952
g54
(dp1953
g81
g82
ssg63
g1943
sg56
(lp1954
S':'
asbag49
(g70
g51
NtRp1955
(dp1956
g54
(dp1957
sg63
g1943
sg56
(lp1958
g49
(g50
g51
NtRp1959
(dp1960
g54
(dp1961
g62
I4
ssg63
g1955
sg56
(lp1962
S"set(['/Users/zamechek/Downloads/web2py/web2py.app/Contents/Resources/applications/examples/', '/Users/zamechek/Downloads/web2py/web2py.app/Contents/Resources/applications/hellow/', '/Users/zamechek/Downloads/web2py/web2py.app/Contents/Resources/applications/admin/', '/Users/zamechek/Downloads/web2py/web2py.app/Contents/Resources/applications/slots/', '/Users/zamechek/Downloads/web2py/web2py.app/Contents/Resources/applications/welcome/'])"
p1963
asbasbasbag49
(g65
g51
NtRp1964
(dp1965
g54
(dp1966
sg63
g1939
sg56
(lp1967
g49
(g70
g51
NtRp1968
(dp1969
g54
(dp1970
g74
g75
ssg63
g1964
sg56
(lp1971
g824
asbag49
(g70
g51
NtRp1972
(dp1973
g54
(dp1974
g81
g82
ssg63
g1964
sg56
(lp1975
S':'
asbag49
(g70
g51
NtRp1976
(dp1977
g54
(dp1978
sg63
g1964
sg56
(lp1979
g49
(g50
g51
NtRp1980
(dp1981
g54
(dp1982
g62
I4
ssg63
g1976
sg56
(lp1983
g837
asbasbasbag49
(g65
g51
NtRp1984
(dp1985
g54
(dp1986
sg63
g1939
sg56
(lp1987
g49
(g70
g51
NtRp1988
(dp1989
g54
(dp1990
g74
g75
ssg63
g1984
sg56
(lp1991
g846
asbag49
(g70
g51
NtRp1992
(dp1993
g54
(dp1994
g81
g82
ssg63
g1984
sg56
(lp1995
S':'
asbag49
(g70
g51
NtRp1996
(dp1997
g54
(dp1998
sg63
g1984
sg56
(lp1999
g49
(g50
g51
NtRp2000
(dp2001
g54
(dp2002
g62
I4
ssg63
g1996
sg56
(lp2003
g49
(g58
g51
NtRp2004
(dp2005
g54
(dp2006
g62
I3
ssg63
Nsg56
(lp2007
sbasbasbasbag49
(g65
g51
NtRp2008
(dp2009
g54
(dp2010
sg63
g1939
sg56
(lp2011
g49
(g70
g51
NtRp2012
(dp2013
g54
(dp2014
g74
g75
ssg63
g2008
sg56
(lp2015
g871
asbag49
(g70
g51
NtRp2016
(dp2017
g54
(dp2018
g81
g82
ssg63
g2008
sg56
(lp2019
S':'
asbag49
(g70
g51
NtRp2020
(dp2021
g54
(dp2022
sg63
g2008
sg56
(lp2023
g49
(g50
g51
NtRp2024
(dp2025
g54
(dp2026
g62
I4
ssg63
g2020
sg56
(lp2027
S"<Values at 0x32c8f58: {'verbose': False, 'ip': '127.0.0.1', 'with_scheduler': False, 'ips': ['130.91.151.157'], 'shutdown_timeout': 5, 'taskbar': False, 'port': 8000, 'maxthreads': None, 'softcron': False, 'server_name': 'hntvlan531.0924.wlan.wireless-pennnet.upenn.edu', 'bpython': False, 'nogui': False, 'pid_filename': 'httpserver.pid', 'extcron': False, 'runcron': False, 'run_system_tests': False, 'test': None, 'folder': '/Users/zamechek/Downloads/web2py/web2py.app/Contents/Resources', 'config': '', 'import_models': False, 'winservice': '', 'shell': None, 'run': '', 'log_filename': 'httpserver.log', 'debuglevel': 30, 'args': [''], 'socket_timeout': 5, 'ssl_ca_certificate': None, 'scheduler': None, 'profiler_filename': None, 'ssl_private_key': '', 'scheduler_groups': None, 'password': '<ask>', 'request_queue_size': 5, 'ssl_certificate': '', 'cronjob': False, 'numthreads': None, 'quiet': False, 'interfaces': None, 'minthreads': None, 'timeout': 10, 'plain': False, 'nobanner': False}>"
p2028
asbasbasbag49
(g65
g51
NtRp2029
(dp2030
g54
(dp2031
sg63
g1939
sg56
(lp2032
g49
(g70
g51
NtRp2033
(dp2034
g54
(dp2035
g74
g75
ssg63
g2029
sg56
(lp2036
g893
asbag49
(g70
g51
NtRp2037
(dp2038
g54
(dp2039
g81
g82
ssg63
g2029
sg56
(lp2040
S':'
asbag49
(g70
g51
NtRp2041
(dp2042
g54
(dp2043
sg63
g2029
sg56
(lp2044
g49
(g50
g51
NtRp2045
(dp2046
g54
(dp2047
g62
I4
ssg63
g2041
sg56
(lp2048
S'set([])'
p2049
asbasbasbag49
(g65
g51
NtRp2050
(dp2051
g54
(dp2052
sg63
g1939
sg56
(lp2053
g49
(g70
g51
NtRp2054
(dp2055
g54
(dp2056
g74
g75
ssg63
g2050
sg56
(lp2057
g915
asbag49
(g70
g51
NtRp2058
(dp2059
g54
(dp2060
g81
g82
ssg63
g2050
sg56
(lp2061
S':'
asbag49
(g70
g51
NtRp2062
(dp2063
g54
(dp2064
sg63
g2050
sg56
(lp2065
g49
(g50
g51
NtRp2066
(dp2067
g54
(dp2068
g62
I4
ssg63
g2062
sg56
(lp2069
g928
asbasbasbag49
(g65
g51
NtRp2070
(dp2071
g54
(dp2072
sg63
g1939
sg56
(lp2073
g49
(g70
g51
NtRp2074
(dp2075
g54
(dp2076
g74
g75
ssg63
g2070
sg56
(lp2077
g937
asbag49
(g70
g51
NtRp2078
(dp2079
g54
(dp2080
g81
g82
ssg63
g2070
sg56
(lp2081
S':'
asbag49
(g70
g51
NtRp2082
(dp2083
g54
(dp2084
sg63
g2070
sg56
(lp2085
g49
(g50
g51
NtRp2086
(dp2087
g54
(dp2088
g62
I4
ssg63
g2082
sg56
(lp2089
g950
asbasbasbag49
(g65
g51
NtRp2090
(dp2091
g54
(dp2092
sg63
g1939
sg56
(lp2093
g49
(g70
g51
NtRp2094
(dp2095
g54
(dp2096
g74
g75
ssg63
g2090
sg56
(lp2097
g1157
asbag49
(g70
g51
NtRp2098
(dp2099
g54
(dp2100
g81
g82
ssg63
g2090
sg56
(lp2101
S':'
asbag49
(g70
g51
NtRp2102
(dp2103
g54
(dp2104
sg63
g2090
sg56
(lp2105
g49
(g50
g51
NtRp2106
(dp2107
g54
(dp2108
g62
I4
ssg63
g2102
sg56
(lp2109
g92
asbasbasbag49
(g65
g51
NtRp2110
(dp2111
g54
(dp2112
sg63
g1939
sg56
(lp2113
g49
(g70
g51
NtRp2114
(dp2115
g54
(dp2116
g74
g75
ssg63
g2110
sg56
(lp2117
g1178
asbag49
(g70
g51
NtRp2118
(dp2119
g54
(dp2120
g81
g82
ssg63
g2110
sg56
(lp2121
S':'
asbag49
(g70
g51
NtRp2122
(dp2123
g54
(dp2124
sg63
g2110
sg56
(lp2125
g49
(g50
g51
NtRp2126
(dp2127
g54
(dp2128
g62
I4
ssg63
g2122
sg56
(lp2129
g92
asbasbasbag49
(g65
g51
NtRp2130
(dp2131
g54
(dp2132
sg63
g1939
sg56
(lp2133
g49
(g70
g51
NtRp2134
(dp2135
g54
(dp2136
g74
g75
ssg63
g2130
sg56
(lp2137
g1199
asbag49
(g70
g51
NtRp2138
(dp2139
g54
(dp2140
g81
g82
ssg63
g2130
sg56
(lp2141
S':'
asbag49
(g70
g51
NtRp2142
(dp2143
g54
(dp2144
sg63
g2130
sg56
(lp2145
g49
(g50
g51
NtRp2146
(dp2147
g54
(dp2148
g62
I4
ssg63
g2142
sg56
(lp2149
g49
(g58
g51
NtRp2150
(dp2151
g54
(dp2152
g62
I3
ssg63
Nsg56
(lp2153
g49
(g65
g51
NtRp2154
(dp2155
g54
(dp2156
sg63
g2150
sg56
(lp2157
g49
(g70
g51
NtRp2158
(dp2159
g54
(dp2160
sg63
g2154
sg56
(lp2161
g49
(g50
g51
NtRp2162
(dp2163
g54
(dp2164
g62
I3
ssg63
g2158
sg56
(lp2165
g1228
asbasbasbag49
(g65
g51
NtRp2166
(dp2167
g54
(dp2168
sg63
g2150
sg56
(lp2169
g49
(g70
g51
NtRp2170
(dp2171
g54
(dp2172
sg63
g2166
sg56
(lp2173
g49
(g50
g51
NtRp2174
(dp2175
g54
(dp2176
g62
I3
ssg63
g2170
sg56
(lp2177
g1241
asbasbasbag49
(g65
g51
NtRp2178
(dp2179
g54
(dp2180
sg63
g2150
sg56
(lp2181
g49
(g70
g51
NtRp2182
(dp2183
g54
(dp2184
sg63
g2178
sg56
(lp2185
g49
(g50
g51
NtRp2186
(dp2187
g54
(dp2188
g62
I3
ssg63
g2182
sg56
(lp2189
g1254
asbasbasbag49
(g65
g51
NtRp2190
(dp2191
g54
(dp2192
sg63
g2150
sg56
(lp2193
g49
(g70
g51
NtRp2194
(dp2195
g54
(dp2196
sg63
g2190
sg56
(lp2197
g49
(g50
g51
NtRp2198
(dp2199
g54
(dp2200
g62
I3
ssg63
g2194
sg56
(lp2201
g1267
asbasbasbag49
(g65
g51
NtRp2202
(dp2203
g54
(dp2204
sg63
g2150
sg56
(lp2205
g49
(g70
g51
NtRp2206
(dp2207
g54
(dp2208
sg63
g2202
sg56
(lp2209
g49
(g50
g51
NtRp2210
(dp2211
g54
(dp2212
g62
I3
ssg63
g2206
sg56
(lp2213
g1280
asbasbasbasbasbasbasbag49
(g65
g51
NtRp2214
(dp2215
g54
(dp2216
sg63
g1939
sg56
(lp2217
g49
(g70
g51
NtRp2218
(dp2219
g54
(dp2220
g74
g75
ssg63
g2214
sg56
(lp2221
g1548
asbag49
(g70
g51
NtRp2222
(dp2223
g54
(dp2224
g81
g82
ssg63
g2214
sg56
(lp2225
S':'
asbag49
(g70
g51
NtRp2226
(dp2227
g54
(dp2228
sg63
g2214
sg56
(lp2229
g49
(g50
g51
NtRp2230
(dp2231
g54
(dp2232
g62
I4
ssg63
g2226
sg56
(lp2233
g49
(g58
g51
NtRp2234
(dp2235
g54
(dp2236
g62
I3
ssg63
Nsg56
(lp2237
g49
(g65
g51
NtRp2238
(dp2239
g54
(dp2240
sg63
g2234
sg56
(lp2241
g49
(g70
g51
NtRp2242
(dp2243
g54
(dp2244
sg63
g2238
sg56
(lp2245
g49
(g50
g51
NtRp2246
(dp2247
g54
(dp2248
g62
I3
ssg63
g2242
sg56
(lp2249
S'2'
asbasbasbag49
(g65
g51
NtRp2250
(dp2251
g54
(dp2252
sg63
g2234
sg56
(lp2253
g49
(g70
g51
NtRp2254
(dp2255
g54
(dp2256
sg63
g2250
sg56
(lp2257
g49
(g50
g51
NtRp2258
(dp2259
g54
(dp2260
g62
I3
ssg63
g2254
sg56
(lp2261
S'4'
asbasbasbag49
(g65
g51
NtRp2262
(dp2263
g54
(dp2264
sg63
g2234
sg56
(lp2265
g49
(g70
g51
NtRp2266
(dp2267
g54
(dp2268
sg63
g2262
sg56
(lp2269
g49
(g50
g51
NtRp2270
(dp2271
g54
(dp2272
g62
I3
ssg63
g2266
sg56
(lp2273
S'5'
asbasbasbag49
(g65
g51
NtRp2274
(dp2275
g54
(dp2276
sg63
g2234
sg56
(lp2277
g49
(g70
g51
NtRp2278
(dp2279
g54
(dp2280
sg63
g2274
sg56
(lp2281
g49
(g50
g51
NtRp2282
(dp2283
g54
(dp2284
g62
I3
ssg63
g2278
sg56
(lp2285
g1613
asbasbasbag49
(g65
g51
NtRp2286
(dp2287
g54
(dp2288
sg63
g2234
sg56
(lp2289
g49
(g70
g51
NtRp2290
(dp2291
g54
(dp2292
sg63
g2286
sg56
(lp2293
g49
(g50
g51
NtRp2294
(dp2295
g54
(dp2296
g62
I3
ssg63
g2290
sg56
(lp2297
S'datetime.datetime(2013, 3, 18, 22, 46, 22)'
p2298
asbasbasbasbasbasbasbasbasbasbasbag49
(g65
g51
NtRp2299
(dp2300
g54
(dp2301
sg63
g59
sg56
(lp2302
g49
(g70
g51
NtRp2303
(dp2304
g54
(dp2305
g74
g75
ssg63
g2299
sg56
(lp2306
S'is_https'
p2307
asbag49
(g70
g51
NtRp2308
(dp2309
g54
(dp2310
g81
g82
ssg63
g2299
sg56
(lp2311
S':'
asbag49
(g70
g51
NtRp2312
(dp2313
g54
(dp2314
sg63
g2299
sg56
(lp2315
g49
(g50
g51
NtRp2316
(dp2317
g54
(dp2318
g62
I5
ssg63
g2312
sg56
(lp2319
g92
asbasbasbag49
(g65
g51
NtRp2320
(dp2321
g54
(dp2322
sg63
g59
sg56
(lp2323
g49
(g70
g51
NtRp2324
(dp2325
g54
(dp2326
g74
g75
ssg63
g2320
sg56
(lp2327
S'is_local'
p2328
asbag49
(g70
g51
NtRp2329
(dp2330
g54
(dp2331
g81
g82
ssg63
g2320
sg56
(lp2332
S':'
asbag49
(g70
g51
NtRp2333
(dp2334
g54
(dp2335
sg63
g2320
sg56
(lp2336
g49
(g50
g51
NtRp2337
(dp2338
g54
(dp2339
g62
I5
ssg63
g2333
sg56
(lp2340
g928
asbasbasbag49
(g65
g51
NtRp2341
(dp2342
g54
(dp2343
sg63
g59
sg56
(lp2344
g49
(g70
g51
NtRp2345
(dp2346
g54
(dp2347
g74
g75
ssg63
g2341
sg56
(lp2348
S'is_restful'
p2349
asbag49
(g70
g51
NtRp2350
(dp2351
g54
(dp2352
g81
g82
ssg63
g2341
sg56
(lp2353
S':'
asbag49
(g70
g51
NtRp2354
(dp2355
g54
(dp2356
sg63
g2341
sg56
(lp2357
g49
(g50
g51
NtRp2358
(dp2359
g54
(dp2360
g62
I5
ssg63
g2354
sg56
(lp2361
g92
asbasbasbag49
(g65
g51
NtRp2362
(dp2363
g54
(dp2364
sg63
g59
sg56
(lp2365
g49
(g70
g51
NtRp2366
(dp2367
g54
(dp2368
g74
g75
ssg63
g2362
sg56
(lp2369
S'now'
p2370
asbag49
(g70
g51
NtRp2371
(dp2372
g54
(dp2373
g81
g82
ssg63
g2362
sg56
(lp2374
S':'
asbag49
(g70
g51
NtRp2375
(dp2376
g54
(dp2377
sg63
g2362
sg56
(lp2378
g49
(g50
g51
NtRp2379
(dp2380
g54
(dp2381
g62
I5
ssg63
g2375
sg56
(lp2382
S'datetime.datetime(2013, 3, 26, 15, 20, 38, 482859)'
p2383
asbasbasbag49
(g65
g51
NtRp2384
(dp2385
g54
(dp2386
sg63
g59
sg56
(lp2387
g49
(g70
g51
NtRp2388
(dp2389
g54
(dp2390
g74
g75
ssg63
g2384
sg56
(lp2391
S'post_vars'
p2392
asbag49
(g70
g51
NtRp2393
(dp2394
g54
(dp2395
g81
g82
ssg63
g2384
sg56
(lp2396
S':'
asbag49
(g70
g51
NtRp2397
(dp2398
g54
(dp2399
sg63
g2384
sg56
(lp2400
g49
(g50
g51
NtRp2401
(dp2402
g54
(dp2403
g62
I5
ssg63
g2397
sg56
(lp2404
g49
(g58
g51
NtRp2405
(dp2406
g54
(dp2407
g62
I4
ssg63
Nsg56
(lp2408
sbasbasbasbag49
(g65
g51
NtRp2409
(dp2410
g54
(dp2411
sg63
g59
sg56
(lp2412
g49
(g70
g51
NtRp2413
(dp2414
g54
(dp2415
g74
g75
ssg63
g2409
sg56
(lp2416
S'raw_args'
p2417
asbag49
(g70
g51
NtRp2418
(dp2419
g54
(dp2420
g81
g82
ssg63
g2409
sg56
(lp2421
S':'
asbag49
(g70
g51
NtRp2422
(dp2423
g54
(dp2424
sg63
g2409
sg56
(lp2425
g49
(g50
g51
NtRp2426
(dp2427
g54
(dp2428
g62
I5
ssg63
g2422
sg56
(lp2429
S'1'
asbasbasbag49
(g65
g51
NtRp2430
(dp2431
g54
(dp2432
sg63
g59
sg56
(lp2433
g49
(g70
g51
NtRp2434
(dp2435
g54
(dp2436
g74
g75
ssg63
g2430
sg56
(lp2437
S'raw_extension'
p2438
asbag49
(g70
g51
NtRp2439
(dp2440
g54
(dp2441
g81
g82
ssg63
g2430
sg56
(lp2442
S':'
asbag49
(g70
g51
NtRp2443
(dp2444
g54
(dp2445
sg63
g2430
sg56
(lp2446
g49
(g50
g51
NtRp2447
(dp2448
g54
(dp2449
g62
I5
ssg63
g2443
sg56
(lp2450
S'None'
p2451
asbasbasbag49
(g65
g51
NtRp2452
(dp2453
g54
(dp2454
sg63
g59
sg56
(lp2455
g49
(g70
g51
NtRp2456
(dp2457
g54
(dp2458
g74
g75
ssg63
g2452
sg56
(lp2459
S'url'
p2460
asbag49
(g70
g51
NtRp2461
(dp2462
g54
(dp2463
g81
g82
ssg63
g2452
sg56
(lp2464
S':'
asbag49
(g70
g51
NtRp2465
(dp2466
g54
(dp2467
sg63
g2452
sg56
(lp2468
g49
(g50
g51
NtRp2469
(dp2470
g54
(dp2471
g62
I5
ssg63
g2465
sg56
(lp2472
g1302
asbasbasbag49
(g65
g51
NtRp2473
(dp2474
g54
(dp2475
sg63
g59
sg56
(lp2476
g49
(g70
g51
NtRp2477
(dp2478
g54
(dp2479
g74
g75
ssg63
g2473
sg56
(lp2480
S'utcnow'
p2481
asbag49
(g70
g51
NtRp2482
(dp2483
g54
(dp2484
g81
g82
ssg63
g2473
sg56
(lp2485
S':'
asbag49
(g70
g51
NtRp2486
(dp2487
g54
(dp2488
sg63
g2473
sg56
(lp2489
g49
(g50
g51
NtRp2490
(dp2491
g54
(dp2492
g62
I5
ssg63
g2486
sg56
(lp2493
S'datetime.datetime(2013, 3, 26, 19, 20, 38, 482871)'
p2494
asbasbasbag49
(g65
g51
NtRp2495
(dp2496
g54
(dp2497
sg63
g59
sg56
(lp2498
g49
(g70
g51
NtRp2499
(dp2500
g54
(dp2501
g74
g75
ssg63
g2495
sg56
(lp2502
S'uuid'
p2503
asbag49
(g70
g51
NtRp2504
(dp2505
g54
(dp2506
g81
g82
ssg63
g2495
sg56
(lp2507
S':'
asbag49
(g70
g51
NtRp2508
(dp2509
g54
(dp2510
sg63
g2495
sg56
(lp2511
g49
(g50
g51
NtRp2512
(dp2513
g54
(dp2514
g62
I5
ssg63
g2508
sg56
(lp2515
S'hellow/127.0.0.1.2013-03-26.15-20-38.d5a3fc9d-66e6-4817-bc34-e139d1c8a344'
p2516
asbasbasbag49
(g65
g51
NtRp2517
(dp2518
g54
(dp2519
sg63
g59
sg56
(lp2520
g49
(g70
g51
NtRp2521
(dp2522
g54
(dp2523
g74
g75
ssg63
g2517
sg56
(lp2524
S'vars'
p2525
asbag49
(g70
g51
NtRp2526
(dp2527
g54
(dp2528
g81
g82
ssg63
g2517
sg56
(lp2529
S':'
asbag49
(g70
g51
NtRp2530
(dp2531
g54
(dp2532
sg63
g2517
sg56
(lp2533
g49
(g50
g51
NtRp2534
(dp2535
g54
(dp2536
g62
I5
ssg63
g2530
sg56
(lp2537
g49
(g58
g51
NtRp2538
(dp2539
g54
(dp2540
g62
I4
ssg63
Nsg56
(lp2541
sbasbasbasbag49
(g65
g51
NtRp2542
(dp2543
g54
(dp2544
sg63
g59
sg56
(lp2545
g49
(g70
g51
NtRp2546
(dp2547
g54
(dp2548
g74
g75
ssg63
g2542
sg56
(lp2549
S'wsgi'
p2550
asbag49
(g70
g51
NtRp2551
(dp2552
g54
(dp2553
g81
g82
ssg63
g2542
sg56
(lp2554
S':'
asbag49
(g70
g51
NtRp2555
(dp2556
g54
(dp2557
sg63
g2542
sg56
(lp2558
g49
(g50
g51
NtRp2559
(dp2560
g54
(dp2561
g62
I5
ssg63
g2555
sg56
(lp2562
g49
(g58
g51
NtRp2563
(dp2564
g54
(dp2565
g62
I4
ssg63
Nsg56
(lp2566
g49
(g65
g51
NtRp2567
(dp2568
g54
(dp2569
sg63
g2563
sg56
(lp2570
g49
(g70
g51
NtRp2571
(dp2572
g54
(dp2573
g74
g75
ssg63
g2567
sg56
(lp2574
S'environ'
p2575
asbag49
(g70
g51
NtRp2576
(dp2577
g54
(dp2578
g81
g82
ssg63
g2567
sg56
(lp2579
S':'
asbag49
(g70
g51
NtRp2580
(dp2581
g54
(dp2582
sg63
g2567
sg56
(lp2583
g49
(g50
g51
NtRp2584
(dp2585
g54
(dp2586
g62
I4
ssg63
g2580
sg56
(lp2587
g49
(g58
g51
NtRp2588
(dp2589
g54
(dp2590
g62
I3
ssg63
Nsg56
(lp2591
g49
(g65
g51
NtRp2592
(dp2593
g54
(dp2594
sg63
g2588
sg56
(lp2595
g49
(g70
g51
NtRp2596
(dp2597
g54
(dp2598
g74
g75
ssg63
g2592
sg56
(lp2599
S'HTTP_ACCEPT'
p2600
asbag49
(g70
g51
NtRp2601
(dp2602
g54
(dp2603
g81
g82
ssg63
g2592
sg56
(lp2604
S':'
asbag49
(g70
g51
NtRp2605
(dp2606
g54
(dp2607
sg63
g2592
sg56
(lp2608
g49
(g50
g51
NtRp2609
(dp2610
g54
(dp2611
g62
I3
ssg63
g2605
sg56
(lp2612
g972
asbasbasbag49
(g65
g51
NtRp2613
(dp2614
g54
(dp2615
sg63
g2588
sg56
(lp2616
g49
(g70
g51
NtRp2617
(dp2618
g54
(dp2619
g74
g75
ssg63
g2613
sg56
(lp2620
S'HTTP_ACCEPT_CHARSET'
p2621
asbag49
(g70
g51
NtRp2622
(dp2623
g54
(dp2624
g81
g82
ssg63
g2613
sg56
(lp2625
S':'
asbag49
(g70
g51
NtRp2626
(dp2627
g54
(dp2628
sg63
g2613
sg56
(lp2629
g49
(g50
g51
NtRp2630
(dp2631
g54
(dp2632
g62
I3
ssg63
g2626
sg56
(lp2633
g994
asbasbasbag49
(g65
g51
NtRp2634
(dp2635
g54
(dp2636
sg63
g2588
sg56
(lp2637
g49
(g70
g51
NtRp2638
(dp2639
g54
(dp2640
g74
g75
ssg63
g2634
sg56
(lp2641
S'HTTP_ACCEPT_ENCODING'
p2642
asbag49
(g70
g51
NtRp2643
(dp2644
g54
(dp2645
g81
g82
ssg63
g2634
sg56
(lp2646
S':'
asbag49
(g70
g51
NtRp2647
(dp2648
g54
(dp2649
sg63
g2634
sg56
(lp2650
g49
(g50
g51
NtRp2651
(dp2652
g54
(dp2653
g62
I3
ssg63
g2647
sg56
(lp2654
g1016
asbasbasbag49
(g65
g51
NtRp2655
(dp2656
g54
(dp2657
sg63
g2588
sg56
(lp2658
g49
(g70
g51
NtRp2659
(dp2660
g54
(dp2661
g74
g75
ssg63
g2655
sg56
(lp2662
S'HTTP_ACCEPT_LANGUAGE'
p2663
asbag49
(g70
g51
NtRp2664
(dp2665
g54
(dp2666
g81
g82
ssg63
g2655
sg56
(lp2667
S':'
asbag49
(g70
g51
NtRp2668
(dp2669
g54
(dp2670
sg63
g2655
sg56
(lp2671
g49
(g50
g51
NtRp2672
(dp2673
g54
(dp2674
g62
I3
ssg63
g2668
sg56
(lp2675
g1038
asbasbasbag49
(g65
g51
NtRp2676
(dp2677
g54
(dp2678
sg63
g2588
sg56
(lp2679
g49
(g70
g51
NtRp2680
(dp2681
g54
(dp2682
g74
g75
ssg63
g2676
sg56
(lp2683
S'HTTP_CACHE_CONTROL'
p2684
asbag49
(g70
g51
NtRp2685
(dp2686
g54
(dp2687
g81
g82
ssg63
g2676
sg56
(lp2688
S':'
asbag49
(g70
g51
NtRp2689
(dp2690
g54
(dp2691
sg63
g2676
sg56
(lp2692
g49
(g50
g51
NtRp2693
(dp2694
g54
(dp2695
g62
I3
ssg63
g2689
sg56
(lp2696
g1060
asbasbasbag49
(g65
g51
NtRp2697
(dp2698
g54
(dp2699
sg63
g2588
sg56
(lp2700
g49
(g70
g51
NtRp2701
(dp2702
g54
(dp2703
g74
g75
ssg63
g2697
sg56
(lp2704
S'HTTP_CONNECTION'
p2705
asbag49
(g70
g51
NtRp2706
(dp2707
g54
(dp2708
g81
g82
ssg63
g2697
sg56
(lp2709
S':'
asbag49
(g70
g51
NtRp2710
(dp2711
g54
(dp2712
sg63
g2697
sg56
(lp2713
g49
(g50
g51
NtRp2714
(dp2715
g54
(dp2716
g62
I3
ssg63
g2710
sg56
(lp2717
g1082
asbasbasbag49
(g65
g51
NtRp2718
(dp2719
g54
(dp2720
sg63
g2588
sg56
(lp2721
g49
(g70
g51
NtRp2722
(dp2723
g54
(dp2724
g74
g75
ssg63
g2718
sg56
(lp2725
S'HTTP_COOKIE'
p2726
asbag49
(g70
g51
NtRp2727
(dp2728
g54
(dp2729
g81
g82
ssg63
g2718
sg56
(lp2730
S':'
asbag49
(g70
g51
NtRp2731
(dp2732
g54
(dp2733
sg63
g2718
sg56
(lp2734
g49
(g50
g51
NtRp2735
(dp2736
g54
(dp2737
g62
I3
ssg63
g2731
sg56
(lp2738
g1104
asbasbasbag49
(g65
g51
NtRp2739
(dp2740
g54
(dp2741
sg63
g2588
sg56
(lp2742
g49
(g70
g51
NtRp2743
(dp2744
g54
(dp2745
g74
g75
ssg63
g2739
sg56
(lp2746
S'HTTP_HOST'
p2747
asbag49
(g70
g51
NtRp2748
(dp2749
g54
(dp2750
g81
g82
ssg63
g2739
sg56
(lp2751
S':'
asbag49
(g70
g51
NtRp2752
(dp2753
g54
(dp2754
sg63
g2739
sg56
(lp2755
g49
(g50
g51
NtRp2756
(dp2757
g54
(dp2758
g62
I3
ssg63
g2752
sg56
(lp2759
g1126
asbasbasbag49
(g65
g51
NtRp2760
(dp2761
g54
(dp2762
sg63
g2588
sg56
(lp2763
g49
(g70
g51
NtRp2764
(dp2765
g54
(dp2766
g74
g75
ssg63
g2760
sg56
(lp2767
S'HTTP_USER_AGENT'
p2768
asbag49
(g70
g51
NtRp2769
(dp2770
g54
(dp2771
g81
g82
ssg63
g2760
sg56
(lp2772
S':'
asbag49
(g70
g51
NtRp2773
(dp2774
g54
(dp2775
sg63
g2760
sg56
(lp2776
g49
(g50
g51
NtRp2777
(dp2778
g54
(dp2779
g62
I3
ssg63
g2773
sg56
(lp2780
g1148
asbasbasbag49
(g65
g51
NtRp2781
(dp2782
g54
(dp2783
sg63
g2588
sg56
(lp2784
g49
(g70
g51
NtRp2785
(dp2786
g54
(dp2787
g74
g75
ssg63
g2781
sg56
(lp2788
S'PATH_INFO'
p2789
asbag49
(g70
g51
NtRp2790
(dp2791
g54
(dp2792
g81
g82
ssg63
g2781
sg56
(lp2793
S':'
asbag49
(g70
g51
NtRp2794
(dp2795
g54
(dp2796
sg63
g2781
sg56
(lp2797
g49
(g50
g51
NtRp2798
(dp2799
g54
(dp2800
g62
I3
ssg63
g2794
sg56
(lp2801
g1302
asbasbasbag49
(g65
g51
NtRp2802
(dp2803
g54
(dp2804
sg63
g2588
sg56
(lp2805
g49
(g70
g51
NtRp2806
(dp2807
g54
(dp2808
g74
g75
ssg63
g2802
sg56
(lp2809
S'QUERY_STRING'
p2810
asbag49
(g70
g51
NtRp2811
(dp2812
g54
(dp2813
g81
g82
ssg63
g2802
sg56
(lp2814
S':'
asbag49
(g70
g51
NtRp2815
(dp2816
g54
(dp2817
sg63
g2802
sg56
(lp2818
g49
(g50
g51
NtRp2819
(dp2820
g54
(dp2821
g62
I3
ssg63
g2815
sg56
(lp2822
S''
asbasbasbag49
(g65
g51
NtRp2823
(dp2824
g54
(dp2825
sg63
g2588
sg56
(lp2826
g49
(g70
g51
NtRp2827
(dp2828
g54
(dp2829
g74
g75
ssg63
g2823
sg56
(lp2830
S'REMOTE_ADDR'
p2831
asbag49
(g70
g51
NtRp2832
(dp2833
g54
(dp2834
g81
g82
ssg63
g2823
sg56
(lp2835
S':'
asbag49
(g70
g51
NtRp2836
(dp2837
g54
(dp2838
sg63
g2823
sg56
(lp2839
g49
(g50
g51
NtRp2840
(dp2841
g54
(dp2842
g62
I3
ssg63
g2836
sg56
(lp2843
g216
asbasbasbag49
(g65
g51
NtRp2844
(dp2845
g54
(dp2846
sg63
g2588
sg56
(lp2847
g49
(g70
g51
NtRp2848
(dp2849
g54
(dp2850
g74
g75
ssg63
g2844
sg56
(lp2851
S'REMOTE_PORT'
p2852
asbag49
(g70
g51
NtRp2853
(dp2854
g54
(dp2855
g81
g82
ssg63
g2844
sg56
(lp2856
S':'
asbag49
(g70
g51
NtRp2857
(dp2858
g54
(dp2859
sg63
g2844
sg56
(lp2860
g49
(g50
g51
NtRp2861
(dp2862
g54
(dp2863
g62
I3
ssg63
g2857
sg56
(lp2864
g1366
asbasbasbag49
(g65
g51
NtRp2865
(dp2866
g54
(dp2867
sg63
g2588
sg56
(lp2868
g49
(g70
g51
NtRp2869
(dp2870
g54
(dp2871
g74
g75
ssg63
g2865
sg56
(lp2872
S'REQUEST_METHOD'
p2873
asbag49
(g70
g51
NtRp2874
(dp2875
g54
(dp2876
g81
g82
ssg63
g2865
sg56
(lp2877
S':'
asbag49
(g70
g51
NtRp2878
(dp2879
g54
(dp2880
sg63
g2865
sg56
(lp2881
g49
(g50
g51
NtRp2882
(dp2883
g54
(dp2884
g62
I3
ssg63
g2878
sg56
(lp2885
g1388
asbasbasbag49
(g65
g51
NtRp2886
(dp2887
g54
(dp2888
sg63
g2588
sg56
(lp2889
g49
(g70
g51
NtRp2890
(dp2891
g54
(dp2892
g74
g75
ssg63
g2886
sg56
(lp2893
S'REQUEST_URI'
p2894
asbag49
(g70
g51
NtRp2895
(dp2896
g54
(dp2897
g81
g82
ssg63
g2886
sg56
(lp2898
S':'
asbag49
(g70
g51
NtRp2899
(dp2900
g54
(dp2901
sg63
g2886
sg56
(lp2902
g49
(g50
g51
NtRp2903
(dp2904
g54
(dp2905
g62
I3
ssg63
g2899
sg56
(lp2906
g1302
asbasbasbag49
(g65
g51
NtRp2907
(dp2908
g54
(dp2909
sg63
g2588
sg56
(lp2910
g49
(g70
g51
NtRp2911
(dp2912
g54
(dp2913
g74
g75
ssg63
g2907
sg56
(lp2914
S'SCRIPT_NAME'
p2915
asbag49
(g70
g51
NtRp2916
(dp2917
g54
(dp2918
g81
g82
ssg63
g2907
sg56
(lp2919
S':'
asbag49
(g70
g51
NtRp2920
(dp2921
g54
(dp2922
sg63
g2907
sg56
(lp2923
g49
(g50
g51
NtRp2924
(dp2925
g54
(dp2926
g62
I3
ssg63
g2920
sg56
(lp2927
S''
asbasbasbag49
(g65
g51
NtRp2928
(dp2929
g54
(dp2930
sg63
g2588
sg56
(lp2931
g49
(g70
g51
NtRp2932
(dp2933
g54
(dp2934
g74
g75
ssg63
g2928
sg56
(lp2935
S'SERVER_NAME'
p2936
asbag49
(g70
g51
NtRp2937
(dp2938
g54
(dp2939
g81
g82
ssg63
g2928
sg56
(lp2940
S':'
asbag49
(g70
g51
NtRp2941
(dp2942
g54
(dp2943
sg63
g2928
sg56
(lp2944
g49
(g50
g51
NtRp2945
(dp2946
g54
(dp2947
g62
I3
ssg63
g2941
sg56
(lp2948
g1452
asbasbasbag49
(g65
g51
NtRp2949
(dp2950
g54
(dp2951
sg63
g2588
sg56
(lp2952
g49
(g70
g51
NtRp2953
(dp2954
g54
(dp2955
g74
g75
ssg63
g2949
sg56
(lp2956
S'SERVER_PORT'
p2957
asbag49
(g70
g51
NtRp2958
(dp2959
g54
(dp2960
g81
g82
ssg63
g2949
sg56
(lp2961
S':'
asbag49
(g70
g51
NtRp2962
(dp2963
g54
(dp2964
sg63
g2949
sg56
(lp2965
g49
(g50
g51
NtRp2966
(dp2967
g54
(dp2968
g62
I3
ssg63
g2962
sg56
(lp2969
g1474
asbasbasbag49
(g65
g51
NtRp2970
(dp2971
g54
(dp2972
sg63
g2588
sg56
(lp2973
g49
(g70
g51
NtRp2974
(dp2975
g54
(dp2976
g74
g75
ssg63
g2970
sg56
(lp2977
S'SERVER_PROTOCOL'
p2978
asbag49
(g70
g51
NtRp2979
(dp2980
g54
(dp2981
g81
g82
ssg63
g2970
sg56
(lp2982
S':'
asbag49
(g70
g51
NtRp2983
(dp2984
g54
(dp2985
sg63
g2970
sg56
(lp2986
g49
(g50
g51
NtRp2987
(dp2988
g54
(dp2989
g62
I3
ssg63
g2983
sg56
(lp2990
g1496
asbasbasbag49
(g65
g51
NtRp2991
(dp2992
g54
(dp2993
sg63
g2588
sg56
(lp2994
g49
(g70
g51
NtRp2995
(dp2996
g54
(dp2997
g74
g75
ssg63
g2991
sg56
(lp2998
S'SERVER_SOFTWARE'
p2999
asbag49
(g70
g51
NtRp3000
(dp3001
g54
(dp3002
g81
g82
ssg63
g2991
sg56
(lp3003
S':'
asbag49
(g70
g51
NtRp3004
(dp3005
g54
(dp3006
sg63
g2991
sg56
(lp3007
g49
(g50
g51
NtRp3008
(dp3009
g54
(dp3010
g62
I3
ssg63
g3004
sg56
(lp3011
g1518
asbasbasbag49
(g65
g51
NtRp3012
(dp3013
g54
(dp3014
sg63
g2588
sg56
(lp3015
g49
(g70
g51
NtRp3016
(dp3017
g54
(dp3018
g74
g75
ssg63
g3012
sg56
(lp3019
S'wsgi.errors'
p3020
asbag49
(g70
g51
NtRp3021
(dp3022
g54
(dp3023
g81
g82
ssg63
g3012
sg56
(lp3024
S':'
asbag49
(g70
g51
NtRp3025
(dp3026
g54
(dp3027
sg63
g3012
sg56
(lp3028
g49
(g50
g51
NtRp3029
(dp3030
g54
(dp3031
g62
I3
ssg63
g3025
sg56
(lp3032
S"<open file '<stderr>', mode 'w' at 0x540b0>"
p3033
asbasbasbag49
(g65
g51
NtRp3034
(dp3035
g54
(dp3036
sg63
g2588
sg56
(lp3037
g49
(g70
g51
NtRp3038
(dp3039
g54
(dp3040
g74
g75
ssg63
g3034
sg56
(lp3041
S'wsgi.file_wrapper'
p3042
asbag49
(g70
g51
NtRp3043
(dp3044
g54
(dp3045
g81
g82
ssg63
g3034
sg56
(lp3046
S':'
asbag49
(g70
g51
NtRp3047
(dp3048
g54
(dp3049
sg63
g3034
sg56
(lp3050
g49
(g50
g51
NtRp3051
(dp3052
g54
(dp3053
g62
I3
ssg63
g3047
sg56
(lp3054
S'<class wsgiref.util.FileWrapper at 0x329d060>'
p3055
asbasbasbag49
(g65
g51
NtRp3056
(dp3057
g54
(dp3058
sg63
g2588
sg56
(lp3059
g49
(g70
g51
NtRp3060
(dp3061
g54
(dp3062
g74
g75
ssg63
g3056
sg56
(lp3063
S'wsgi.input'
p3064
asbag49
(g70
g51
NtRp3065
(dp3066
g54
(dp3067
g81
g82
ssg63
g3056
sg56
(lp3068
S':'
asbag49
(g70
g51
NtRp3069
(dp3070
g54
(dp3071
sg63
g3056
sg56
(lp3072
g49
(g50
g51
NtRp3073
(dp3074
g54
(dp3075
g62
I3
ssg63
g3069
sg56
(lp3076
S'<cStringIO.StringO object at 0xc32af60>'
p3077
asbasbasbag49
(g65
g51
NtRp3078
(dp3079
g54
(dp3080
sg63
g2588
sg56
(lp3081
g49
(g70
g51
NtRp3082
(dp3083
g54
(dp3084
g74
g75
ssg63
g3078
sg56
(lp3085
S'wsgi.multiprocess'
p3086
asbag49
(g70
g51
NtRp3087
(dp3088
g54
(dp3089
g81
g82
ssg63
g3078
sg56
(lp3090
S':'
asbag49
(g70
g51
NtRp3091
(dp3092
g54
(dp3093
sg63
g3078
sg56
(lp3094
g49
(g50
g51
NtRp3095
(dp3096
g54
(dp3097
g62
I3
ssg63
g3091
sg56
(lp3098
g92
asbasbasbag49
(g65
g51
NtRp3099
(dp3100
g54
(dp3101
sg63
g2588
sg56
(lp3102
g49
(g70
g51
NtRp3103
(dp3104
g54
(dp3105
g74
g75
ssg63
g3099
sg56
(lp3106
S'wsgi.multithread'
p3107
asbag49
(g70
g51
NtRp3108
(dp3109
g54
(dp3110
g81
g82
ssg63
g3099
sg56
(lp3111
S':'
asbag49
(g70
g51
NtRp3112
(dp3113
g54
(dp3114
sg63
g3099
sg56
(lp3115
g49
(g50
g51
NtRp3116
(dp3117
g54
(dp3118
g62
I3
ssg63
g3112
sg56
(lp3119
g928
asbasbasbag49
(g65
g51
NtRp3120
(dp3121
g54
(dp3122
sg63
g2588
sg56
(lp3123
g49
(g70
g51
NtRp3124
(dp3125
g54
(dp3126
g74
g75
ssg63
g3120
sg56
(lp3127
S'wsgi.run_once'
p3128
asbag49
(g70
g51
NtRp3129
(dp3130
g54
(dp3131
g81
g82
ssg63
g3120
sg56
(lp3132
S':'
asbag49
(g70
g51
NtRp3133
(dp3134
g54
(dp3135
sg63
g3120
sg56
(lp3136
g49
(g50
g51
NtRp3137
(dp3138
g54
(dp3139
g62
I3
ssg63
g3133
sg56
(lp3140
g92
asbasbasbag49
(g65
g51
NtRp3141
(dp3142
g54
(dp3143
sg63
g2588
sg56
(lp3144
g49
(g70
g51
NtRp3145
(dp3146
g54
(dp3147
g74
g75
ssg63
g3141
sg56
(lp3148
S'wsgi.url_scheme'
p3149
asbag49
(g70
g51
NtRp3150
(dp3151
g54
(dp3152
g81
g82
ssg63
g3141
sg56
(lp3153
S':'
asbag49
(g70
g51
NtRp3154
(dp3155
g54
(dp3156
sg63
g3141
sg56
(lp3157
g49
(g50
g51
NtRp3158
(dp3159
g54
(dp3160
g62
I3
ssg63
g3154
sg56
(lp3161
g1777
asbasbasbag49
(g65
g51
NtRp3162
(dp3163
g54
(dp3164
sg63
g2588
sg56
(lp3165
g49
(g70
g51
NtRp3166
(dp3167
g54
(dp3168
g74
g75
ssg63
g3162
sg56
(lp3169
S'wsgi.version'
p3170
asbag49
(g70
g51
NtRp3171
(dp3172
g54
(dp3173
g81
g82
ssg63
g3162
sg56
(lp3174
S':'
asbag49
(g70
g51
NtRp3175
(dp3176
g54
(dp3177
sg63
g3162
sg56
(lp3178
g49
(g50
g51
NtRp3179
(dp3180
g54
(dp3181
g62
I3
ssg63
g3175
sg56
(lp3182
S'1'
asbasbasbasbasbasbasbasbasbasbasbasbasbsS'frames'
p3183
(lp3184
(dp3185
S'file'
p3186
S'/home/mdipierro/web2py/gluon/restricted.py'
p3187
sS'dump'
p3188
(dp3189
sS'lnum'
p3190
I212
sS'lines'
p3191
(dp3192
sS'call'
p3193
S'(code=\'response.write(\\\'<!--[if HTML5]><![endif]-->\\\\n<!D..."></script>\\\\n</body>\\\\n</html>\\\\n\\\\n\\\', escape=False)\', environment={\'A\': <class \'gluon.html.A\'>, \'Auth\': <class \'gluon.tools.Auth\'>, \'B\': <class \'gluon.html.B\'>, \'BEAUTIFY\': <class \'gluon.html.BEAUTIFY\'>, \'BODY\': <class \'gluon.html.BODY\'>, \'BR\': <class \'gluon.html.BR\'>, \'BUTTON\': <class \'gluon.html.BUTTON\'>, \'CAT\': <class \'gluon.html.CAT\'>, \'CENTER\': <class \'gluon.html.CENTER\'>, \'CLEANUP\': <class \'gluon.validators.CLEANUP\'>, ...}, layer=\'/Users/zamechek/Downloads/web2py/web2py.app/Cont...esources/applications/hellow/views/game/show.html\')'
p3194
sS'func'
p3195
S'restricted'
p3196
sa(dp3197
g3186
S'/Users/zamechek/Downloads/web2py/web2py.app/Contents/Resources/applications/hellow/views/game/show.html'
p3198
sg3188
(dp3199
sg3190
I89
sg3191
(dp3200
I96
S"response.write('\\n\\t<h2>Errors in form</h2>\\n\\t', escape=False)"
p3201
sI97
S'response.write(BEAUTIFY(form.errors))'
p3202
sI98
S"response.write('\\n</div>\\n', escape=False)"
p3203
sI99
S"response.write('\\n            ', escape=False)"
p3204
sI80
S'response.write(\'">\\n            \', escape=False)'
p3205
sI81
S"response.write('\\n            ', escape=False)"
p3206
sI82
S"response.write('\\n<h1>Game ', escape=False)"
p3207
sI83
S'response.write(gameid)'
p3208
sI84
S"response.write('</h1>\\n<div>\\n\\t<ul>\\n        <li>Name = ', escape=False)"
p3209
sI85
S'response.write(name)'
p3210
sI86
S"response.write('</li>\\n        <li>Balance = ', escape=False)"
p3211
sI87
S'response.write(balance)'
p3212
sI88
S"response.write('</li>\\n    </ul>\\n\\t<h2>Input form</h2>\\n    <form>\\n        ', escape=False)"
p3213
sI89
S'for row in rows:'
p3214
sI90
S'    response.write(\' <input type="radio" name=\', escape=False)'
p3215
sI91
S'    response.write(row.id)'
p3216
sI92
S"    response.write(' value={=row.id}}>{=row.id}}<br>', escape=False)"
p3217
sI93
S'    pass'
p3218
sI94
S'response.write(\'\\n    \\t<input type="submit" value="Submit">\\n    </form>\\n\\t<h2>Submitted variables</h2>\\n\\t\', escape=False)'
p3219
sI95
S'response.write(BEAUTIFY(request.vars))'
p3220
ssg3193
S'()'
p3221
sg3195
S'<module>'
p3222
sasS'pyver'
p3223
S'Python 2.5.1: /Users/zamechek/Downloads/web2py/web2py.app/Contents/MacOS/python'
p3224
sS'session'
p3225
g49
(g50
g51
NtRp3226
(dp3227
g54
(dp3228
sg56
(lp3229
g49
(g58
g51
NtRp3230
(dp3231
g54
(dp3232
g62
I5
ssg63
Nsg56
(lp3233
sbasbsS'etype'
p3234
S"<type 'exceptions.NameError'>"
p3235
sS'date'
p3236
S'Tue Mar 26 15:20:38 2013'
p3237
sS'response'
p3238
g49
(g50
g51
NtRp3239
(dp3240
g54
(dp3241
sg56
(lp3242
g49
(g58
g51
NtRp3243
(dp3244
g54
(dp3245
g62
I5
ssg63
Nsg56
(lp3246
g49
(g65
g51
NtRp3247
(dp3248
g54
(dp3249
sg63
g3243
sg56
(lp3250
g49
(g70
g51
NtRp3251
(dp3252
g54
(dp3253
g74
g75
ssg63
g3247
sg56
(lp3254
g159
asbag49
(g70
g51
NtRp3255
(dp3256
g54
(dp3257
g81
g82
ssg63
g3247
sg56
(lp3258
S':'
asbag49
(g70
g51
NtRp3259
(dp3260
g54
(dp3261
sg63
g3247
sg56
(lp3262
g49
(g50
g51
NtRp3263
(dp3264
g54
(dp3265
g62
I5
ssg63
g3259
sg56
(lp3266
S'<cStringIO.StringO object at 0xb8b7b20>'
p3267
asbasbasbag49
(g65
g51
NtRp3268
(dp3269
g54
(dp3270
sg63
g3243
sg56
(lp3271
g49
(g70
g51
NtRp3272
(dp3273
g54
(dp3274
g74
g75
ssg63
g3268
sg56
(lp3275
g247
asbag49
(g70
g51
NtRp3276
(dp3277
g54
(dp3278
g81
g82
ssg63
g3268
sg56
(lp3279
S':'
asbag49
(g70
g51
NtRp3280
(dp3281
g54
(dp3282
sg63
g3268
sg56
(lp3283
g49
(g50
g51
NtRp3284
(dp3285
g54
(dp3286
g62
I5
ssg63
g3280
sg56
(lp3287
g49
(g58
g51
NtRp3288
(dp3289
g54
(dp3290
g62
I4
ssg63
Nsg56
(lp3291
g49
(g65
g51
NtRp3292
(dp3293
g54
(dp3294
sg63
g3288
sg56
(lp3295
g49
(g70
g51
NtRp3296
(dp3297
g54
(dp3298
g74
g75
ssg63
g3292
sg56
(lp3299
S'session_id_hellow'
p3300
asbag49
(g70
g51
NtRp3301
(dp3302
g54
(dp3303
g81
g82
ssg63
g3292
sg56
(lp3304
S':'
asbag49
(g70
g51
NtRp3305
(dp3306
g54
(dp3307
sg63
g3292
sg56
(lp3308
g49
(g50
g51
NtRp3309
(dp3310
g54
(dp3311
g62
I4
ssg63
g3305
sg56
(lp3312
g458
ag49
(g58
g51
NtRp3313
(dp3314
g54
(dp3315
g62
I3
ssg63
Nsg56
(lp3316
g49
(g65
g51
NtRp3317
(dp3318
g54
(dp3319
sg63
g3313
sg56
(lp3320
g49
(g70
g51
NtRp3321
(dp3322
g54
(dp3323
g74
g75
ssg63
g3317
sg56
(lp3324
g298
asbag49
(g70
g51
NtRp3325
(dp3326
g54
(dp3327
g81
g82
ssg63
g3317
sg56
(lp3328
S':'
asbag49
(g70
g51
NtRp3329
(dp3330
g54
(dp3331
sg63
g3317
sg56
(lp3332
g49
(g50
g51
NtRp3333
(dp3334
g54
(dp3335
g62
I3
ssg63
g3329
sg56
(lp3336
S''
asbasbasbag49
(g65
g51
NtRp3337
(dp3338
g54
(dp3339
sg63
g3313
sg56
(lp3340
g49
(g70
g51
NtRp3341
(dp3342
g54
(dp3343
g74
g75
ssg63
g3337
sg56
(lp3344
g319
asbag49
(g70
g51
NtRp3345
(dp3346
g54
(dp3347
g81
g82
ssg63
g3337
sg56
(lp3348
S':'
asbag49
(g70
g51
NtRp3349
(dp3350
g54
(dp3351
sg63
g3337
sg56
(lp3352
g49
(g50
g51
NtRp3353
(dp3354
g54
(dp3355
g62
I3
ssg63
g3349
sg56
(lp3356
S''
asbasbasbag49
(g65
g51
NtRp3357
(dp3358
g54
(dp3359
sg63
g3313
sg56
(lp3360
g49
(g70
g51
NtRp3361
(dp3362
g54
(dp3363
g74
g75
ssg63
g3357
sg56
(lp3364
g340
asbag49
(g70
g51
NtRp3365
(dp3366
g54
(dp3367
g81
g82
ssg63
g3357
sg56
(lp3368
S':'
asbag49
(g70
g51
NtRp3369
(dp3370
g54
(dp3371
sg63
g3357
sg56
(lp3372
g49
(g50
g51
NtRp3373
(dp3374
g54
(dp3375
g62
I3
ssg63
g3369
sg56
(lp3376
S''
asbasbasbag49
(g65
g51
NtRp3377
(dp3378
g54
(dp3379
sg63
g3313
sg56
(lp3380
g49
(g70
g51
NtRp3381
(dp3382
g54
(dp3383
g74
g75
ssg63
g3377
sg56
(lp3384
g361
asbag49
(g70
g51
NtRp3385
(dp3386
g54
(dp3387
g81
g82
ssg63
g3377
sg56
(lp3388
S':'
asbag49
(g70
g51
NtRp3389
(dp3390
g54
(dp3391
sg63
g3377
sg56
(lp3392
g49
(g50
g51
NtRp3393
(dp3394
g54
(dp3395
g62
I3
ssg63
g3389
sg56
(lp3396
S''
asbasbasbag49
(g65
g51
NtRp3397
(dp3398
g54
(dp3399
sg63
g3313
sg56
(lp3400
g49
(g70
g51
NtRp3401
(dp3402
g54
(dp3403
g74
g75
ssg63
g3397
sg56
(lp3404
g382
asbag49
(g70
g51
NtRp3405
(dp3406
g54
(dp3407
g81
g82
ssg63
g3397
sg56
(lp3408
S':'
asbag49
(g70
g51
NtRp3409
(dp3410
g54
(dp3411
sg63
g3397
sg56
(lp3412
g49
(g50
g51
NtRp3413
(dp3414
g54
(dp3415
g62
I3
ssg63
g3409
sg56
(lp3416
S'/'
asbasbasbag49
(g65
g51
NtRp3417
(dp3418
g54
(dp3419
sg63
g3313
sg56
(lp3420
g49
(g70
g51
NtRp3421
(dp3422
g54
(dp3423
g74
g75
ssg63
g3417
sg56
(lp3424
g403
asbag49
(g70
g51
NtRp3425
(dp3426
g54
(dp3427
g81
g82
ssg63
g3417
sg56
(lp3428
S':'
asbag49
(g70
g51
NtRp3429
(dp3430
g54
(dp3431
sg63
g3417
sg56
(lp3432
g49
(g50
g51
NtRp3433
(dp3434
g54
(dp3435
g62
I3
ssg63
g3429
sg56
(lp3436
S''
asbasbasbag49
(g65
g51
NtRp3437
(dp3438
g54
(dp3439
sg63
g3313
sg56
(lp3440
g49
(g70
g51
NtRp3441
(dp3442
g54
(dp3443
g74
g75
ssg63
g3437
sg56
(lp3444
g424
asbag49
(g70
g51
NtRp3445
(dp3446
g54
(dp3447
g81
g82
ssg63
g3437
sg56
(lp3448
S':'
asbag49
(g70
g51
NtRp3449
(dp3450
g54
(dp3451
sg63
g3437
sg56
(lp3452
g49
(g50
g51
NtRp3453
(dp3454
g54
(dp3455
g62
I3
ssg63
g3449
sg56
(lp3456
S''
asbasbasbasbasbasbasbasbasbasbasbag49
(g65
g51
NtRp3457
(dp3458
g54
(dp3459
sg63
g3243
sg56
(lp3460
g49
(g70
g51
NtRp3461
(dp3462
g54
(dp3463
g74
g75
ssg63
g3457
sg56
(lp3464
S'delimiters'
p3465
asbag49
(g70
g51
NtRp3466
(dp3467
g54
(dp3468
g81
g82
ssg63
g3457
sg56
(lp3469
S':'
asbag49
(g70
g51
NtRp3470
(dp3471
g54
(dp3472
sg63
g3457
sg56
(lp3473
g49
(g50
g51
NtRp3474
(dp3475
g54
(dp3476
g62
I5
ssg63
g3470
sg56
(lp3477
g49
(g58
g51
NtRp3478
(dp3479
g54
(dp3480
g62
I4
ssg63
Nsg56
(lp3481
g49
(g65
g51
NtRp3482
(dp3483
g54
(dp3484
sg63
g3478
sg56
(lp3485
g49
(g70
g51
NtRp3486
(dp3487
g54
(dp3488
sg63
g3482
sg56
(lp3489
g49
(g50
g51
NtRp3490
(dp3491
g54
(dp3492
g62
I4
ssg63
g3486
sg56
(lp3493
S'{{'
p3494
asbasbasbag49
(g65
g51
NtRp3495
(dp3496
g54
(dp3497
sg63
g3478
sg56
(lp3498
g49
(g70
g51
NtRp3499
(dp3500
g54
(dp3501
sg63
g3495
sg56
(lp3502
g49
(g50
g51
NtRp3503
(dp3504
g54
(dp3505
g62
I4
ssg63
g3499
sg56
(lp3506
S'}}'
p3507
asbasbasbasbasbasbasbag49
(g65
g51
NtRp3508
(dp3509
g54
(dp3510
sg63
g3243
sg56
(lp3511
g49
(g70
g51
NtRp3512
(dp3513
g54
(dp3514
g74
g75
ssg63
g3508
sg56
(lp3515
S'files'
p3516
asbag49
(g70
g51
NtRp3517
(dp3518
g54
(dp3519
g81
g82
ssg63
g3508
sg56
(lp3520
S':'
asbag49
(g70
g51
NtRp3521
(dp3522
g54
(dp3523
sg63
g3508
sg56
(lp3524
g49
(g50
g51
NtRp3525
(dp3526
g54
(dp3527
g62
I5
ssg63
g3521
sg56
(lp3528
g49
(g58
g51
NtRp3529
(dp3530
g54
(dp3531
g62
I4
ssg63
Nsg56
(lp3532
g49
(g65
g51
NtRp3533
(dp3534
g54
(dp3535
sg63
g3529
sg56
(lp3536
g49
(g70
g51
NtRp3537
(dp3538
g54
(dp3539
sg63
g3533
sg56
(lp3540
g49
(g50
g51
NtRp3541
(dp3542
g54
(dp3543
g62
I4
ssg63
g3537
sg56
(lp3544
S'/hellow/static/js/jquery.js'
p3545
asbasbasbag49
(g65
g51
NtRp3546
(dp3547
g54
(dp3548
sg63
g3529
sg56
(lp3549
g49
(g70
g51
NtRp3550
(dp3551
g54
(dp3552
sg63
g3546
sg56
(lp3553
g49
(g50
g51
NtRp3554
(dp3555
g54
(dp3556
g62
I4
ssg63
g3550
sg56
(lp3557
S'/hellow/static/css/calendar.css'
p3558
asbasbasbag49
(g65
g51
NtRp3559
(dp3560
g54
(dp3561
sg63
g3529
sg56
(lp3562
g49
(g70
g51
NtRp3563
(dp3564
g54
(dp3565
sg63
g3559
sg56
(lp3566
g49
(g50
g51
NtRp3567
(dp3568
g54
(dp3569
g62
I4
ssg63
g3563
sg56
(lp3570
S'/hellow/static/js/calendar.js'
p3571
asbasbasbag49
(g65
g51
NtRp3572
(dp3573
g54
(dp3574
sg63
g3529
sg56
(lp3575
g49
(g70
g51
NtRp3576
(dp3577
g54
(dp3578
sg63
g3572
sg56
(lp3579
g49
(g50
g51
NtRp3580
(dp3581
g54
(dp3582
g62
I4
ssg63
g3576
sg56
(lp3583
S'/hellow/static/js/web2py.js'
p3584
asbasbasbag49
(g65
g51
NtRp3585
(dp3586
g54
(dp3587
sg63
g3529
sg56
(lp3588
g49
(g70
g51
NtRp3589
(dp3590
g54
(dp3591
sg63
g3585
sg56
(lp3592
g49
(g50
g51
NtRp3593
(dp3594
g54
(dp3595
g62
I4
ssg63
g3589
sg56
(lp3596
S'/hellow/static/css/web2py.css'
p3597
asbasbasbag49
(g65
g51
NtRp3598
(dp3599
g54
(dp3600
sg63
g3529
sg56
(lp3601
g49
(g70
g51
NtRp3602
(dp3603
g54
(dp3604
sg63
g3598
sg56
(lp3605
g49
(g50
g51
NtRp3606
(dp3607
g54
(dp3608
g62
I4
ssg63
g3602
sg56
(lp3609
S'/hellow/static/css/bootstrap.min.css'
p3610
asbasbasbag49
(g65
g51
NtRp3611
(dp3612
g54
(dp3613
sg63
g3529
sg56
(lp3614
g49
(g70
g51
NtRp3615
(dp3616
g54
(dp3617
sg63
g3611
sg56
(lp3618
g49
(g50
g51
NtRp3619
(dp3620
g54
(dp3621
g62
I4
ssg63
g3615
sg56
(lp3622
S'/hellow/static/css/bootstrap-responsive.min.css'
p3623
asbasbasbag49
(g65
g51
NtRp3624
(dp3625
g54
(dp3626
sg63
g3529
sg56
(lp3627
g49
(g70
g51
NtRp3628
(dp3629
g54
(dp3630
sg63
g3624
sg56
(lp3631
g49
(g50
g51
NtRp3632
(dp3633
g54
(dp3634
g62
I4
ssg63
g3628
sg56
(lp3635
S'/hellow/static/css/web2py_bootstrap.css'
p3636
asbasbasbasbasbasbasbag49
(g65
g51
NtRp3637
(dp3638
g54
(dp3639
sg63
g3243
sg56
(lp3640
g49
(g70
g51
NtRp3641
(dp3642
g54
(dp3643
g74
g75
ssg63
g3637
sg56
(lp3644
S'flash'
p3645
asbag49
(g70
g51
NtRp3646
(dp3647
g54
(dp3648
g81
g82
ssg63
g3637
sg56
(lp3649
S':'
asbag49
(g70
g51
NtRp3650
(dp3651
g54
(dp3652
sg63
g3637
sg56
(lp3653
g49
(g50
g51
NtRp3654
(dp3655
g54
(dp3656
g62
I5
ssg63
g3650
sg56
(lp3657
S'please fill the form'
p3658
asbasbasbag49
(g65
g51
NtRp3659
(dp3660
g54
(dp3661
sg63
g3243
sg56
(lp3662
g49
(g70
g51
NtRp3663
(dp3664
g54
(dp3665
g74
g75
ssg63
g3659
sg56
(lp3666
S'generic_patterns'
p3667
asbag49
(g70
g51
NtRp3668
(dp3669
g54
(dp3670
g81
g82
ssg63
g3659
sg56
(lp3671
S':'
asbag49
(g70
g51
NtRp3672
(dp3673
g54
(dp3674
sg63
g3659
sg56
(lp3675
g49
(g50
g51
NtRp3676
(dp3677
g54
(dp3678
g62
I5
ssg63
g3672
sg56
(lp3679
g49
(g58
g51
NtRp3680
(dp3681
g54
(dp3682
g62
I4
ssg63
Nsg56
(lp3683
g49
(g65
g51
NtRp3684
(dp3685
g54
(dp3686
sg63
g3680
sg56
(lp3687
g49
(g70
g51
NtRp3688
(dp3689
g54
(dp3690
sg63
g3684
sg56
(lp3691
g49
(g50
g51
NtRp3692
(dp3693
g54
(dp3694
g62
I4
ssg63
g3688
sg56
(lp3695
S'*'
asbasbasbasbasbasbasbag49
(g65
g51
NtRp3696
(dp3697
g54
(dp3698
sg63
g3243
sg56
(lp3699
g49
(g70
g51
NtRp3700
(dp3701
g54
(dp3702
g74
g75
ssg63
g3696
sg56
(lp3703
S'google_analytics_id'
p3704
asbag49
(g70
g51
NtRp3705
(dp3706
g54
(dp3707
g81
g82
ssg63
g3696
sg56
(lp3708
S':'
asbag49
(g70
g51
NtRp3709
(dp3710
g54
(dp3711
sg63
g3696
sg56
(lp3712
g49
(g50
g51
NtRp3713
(dp3714
g54
(dp3715
g62
I5
ssg63
g3709
sg56
(lp3716
S'None'
p3717
asbasbasbag49
(g65
g51
NtRp3718
(dp3719
g54
(dp3720
sg63
g3243
sg56
(lp3721
g49
(g70
g51
NtRp3722
(dp3723
g54
(dp3724
g74
g75
ssg63
g3718
sg56
(lp3725
S'headers'
p3726
asbag49
(g70
g51
NtRp3727
(dp3728
g54
(dp3729
g81
g82
ssg63
g3718
sg56
(lp3730
S':'
asbag49
(g70
g51
NtRp3731
(dp3732
g54
(dp3733
sg63
g3718
sg56
(lp3734
g49
(g50
g51
NtRp3735
(dp3736
g54
(dp3737
g62
I5
ssg63
g3731
sg56
(lp3738
g49
(g58
g51
NtRp3739
(dp3740
g54
(dp3741
g62
I4
ssg63
Nsg56
(lp3742
g49
(g65
g51
NtRp3743
(dp3744
g54
(dp3745
sg63
g3739
sg56
(lp3746
g49
(g70
g51
NtRp3747
(dp3748
g54
(dp3749
g74
g75
ssg63
g3743
sg56
(lp3750
S'X-Powered-By'
p3751
asbag49
(g70
g51
NtRp3752
(dp3753
g54
(dp3754
g81
g82
ssg63
g3743
sg56
(lp3755
S':'
asbag49
(g70
g51
NtRp3756
(dp3757
g54
(dp3758
sg63
g3743
sg56
(lp3759
g49
(g50
g51
NtRp3760
(dp3761
g54
(dp3762
g62
I4
ssg63
g3756
sg56
(lp3763
S'web2py'
p3764
asbasbasbasbasbasbasbag49
(g65
g51
NtRp3765
(dp3766
g54
(dp3767
sg63
g3243
sg56
(lp3768
g49
(g70
g51
NtRp3769
(dp3770
g54
(dp3771
g74
g75
ssg63
g3765
sg56
(lp3772
S'logo'
p3773
asbag49
(g70
g51
NtRp3774
(dp3775
g54
(dp3776
g81
g82
ssg63
g3765
sg56
(lp3777
S':'
asbag49
(g70
g51
NtRp3778
(dp3779
g54
(dp3780
sg63
g3765
sg56
(lp3781
g49
(g50
g51
NtRp3782
(dp3783
g54
(dp3784
g62
I5
ssg63
g3778
sg56
(lp3785
g49
(cgluon.html
A
p3786
g51
NtRp3787
(dp3788
g54
(dp3789
S'_class'
p3790
S'brand'
p3791
sS'_href'
p3792
S'http://www.web2py.com/'
p3793
ssg63
Nsg56
(lp3794
g49
(cgluon.html
B
p3795
g51
NtRp3796
(dp3797
g54
(dp3798
sg63
g3787
sg56
(lp3799
S'web'
p3800
ag49
(cgluon.html
SPAN
p3801
g51
NtRp3802
(dp3803
g54
(dp3804
sg63
g3796
sg56
(lp3805
I2
asbaS'py'
p3806
asbacgluon.html
XML_unpickle
p3807
(S's\r\x00\x00\x00&trade;&nbsp;'
tRp3808
asbasbasbasbag49
(g65
g51
NtRp3809
(dp3810
g54
(dp3811
sg63
g3243
sg56
(lp3812
g49
(g70
g51
NtRp3813
(dp3814
g54
(dp3815
g74
g75
ssg63
g3809
sg56
(lp3816
S'menu'
p3817
asbag49
(g70
g51
NtRp3818
(dp3819
g54
(dp3820
g81
g82
ssg63
g3809
sg56
(lp3821
S':'
asbag49
(g70
g51
NtRp3822
(dp3823
g54
(dp3824
sg63
g3809
sg56
(lp3825
g49
(g50
g51
NtRp3826
(dp3827
g54
(dp3828
g62
I5
ssg63
g3822
sg56
(lp3829
g49
(g58
g51
NtRp3830
(dp3831
g54
(dp3832
g62
I4
ssg63
Nsg56
(lp3833
g49
(g65
g51
NtRp3834
(dp3835
g54
(dp3836
sg63
g3830
sg56
(lp3837
g49
(g70
g51
NtRp3838
(dp3839
g54
(dp3840
sg63
g3834
sg56
(lp3841
g49
(g50
g51
NtRp3842
(dp3843
g54
(dp3844
g62
I4
ssg63
g3838
sg56
(lp3845
g49
(g58
g51
NtRp3846
(dp3847
g54
(dp3848
g62
I3
ssg63
Nsg56
(lp3849
g49
(g65
g51
NtRp3850
(dp3851
g54
(dp3852
sg63
g3846
sg56
(lp3853
g49
(g70
g51
NtRp3854
(dp3855
g54
(dp3856
sg63
g3850
sg56
(lp3857
g49
(g50
g51
NtRp3858
(dp3859
g54
(dp3860
g62
I3
ssg63
g3854
sg56
(lp3861
cgluon.languages
lazyT_unpickle
p3862
(S't\x04\x00\x00\x00Home'
tRp3863
asbasbasbag49
(g65
g51
NtRp3864
(dp3865
g54
(dp3866
sg63
g3846
sg56
(lp3867
g49
(g70
g51
NtRp3868
(dp3869
g54
(dp3870
sg63
g3864
sg56
(lp3871
g49
(g50
g51
NtRp3872
(dp3873
g54
(dp3874
g62
I3
ssg63
g3868
sg56
(lp3875
g92
asbasbasbag49
(g65
g51
NtRp3876
(dp3877
g54
(dp3878
sg63
g3846
sg56
(lp3879
g49
(g70
g51
NtRp3880
(dp3881
g54
(dp3882
sg63
g3876
sg56
(lp3883
g49
(g50
g51
NtRp3884
(dp3885
g54
(dp3886
g62
I3
ssg63
g3880
sg56
(lp3887
S'/hellow/default/index'
p3888
asbasbasbag49
(g65
g51
NtRp3889
(dp3890
g54
(dp3891
sg63
g3846
sg56
(lp3892
g49
(g70
g51
NtRp3893
(dp3894
g54
(dp3895
sg63
g3889
sg56
(lp3896
g49
(g50
g51
NtRp3897
(dp3898
g54
(dp3899
g62
I3
ssg63
g3893
sg56
(lp3900
g49
(g58
g51
NtRp3901
(dp3902
g54
(dp3903
g62
I2
ssg63
Nsg56
(lp3904
sbasbasbasbasbasbasbasbag49
(g65
g51
NtRp3905
(dp3906
g54
(dp3907
sg63
g3830
sg56
(lp3908
g49
(g70
g51
NtRp3909
(dp3910
g54
(dp3911
sg63
g3905
sg56
(lp3912
g49
(g50
g51
NtRp3913
(dp3914
g54
(dp3915
g62
I4
ssg63
g3909
sg56
(lp3916
g49
(g58
g51
NtRp3917
(dp3918
g54
(dp3919
g62
I3
ssg63
Nsg56
(lp3920
g49
(g65
g51
NtRp3921
(dp3922
g54
(dp3923
sg63
g3917
sg56
(lp3924
g49
(g70
g51
NtRp3925
(dp3926
g54
(dp3927
sg63
g3921
sg56
(lp3928
g49
(g50
g51
NtRp3929
(dp3930
g54
(dp3931
g62
I3
ssg63
g3925
sg56
(lp3932
g49
(g3801
g51
NtRp3933
(dp3934
g54
(dp3935
g3790
S'highlighted'
p3936
ssg63
g49
(g3786
g51
NtRp3937
(dp3938
g54
(dp3939
g3792
S'http://web2py.com'
p3940
ssg63
g49
(cgluon.html
LI
p3941
g51
NtRp3942
(dp3943
g54
(dp3944
g3790
S'dropdown'
p3945
ssg63
g49
(cgluon.html
UL
p3946
g51
NtRp3947
(dp3948
g54
(dp3949
S'mobile'
p3950
I00
sS'ul_class'
p3951
S'dropdown-menu'
p3952
sS'li_last'
p3953
S'web2py-menu-last'
p3954
sS'li_class'
p3955
g3945
sS'li_first'
p3956
S'web2py-menu-first'
p3957
sg3790
S'nav'
p3958
sS'li_active'
p3959
S'web2py-menu-active'
p3960
ssg63
Nsg56
(lp3961
g49
(g3941
g51
NtRp3962
(dp3963
g54
(dp3964
g3790
g3957
ssg63
g3947
sg56
(lp3965
g49
(g3786
g51
NtRp3966
(dp3967
g54
(dp3968
g3792
g3888
ssg63
g3962
sg56
(lp3969
g3863
asbasbag3942
asbsg56
(lp3970
g3937
ag49
(g3946
g51
NtRp3971
(dp3972
g54
(dp3973
g3790
g3952
ssg63
g3942
sg56
(lp3974
g49
(g3941
g51
NtRp3975
(dp3976
g54
(dp3977
sg63
g3971
sg56
(lp3978
g49
(g3786
g51
NtRp3979
(dp3980
g54
(dp3981
g3792
S'/admin/default/site'
p3982
ssg63
g3975
sg56
(lp3983
g3862
(S's\x08\x00\x00\x00My Sites'
tRp3984
asbasbag49
(g3941
g51
NtRp3985
(dp3986
g54
(dp3987
g3790
g3945
ssg63
g3971
sg56
(lp3988
g49
(g3786
g51
NtRp3989
(dp3990
g54
(dp3991
g3792
S'/admin/default/design/hellow'
p3992
ssg63
g3985
sg56
(lp3993
g3862
(S's\x08\x00\x00\x00This App'
tRp3994
asbag49
(g3946
g51
NtRp3995
(dp3996
g54
(dp3997
g3790
g3952
ssg63
g3985
sg56
(lp3998
g49
(g3941
g51
NtRp3999
(dp4000
g54
(dp4001
sg63
g3995
sg56
(lp4002
g49
(g3786
g51
NtRp4003
(dp4004
g54
(dp4005
g3792
S'/admin/default/edit/hellow/controllers/game.py'
p4006
ssg63
g3999
sg56
(lp4007
g3862
(S't\n\x00\x00\x00Controller'
tRp4008
asbasbag49
(g3941
g51
NtRp4009
(dp4010
g54
(dp4011
sg63
g3995
sg56
(lp4012
g49
(g3786
g51
NtRp4013
(dp4014
g54
(dp4015
g3792
S'/admin/default/edit/hellow/views/game/show.html'
p4016
ssg63
g4009
sg56
(lp4017
g3862
(S't\x04\x00\x00\x00View'
tRp4018
asbasbag49
(g3941
g51
NtRp4019
(dp4020
g54
(dp4021
sg63
g3995
sg56
(lp4022
g49
(g3786
g51
NtRp4023
(dp4024
g54
(dp4025
g3792
S'/admin/default/edit/hellow/views/layout.html'
p4026
ssg63
g4019
sg56
(lp4027
g3862
(S't\x06\x00\x00\x00Layout'
tRp4028
asbasbag49
(g3941
g51
NtRp4029
(dp4030
g54
(dp4031
sg63
g3995
sg56
(lp4032
g49
(g3786
g51
NtRp4033
(dp4034
g54
(dp4035
g3792
S'/admin/default/edit/hellow/static/css/web2py.css'
p4036
ssg63
g4029
sg56
(lp4037
g3862
(S't\n\x00\x00\x00Stylesheet'
tRp4038
asbasbag49
(g3941
g51
NtRp4039
(dp4040
g54
(dp4041
sg63
g3995
sg56
(lp4042
g49
(g3786
g51
NtRp4043
(dp4044
g54
(dp4045
g3792
S'/admin/default/edit/hellow/models/db.py'
p4046
ssg63
g4039
sg56
(lp4047
g3862
(S's\x08\x00\x00\x00DB Model'
tRp4048
asbasbag49
(g3941
g51
NtRp4049
(dp4050
g54
(dp4051
sg63
g3995
sg56
(lp4052
g49
(g3786
g51
NtRp4053
(dp4054
g54
(dp4055
g3792
S'/admin/default/edit/hellow/models/menu.py'
p4056
ssg63
g4049
sg56
(lp4057
g3862
(S's\n\x00\x00\x00Menu Model'
tRp4058
asbasbag49
(g3941
g51
NtRp4059
(dp4060
g54
(dp4061
sg63
g3995
sg56
(lp4062
g49
(g3786
g51
NtRp4063
(dp4064
g54
(dp4065
g3792
S'/hellow/appadmin/index'
p4066
ssg63
g4059
sg56
(lp4067
g3862
(S't\x08\x00\x00\x00Database'
tRp4068
asbasbag49
(g3941
g51
NtRp4069
(dp4070
g54
(dp4071
sg63
g3995
sg56
(lp4072
g49
(g3786
g51
NtRp4073
(dp4074
g54
(dp4075
g3792
S'/admin/default/errors/hellow'
p4076
ssg63
g4069
sg56
(lp4077
g3862
(S't\x06\x00\x00\x00Errors'
tRp4078
asbasbag49
(g3941
g51
NtRp4079
(dp4080
g54
(dp4081
sg63
g3995
sg56
(lp4082
g49
(g3786
g51
NtRp4083
(dp4084
g54
(dp4085
g3792
S'/admin/default/about/hellow'
p4086
ssg63
g4079
sg56
(lp4087
g3862
(S't\x05\x00\x00\x00About'
tRp4088
asbasbasbasbag49
(g3941
g51
NtRp4089
(dp4090
g54
(dp4091
g3790
g3945
ssg63
g3971
sg56
(lp4092
g49
(g3786
g51
NtRp4093
(dp4094
g54
(dp4095
g3792
S'http://www.web2py.com'
p4096
ssg63
g4089
sg56
(lp4097
S'web2py.com'
p4098
asbag49
(g3946
g51
NtRp4099
(dp4100
g54
(dp4101
g3790
g3952
ssg63
g4089
sg56
(lp4102
g49
(g3941
g51
NtRp4103
(dp4104
g54
(dp4105
sg63
g4099
sg56
(lp4106
g49
(g3786
g51
NtRp4107
(dp4108
g54
(dp4109
g3792
S'http://www.web2py.com/examples/default/download'
p4110
ssg63
g4103
sg56
(lp4111
g3862
(S't\x08\x00\x00\x00Download'
tRp4112
asbasbag49
(g3941
g51
NtRp4113
(dp4114
g54
(dp4115
sg63
g4099
sg56
(lp4116
g49
(g3786
g51
NtRp4117
(dp4118
g54
(dp4119
g3792
S'http://www.web2py.com/examples/default/support'
p4120
ssg63
g4113
sg56
(lp4121
g3862
(S't\x07\x00\x00\x00Support'
tRp4122
asbasbag49
(g3941
g51
NtRp4123
(dp4124
g54
(dp4125
sg63
g4099
sg56
(lp4126
g49
(g3786
g51
NtRp4127
(dp4128
g54
(dp4129
g3792
S'http://web2py.com/demo_admin'
p4130
ssg63
g4123
sg56
(lp4131
g3862
(S't\x04\x00\x00\x00Demo'
tRp4132
asbasbag49
(g3941
g51
NtRp4133
(dp4134
g54
(dp4135
sg63
g4099
sg56
(lp4136
g49
(g3786
g51
NtRp4137
(dp4138
g54
(dp4139
g3792
S'http://web2py.com/examples/default/examples'
p4140
ssg63
g4133
sg56
(lp4141
g3862
(S's\x0e\x00\x00\x00Quick Examples'
tRp4142
asbasbag49
(g3941
g51
NtRp4143
(dp4144
g54
(dp4145
sg63
g4099
sg56
(lp4146
g49
(g3786
g51
NtRp4147
(dp4148
g54
(dp4149
g3792
S'http://web2py.com/AlterEgo'
p4150
ssg63
g4143
sg56
(lp4151
g3862
(S't\x03\x00\x00\x00FAQ'
tRp4152
asbasbag49
(g3941
g51
NtRp4153
(dp4154
g54
(dp4155
sg63
g4099
sg56
(lp4156
g49
(g3786
g51
NtRp4157
(dp4158
g54
(dp4159
g3792
S'http://www.web2py.com/examples/default/videos/'
p4160
ssg63
g4153
sg56
(lp4161
g3862
(S't\x06\x00\x00\x00Videos'
tRp4162
asbasbag49
(g3941
g51
NtRp4163
(dp4164
g54
(dp4165
sg63
g4099
sg56
(lp4166
g49
(g3786
g51
NtRp4167
(dp4168
g54
(dp4169
g3792
S'http://web2py.com/appliances'
p4170
ssg63
g4163
sg56
(lp4171
g3862
(S's\x11\x00\x00\x00Free Applications'
tRp4172
asbasbag49
(g3941
g51
NtRp4173
(dp4174
g54
(dp4175
sg63
g4099
sg56
(lp4176
g49
(g3786
g51
NtRp4177
(dp4178
g54
(dp4179
g3792
S'http://web2py.com/plugins'
p4180
ssg63
g4173
sg56
(lp4181
g3862
(S't\x07\x00\x00\x00Plugins'
tRp4182
asbasbag49
(g3941
g51
NtRp4183
(dp4184
g54
(dp4185
sg63
g4099
sg56
(lp4186
g49
(g3786
g51
NtRp4187
(dp4188
g54
(dp4189
g3792
S'http://web2py.com/layouts'
p4190
ssg63
g4183
sg56
(lp4191
g3862
(S't\x07\x00\x00\x00Layouts'
tRp4192
asbasbag49
(g3941
g51
NtRp4193
(dp4194
g54
(dp4195
sg63
g4099
sg56
(lp4196
g49
(g3786
g51
NtRp4197
(dp4198
g54
(dp4199
g3792
S'http://web2pyslices.com/'
p4200
ssg63
g4193
sg56
(lp4201
g3862
(S't\x07\x00\x00\x00Recipes'
tRp4202
asbasbag49
(g3941
g51
NtRp4203
(dp4204
g54
(dp4205
sg63
g4099
sg56
(lp4206
g49
(g3786
g51
NtRp4207
(dp4208
g54
(dp4209
g3792
S'http://web2py.com/semantic'
p4210
ssg63
g4203
sg56
(lp4211
g3862
(S't\x08\x00\x00\x00Semantic'
tRp4212
asbasbasbasbag49
(g3941
g51
NtRp4213
(dp4214
g54
(dp4215
g3790
g3945
ssg63
g3971
sg56
(lp4216
g49
(g3786
g51
NtRp4217
(dp4218
g54
(dp4219
g3792
S'http://www.web2py.com/book'
p4220
ssg63
g4213
sg56
(lp4221
g3862
(S't\r\x00\x00\x00Documentation'
tRp4222
asbag49
(g3946
g51
NtRp4223
(dp4224
g54
(dp4225
g3790
g3952
ssg63
g4213
sg56
(lp4226
g49
(g3941
g51
NtRp4227
(dp4228
g54
(dp4229
sg63
g4223
sg56
(lp4230
g49
(g3786
g51
NtRp4231
(dp4232
g54
(dp4233
g3792
S'http://www.web2py.com/book/default/chapter/00'
p4234
ssg63
g4227
sg56
(lp4235
g3862
(S't\x07\x00\x00\x00Preface'
tRp4236
asbasbag49
(g3941
g51
NtRp4237
(dp4238
g54
(dp4239
sg63
g4223
sg56
(lp4240
g49
(g3786
g51
NtRp4241
(dp4242
g54
(dp4243
g3792
S'http://www.web2py.com/book/default/chapter/01'
p4244
ssg63
g4237
sg56
(lp4245
g3862
(S't\x0c\x00\x00\x00Introduction'
tRp4246
asbasbag49
(g3941
g51
NtRp4247
(dp4248
g54
(dp4249
sg63
g4223
sg56
(lp4250
g49
(g3786
g51
NtRp4251
(dp4252
g54
(dp4253
g3792
S'http://www.web2py.com/book/default/chapter/02'
p4254
ssg63
g4247
sg56
(lp4255
g3862
(S't\x06\x00\x00\x00Python'
tRp4256
asbasbag49
(g3941
g51
NtRp4257
(dp4258
g54
(dp4259
sg63
g4223
sg56
(lp4260
g49
(g3786
g51
NtRp4261
(dp4262
g54
(dp4263
g3792
S'http://www.web2py.com/book/default/chapter/03'
p4264
ssg63
g4257
sg56
(lp4265
g3862
(S't\x08\x00\x00\x00Overview'
tRp4266
asbasbag49
(g3941
g51
NtRp4267
(dp4268
g54
(dp4269
sg63
g4223
sg56
(lp4270
g49
(g3786
g51
NtRp4271
(dp4272
g54
(dp4273
g3792
S'http://www.web2py.com/book/default/chapter/04'
p4274
ssg63
g4267
sg56
(lp4275
g3862
(S's\x08\x00\x00\x00The Core'
tRp4276
asbasbag49
(g3941
g51
NtRp4277
(dp4278
g54
(dp4279
sg63
g4223
sg56
(lp4280
g49
(g3786
g51
NtRp4281
(dp4282
g54
(dp4283
g3792
S'http://www.web2py.com/book/default/chapter/05'
p4284
ssg63
g4277
sg56
(lp4285
g3862
(S's\t\x00\x00\x00The Views'
tRp4286
asbasbag49
(g3941
g51
NtRp4287
(dp4288
g54
(dp4289
sg63
g4223
sg56
(lp4290
g49
(g3786
g51
NtRp4291
(dp4292
g54
(dp4293
g3792
S'http://www.web2py.com/book/default/chapter/06'
p4294
ssg63
g4287
sg56
(lp4295
g3862
(S't\x08\x00\x00\x00Database'
tRp4296
asbasbag49
(g3941
g51
NtRp4297
(dp4298
g54
(dp4299
sg63
g4223
sg56
(lp4300
g49
(g3786
g51
NtRp4301
(dp4302
g54
(dp4303
g3792
S'http://www.web2py.com/book/default/chapter/07'
p4304
ssg63
g4297
sg56
(lp4305
g3862
(S's\x14\x00\x00\x00Forms and Validators'
tRp4306
asbasbag49
(g3941
g51
NtRp4307
(dp4308
g54
(dp4309
sg63
g4223
sg56
(lp4310
g49
(g3786
g51
NtRp4311
(dp4312
g54
(dp4313
g3792
S'http://www.web2py.com/book/default/chapter/08'
p4314
ssg63
g4307
sg56
(lp4315
g3862
(S's\r\x00\x00\x00Email and SMS'
tRp4316
asbasbag49
(g3941
g51
NtRp4317
(dp4318
g54
(dp4319
sg63
g4223
sg56
(lp4320
g49
(g3786
g51
NtRp4321
(dp4322
g54
(dp4323
g3792
S'http://www.web2py.com/book/default/chapter/09'
p4324
ssg63
g4317
sg56
(lp4325
g3862
(S's\x0e\x00\x00\x00Access Control'
tRp4326
asbasbag49
(g3941
g51
NtRp4327
(dp4328
g54
(dp4329
sg63
g4223
sg56
(lp4330
g49
(g3786
g51
NtRp4331
(dp4332
g54
(dp4333
g3792
S'http://www.web2py.com/book/default/chapter/10'
p4334
ssg63
g4327
sg56
(lp4335
g3862
(S't\x08\x00\x00\x00Services'
tRp4336
asbasbag49
(g3941
g51
NtRp4337
(dp4338
g54
(dp4339
sg63
g4223
sg56
(lp4340
g49
(g3786
g51
NtRp4341
(dp4342
g54
(dp4343
g3792
S'http://www.web2py.com/book/default/chapter/11'
p4344
ssg63
g4337
sg56
(lp4345
g3862
(S's\x0c\x00\x00\x00Ajax Recipes'
tRp4346
asbasbag49
(g3941
g51
NtRp4347
(dp4348
g54
(dp4349
sg63
g4223
sg56
(lp4350
g49
(g3786
g51
NtRp4351
(dp4352
g54
(dp4353
g3792
S'http://www.web2py.com/book/default/chapter/12'
p4354
ssg63
g4347
sg56
(lp4355
g3862
(S's\x16\x00\x00\x00Components and Plugins'
tRp4356
asbasbag49
(g3941
g51
NtRp4357
(dp4358
g54
(dp4359
sg63
g4223
sg56
(lp4360
g49
(g3786
g51
NtRp4361
(dp4362
g54
(dp4363
g3792
S'http://www.web2py.com/book/default/chapter/13'
p4364
ssg63
g4357
sg56
(lp4365
g3862
(S's\x12\x00\x00\x00Deployment Recipes'
tRp4366
asbasbag49
(g3941
g51
NtRp4367
(dp4368
g54
(dp4369
sg63
g4223
sg56
(lp4370
g49
(g3786
g51
NtRp4371
(dp4372
g54
(dp4373
g3792
S'http://www.web2py.com/book/default/chapter/14'
p4374
ssg63
g4367
sg56
(lp4375
g3862
(S's\r\x00\x00\x00Other Recipes'
tRp4376
asbasbag49
(g3941
g51
NtRp4377
(dp4378
g54
(dp4379
sg63
g4223
sg56
(lp4380
g49
(g3786
g51
NtRp4381
(dp4382
g54
(dp4383
g3792
S'http://stores.lulu.com/web2py'
p4384
ssg63
g4377
sg56
(lp4385
g3862
(S's\r\x00\x00\x00Buy this book'
tRp4386
asbasbasbasbag49
(g3941
g51
NtRp4387
(dp4388
g54
(dp4389
g3790
g3945
ssg63
g3971
sg56
(lp4390
g49
(g3786
g51
NtRp4391
(dp4392
g54
(dp4393
S'_onclick'
p4394
S'javascript:void(0);return false;'
p4395
sg3792
S'#'
ssg63
g4387
sg56
(lp4396
g3862
(S't\t\x00\x00\x00Community'
tRp4397
asbag49
(g3946
g51
NtRp4398
(dp4399
g54
(dp4400
g3790
g3952
ssg63
g4387
sg56
(lp4401
g49
(g3941
g51
NtRp4402
(dp4403
g54
(dp4404
sg63
g4398
sg56
(lp4405
g49
(g3786
g51
NtRp4406
(dp4407
g54
(dp4408
g3792
S'http://www.web2py.com/examples/default/usergroups'
p4409
ssg63
g4402
sg56
(lp4410
g3862
(S't\x06\x00\x00\x00Groups'
tRp4411
asbasbag49
(g3941
g51
NtRp4412
(dp4413
g54
(dp4414
sg63
g4398
sg56
(lp4415
g49
(g3786
g51
NtRp4416
(dp4417
g54
(dp4418
g3792
S'http://twitter.com/web2py'
p4419
ssg63
g4412
sg56
(lp4420
g3862
(S't\x07\x00\x00\x00Twitter'
tRp4421
asbasbag49
(g3941
g51
NtRp4422
(dp4423
g54
(dp4424
sg63
g4398
sg56
(lp4425
g49
(g3786
g51
NtRp4426
(dp4427
g54
(dp4428
g3792
S'http://webchat.freenode.net/?channels=web2py'
p4429
ssg63
g4422
sg56
(lp4430
g3862
(S's\t\x00\x00\x00Live Chat'
tRp4431
asbasbasbasbag49
(g3941
g51
NtRp4432
(dp4433
g54
(dp4434
g3790
g3945
ssg63
g3971
sg56
(lp4435
g49
(g3786
g51
NtRp4436
(dp4437
g54
(dp4438
g4394
g4395
sg3792
S'#'
ssg63
g4432
sg56
(lp4439
g3862
(S't\x07\x00\x00\x00Plugins'
tRp4440
asbag49
(g3946
g51
NtRp4441
(dp4442
g54
(dp4443
g3790
g3952
ssg63
g4432
sg56
(lp4444
g49
(g3941
g51
NtRp4445
(dp4446
g54
(dp4447
sg63
g4441
sg56
(lp4448
g49
(g3786
g51
NtRp4449
(dp4450
g54
(dp4451
g3792
S'http://web2py.com/examples/default/download'
p4452
ssg63
g4445
sg56
(lp4453
S'plugin_wiki'
p4454
asbasbag49
(g3941
g51
NtRp4455
(dp4456
g54
(dp4457
sg63
g4441
sg56
(lp4458
g49
(g3786
g51
NtRp4459
(dp4460
g54
(dp4461
g3792
g4180
ssg63
g4455
sg56
(lp4462
g3862
(S's\r\x00\x00\x00Other Plugins'
tRp4463
asbasbag49
(g3941
g51
NtRp4464
(dp4465
g54
(dp4466
sg63
g4441
sg56
(lp4467
g49
(g3786
g51
NtRp4468
(dp4469
g54
(dp4470
g3792
g4190
ssg63
g4464
sg56
(lp4471
g3862
(S's\x0e\x00\x00\x00Layout Plugins'
tRp4472
asbasbasbasbasbasbsg56
(lp4473
g3933
asbsg56
(lp4474
g3764
asbasbasbasbag49
(g65
g51
NtRp4475
(dp4476
g54
(dp4477
sg63
g3917
sg56
(lp4478
g49
(g70
g51
NtRp4479
(dp4480
g54
(dp4481
sg63
g4475
sg56
(lp4482
g49
(g50
g51
NtRp4483
(dp4484
g54
(dp4485
g62
I3
ssg63
g4479
sg56
(lp4486
g92
asbasbasbag49
(g65
g51
NtRp4487
(dp4488
g54
(dp4489
sg63
g3917
sg56
(lp4490
g49
(g70
g51
NtRp4491
(dp4492
g54
(dp4493
sg63
g4487
sg56
(lp4494
g49
(g50
g51
NtRp4495
(dp4496
g54
(dp4497
g62
I3
ssg63
g4491
sg56
(lp4498
g3940
asbasbasbag49
(g65
g51
NtRp4499
(dp4500
g54
(dp4501
sg63
g3917
sg56
(lp4502
g49
(g70
g51
NtRp4503
(dp4504
g54
(dp4505
sg63
g4499
sg56
(lp4506
g49
(g50
g51
NtRp4507
(dp4508
g54
(dp4509
g62
I3
ssg63
g4503
sg56
(lp4510
g49
(g58
g51
NtRp4511
(dp4512
g54
(dp4513
g62
I2
ssg63
Nsg56
(lp4514
g49
(g65
g51
NtRp4515
(dp4516
g54
(dp4517
sg63
g4511
sg56
(lp4518
g49
(g70
g51
NtRp4519
(dp4520
g54
(dp4521
sg63
g4515
sg56
(lp4522
g49
(g50
g51
NtRp4523
(dp4524
g54
(dp4525
g62
I2
ssg63
g4519
sg56
(lp4526
g49
(g58
g51
NtRp4527
(dp4528
g54
(dp4529
g62
I1
ssg63
Nsg56
(lp4530
g49
(g65
g51
NtRp4531
(dp4532
g54
(dp4533
sg63
g4527
sg56
(lp4534
g49
(g70
g51
NtRp4535
(dp4536
g54
(dp4537
sg63
g4531
sg56
(lp4538
g49
(g50
g51
NtRp4539
(dp4540
g54
(dp4541
g62
I1
ssg63
g4535
sg56
(lp4542
g3984
asbasbasbag49
(g65
g51
NtRp4543
(dp4544
g54
(dp4545
sg63
g4527
sg56
(lp4546
g49
(g70
g51
NtRp4547
(dp4548
g54
(dp4549
sg63
g4543
sg56
(lp4550
g49
(g50
g51
NtRp4551
(dp4552
g54
(dp4553
g62
I1
ssg63
g4547
sg56
(lp4554
I00
asbasbasbag49
(g65
g51
NtRp4555
(dp4556
g54
(dp4557
sg63
g4527
sg56
(lp4558
g49
(g70
g51
NtRp4559
(dp4560
g54
(dp4561
sg63
g4555
sg56
(lp4562
g49
(g50
g51
NtRp4563
(dp4564
g54
(dp4565
g62
I1
ssg63
g4559
sg56
(lp4566
g3982
asbasbasbasbasbasbasbag49
(g65
g51
NtRp4567
(dp4568
g54
(dp4569
sg63
g4511
sg56
(lp4570
g49
(g70
g51
NtRp4571
(dp4572
g54
(dp4573
sg63
g4567
sg56
(lp4574
g49
(g50
g51
NtRp4575
(dp4576
g54
(dp4577
g62
I2
ssg63
g4571
sg56
(lp4578
g49
(g58
g51
NtRp4579
(dp4580
g54
(dp4581
g62
I1
ssg63
Nsg56
(lp4582
g49
(g65
g51
NtRp4583
(dp4584
g54
(dp4585
sg63
g4579
sg56
(lp4586
g49
(g70
g51
NtRp4587
(dp4588
g54
(dp4589
sg63
g4583
sg56
(lp4590
g49
(g50
g51
NtRp4591
(dp4592
g54
(dp4593
g62
I1
ssg63
g4587
sg56
(lp4594
g3994
asbasbasbag49
(g65
g51
NtRp4595
(dp4596
g54
(dp4597
sg63
g4579
sg56
(lp4598
g49
(g70
g51
NtRp4599
(dp4600
g54
(dp4601
sg63
g4595
sg56
(lp4602
g49
(g50
g51
NtRp4603
(dp4604
g54
(dp4605
g62
I1
ssg63
g4599
sg56
(lp4606
I00
asbasbasbag49
(g65
g51
NtRp4607
(dp4608
g54
(dp4609
sg63
g4579
sg56
(lp4610
g49
(g70
g51
NtRp4611
(dp4612
g54
(dp4613
sg63
g4607
sg56
(lp4614
g49
(g50
g51
NtRp4615
(dp4616
g54
(dp4617
g62
I1
ssg63
g4611
sg56
(lp4618
g3992
asbasbasbag49
(g65
g51
NtRp4619
(dp4620
g54
(dp4621
sg63
g4579
sg56
(lp4622
g49
(g70
g51
NtRp4623
(dp4624
g54
(dp4625
sg63
g4619
sg56
(lp4626
g49
(g50
g51
NtRp4627
(dp4628
g54
(dp4629
g62
I1
ssg63
g4623
sg56
(lp4630
(lp4631
(g4008
I00
g4006
tp4632
a(g4018
I00
g4016
tp4633
a(g4028
I00
g4026
tp4634
a(g4038
I00
g4036
tp4635
a(g4048
I00
g4046
tp4636
a(g4058
I00
g4056
tp4637
a(g4068
I00
g4066
tp4638
a(g4078
I00
g4076
tp4639
a(g4088
I00
g4086
tp4640
aasbasbasbasbasbasbasbag49
(g65
g51
NtRp4641
(dp4642
g54
(dp4643
sg63
g4511
sg56
(lp4644
g49
(g70
g51
NtRp4645
(dp4646
g54
(dp4647
sg63
g4641
sg56
(lp4648
g49
(g50
g51
NtRp4649
(dp4650
g54
(dp4651
g62
I2
ssg63
g4645
sg56
(lp4652
g49
(g58
g51
NtRp4653
(dp4654
g54
(dp4655
g62
I1
ssg63
Nsg56
(lp4656
g49
(g65
g51
NtRp4657
(dp4658
g54
(dp4659
sg63
g4653
sg56
(lp4660
g49
(g70
g51
NtRp4661
(dp4662
g54
(dp4663
sg63
g4657
sg56
(lp4664
g49
(g50
g51
NtRp4665
(dp4666
g54
(dp4667
g62
I1
ssg63
g4661
sg56
(lp4668
g4098
asbasbasbag49
(g65
g51
NtRp4669
(dp4670
g54
(dp4671
sg63
g4653
sg56
(lp4672
g49
(g70
g51
NtRp4673
(dp4674
g54
(dp4675
sg63
g4669
sg56
(lp4676
g49
(g50
g51
NtRp4677
(dp4678
g54
(dp4679
g62
I1
ssg63
g4673
sg56
(lp4680
I00
asbasbasbag49
(g65
g51
NtRp4681
(dp4682
g54
(dp4683
sg63
g4653
sg56
(lp4684
g49
(g70
g51
NtRp4685
(dp4686
g54
(dp4687
sg63
g4681
sg56
(lp4688
g49
(g50
g51
NtRp4689
(dp4690
g54
(dp4691
g62
I1
ssg63
g4685
sg56
(lp4692
g4096
asbasbasbag49
(g65
g51
NtRp4693
(dp4694
g54
(dp4695
sg63
g4653
sg56
(lp4696
g49
(g70
g51
NtRp4697
(dp4698
g54
(dp4699
sg63
g4693
sg56
(lp4700
g49
(g50
g51
NtRp4701
(dp4702
g54
(dp4703
g62
I1
ssg63
g4697
sg56
(lp4704
(lp4705
(g4112
I00
g4110
tp4706
a(g4122
I00
g4120
tp4707
a(g4132
I00
g4130
tp4708
a(g4142
I00
g4140
tp4709
a(g4152
I00
g4150
tp4710
a(g4162
I00
g4160
tp4711
a(g4172
I00
g4170
tp4712
a(g4182
I00
g4180
tp4713
a(g4192
I00
g4190
tp4714
a(g4202
I00
g4200
tp4715
a(g4212
I00
g4210
tp4716
aasbasbasbasbasbasbasbag49
(g65
g51
NtRp4717
(dp4718
g54
(dp4719
sg63
g4511
sg56
(lp4720
g49
(g70
g51
NtRp4721
(dp4722
g54
(dp4723
sg63
g4717
sg56
(lp4724
g49
(g50
g51
NtRp4725
(dp4726
g54
(dp4727
g62
I2
ssg63
g4721
sg56
(lp4728
g49
(g58
g51
NtRp4729
(dp4730
g54
(dp4731
g62
I1
ssg63
Nsg56
(lp4732
g49
(g65
g51
NtRp4733
(dp4734
g54
(dp4735
sg63
g4729
sg56
(lp4736
g49
(g70
g51
NtRp4737
(dp4738
g54
(dp4739
sg63
g4733
sg56
(lp4740
g49
(g50
g51
NtRp4741
(dp4742
g54
(dp4743
g62
I1
ssg63
g4737
sg56
(lp4744
g4222
asbasbasbag49
(g65
g51
NtRp4745
(dp4746
g54
(dp4747
sg63
g4729
sg56
(lp4748
g49
(g70
g51
NtRp4749
(dp4750
g54
(dp4751
sg63
g4745
sg56
(lp4752
g49
(g50
g51
NtRp4753
(dp4754
g54
(dp4755
g62
I1
ssg63
g4749
sg56
(lp4756
I00
asbasbasbag49
(g65
g51
NtRp4757
(dp4758
g54
(dp4759
sg63
g4729
sg56
(lp4760
g49
(g70
g51
NtRp4761
(dp4762
g54
(dp4763
sg63
g4757
sg56
(lp4764
g49
(g50
g51
NtRp4765
(dp4766
g54
(dp4767
g62
I1
ssg63
g4761
sg56
(lp4768
g4220
asbasbasbag49
(g65
g51
NtRp4769
(dp4770
g54
(dp4771
sg63
g4729
sg56
(lp4772
g49
(g70
g51
NtRp4773
(dp4774
g54
(dp4775
sg63
g4769
sg56
(lp4776
g49
(g50
g51
NtRp4777
(dp4778
g54
(dp4779
g62
I1
ssg63
g4773
sg56
(lp4780
(lp4781
(g4236
I00
g4234
tp4782
a(g4246
I00
g4244
tp4783
a(g4256
I00
g4254
tp4784
a(g4266
I00
g4264
tp4785
a(g4276
I00
g4274
tp4786
a(g4286
I00
g4284
tp4787
a(g4296
I00
g4294
tp4788
a(g4306
I00
g4304
tp4789
a(g4316
I00
g4314
tp4790
a(g4326
I00
g4324
tp4791
a(g4336
I00
g4334
tp4792
a(g4346
I00
g4344
tp4793
a(g4356
I00
g4354
tp4794
a(g4366
I00
g4364
tp4795
a(g4376
I00
g4374
tp4796
a(g4386
I00
g4384
tp4797
aasbasbasbasbasbasbasbag49
(g65
g51
NtRp4798
(dp4799
g54
(dp4800
sg63
g4511
sg56
(lp4801
g49
(g70
g51
NtRp4802
(dp4803
g54
(dp4804
sg63
g4798
sg56
(lp4805
g49
(g50
g51
NtRp4806
(dp4807
g54
(dp4808
g62
I2
ssg63
g4802
sg56
(lp4809
g49
(g58
g51
NtRp4810
(dp4811
g54
(dp4812
g62
I1
ssg63
Nsg56
(lp4813
g49
(g65
g51
NtRp4814
(dp4815
g54
(dp4816
sg63
g4810
sg56
(lp4817
g49
(g70
g51
NtRp4818
(dp4819
g54
(dp4820
sg63
g4814
sg56
(lp4821
g49
(g50
g51
NtRp4822
(dp4823
g54
(dp4824
g62
I1
ssg63
g4818
sg56
(lp4825
g4397
asbasbasbag49
(g65
g51
NtRp4826
(dp4827
g54
(dp4828
sg63
g4810
sg56
(lp4829
g49
(g70
g51
NtRp4830
(dp4831
g54
(dp4832
sg63
g4826
sg56
(lp4833
g49
(g50
g51
NtRp4834
(dp4835
g54
(dp4836
g62
I1
ssg63
g4830
sg56
(lp4837
I00
asbasbasbag49
(g65
g51
NtRp4838
(dp4839
g54
(dp4840
sg63
g4810
sg56
(lp4841
g49
(g70
g51
NtRp4842
(dp4843
g54
(dp4844
sg63
g4838
sg56
(lp4845
g49
(g50
g51
NtRp4846
(dp4847
g54
(dp4848
g62
I1
ssg63
g4842
sg56
(lp4849
Nasbasbasbag49
(g65
g51
NtRp4850
(dp4851
g54
(dp4852
sg63
g4810
sg56
(lp4853
g49
(g70
g51
NtRp4854
(dp4855
g54
(dp4856
sg63
g4850
sg56
(lp4857
g49
(g50
g51
NtRp4858
(dp4859
g54
(dp4860
g62
I1
ssg63
g4854
sg56
(lp4861
(lp4862
(g4411
I00
g4409
tp4863
a(g4421
I00
g4419
tp4864
a(g4431
I00
g4429
tp4865
aasbasbasbasbasbasbasbag49
(g65
g51
NtRp4866
(dp4867
g54
(dp4868
sg63
g4511
sg56
(lp4869
g49
(g70
g51
NtRp4870
(dp4871
g54
(dp4872
sg63
g4866
sg56
(lp4873
g49
(g50
g51
NtRp4874
(dp4875
g54
(dp4876
g62
I2
ssg63
g4870
sg56
(lp4877
g49
(g58
g51
NtRp4878
(dp4879
g54
(dp4880
g62
I1
ssg63
Nsg56
(lp4881
g49
(g65
g51
NtRp4882
(dp4883
g54
(dp4884
sg63
g4878
sg56
(lp4885
g49
(g70
g51
NtRp4886
(dp4887
g54
(dp4888
sg63
g4882
sg56
(lp4889
g49
(g50
g51
NtRp4890
(dp4891
g54
(dp4892
g62
I1
ssg63
g4886
sg56
(lp4893
g4440
asbasbasbag49
(g65
g51
NtRp4894
(dp4895
g54
(dp4896
sg63
g4878
sg56
(lp4897
g49
(g70
g51
NtRp4898
(dp4899
g54
(dp4900
sg63
g4894
sg56
(lp4901
g49
(g50
g51
NtRp4902
(dp4903
g54
(dp4904
g62
I1
ssg63
g4898
sg56
(lp4905
I00
asbasbasbag49
(g65
g51
NtRp4906
(dp4907
g54
(dp4908
sg63
g4878
sg56
(lp4909
g49
(g70
g51
NtRp4910
(dp4911
g54
(dp4912
sg63
g4906
sg56
(lp4913
g49
(g50
g51
NtRp4914
(dp4915
g54
(dp4916
g62
I1
ssg63
g4910
sg56
(lp4917
Nasbasbasbag49
(g65
g51
NtRp4918
(dp4919
g54
(dp4920
sg63
g4878
sg56
(lp4921
g49
(g70
g51
NtRp4922
(dp4923
g54
(dp4924
sg63
g4918
sg56
(lp4925
g49
(g50
g51
NtRp4926
(dp4927
g54
(dp4928
g62
I1
ssg63
g4922
sg56
(lp4929
(lp4930
(g4454
I00
g4452
tp4931
a(g4463
I00
g4180
tp4932
a(g4472
I00
g4190
tp4933
aasbasbasbasbasbasbasbasbasbasbasbasbasbasbasbasbasbasbasbag49
(g65
g51
NtRp4934
(dp4935
g54
(dp4936
sg63
g3243
sg56
(lp4937
g49
(g70
g51
NtRp4938
(dp4939
g54
(dp4940
g74
g75
ssg63
g4934
sg56
(lp4941
S'meta'
p4942
asbag49
(g70
g51
NtRp4943
(dp4944
g54
(dp4945
g81
g82
ssg63
g4934
sg56
(lp4946
S':'
asbag49
(g70
g51
NtRp4947
(dp4948
g54
(dp4949
sg63
g4934
sg56
(lp4950
g49
(g50
g51
NtRp4951
(dp4952
g54
(dp4953
g62
I5
ssg63
g4947
sg56
(lp4954
g49
(g58
g51
NtRp4955
(dp4956
g54
(dp4957
g62
I4
ssg63
Nsg56
(lp4958
g49
(g65
g51
NtRp4959
(dp4960
g54
(dp4961
sg63
g4955
sg56
(lp4962
g49
(g70
g51
NtRp4963
(dp4964
g54
(dp4965
g74
g75
ssg63
g4959
sg56
(lp4966
S'author'
p4967
asbag49
(g70
g51
NtRp4968
(dp4969
g54
(dp4970
g81
g82
ssg63
g4959
sg56
(lp4971
S':'
asbag49
(g70
g51
NtRp4972
(dp4973
g54
(dp4974
sg63
g4959
sg56
(lp4975
g49
(g50
g51
NtRp4976
(dp4977
g54
(dp4978
g62
I4
ssg63
g4972
sg56
(lp4979
S'Your Name <you@example.com>'
p4980
asbasbasbag49
(g65
g51
NtRp4981
(dp4982
g54
(dp4983
sg63
g4955
sg56
(lp4984
g49
(g70
g51
NtRp4985
(dp4986
g54
(dp4987
g74
g75
ssg63
g4981
sg56
(lp4988
S'description'
p4989
asbag49
(g70
g51
NtRp4990
(dp4991
g54
(dp4992
g81
g82
ssg63
g4981
sg56
(lp4993
S':'
asbag49
(g70
g51
NtRp4994
(dp4995
g54
(dp4996
sg63
g4981
sg56
(lp4997
g49
(g50
g51
NtRp4998
(dp4999
g54
(dp5000
g62
I4
ssg63
g4994
sg56
(lp5001
S'a cool new app'
p5002
asbasbasbag49
(g65
g51
NtRp5003
(dp5004
g54
(dp5005
sg63
g4955
sg56
(lp5006
g49
(g70
g51
NtRp5007
(dp5008
g54
(dp5009
g74
g75
ssg63
g5003
sg56
(lp5010
S'generator'
p5011
asbag49
(g70
g51
NtRp5012
(dp5013
g54
(dp5014
g81
g82
ssg63
g5003
sg56
(lp5015
S':'
asbag49
(g70
g51
NtRp5016
(dp5017
g54
(dp5018
sg63
g5003
sg56
(lp5019
g49
(g50
g51
NtRp5020
(dp5021
g54
(dp5022
g62
I4
ssg63
g5016
sg56
(lp5023
S'Web2py Web Framework'
p5024
asbasbasbag49
(g65
g51
NtRp5025
(dp5026
g54
(dp5027
sg63
g4955
sg56
(lp5028
g49
(g70
g51
NtRp5029
(dp5030
g54
(dp5031
g74
g75
ssg63
g5025
sg56
(lp5032
S'keywords'
p5033
asbag49
(g70
g51
NtRp5034
(dp5035
g54
(dp5036
g81
g82
ssg63
g5025
sg56
(lp5037
S':'
asbag49
(g70
g51
NtRp5038
(dp5039
g54
(dp5040
sg63
g5025
sg56
(lp5041
g49
(g50
g51
NtRp5042
(dp5043
g54
(dp5044
g62
I4
ssg63
g5038
sg56
(lp5045
S'web2py, python, framework'
p5046
asbasbasbasbasbasbasbag49
(g65
g51
NtRp5047
(dp5048
g54
(dp5049
sg63
g3243
sg56
(lp5050
g49
(g70
g51
NtRp5051
(dp5052
g54
(dp5053
g74
g75
ssg63
g5047
sg56
(lp5054
S'models_to_run'
p5055
asbag49
(g70
g51
NtRp5056
(dp5057
g54
(dp5058
g81
g82
ssg63
g5047
sg56
(lp5059
S':'
asbag49
(g70
g51
NtRp5060
(dp5061
g54
(dp5062
sg63
g5047
sg56
(lp5063
g49
(g50
g51
NtRp5064
(dp5065
g54
(dp5066
g62
I5
ssg63
g5060
sg56
(lp5067
g49
(g58
g51
NtRp5068
(dp5069
g54
(dp5070
g62
I4
ssg63
Nsg56
(lp5071
g49
(g65
g51
NtRp5072
(dp5073
g54
(dp5074
sg63
g5068
sg56
(lp5075
g49
(g70
g51
NtRp5076
(dp5077
g54
(dp5078
sg63
g5072
sg56
(lp5079
g49
(g50
g51
NtRp5080
(dp5081
g54
(dp5082
g62
I4
ssg63
g5076
sg56
(lp5083
S'^\\w+\\.py$'
p5084
asbasbasbag49
(g65
g51
NtRp5085
(dp5086
g54
(dp5087
sg63
g5068
sg56
(lp5088
g49
(g70
g51
NtRp5089
(dp5090
g54
(dp5091
sg63
g5085
sg56
(lp5092
g49
(g50
g51
NtRp5093
(dp5094
g54
(dp5095
g62
I4
ssg63
g5089
sg56
(lp5096
S'^game/\\w+\\.py$'
p5097
asbasbasbag49
(g65
g51
NtRp5098
(dp5099
g54
(dp5100
sg63
g5068
sg56
(lp5101
g49
(g70
g51
NtRp5102
(dp5103
g54
(dp5104
sg63
g5098
sg56
(lp5105
g49
(g50
g51
NtRp5106
(dp5107
g54
(dp5108
g62
I4
ssg63
g5102
sg56
(lp5109
S'^game/show/\\w+\\.py$'
p5110
asbasbasbasbasbasbasbag49
(g65
g51
NtRp5111
(dp5112
g54
(dp5113
sg63
g3243
sg56
(lp5114
g49
(g70
g51
NtRp5115
(dp5116
g54
(dp5117
g74
g75
ssg63
g5111
sg56
(lp5118
S'postprocessing'
p5119
asbag49
(g70
g51
NtRp5120
(dp5121
g54
(dp5122
g81
g82
ssg63
g5111
sg56
(lp5123
S':'
asbag49
(g70
g51
NtRp5124
(dp5125
g54
(dp5126
sg63
g5111
sg56
(lp5127
g49
(g50
g51
NtRp5128
(dp5129
g54
(dp5130
g62
I5
ssg63
g5124
sg56
(lp5131
g49
(g58
g51
NtRp5132
(dp5133
g54
(dp5134
g62
I4
ssg63
Nsg56
(lp5135
sbasbasbasbag49
(g65
g51
NtRp5136
(dp5137
g54
(dp5138
sg63
g3243
sg56
(lp5139
g49
(g70
g51
NtRp5140
(dp5141
g54
(dp5142
g74
g75
ssg63
g5136
sg56
(lp5143
S'session_cookie_expires'
p5144
asbag49
(g70
g51
NtRp5145
(dp5146
g54
(dp5147
g81
g82
ssg63
g5136
sg56
(lp5148
S':'
asbag49
(g70
g51
NtRp5149
(dp5150
g54
(dp5151
sg63
g5136
sg56
(lp5152
g49
(g50
g51
NtRp5153
(dp5154
g54
(dp5155
g62
I5
ssg63
g5149
sg56
(lp5156
S'None'
p5157
asbasbasbag49
(g65
g51
NtRp5158
(dp5159
g54
(dp5160
sg63
g3243
sg56
(lp5161
g49
(g70
g51
NtRp5162
(dp5163
g54
(dp5164
g74
g75
ssg63
g5158
sg56
(lp5165
S'session_data_name'
p5166
asbag49
(g70
g51
NtRp5167
(dp5168
g54
(dp5169
g81
g82
ssg63
g5158
sg56
(lp5170
S':'
asbag49
(g70
g51
NtRp5171
(dp5172
g54
(dp5173
sg63
g5158
sg56
(lp5174
g49
(g50
g51
NtRp5175
(dp5176
g54
(dp5177
g62
I5
ssg63
g5171
sg56
(lp5178
S'session_data_hellow'
p5179
asbasbasbag49
(g65
g51
NtRp5180
(dp5181
g54
(dp5182
sg63
g3243
sg56
(lp5183
g49
(g70
g51
NtRp5184
(dp5185
g54
(dp5186
g74
g75
ssg63
g5180
sg56
(lp5187
S'session_file'
p5188
asbag49
(g70
g51
NtRp5189
(dp5190
g54
(dp5191
g81
g82
ssg63
g5180
sg56
(lp5192
S':'
asbag49
(g70
g51
NtRp5193
(dp5194
g54
(dp5195
sg63
g5180
sg56
(lp5196
g49
(g50
g51
NtRp5197
(dp5198
g54
(dp5199
g62
I5
ssg63
g5193
sg56
(lp5200
S"<open file '/Users/zamechek/Downloads/web2py/web2py.app/Contents/Resources/applications/hellow/sessions/127.0.0.1-bbea59f2-333e-4593-a45c-2c44a5133d77', mode 'rb+' at 0x9e14f08>"
p5201
asbasbasbag49
(g65
g51
NtRp5202
(dp5203
g54
(dp5204
sg63
g3243
sg56
(lp5205
g49
(g70
g51
NtRp5206
(dp5207
g54
(dp5208
g74
g75
ssg63
g5202
sg56
(lp5209
S'session_filename'
p5210
asbag49
(g70
g51
NtRp5211
(dp5212
g54
(dp5213
g81
g82
ssg63
g5202
sg56
(lp5214
S':'
asbag49
(g70
g51
NtRp5215
(dp5216
g54
(dp5217
sg63
g5202
sg56
(lp5218
g49
(g50
g51
NtRp5219
(dp5220
g54
(dp5221
g62
I5
ssg63
g5215
sg56
(lp5222
S'/Users/zamechek/Downloads/web2py/web2py.app/Contents/Resources/applications/hellow/sessions/127.0.0.1-bbea59f2-333e-4593-a45c-2c44a5133d77'
p5223
asbasbasbag49
(g65
g51
NtRp5224
(dp5225
g54
(dp5226
sg63
g3243
sg56
(lp5227
g49
(g70
g51
NtRp5228
(dp5229
g54
(dp5230
g74
g75
ssg63
g5224
sg56
(lp5231
S'session_id'
p5232
asbag49
(g70
g51
NtRp5233
(dp5234
g54
(dp5235
g81
g82
ssg63
g5224
sg56
(lp5236
S':'
asbag49
(g70
g51
NtRp5237
(dp5238
g54
(dp5239
sg63
g5224
sg56
(lp5240
g49
(g50
g51
NtRp5241
(dp5242
g54
(dp5243
g62
I5
ssg63
g5237
sg56
(lp5244
g458
asbasbasbag49
(g65
g51
NtRp5245
(dp5246
g54
(dp5247
sg63
g3243
sg56
(lp5248
g49
(g70
g51
NtRp5249
(dp5250
g54
(dp5251
g74
g75
ssg63
g5245
sg56
(lp5252
S'session_id_name'
p5253
asbag49
(g70
g51
NtRp5254
(dp5255
g54
(dp5256
g81
g82
ssg63
g5245
sg56
(lp5257
S':'
asbag49
(g70
g51
NtRp5258
(dp5259
g54
(dp5260
sg63
g5245
sg56
(lp5261
g49
(g50
g51
NtRp5262
(dp5263
g54
(dp5264
g62
I5
ssg63
g5258
sg56
(lp5265
g3300
asbasbasbag49
(g65
g51
NtRp5266
(dp5267
g54
(dp5268
sg63
g3243
sg56
(lp5269
g49
(g70
g51
NtRp5270
(dp5271
g54
(dp5272
g74
g75
ssg63
g5266
sg56
(lp5273
S'session_locked'
p5274
asbag49
(g70
g51
NtRp5275
(dp5276
g54
(dp5277
g81
g82
ssg63
g5266
sg56
(lp5278
S':'
asbag49
(g70
g51
NtRp5279
(dp5280
g54
(dp5281
sg63
g5266
sg56
(lp5282
g49
(g50
g51
NtRp5283
(dp5284
g54
(dp5285
g62
I5
ssg63
g5279
sg56
(lp5286
g928
asbasbasbag49
(g65
g51
NtRp5287
(dp5288
g54
(dp5289
sg63
g3243
sg56
(lp5290
g49
(g70
g51
NtRp5291
(dp5292
g54
(dp5293
g74
g75
ssg63
g5287
sg56
(lp5294
S'session_new'
p5295
asbag49
(g70
g51
NtRp5296
(dp5297
g54
(dp5298
g81
g82
ssg63
g5287
sg56
(lp5299
S':'
asbag49
(g70
g51
NtRp5300
(dp5301
g54
(dp5302
sg63
g5287
sg56
(lp5303
g49
(g50
g51
NtRp5304
(dp5305
g54
(dp5306
g62
I5
ssg63
g5300
sg56
(lp5307
g92
asbasbasbag49
(g65
g51
NtRp5308
(dp5309
g54
(dp5310
sg63
g3243
sg56
(lp5311
g49
(g70
g51
NtRp5312
(dp5313
g54
(dp5314
g74
g75
ssg63
g5308
sg56
(lp5315
S'session_storage_type'
p5316
asbag49
(g70
g51
NtRp5317
(dp5318
g54
(dp5319
g81
g82
ssg63
g5308
sg56
(lp5320
S':'
asbag49
(g70
g51
NtRp5321
(dp5322
g54
(dp5323
sg63
g5308
sg56
(lp5324
g49
(g50
g51
NtRp5325
(dp5326
g54
(dp5327
g62
I5
ssg63
g5321
sg56
(lp5328
g3186
asbasbasbag49
(g65
g51
NtRp5329
(dp5330
g54
(dp5331
sg63
g3243
sg56
(lp5332
g49
(g70
g51
NtRp5333
(dp5334
g54
(dp5335
g74
g75
ssg63
g5329
sg56
(lp5336
S'status'
p5337
asbag49
(g70
g51
NtRp5338
(dp5339
g54
(dp5340
g81
g82
ssg63
g5329
sg56
(lp5341
S':'
asbag49
(g70
g51
NtRp5342
(dp5343
g54
(dp5344
sg63
g5329
sg56
(lp5345
g49
(g50
g51
NtRp5346
(dp5347
g54
(dp5348
g62
I5
ssg63
g5342
sg56
(lp5349
S'200'
p5350
asbasbasbag49
(g65
g51
NtRp5351
(dp5352
g54
(dp5353
sg63
g3243
sg56
(lp5354
g49
(g70
g51
NtRp5355
(dp5356
g54
(dp5357
g74
g75
ssg63
g5351
sg56
(lp5358
S'subtitle'
p5359
asbag49
(g70
g51
NtRp5360
(dp5361
g54
(dp5362
g81
g82
ssg63
g5351
sg56
(lp5363
S':'
asbag49
(g70
g51
NtRp5364
(dp5365
g54
(dp5366
sg63
g5351
sg56
(lp5367
g49
(g50
g51
NtRp5368
(dp5369
g54
(dp5370
g62
I5
ssg63
g5364
sg56
(lp5371
g3862
(S's\r\x00\x00\x00customize me!'
tRp5372
asbasbasbag49
(g65
g51
NtRp5373
(dp5374
g54
(dp5375
sg63
g3243
sg56
(lp5376
g49
(g70
g51
NtRp5377
(dp5378
g54
(dp5379
g74
g75
ssg63
g5373
sg56
(lp5380
S'title'
p5381
asbag49
(g70
g51
NtRp5382
(dp5383
g54
(dp5384
g81
g82
ssg63
g5373
sg56
(lp5385
S':'
asbag49
(g70
g51
NtRp5386
(dp5387
g54
(dp5388
sg63
g5373
sg56
(lp5389
g49
(g50
g51
NtRp5390
(dp5391
g54
(dp5392
g62
I5
ssg63
g5386
sg56
(lp5393
S'Hellow'
p5394
asbasbasbag49
(g65
g51
NtRp5395
(dp5396
g54
(dp5397
sg63
g3243
sg56
(lp5398
g49
(g70
g51
NtRp5399
(dp5400
g54
(dp5401
g74
g75
ssg63
g5395
sg56
(lp5402
S'view'
p5403
asbag49
(g70
g51
NtRp5404
(dp5405
g54
(dp5406
g81
g82
ssg63
g5395
sg56
(lp5407
S':'
asbag49
(g70
g51
NtRp5408
(dp5409
g54
(dp5410
sg63
g5395
sg56
(lp5411
g49
(g50
g51
NtRp5412
(dp5413
g54
(dp5414
g62
I5
ssg63
g5408
sg56
(lp5415
S'game/show.html'
p5416
asbasbasbasbasbsS'locals'
p5417
(dp5418
S'Service'
p5419
S"<class 'gluon.tools.Service'>"
p5420
sS'OBJECT'
p5421
S"<class 'gluon.html.OBJECT'>"
p5422
sS'SQLDB'
p5423
S"<class 'gluon.dal.DAL'>"
p5424
sg3225
S"<Storage {'_formkey[default]': '53f3575c-c5d6-4a...{'version': '25.0.1364.172', 'name': 'Chrome'}}}>"
p5425
sS'LINK'
p5426
S"<class 'gluon.html.LINK'>"
p5427
sS'BR'
p5428
S"<class 'gluon.html.BR'>"
p5429
sS'local_import'
p5430
S'<function <lambda> at 0xa2f0b70>'
p5431
sS'OPTGROUP'
p5432
S"<class 'gluon.html.OPTGROUP'>"
p5433
sS'PRE'
p5434
S"<class 'gluon.html.PRE'>"
p5435
sS'IS_INT_IN_RANGE'
p5436
S"<class 'gluon.validators.IS_INT_IN_RANGE'>"
p5437
sS'left_sidebar_enabled'
p5438
g92
sS'IS_LOWER'
p5439
S"<class 'gluon.validators.IS_LOWER'>"
p5440
sS'IS_STRONG'
p5441
S"<class 'gluon.validators.IS_STRONG'>"
p5442
sS'cache'
p5443
S'<gluon.cache.Cache object at 0xab1cdd0>'
p5444
sS'IS_IN_DB'
p5445
S"<class 'gluon.validators.IS_IN_DB'>"
p5446
sS'TAG'
p5447
S'<gluon.html.__TAG__ object at 0x2ed1d70>'
p5448
sS'SQLField'
p5449
S"<class 'gluon.dal.Field'>"
p5450
sS'mail'
p5451
S'<gluon.tools.Mail object at 0xc32a4d0>'
p5452
sS'BODY'
p5453
S"<class 'gluon.html.BODY'>"
p5454
sS'IS_DATE_IN_RANGE'
p5455
S"<class 'gluon.validators.IS_DATE_IN_RANGE'>"
p5456
sS'IFRAME'
p5457
S"<class 'gluon.html.IFRAME'>"
p5458
sS'URL'
p5459
S'<function URL at 0x2ebeef0>'
p5460
sS'__file__'
p5461
S"'/Users/zamechek/Downloads/web2py/web2py.app/Cont...esources/applications/hellow/views/game/show.html'"
p5462
sS'db'
p5463
S'<DAL uri="sqlite://storage.sqlite">'
p5464
sS'auth'
p5465
S'<gluon.tools.Auth object at 0xc32a7b0>'
p5466
sS'P'
S"<class 'gluon.html.P'>"
p5467
sS'TFOOT'
p5468
S"<class 'gluon.html.TFOOT'>"
p5469
sS'XHTML'
p5470
S"<class 'gluon.html.XHTML'>"
p5471
sS'ON'
p5472
g928
sS'OL'
p5473
S"<class 'gluon.html.OL'>"
p5474
sS'name'
p5475
S"'Shawn Zamechek'"
p5476
sS'TEXTAREA'
p5477
S"<class 'gluon.html.TEXTAREA'>"
p5478
sS'MENU'
p5479
S"<class 'gluon.html.MENU'>"
p5480
sS'IS_IMAGE'
p5481
S"<class 'gluon.validators.IS_IMAGE'>"
p5482
sS'EM'
p5483
S"<class 'gluon.html.EM'>"
p5484
sS'CODE'
p5485
S"<class 'gluon.html.CODE'>"
p5486
sS'HTTP'
p5487
S"<class 'gluon.http.HTTP'>"
p5488
sS'HR'
p5489
S"<class 'gluon.html.HR'>"
p5490
sS'IS_DATETIME'
p5491
S"<class 'gluon.validators.IS_DATETIME'>"
p5492
sS'STYLE'
p5493
S"<class 'gluon.html.STYLE'>"
p5494
sS'LABEL'
p5495
S"<class 'gluon.html.LABEL'>"
p5496
sS'CLEANUP'
p5497
S"<class 'gluon.validators.CLEANUP'>"
p5498
sS'plugins'
p5499
S'<gluon.tools.PluginManager object at 0xa8b73d0>'
p5500
sS'SELECT'
p5501
S"<class 'gluon.html.SELECT'>"
p5502
sS'use_janrain'
p5503
S'<function use_janrain at 0x721c170>'
p5504
sS'CENTER'
p5505
S"<class 'gluon.html.CENTER'>"
p5506
sS'prettydate'
p5507
S'<function prettydate at 0x720f4b0>'
p5508
sS'Crud'
p5509
S"<class 'gluon.tools.Crud'>"
p5510
sS'Auth'
p5511
S"<class 'gluon.tools.Auth'>"
p5512
sS'DEVELOPMENT_MENU'
p5513
g928
sS'__builtins__'
p5514
S"{'ArithmeticError': <type 'exceptions.ArithmeticError'>, 'AssertionError': <type 'exceptions.AssertionError'>, 'AttributeError': <type 'exceptions.AttributeError'>, 'BaseException': <type 'exceptions.BaseException'>, 'DeprecationWarning': <type 'exceptions.DeprecationWarning'>, 'EOFError': <type 'exceptions.EOFError'>, 'Ellipsis': Ellipsis, 'EnvironmentError': <type 'exceptions.EnvironmentError'>, 'Exception': <type 'exceptions.Exception'>, 'False': False, ...}"
p5515
sS'HTML'
p5516
S"<class 'gluon.html.HTML'>"
p5517
sS'SQLFORM'
p5518
S"<class 'gluon.sqlhtml.SQLFORM'>"
p5519
sS'LOAD'
p5520
S'<function LOAD at 0x31884f0>'
p5521
sS'redirect'
p5522
S'<function redirect at 0x2bd74b0>'
p5523
sS'FIELDSET'
p5524
S"<class 'gluon.html.FIELDSET'>"
p5525
sS'IS_EQUAL_TO'
p5526
S"<class 'gluon.validators.IS_EQUAL_TO'>"
p5527
sS'embed64'
p5528
S'<function embed64 at 0x2ed3b30>'
p5529
sS'IS_LIST_OF'
p5530
S"<class 'gluon.validators.IS_LIST_OF'>"
p5531
sS'INPUT'
p5532
S"<class 'gluon.html.INPUT'>"
p5533
sS'EMBED'
p5534
S"<class 'gluon.html.EMBED'>"
p5535
sS'_'
S'<function _ at 0x32f6bb0>'
p5536
sS'H2'
p5537
S"<class 'gluon.html.H2'>"
p5538
sS'H3'
p5539
S"<class 'gluon.html.H3'>"
p5540
sS'BUTTON'
p5541
S"<class 'gluon.html.BUTTON'>"
p5542
sS'H1'
p5543
S"<class 'gluon.html.H1'>"
p5544
sS'H6'
p5545
S"<class 'gluon.html.H6'>"
p5546
sS'H4'
p5547
S"<class 'gluon.html.H4'>"
p5548
sS'H5'
p5549
S"<class 'gluon.html.H5'>"
p5550
sS'UL'
p5551
S"<class 'gluon.html.UL'>"
p5552
sS'IS_UPPER'
p5553
S"<class 'gluon.validators.IS_UPPER'>"
p5554
sS'xmlescape'
p5555
S'<function xmlescape at 0x2ebea70>'
p5556
sS'IS_TIME'
p5557
S"<class 'gluon.validators.IS_TIME'>"
p5558
sS'OPTION'
p5559
S"<class 'gluon.html.OPTION'>"
p5560
sS'TITLE'
p5561
S"<class 'gluon.html.TITLE'>"
p5562
sS'CRYPT'
p5563
S"<class 'gluon.validators.CRYPT'>"
p5564
sS'IS_EMPTY_OR'
p5565
S"<class 'gluon.validators.IS_EMPTY_OR'>"
p5566
sS'MARKMIN'
p5567
S"<class 'gluon.html.MARKMIN'>"
p5568
sS'__name__'
p5569
S"'__restricted__'"
p5570
sS'slots'
p5571
S'<Rows (2)>'
p5572
sS'STRONG'
p5573
S"<class 'gluon.html.STRONG'>"
p5574
sS'COL'
p5575
S"<class 'gluon.html.COL'>"
p5576
sS'service'
p5577
S'<gluon.tools.Service object at 0xc32adf0>'
p5578
sS'SCRIPT'
p5579
S"<class 'gluon.html.SCRIPT'>"
p5580
sS'is_mobile'
p5581
g92
sS'TABLE'
p5582
S"<class 'gluon.html.TABLE'>"
p5583
sS'IS_IPV4'
p5584
S"<class 'gluon.validators.IS_IPV4'>"
p5585
sS'IS_LENGTH'
p5586
S"<class 'gluon.validators.IS_LENGTH'>"
p5587
sS'XML'
p5588
S"<class 'gluon.html.XML'>"
p5589
sS'B'
S"<class 'gluon.html.B'>"
p5590
sS'IMG'
p5591
S"<class 'gluon.html.IMG'>"
p5592
sS'SQLTABLE'
p5593
S"<class 'gluon.sqlhtml.SQLTABLE'>"
p5594
sS'IS_MATCH'
p5595
S"<class 'gluon.validators.IS_MATCH'>"
p5596
sS'IS_ALPHANUMERIC'
p5597
S"<class 'gluon.validators.IS_ALPHANUMERIC'>"
p5598
sS'SPAN'
p5599
S"<class 'gluon.html.SPAN'>"
p5600
sS'IS_JSON'
p5601
S"<class 'gluon.validators.IS_JSON'>"
p5602
sS'IS_SLUG'
p5603
S"<class 'gluon.validators.IS_SLUG'>"
p5604
sS'BEAUTIFY'
p5605
S"<class 'gluon.html.BEAUTIFY'>"
p5606
sS'META'
p5607
S"<class 'gluon.html.META'>"
p5608
sS'balance'
p5609
S'100'
p5610
sS'IS_DATE'
p5611
S"<class 'gluon.validators.IS_DATE'>"
p5612
sS'IS_EMAIL'
p5613
S"<class 'gluon.validators.IS_EMAIL'>"
p5614
sS'IS_NOT_EMPTY'
p5615
S"<class 'gluon.validators.IS_NOT_EMPTY'>"
p5616
sS'IS_FLOAT_IN_RANGE'
p5617
S"<class 'gluon.validators.IS_FLOAT_IN_RANGE'>"
p5618
sS'TBODY'
p5619
S"<class 'gluon.html.TBODY'>"
p5620
sS'CAT'
p5621
S"<class 'gluon.html.CAT'>"
p5622
sS'Field'
p5623
S"<class 'gluon.dal.Field'>"
p5624
sS'middle_columns'
p5625
S"'span12'"
p5626
sS'DIV'
p5627
S"<class 'gluon.html.DIV'>"
p5628
sS'LEGEND'
p5629
S"<class 'gluon.html.LEGEND'>"
p5630
sS'form'
p5631
S'<gluon.html.FORM object at 0xc221a50>'
p5632
sS'COLGROUP'
p5633
S"<class 'gluon.html.COLGROUP'>"
p5634
sS'DAL'
p5635
S"<class 'gluon.dal.DAL'>"
p5636
sS'TT'
p5637
S"<class 'gluon.html.TT'>"
p5638
sS'TR'
p5639
S"<class 'gluon.html.TR'>"
p5640
sS'LI'
p5641
S"<class 'gluon.html.LI'>"
p5642
sS'right_sidebar_enabled'
p5643
g92
sS'TH'
p5644
S"<class 'gluon.html.TH'>"
p5645
sS'TD'
p5646
S"<class 'gluon.html.TD'>"
p5647
sS'PluginManager'
p5648
S"<class 'gluon.tools.PluginManager'>"
p5649
sS'IS_URL'
p5650
S"<class 'gluon.validators.IS_URL'>"
p5651
sS'A'
S"<class 'gluon.html.A'>"
p5652
sS'HEAD'
p5653
S"<class 'gluon.html.HEAD'>"
p5654
sS'IS_DATETIME_IN_RANGE'
p5655
S"<class 'gluon.validators.IS_DATETIME_IN_RANGE'>"
p5656
sS'FORM'
p5657
S"<class 'gluon.html.FORM'>"
p5658
sS'I'
S"<class 'gluon.html.I'>"
p5659
sS'crud'
p5660
S'<gluon.tools.Crud object at 0xc32a4f0>'
p5661
sS'IS_NOT_IN_DB'
p5662
S"<class 'gluon.validators.IS_NOT_IN_DB'>"
p5663
sg3238
S"<Storage {'body': <cStringIO.StringO object at 0...lambda> at 0xa10fc70>, 'view': 'game/show.html'}>"
p5664
sS'THEAD'
p5665
S"<class 'gluon.html.THEAD'>"
p5666
sS'IS_NULL_OR'
p5667
S"<class 'gluon.validators.IS_EMPTY_OR'>"
p5668
sS'gameid'
p5669
S"'1'"
p5670
sg48
S"<Storage {'function': 'show', 'body': <cStringIO...pplications/hellow/', 'post_vars': <Storage {}>}>"
p5671
sS'IS_EXPR'
p5672
S"<class 'gluon.validators.IS_EXPR'>"
p5673
sS'T'
S'<gluon.languages.translator object at 0xb8ab110>'
p5674
sS'IS_IN_SET'
p5675
S"<class 'gluon.validators.IS_IN_SET'>"
p5676
sS'IS_UPLOAD_FILENAME'
p5677
S"<class 'gluon.validators.IS_UPLOAD_FILENAME'>"
p5678
sS'IS_DECIMAL_IN_RANGE'
p5679
S"<class 'gluon.validators.IS_DECIMAL_IN_RANGE'>"
p5680
sssS'traceback'
p5681
S'Traceback (most recent call last):\n  File "/home/mdipierro/web2py/gluon/restricted.py", line 212, in restricted\n  File "/Users/zamechek/Downloads/web2py/web2py.app/Contents/Resources/applications/hellow/views/game/show.html", line 89, in <module>\nNameError: name \'rows\' is not defined\n'
p5682
s.