(dp1
S'output'
p2
S"<type 'exceptions.AttributeError'> 'dict' object has no attribute 'errors'"
p3
sS'layer'
p4
S'/Users/zamechek/Downloads/web2py/web2py.app/Contents/Resources/applications/hellow/views/game/show.html'
p5
sS'code'
p6
S'response.write(\'<!--[if HTML5]><![endif]-->\\n<!DOCTYPE html>\\n<!-- paulirish.com/2008/conditional-stylesheets-vs-css-hacks-answer-neither/ -->\\n<!--[if lt IE 7]><html class="ie ie6 ie-lte9 ie-lte8 ie-lte7 no-js" lang="\', escape=False)\nresponse.write(T.accepted_language or \'en\')\nresponse.write(\'"> <![endif]-->\\n<!--[if IE 7]><html class="ie ie7 ie-lte9 ie-lte8 ie-lte7 no-js" lang="\', escape=False)\nresponse.write(T.accepted_language or \'en\')\nresponse.write(\'"> <![endif]-->\\n<!--[if IE 8]><html class="ie ie8 ie-lte9 ie-lte8 no-js" lang="\', escape=False)\nresponse.write(T.accepted_language or \'en\')\nresponse.write(\'"> <![endif]-->\\n<!--[if IE 9]><html class="ie9 ie-lte9 no-js" lang="\', escape=False)\nresponse.write(T.accepted_language or \'en\')\nresponse.write(\'"> <![endif]-->\\n<!--[if (gt IE 9)|!(IE)]><!--> <html class="no-js" lang="\', escape=False)\nresponse.write(T.accepted_language or \'en\')\nresponse.write(\'"> <!--<![endif]-->\\n<head>\\n<title>\', escape=False)\nresponse.write(response.title or request.application)\nresponse.write(\'</title>\\n  <!--[if !HTML5]>\\n      <meta http-equiv="X-UA-Compatible" content="IE=edge\', escape=False)\nresponse.write(not request.is_local and \',chrome=1\' or \'\')\nresponse.write(\'">\\n  <![endif]-->\\n  <!-- www.phpied.com/conditional-comments-block-downloads/ -->\\n  <!-- Always force latest IE rendering engine\\n       (even in intranet) & Chrome Frame\\n       Remove this if you use the .htaccess -->\\n\\t   \\n  <meta charset="utf-8" />\\n\\n  <!-- http://dev.w3.org/html5/markup/meta.name.html -->\\n  <meta name="application-name" content="\', escape=False)\nresponse.write(request.application)\nresponse.write(\'" />\\n\\n  <!-- Speaking of Google, don\\\'t forget to set your site up:\\n       http://google.com/webmasters -->\\n  <meta name="google-site-verification" content="" />\\n\\n  <!--  Mobile Viewport Fix\\n        j.mp/mobileviewport & davidbcalhoun.com/2010/viewport-metatag\\n        device-width: Occupy full width of the screen in its current orientation\\n        initial-scale = 1.0 retains dimensions instead of zooming out if page height > device height\\n        user-scalable = yes allows the user to zoom in -->\\n  <meta name="viewport" content="width=device-width, initial-scale=1.0" />\\n\\n  <link rel="shortcut icon" href="\', escape=False)\nresponse.write(URL(\'static\',\'images/favicon.ico\'))\nresponse.write(\'" type="image/x-icon">\\n  <link rel="apple-touch-icon" href="\', escape=False)\nresponse.write(URL(\'static\',\'images/favicon.png\'))\nresponse.write(\'">\\n\\n  <!-- All JavaScript at the bottom, except for Modernizr which enables\\n       HTML5 elements & feature detects -->\\n  <script src="\', escape=False)\nresponse.write(URL(\'static\',\'js/modernizr.custom.js\'))\nresponse.write(\'"></script>\\n\\n  <!-- include stylesheets -->\\n  \', escape=False)\nresponse.files.append(URL(\'static\',\'css/web2py.css\'))\nresponse.files.append(URL(\'static\',\'css/bootstrap.min.css\'))\nresponse.files.append(URL(\'static\',\'css/bootstrap-responsive.min.css\'))\nresponse.files.append(URL(\'static\',\'css/web2py_bootstrap.css\'))\nresponse.write(\'\\n\\n  \', escape=False)\nresponse.write(\'<script type="text/javascript"><!--\\n    // These variables are used by the web2py_ajax_init function in web2py_ajax.js (which is loaded below).\\n    var w2p_ajax_confirm_message = "\', escape=False)\nresponse.write(T(\'Are you sure you want to delete this object?\'))\nresponse.write(\'";\\n    var w2p_ajax_date_format = "\', escape=False)\nresponse.write(T(\'%Y-%m-%d\'))\nresponse.write(\'";\\n    var w2p_ajax_datetime_format = "\', escape=False)\nresponse.write(T(\'%Y-%m-%d %H:%M:%S\'))\nresponse.write(\'";\\n    var ajax_error_500 = \\\'\', escape=False)\nresponse.write(XML(T(\'An error occured, please %s the page\') % A(T(\'reload\'), _href=URL(args=request.args, vars=request.vars))))\nresponse.write("\'\\n    //--></script>\\n", escape=False)\nresponse.files.insert(0,URL(\'static\',\'js/jquery.js\'))\nresponse.files.insert(1,URL(\'static\',\'css/calendar.css\'))\nresponse.files.insert(2,URL(\'static\',\'js/calendar.js\'))\nresponse.files.insert(3,URL(\'static\',\'js/web2py.js\'))\nresponse.include_meta()\nresponse.include_files()\nresponse.write(\'\\n\', escape=False)\nresponse.write(\'\\n\\n  \', escape=False)\n# using sidebars need to know what sidebar you want to use\nleft_sidebar_enabled = globals().get(\'left_sidebar_enabled\',False)\nright_sidebar_enabled = globals().get(\'right_sidebar_enabled\',False)\nmiddle_columns = {0:\'span12\',1:\'span9\',2:\'span6\'}[\n(left_sidebar_enabled and 1 or 0)+(right_sidebar_enabled and 1 or 0)]\nresponse.write(\'\\n\\n  <!-- uncomment here to load jquery-ui\\n       <link rel="stylesheet" href="http://ajax.googleapis.com/ajax/libs/jqueryui/1.8.16/themes/base/jquery-ui.css" type="text/css" media="all" />\\n       <script src="http://ajax.googleapis.com/ajax/libs/jqueryui/1.8.16/jquery-ui.min.js" type="text/javascript"></script>\\n       uncomment to load jquery-ui //-->\\n  <noscript><link href="\', escape=False)\nresponse.write(URL(\'static\', \'css/web2py_bootstrap_nojs.css\'))\nresponse.write(\'" rel="stylesheet" type="text/css" /></noscript>\\n  \', escape=False)\nresponse.write(\'\\n</head>\\n\\n<body>\\n  <!-- Navbar ================================================== -->\\n  <div class="navbar navbar-inverse navbar-fixed-top">\\n    <div class="flash">\', escape=False)\nresponse.write(response.flash or \'\')\nresponse.write(\'</div>\\n    <div class="navbar-inner">\\n      <div class="container">\\n        <!-- the next tag is necessary for bootstrap menus, do not remove -->\\n        <button type="button" class="btn btn-navbar" data-toggle="collapse" data-target=".nav-collapse">\\n          <span class="icon-bar"></span>\\n          <span class="icon-bar"></span>\\n          <span class="icon-bar"></span>\\n        </button>\\n\\t\', escape=False)\nresponse.write(response.logo or \'\')\nresponse.write(\'\\n        <ul id="navbar" class="nav pull-right">\', escape=False)\nresponse.write(\'auth\' in globals() and auth.navbar(mode="dropdown") or \'\')\nresponse.write(\'</ul>\\n        <div class="nav-collapse">\\n          \', escape=False)\nis_mobile=request.user_agent().is_mobile\nresponse.write(\'\\n          \', escape=False)\nif response.menu:\n    response.write(\'\\n          \', escape=False)\n    response.write(MENU(response.menu, _class=\'mobile-menu nav\' if is_mobile else \'nav\',mobile=is_mobile,li_class=\'dropdown\',ul_class=\'dropdown-menu\'))\n    response.write(\'\\n          \', escape=False)\n    pass\nresponse.write(\'\\n        </div><!--/.nav-collapse -->\\n      </div>\\n    </div>\\n  </div><!--/top navbar -->\\n\\n  <div class="container">\\n    <!-- Masthead ================================================== -->\\n    <header class="mastheader row" id="header">\\n        <div class="span12">\\n            <div class="page-header">\\n                <h1>\\n                    \', escape=False)\nresponse.write(response.title or request.application)\nresponse.write(\'\\n                    <small>\', escape=False)\nresponse.write(response.subtitle or \'\')\nresponse.write(\'</small>\\n                </h1>\\n            </div>\\n        </div>\\n    </header>\\n\\n    <section id="main" class="main row">\\n        \', escape=False)\nif left_sidebar_enabled:\n    response.write(\'\\n        <div class="span3 left-sidebar">\\n            \', escape=False)\n    response.write(\'\\n            <h3>Left Sidebar</h3>\\n            <p></p>\\n            \', escape=False)\n    response.write(\'\\n        </div>\\n        \', escape=False)\n    pass\nresponse.write(\'\\n\\n        <div class="\', escape=False)\nresponse.write(middle_columns)\nresponse.write(\'">\\n            \', escape=False)\nresponse.write(\'\\n            \', escape=False)\nresponse.write(\'\\n<h1>Game \', escape=False)\nresponse.write(gameid)\nresponse.write(\'</h1>\\n<div>\\n\\t<ul>\\n        <li>Name = \', escape=False)\nresponse.write(name)\nresponse.write(\'</li>\\n        <li>Balance = \', escape=False)\nresponse.write(balance)\nresponse.write(\'</li>\\n    </ul>\\n\\t<h2>Select Slot to Play</h2>\\n<!--     <form>\\n        \', escape=False)\nfor row in slots:\n    response.write(\' <input type="radio" name="slot" value=\', escape=False)\n    response.write(row.id)\n    response.write(\'> \', escape=False)\n    response.write(row.id)\n    response.write(\'<br>\', escape=False)\n    pass\nresponse.write(\'\\n        Bet: <input type="text" name="bet"><br>\\n    \\t<input type="submit" value="Submit">\\n    </form> -->\\n    \', escape=False)\nresponse.write(form)\nresponse.write(\'\\n    \\n\\t<h2>Submitted variables</h2>\\n\\t\', escape=False)\nresponse.write(BEAUTIFY(request.vars))\nresponse.write(\'\\n\\t<h2>Errors in form</h2>\\n\\t\', escape=False)\nresponse.write(BEAUTIFY(form.errors))\nresponse.write(\'\\n</div>\\n\', escape=False)\nresponse.write(\'\\n            \', escape=False)\nresponse.write(\'\\n        </div>\\n\\n        \', escape=False)\nif right_sidebar_enabled:\n    response.write(\'\\n        <div class="span3">\\n            \', escape=False)\n    response.write(\'\\n            <h3>Right Sidebar</h3>\\n            <p></p>\\n            \', escape=False)\n    response.write(\'\\n        </div>\\n        \', escape=False)\n    pass\nresponse.write(\'\\n    </section><!--/main-->\\n\\n    <!-- Footer ================================================== -->\\n    <div class="row">\\n        <footer class="footer span12" id="footer">\\n            <div class="footer-content">\\n                \', escape=False)\nresponse.write(\' <!-- this is default footer -->\\n                <div class="copyright pull-left">\', escape=False)\nresponse.write(T(\'Copyright\'))\nresponse.write(\' &#169; \', escape=False)\nresponse.write(request.now.year)\nresponse.write(\'</div>\\n                <div id="poweredBy" class="pull-right">\\n                    \', escape=False)\nresponse.write(T(\'Powered by\'))\nresponse.write(\'\\n                    <a href="http://www.web2py.com/">web2py</a>\\n                </div>\\n                \', escape=False)\nresponse.write(\'\\n            </div>\\n        </footer>\\n    </div>\\n\\n  </div> <!-- /container -->\\n\\n  <!-- The javascript =============================================\\n       (Placed at the end of the document so the pages load faster) -->\\n  <script src="\', escape=False)\nresponse.write(URL(\'static\',\'js/bootstrap.min.js\'))\nresponse.write(\'"></script>\\n  <script src="\', escape=False)\nresponse.write(URL(\'static\',\'js/web2py_bootstrap.js\'))\nresponse.write(\'"></script>\\n  <!--[if lt IE 7 ]>\\n      <script src="\', escape=False)\nresponse.write(URL(\'static\',\'js/dd_belatedpng.js\'))\nresponse.write(\'"></script>\\n      <script> DD_belatedPNG.fix(\\\'img, .png_bg\\\'); //fix any <img> or .png_bg background-images </script>\\n      <![endif]-->\\n  \\n  \', escape=False)\nif response.google_analytics_id:\n    response.write(\'\\n  <script src="\', escape=False)\n    response.write(URL(\'static\',\'js/analytics.min.js\'))\n    response.write(\'"></script>\\n  <script type="text/javascript">\\n  analytics.initialize({\\n    \\\'Google Analytics\\\':{trackingId:\\\'\', escape=False)\n    response.write(response.google_analytics_id)\n    response.write("\'} \\n  });</script>\\n  ", escape=False)\n    pass\nresponse.write(\'\\n  <script src="\', escape=False)\nresponse.write(URL(\'static\',\'js/share.js\',vars=dict(static=URL(\'static\',\'images\'))))\nresponse.write(\'"></script>\\n</body>\\n</html>\\n\\n\', escape=False)'
p7
sS'snapshot'
p8
(dp9
S'exception'
p10
(dp11
S'__hash__'
p12
S"<method-wrapper '__hash__' of exceptions.AttributeError object at 0xb831620>"
p13
sS'__setattr__'
p14
S"<method-wrapper '__setattr__' of exceptions.AttributeError object at 0xb831620>"
p15
sS'__reduce_ex__'
p16
S'<built-in method __reduce_ex__ of exceptions.AttributeError object at 0xb831620>'
p17
sS'__getslice__'
p18
S"<method-wrapper '__getslice__' of exceptions.AttributeError object at 0xb831620>"
p19
sS'__getitem__'
p20
S"<method-wrapper '__getitem__' of exceptions.AttributeError object at 0xb831620>"
p21
sS'__setstate__'
p22
S'<built-in method __setstate__ of exceptions.AttributeError object at 0xb831620>'
p23
sS'__reduce__'
p24
S'<built-in method __reduce__ of exceptions.AttributeError object at 0xb831620>'
p25
sS'__str__'
p26
S"<method-wrapper '__str__' of exceptions.AttributeError object at 0xb831620>"
p27
sS'args'
p28
S'("\'dict\' object has no attribute \'errors\'",)'
p29
sS'__getattribute__'
p30
S"<method-wrapper '__getattribute__' of exceptions.AttributeError object at 0xb831620>"
p31
sS'__class__'
p32
S"<type 'exceptions.AttributeError'>"
p33
sS'__delattr__'
p34
S"<method-wrapper '__delattr__' of exceptions.AttributeError object at 0xb831620>"
p35
sS'__repr__'
p36
S"<method-wrapper '__repr__' of exceptions.AttributeError object at 0xb831620>"
p37
sS'__dict__'
p38
S'{}'
p39
sS'__doc__'
p40
S"'Attribute not found.'"
p41
sS'__init__'
p42
S"<method-wrapper '__init__' of exceptions.AttributeError object at 0xb831620>"
p43
sS'__new__'
p44
S'<built-in method __new__ of type object at 0x5f94a0>'
p45
ssS'evalue'
p46
S"'dict' object has no attribute 'errors'"
p47
sS'request'
p48
ccopy_reg
_reconstructor
p49
(cgluon.html
BEAUTIFY
p50
c__builtin__
object
p51
NtRp52
(dp53
S'attributes'
p54
(dp55
sS'components'
p56
(lp57
g49
(cgluon.html
TABLE
p58
g51
NtRp59
(dp60
g54
(dp61
S'level'
p62
I5
ssS'parent'
p63
Nsg56
(lp64
g49
(cgluon.html
TR
p65
g51
NtRp66
(dp67
g54
(dp68
sg63
g59
sg56
(lp69
g49
(cgluon.html
TD
p70
g51
NtRp71
(dp72
g54
(dp73
S'_style'
p74
S'font-weight:bold;vertical-align:top'
p75
ssg63
g66
sg56
(lp76
S'ajax'
p77
asbag49
(g70
g51
NtRp78
(dp79
g54
(dp80
S'_valign'
p81
S'top'
p82
ssg63
g66
sg56
(lp83
S':'
asbag49
(g70
g51
NtRp84
(dp85
g54
(dp86
sg63
g66
sg56
(lp87
g49
(g50
g51
NtRp88
(dp89
g54
(dp90
g62
I5
ssg63
g84
sg56
(lp91
S'False'
p92
asbasbasbag49
(g65
g51
NtRp93
(dp94
g54
(dp95
sg63
g59
sg56
(lp96
g49
(g70
g51
NtRp97
(dp98
g54
(dp99
g74
g75
ssg63
g93
sg56
(lp100
S'application'
p101
asbag49
(g70
g51
NtRp102
(dp103
g54
(dp104
g81
g82
ssg63
g93
sg56
(lp105
S':'
asbag49
(g70
g51
NtRp106
(dp107
g54
(dp108
sg63
g93
sg56
(lp109
g49
(g50
g51
NtRp110
(dp111
g54
(dp112
g62
I5
ssg63
g106
sg56
(lp113
S'hellow'
p114
asbasbasbag49
(g65
g51
NtRp115
(dp116
g54
(dp117
sg63
g59
sg56
(lp118
g49
(g70
g51
NtRp119
(dp120
g54
(dp121
g74
g75
ssg63
g115
sg56
(lp122
g28
asbag49
(g70
g51
NtRp123
(dp124
g54
(dp125
g81
g82
ssg63
g115
sg56
(lp126
S':'
asbag49
(g70
g51
NtRp127
(dp128
g54
(dp129
sg63
g115
sg56
(lp130
g49
(g50
g51
NtRp131
(dp132
g54
(dp133
g62
I5
ssg63
g127
sg56
(lp134
g49
(g58
g51
NtRp135
(dp136
g54
(dp137
g62
I4
ssg63
Nsg56
(lp138
g49
(g65
g51
NtRp139
(dp140
g54
(dp141
sg63
g135
sg56
(lp142
g49
(g70
g51
NtRp143
(dp144
g54
(dp145
sg63
g139
sg56
(lp146
g49
(g50
g51
NtRp147
(dp148
g54
(dp149
g62
I4
ssg63
g143
sg56
(lp150
S'1'
asbasbasbasbasbasbasbag49
(g65
g51
NtRp151
(dp152
g54
(dp153
sg63
g59
sg56
(lp154
g49
(g70
g51
NtRp155
(dp156
g54
(dp157
g74
g75
ssg63
g151
sg56
(lp158
S'body'
p159
asbag49
(g70
g51
NtRp160
(dp161
g54
(dp162
g81
g82
ssg63
g151
sg56
(lp163
S':'
asbag49
(g70
g51
NtRp164
(dp165
g54
(dp166
sg63
g151
sg56
(lp167
g49
(g50
g51
NtRp168
(dp169
g54
(dp170
g62
I5
ssg63
g164
sg56
(lp171
S'<cStringIO.StringO object at 0xab706e0>'
p172
asbasbasbag49
(g65
g51
NtRp173
(dp174
g54
(dp175
sg63
g59
sg56
(lp176
g49
(g70
g51
NtRp177
(dp178
g54
(dp179
g74
g75
ssg63
g173
sg56
(lp180
S'cid'
p181
asbag49
(g70
g51
NtRp182
(dp183
g54
(dp184
g81
g82
ssg63
g173
sg56
(lp185
S':'
asbag49
(g70
g51
NtRp186
(dp187
g54
(dp188
sg63
g173
sg56
(lp189
g49
(g50
g51
NtRp190
(dp191
g54
(dp192
g62
I5
ssg63
g186
sg56
(lp193
S'None'
p194
asbasbasbag49
(g65
g51
NtRp195
(dp196
g54
(dp197
sg63
g59
sg56
(lp198
g49
(g70
g51
NtRp199
(dp200
g54
(dp201
g74
g75
ssg63
g195
sg56
(lp202
S'client'
p203
asbag49
(g70
g51
NtRp204
(dp205
g54
(dp206
g81
g82
ssg63
g195
sg56
(lp207
S':'
asbag49
(g70
g51
NtRp208
(dp209
g54
(dp210
sg63
g195
sg56
(lp211
g49
(g50
g51
NtRp212
(dp213
g54
(dp214
g62
I5
ssg63
g208
sg56
(lp215
S'127.0.0.1'
p216
asbasbasbag49
(g65
g51
NtRp217
(dp218
g54
(dp219
sg63
g59
sg56
(lp220
g49
(g70
g51
NtRp221
(dp222
g54
(dp223
g74
g75
ssg63
g217
sg56
(lp224
S'controller'
p225
asbag49
(g70
g51
NtRp226
(dp227
g54
(dp228
g81
g82
ssg63
g217
sg56
(lp229
S':'
asbag49
(g70
g51
NtRp230
(dp231
g54
(dp232
sg63
g217
sg56
(lp233
g49
(g50
g51
NtRp234
(dp235
g54
(dp236
g62
I5
ssg63
g230
sg56
(lp237
S'game'
p238
asbasbasbag49
(g65
g51
NtRp239
(dp240
g54
(dp241
sg63
g59
sg56
(lp242
g49
(g70
g51
NtRp243
(dp244
g54
(dp245
g74
g75
ssg63
g239
sg56
(lp246
S'cookies'
p247
asbag49
(g70
g51
NtRp248
(dp249
g54
(dp250
g81
g82
ssg63
g239
sg56
(lp251
S':'
asbag49
(g70
g51
NtRp252
(dp253
g54
(dp254
sg63
g239
sg56
(lp255
g49
(g50
g51
NtRp256
(dp257
g54
(dp258
g62
I5
ssg63
g252
sg56
(lp259
g49
(g58
g51
NtRp260
(dp261
g54
(dp262
g62
I4
ssg63
Nsg56
(lp263
g49
(g65
g51
NtRp264
(dp265
g54
(dp266
sg63
g260
sg56
(lp267
g49
(g70
g51
NtRp268
(dp269
g54
(dp270
g74
g75
ssg63
g264
sg56
(lp271
S'session_id_admin'
p272
asbag49
(g70
g51
NtRp273
(dp274
g54
(dp275
g81
g82
ssg63
g264
sg56
(lp276
S':'
asbag49
(g70
g51
NtRp277
(dp278
g54
(dp279
sg63
g264
sg56
(lp280
g49
(g50
g51
NtRp281
(dp282
g54
(dp283
g62
I4
ssg63
g277
sg56
(lp284
S'127.0.0.1-bf448199-cadc-41e3-b1a7-bed302e89a3e'
p285
ag49
(g58
g51
NtRp286
(dp287
g54
(dp288
g62
I3
ssg63
Nsg56
(lp289
g49
(g65
g51
NtRp290
(dp291
g54
(dp292
sg63
g286
sg56
(lp293
g49
(g70
g51
NtRp294
(dp295
g54
(dp296
g74
g75
ssg63
g290
sg56
(lp297
S'comment'
p298
asbag49
(g70
g51
NtRp299
(dp300
g54
(dp301
g81
g82
ssg63
g290
sg56
(lp302
S':'
asbag49
(g70
g51
NtRp303
(dp304
g54
(dp305
sg63
g290
sg56
(lp306
g49
(g50
g51
NtRp307
(dp308
g54
(dp309
g62
I3
ssg63
g303
sg56
(lp310
S''
asbasbasbag49
(g65
g51
NtRp311
(dp312
g54
(dp313
sg63
g286
sg56
(lp314
g49
(g70
g51
NtRp315
(dp316
g54
(dp317
g74
g75
ssg63
g311
sg56
(lp318
S'domain'
p319
asbag49
(g70
g51
NtRp320
(dp321
g54
(dp322
g81
g82
ssg63
g311
sg56
(lp323
S':'
asbag49
(g70
g51
NtRp324
(dp325
g54
(dp326
sg63
g311
sg56
(lp327
g49
(g50
g51
NtRp328
(dp329
g54
(dp330
g62
I3
ssg63
g324
sg56
(lp331
S''
asbasbasbag49
(g65
g51
NtRp332
(dp333
g54
(dp334
sg63
g286
sg56
(lp335
g49
(g70
g51
NtRp336
(dp337
g54
(dp338
g74
g75
ssg63
g332
sg56
(lp339
S'expires'
p340
asbag49
(g70
g51
NtRp341
(dp342
g54
(dp343
g81
g82
ssg63
g332
sg56
(lp344
S':'
asbag49
(g70
g51
NtRp345
(dp346
g54
(dp347
sg63
g332
sg56
(lp348
g49
(g50
g51
NtRp349
(dp350
g54
(dp351
g62
I3
ssg63
g345
sg56
(lp352
S''
asbasbasbag49
(g65
g51
NtRp353
(dp354
g54
(dp355
sg63
g286
sg56
(lp356
g49
(g70
g51
NtRp357
(dp358
g54
(dp359
g74
g75
ssg63
g353
sg56
(lp360
S'max-age'
p361
asbag49
(g70
g51
NtRp362
(dp363
g54
(dp364
g81
g82
ssg63
g353
sg56
(lp365
S':'
asbag49
(g70
g51
NtRp366
(dp367
g54
(dp368
sg63
g353
sg56
(lp369
g49
(g50
g51
NtRp370
(dp371
g54
(dp372
g62
I3
ssg63
g366
sg56
(lp373
S''
asbasbasbag49
(g65
g51
NtRp374
(dp375
g54
(dp376
sg63
g286
sg56
(lp377
g49
(g70
g51
NtRp378
(dp379
g54
(dp380
g74
g75
ssg63
g374
sg56
(lp381
S'path'
p382
asbag49
(g70
g51
NtRp383
(dp384
g54
(dp385
g81
g82
ssg63
g374
sg56
(lp386
S':'
asbag49
(g70
g51
NtRp387
(dp388
g54
(dp389
sg63
g374
sg56
(lp390
g49
(g50
g51
NtRp391
(dp392
g54
(dp393
g62
I3
ssg63
g387
sg56
(lp394
S''
asbasbasbag49
(g65
g51
NtRp395
(dp396
g54
(dp397
sg63
g286
sg56
(lp398
g49
(g70
g51
NtRp399
(dp400
g54
(dp401
g74
g75
ssg63
g395
sg56
(lp402
S'secure'
p403
asbag49
(g70
g51
NtRp404
(dp405
g54
(dp406
g81
g82
ssg63
g395
sg56
(lp407
S':'
asbag49
(g70
g51
NtRp408
(dp409
g54
(dp410
sg63
g395
sg56
(lp411
g49
(g50
g51
NtRp412
(dp413
g54
(dp414
g62
I3
ssg63
g408
sg56
(lp415
S''
asbasbasbag49
(g65
g51
NtRp416
(dp417
g54
(dp418
sg63
g286
sg56
(lp419
g49
(g70
g51
NtRp420
(dp421
g54
(dp422
g74
g75
ssg63
g416
sg56
(lp423
S'version'
p424
asbag49
(g70
g51
NtRp425
(dp426
g54
(dp427
g81
g82
ssg63
g416
sg56
(lp428
S':'
asbag49
(g70
g51
NtRp429
(dp430
g54
(dp431
sg63
g416
sg56
(lp432
g49
(g50
g51
NtRp433
(dp434
g54
(dp435
g62
I3
ssg63
g429
sg56
(lp436
S''
asbasbasbasbasbasbasbag49
(g65
g51
NtRp437
(dp438
g54
(dp439
sg63
g260
sg56
(lp440
g49
(g70
g51
NtRp441
(dp442
g54
(dp443
g74
g75
ssg63
g437
sg56
(lp444
S'session_id_hellow'
p445
asbag49
(g70
g51
NtRp446
(dp447
g54
(dp448
g81
g82
ssg63
g437
sg56
(lp449
S':'
asbag49
(g70
g51
NtRp450
(dp451
g54
(dp452
sg63
g437
sg56
(lp453
g49
(g50
g51
NtRp454
(dp455
g54
(dp456
g62
I4
ssg63
g450
sg56
(lp457
S'127.0.0.1-bbea59f2-333e-4593-a45c-2c44a5133d77'
p458
ag49
(g58
g51
NtRp459
(dp460
g54
(dp461
g62
I3
ssg63
Nsg56
(lp462
g49
(g65
g51
NtRp463
(dp464
g54
(dp465
sg63
g459
sg56
(lp466
g49
(g70
g51
NtRp467
(dp468
g54
(dp469
g74
g75
ssg63
g463
sg56
(lp470
g298
asbag49
(g70
g51
NtRp471
(dp472
g54
(dp473
g81
g82
ssg63
g463
sg56
(lp474
S':'
asbag49
(g70
g51
NtRp475
(dp476
g54
(dp477
sg63
g463
sg56
(lp478
g49
(g50
g51
NtRp479
(dp480
g54
(dp481
g62
I3
ssg63
g475
sg56
(lp482
S''
asbasbasbag49
(g65
g51
NtRp483
(dp484
g54
(dp485
sg63
g459
sg56
(lp486
g49
(g70
g51
NtRp487
(dp488
g54
(dp489
g74
g75
ssg63
g483
sg56
(lp490
g319
asbag49
(g70
g51
NtRp491
(dp492
g54
(dp493
g81
g82
ssg63
g483
sg56
(lp494
S':'
asbag49
(g70
g51
NtRp495
(dp496
g54
(dp497
sg63
g483
sg56
(lp498
g49
(g50
g51
NtRp499
(dp500
g54
(dp501
g62
I3
ssg63
g495
sg56
(lp502
S''
asbasbasbag49
(g65
g51
NtRp503
(dp504
g54
(dp505
sg63
g459
sg56
(lp506
g49
(g70
g51
NtRp507
(dp508
g54
(dp509
g74
g75
ssg63
g503
sg56
(lp510
g340
asbag49
(g70
g51
NtRp511
(dp512
g54
(dp513
g81
g82
ssg63
g503
sg56
(lp514
S':'
asbag49
(g70
g51
NtRp515
(dp516
g54
(dp517
sg63
g503
sg56
(lp518
g49
(g50
g51
NtRp519
(dp520
g54
(dp521
g62
I3
ssg63
g515
sg56
(lp522
S''
asbasbasbag49
(g65
g51
NtRp523
(dp524
g54
(dp525
sg63
g459
sg56
(lp526
g49
(g70
g51
NtRp527
(dp528
g54
(dp529
g74
g75
ssg63
g523
sg56
(lp530
g361
asbag49
(g70
g51
NtRp531
(dp532
g54
(dp533
g81
g82
ssg63
g523
sg56
(lp534
S':'
asbag49
(g70
g51
NtRp535
(dp536
g54
(dp537
sg63
g523
sg56
(lp538
g49
(g50
g51
NtRp539
(dp540
g54
(dp541
g62
I3
ssg63
g535
sg56
(lp542
S''
asbasbasbag49
(g65
g51
NtRp543
(dp544
g54
(dp545
sg63
g459
sg56
(lp546
g49
(g70
g51
NtRp547
(dp548
g54
(dp549
g74
g75
ssg63
g543
sg56
(lp550
g382
asbag49
(g70
g51
NtRp551
(dp552
g54
(dp553
g81
g82
ssg63
g543
sg56
(lp554
S':'
asbag49
(g70
g51
NtRp555
(dp556
g54
(dp557
sg63
g543
sg56
(lp558
g49
(g50
g51
NtRp559
(dp560
g54
(dp561
g62
I3
ssg63
g555
sg56
(lp562
S''
asbasbasbag49
(g65
g51
NtRp563
(dp564
g54
(dp565
sg63
g459
sg56
(lp566
g49
(g70
g51
NtRp567
(dp568
g54
(dp569
g74
g75
ssg63
g563
sg56
(lp570
g403
asbag49
(g70
g51
NtRp571
(dp572
g54
(dp573
g81
g82
ssg63
g563
sg56
(lp574
S':'
asbag49
(g70
g51
NtRp575
(dp576
g54
(dp577
sg63
g563
sg56
(lp578
g49
(g50
g51
NtRp579
(dp580
g54
(dp581
g62
I3
ssg63
g575
sg56
(lp582
S''
asbasbasbag49
(g65
g51
NtRp583
(dp584
g54
(dp585
sg63
g459
sg56
(lp586
g49
(g70
g51
NtRp587
(dp588
g54
(dp589
g74
g75
ssg63
g583
sg56
(lp590
g424
asbag49
(g70
g51
NtRp591
(dp592
g54
(dp593
g81
g82
ssg63
g583
sg56
(lp594
S':'
asbag49
(g70
g51
NtRp595
(dp596
g54
(dp597
sg63
g583
sg56
(lp598
g49
(g50
g51
NtRp599
(dp600
g54
(dp601
g62
I3
ssg63
g595
sg56
(lp602
S''
asbasbasbasbasbasbasbag49
(g65
g51
NtRp603
(dp604
g54
(dp605
sg63
g260
sg56
(lp606
g49
(g70
g51
NtRp607
(dp608
g54
(dp609
g74
g75
ssg63
g603
sg56
(lp610
S'session_id_welcome'
p611
asbag49
(g70
g51
NtRp612
(dp613
g54
(dp614
g81
g82
ssg63
g603
sg56
(lp615
S':'
asbag49
(g70
g51
NtRp616
(dp617
g54
(dp618
sg63
g603
sg56
(lp619
g49
(g50
g51
NtRp620
(dp621
g54
(dp622
g62
I4
ssg63
g616
sg56
(lp623
S'127.0.0.1-dfebfa33-25aa-4072-bce4-08f7e89e2d04'
p624
ag49
(g58
g51
NtRp625
(dp626
g54
(dp627
g62
I3
ssg63
Nsg56
(lp628
g49
(g65
g51
NtRp629
(dp630
g54
(dp631
sg63
g625
sg56
(lp632
g49
(g70
g51
NtRp633
(dp634
g54
(dp635
g74
g75
ssg63
g629
sg56
(lp636
g298
asbag49
(g70
g51
NtRp637
(dp638
g54
(dp639
g81
g82
ssg63
g629
sg56
(lp640
S':'
asbag49
(g70
g51
NtRp641
(dp642
g54
(dp643
sg63
g629
sg56
(lp644
g49
(g50
g51
NtRp645
(dp646
g54
(dp647
g62
I3
ssg63
g641
sg56
(lp648
S''
asbasbasbag49
(g65
g51
NtRp649
(dp650
g54
(dp651
sg63
g625
sg56
(lp652
g49
(g70
g51
NtRp653
(dp654
g54
(dp655
g74
g75
ssg63
g649
sg56
(lp656
g319
asbag49
(g70
g51
NtRp657
(dp658
g54
(dp659
g81
g82
ssg63
g649
sg56
(lp660
S':'
asbag49
(g70
g51
NtRp661
(dp662
g54
(dp663
sg63
g649
sg56
(lp664
g49
(g50
g51
NtRp665
(dp666
g54
(dp667
g62
I3
ssg63
g661
sg56
(lp668
S''
asbasbasbag49
(g65
g51
NtRp669
(dp670
g54
(dp671
sg63
g625
sg56
(lp672
g49
(g70
g51
NtRp673
(dp674
g54
(dp675
g74
g75
ssg63
g669
sg56
(lp676
g340
asbag49
(g70
g51
NtRp677
(dp678
g54
(dp679
g81
g82
ssg63
g669
sg56
(lp680
S':'
asbag49
(g70
g51
NtRp681
(dp682
g54
(dp683
sg63
g669
sg56
(lp684
g49
(g50
g51
NtRp685
(dp686
g54
(dp687
g62
I3
ssg63
g681
sg56
(lp688
S''
asbasbasbag49
(g65
g51
NtRp689
(dp690
g54
(dp691
sg63
g625
sg56
(lp692
g49
(g70
g51
NtRp693
(dp694
g54
(dp695
g74
g75
ssg63
g689
sg56
(lp696
g361
asbag49
(g70
g51
NtRp697
(dp698
g54
(dp699
g81
g82
ssg63
g689
sg56
(lp700
S':'
asbag49
(g70
g51
NtRp701
(dp702
g54
(dp703
sg63
g689
sg56
(lp704
g49
(g50
g51
NtRp705
(dp706
g54
(dp707
g62
I3
ssg63
g701
sg56
(lp708
S''
asbasbasbag49
(g65
g51
NtRp709
(dp710
g54
(dp711
sg63
g625
sg56
(lp712
g49
(g70
g51
NtRp713
(dp714
g54
(dp715
g74
g75
ssg63
g709
sg56
(lp716
g382
asbag49
(g70
g51
NtRp717
(dp718
g54
(dp719
g81
g82
ssg63
g709
sg56
(lp720
S':'
asbag49
(g70
g51
NtRp721
(dp722
g54
(dp723
sg63
g709
sg56
(lp724
g49
(g50
g51
NtRp725
(dp726
g54
(dp727
g62
I3
ssg63
g721
sg56
(lp728
S''
asbasbasbag49
(g65
g51
NtRp729
(dp730
g54
(dp731
sg63
g625
sg56
(lp732
g49
(g70
g51
NtRp733
(dp734
g54
(dp735
g74
g75
ssg63
g729
sg56
(lp736
g403
asbag49
(g70
g51
NtRp737
(dp738
g54
(dp739
g81
g82
ssg63
g729
sg56
(lp740
S':'
asbag49
(g70
g51
NtRp741
(dp742
g54
(dp743
sg63
g729
sg56
(lp744
g49
(g50
g51
NtRp745
(dp746
g54
(dp747
g62
I3
ssg63
g741
sg56
(lp748
S''
asbasbasbag49
(g65
g51
NtRp749
(dp750
g54
(dp751
sg63
g625
sg56
(lp752
g49
(g70
g51
NtRp753
(dp754
g54
(dp755
g74
g75
ssg63
g749
sg56
(lp756
g424
asbag49
(g70
g51
NtRp757
(dp758
g54
(dp759
g81
g82
ssg63
g749
sg56
(lp760
S':'
asbag49
(g70
g51
NtRp761
(dp762
g54
(dp763
sg63
g749
sg56
(lp764
g49
(g50
g51
NtRp765
(dp766
g54
(dp767
g62
I3
ssg63
g761
sg56
(lp768
S''
asbasbasbasbasbasbasbasbasbasbasbag49
(g65
g51
NtRp769
(dp770
g54
(dp771
sg63
g59
sg56
(lp772
g49
(g70
g51
NtRp773
(dp774
g54
(dp775
g74
g75
ssg63
g769
sg56
(lp776
S'env'
p777
asbag49
(g70
g51
NtRp778
(dp779
g54
(dp780
g81
g82
ssg63
g769
sg56
(lp781
S':'
asbag49
(g70
g51
NtRp782
(dp783
g54
(dp784
sg63
g769
sg56
(lp785
g49
(g50
g51
NtRp786
(dp787
g54
(dp788
g62
I5
ssg63
g782
sg56
(lp789
g49
(g58
g51
NtRp790
(dp791
g54
(dp792
g62
I4
ssg63
Nsg56
(lp793
g49
(g65
g51
NtRp794
(dp795
g54
(dp796
sg63
g790
sg56
(lp797
g49
(g70
g51
NtRp798
(dp799
g54
(dp800
g74
g75
ssg63
g794
sg56
(lp801
S'app_folders'
p802
asbag49
(g70
g51
NtRp803
(dp804
g54
(dp805
g81
g82
ssg63
g794
sg56
(lp806
S':'
asbag49
(g70
g51
NtRp807
(dp808
g54
(dp809
sg63
g794
sg56
(lp810
g49
(g50
g51
NtRp811
(dp812
g54
(dp813
g62
I4
ssg63
g807
sg56
(lp814
S"set(['/Users/zamechek/Downloads/web2py/web2py.app/Contents/Resources/applications/examples/', '/Users/zamechek/Downloads/web2py/web2py.app/Contents/Resources/applications/hellow/', '/Users/zamechek/Downloads/web2py/web2py.app/Contents/Resources/applications/admin/', '/Users/zamechek/Downloads/web2py/web2py.app/Contents/Resources/applications/slots/', '/Users/zamechek/Downloads/web2py/web2py.app/Contents/Resources/applications/welcome/'])"
p815
asbasbasbag49
(g65
g51
NtRp816
(dp817
g54
(dp818
sg63
g790
sg56
(lp819
g49
(g70
g51
NtRp820
(dp821
g54
(dp822
g74
g75
ssg63
g816
sg56
(lp823
S'applications_parent'
p824
asbag49
(g70
g51
NtRp825
(dp826
g54
(dp827
g81
g82
ssg63
g816
sg56
(lp828
S':'
asbag49
(g70
g51
NtRp829
(dp830
g54
(dp831
sg63
g816
sg56
(lp832
g49
(g50
g51
NtRp833
(dp834
g54
(dp835
g62
I4
ssg63
g829
sg56
(lp836
S'/Users/zamechek/Downloads/web2py/web2py.app/Contents/Resources'
p837
asbasbasbag49
(g65
g51
NtRp838
(dp839
g54
(dp840
sg63
g790
sg56
(lp841
g49
(g70
g51
NtRp842
(dp843
g54
(dp844
g74
g75
ssg63
g838
sg56
(lp845
S'cmd_args'
p846
asbag49
(g70
g51
NtRp847
(dp848
g54
(dp849
g81
g82
ssg63
g838
sg56
(lp850
S':'
asbag49
(g70
g51
NtRp851
(dp852
g54
(dp853
sg63
g838
sg56
(lp854
g49
(g50
g51
NtRp855
(dp856
g54
(dp857
g62
I4
ssg63
g851
sg56
(lp858
g49
(g58
g51
NtRp859
(dp860
g54
(dp861
g62
I3
ssg63
Nsg56
(lp862
sbasbasbasbag49
(g65
g51
NtRp863
(dp864
g54
(dp865
sg63
g790
sg56
(lp866
g49
(g70
g51
NtRp867
(dp868
g54
(dp869
g74
g75
ssg63
g863
sg56
(lp870
S'cmd_options'
p871
asbag49
(g70
g51
NtRp872
(dp873
g54
(dp874
g81
g82
ssg63
g863
sg56
(lp875
S':'
asbag49
(g70
g51
NtRp876
(dp877
g54
(dp878
sg63
g863
sg56
(lp879
g49
(g50
g51
NtRp880
(dp881
g54
(dp882
g62
I4
ssg63
g876
sg56
(lp883
S"<Values at 0x32c8f58: {'verbose': False, 'ip': '127.0.0.1', 'with_scheduler': False, 'ips': ['130.91.151.157'], 'shutdown_timeout': 5, 'taskbar': False, 'port': 8000, 'maxthreads': None, 'softcron': False, 'server_name': 'hntvlan531.0924.wlan.wireless-pennnet.upenn.edu', 'bpython': False, 'nogui': False, 'pid_filename': 'httpserver.pid', 'extcron': False, 'runcron': False, 'run_system_tests': False, 'test': None, 'folder': '/Users/zamechek/Downloads/web2py/web2py.app/Contents/Resources', 'config': '', 'import_models': False, 'winservice': '', 'shell': None, 'run': '', 'log_filename': 'httpserver.log', 'debuglevel': 30, 'args': [''], 'socket_timeout': 5, 'ssl_ca_certificate': None, 'scheduler': None, 'profiler_filename': None, 'ssl_private_key': '', 'scheduler_groups': None, 'password': '<ask>', 'request_queue_size': 5, 'ssl_certificate': '', 'cronjob': False, 'numthreads': None, 'quiet': False, 'interfaces': None, 'minthreads': None, 'timeout': 10, 'plain': False, 'nobanner': False}>"
p884
asbasbasbag49
(g65
g51
NtRp885
(dp886
g54
(dp887
sg63
g790
sg56
(lp888
g49
(g70
g51
NtRp889
(dp890
g54
(dp891
g74
g75
ssg63
g885
sg56
(lp892
S'db_sessions'
p893
asbag49
(g70
g51
NtRp894
(dp895
g54
(dp896
g81
g82
ssg63
g885
sg56
(lp897
S':'
asbag49
(g70
g51
NtRp898
(dp899
g54
(dp900
sg63
g885
sg56
(lp901
g49
(g50
g51
NtRp902
(dp903
g54
(dp904
g62
I4
ssg63
g898
sg56
(lp905
S'set([])'
p906
asbasbasbag49
(g65
g51
NtRp907
(dp908
g54
(dp909
sg63
g790
sg56
(lp910
g49
(g70
g51
NtRp911
(dp912
g54
(dp913
g74
g75
ssg63
g907
sg56
(lp914
S'debugging'
p915
asbag49
(g70
g51
NtRp916
(dp917
g54
(dp918
g81
g82
ssg63
g907
sg56
(lp919
S':'
asbag49
(g70
g51
NtRp920
(dp921
g54
(dp922
sg63
g907
sg56
(lp923
g49
(g50
g51
NtRp924
(dp925
g54
(dp926
g62
I4
ssg63
g920
sg56
(lp927
S'True'
p928
asbasbasbag49
(g65
g51
NtRp929
(dp930
g54
(dp931
sg63
g790
sg56
(lp932
g49
(g70
g51
NtRp933
(dp934
g54
(dp935
g74
g75
ssg63
g929
sg56
(lp936
S'gluon_parent'
p937
asbag49
(g70
g51
NtRp938
(dp939
g54
(dp940
g81
g82
ssg63
g929
sg56
(lp941
S':'
asbag49
(g70
g51
NtRp942
(dp943
g54
(dp944
sg63
g929
sg56
(lp945
g49
(g50
g51
NtRp946
(dp947
g54
(dp948
g62
I4
ssg63
g942
sg56
(lp949
S'/Users/zamechek/Downloads/web2py/web2py.app/Contents/Resources'
p950
asbasbasbag49
(g65
g51
NtRp951
(dp952
g54
(dp953
sg63
g790
sg56
(lp954
g49
(g70
g51
NtRp955
(dp956
g54
(dp957
g74
g75
ssg63
g951
sg56
(lp958
S'http_accept'
p959
asbag49
(g70
g51
NtRp960
(dp961
g54
(dp962
g81
g82
ssg63
g951
sg56
(lp963
S':'
asbag49
(g70
g51
NtRp964
(dp965
g54
(dp966
sg63
g951
sg56
(lp967
g49
(g50
g51
NtRp968
(dp969
g54
(dp970
g62
I4
ssg63
g964
sg56
(lp971
S'text/html,application/xhtml+xml,application/xml;q=0.9,*/*;q=0.8'
p972
asbasbasbag49
(g65
g51
NtRp973
(dp974
g54
(dp975
sg63
g790
sg56
(lp976
g49
(g70
g51
NtRp977
(dp978
g54
(dp979
g74
g75
ssg63
g973
sg56
(lp980
S'http_accept_charset'
p981
asbag49
(g70
g51
NtRp982
(dp983
g54
(dp984
g81
g82
ssg63
g973
sg56
(lp985
S':'
asbag49
(g70
g51
NtRp986
(dp987
g54
(dp988
sg63
g973
sg56
(lp989
g49
(g50
g51
NtRp990
(dp991
g54
(dp992
g62
I4
ssg63
g986
sg56
(lp993
S'ISO-8859-1,utf-8;q=0.7,*;q=0.3'
p994
asbasbasbag49
(g65
g51
NtRp995
(dp996
g54
(dp997
sg63
g790
sg56
(lp998
g49
(g70
g51
NtRp999
(dp1000
g54
(dp1001
g74
g75
ssg63
g995
sg56
(lp1002
S'http_accept_encoding'
p1003
asbag49
(g70
g51
NtRp1004
(dp1005
g54
(dp1006
g81
g82
ssg63
g995
sg56
(lp1007
S':'
asbag49
(g70
g51
NtRp1008
(dp1009
g54
(dp1010
sg63
g995
sg56
(lp1011
g49
(g50
g51
NtRp1012
(dp1013
g54
(dp1014
g62
I4
ssg63
g1008
sg56
(lp1015
S'gzip,deflate,sdch'
p1016
asbasbasbag49
(g65
g51
NtRp1017
(dp1018
g54
(dp1019
sg63
g790
sg56
(lp1020
g49
(g70
g51
NtRp1021
(dp1022
g54
(dp1023
g74
g75
ssg63
g1017
sg56
(lp1024
S'http_accept_language'
p1025
asbag49
(g70
g51
NtRp1026
(dp1027
g54
(dp1028
g81
g82
ssg63
g1017
sg56
(lp1029
S':'
asbag49
(g70
g51
NtRp1030
(dp1031
g54
(dp1032
sg63
g1017
sg56
(lp1033
g49
(g50
g51
NtRp1034
(dp1035
g54
(dp1036
g62
I4
ssg63
g1030
sg56
(lp1037
S'en-US,en;q=0.8'
p1038
asbasbasbag49
(g65
g51
NtRp1039
(dp1040
g54
(dp1041
sg63
g790
sg56
(lp1042
g49
(g70
g51
NtRp1043
(dp1044
g54
(dp1045
g74
g75
ssg63
g1039
sg56
(lp1046
S'http_cache_control'
p1047
asbag49
(g70
g51
NtRp1048
(dp1049
g54
(dp1050
g81
g82
ssg63
g1039
sg56
(lp1051
S':'
asbag49
(g70
g51
NtRp1052
(dp1053
g54
(dp1054
sg63
g1039
sg56
(lp1055
g49
(g50
g51
NtRp1056
(dp1057
g54
(dp1058
g62
I4
ssg63
g1052
sg56
(lp1059
S'max-age=0'
p1060
asbasbasbag49
(g65
g51
NtRp1061
(dp1062
g54
(dp1063
sg63
g790
sg56
(lp1064
g49
(g70
g51
NtRp1065
(dp1066
g54
(dp1067
g74
g75
ssg63
g1061
sg56
(lp1068
S'http_connection'
p1069
asbag49
(g70
g51
NtRp1070
(dp1071
g54
(dp1072
g81
g82
ssg63
g1061
sg56
(lp1073
S':'
asbag49
(g70
g51
NtRp1074
(dp1075
g54
(dp1076
sg63
g1061
sg56
(lp1077
g49
(g50
g51
NtRp1078
(dp1079
g54
(dp1080
g62
I4
ssg63
g1074
sg56
(lp1081
S'keep-alive'
p1082
asbasbasbag49
(g65
g51
NtRp1083
(dp1084
g54
(dp1085
sg63
g790
sg56
(lp1086
g49
(g70
g51
NtRp1087
(dp1088
g54
(dp1089
g74
g75
ssg63
g1083
sg56
(lp1090
S'http_cookie'
p1091
asbag49
(g70
g51
NtRp1092
(dp1093
g54
(dp1094
g81
g82
ssg63
g1083
sg56
(lp1095
S':'
asbag49
(g70
g51
NtRp1096
(dp1097
g54
(dp1098
sg63
g1083
sg56
(lp1099
g49
(g50
g51
NtRp1100
(dp1101
g54
(dp1102
g62
I4
ssg63
g1096
sg56
(lp1103
S'_define_session=BAh7CEkiD3Nlc3Npb25faWQGOgZFRkkiJTVmM2YzOTE4ZmYyNzY4ZDRjYjY5YjcyOGNkZTAxODEwBjsAVEkiEF9jc3JmX3Rva2VuBjsARkkiMVY4MTBXWE1hdGNGUGR0ZzhxeStGc3FiajlCNzB6UkpqcHZUalZJNjRFNms9BjsARkkiGXdhcmRlbi51c2VyLnVzZXIua2V5BjsAVFsISSIJVXNlcgY7AEZbBmkGSSIiJDJhJDEwJGxpeDBzN29QMk5ocFJWZUl4RXZ4WXUGOwBU--36fb82eb40ee1558fc8e56b5bce1c04bba1a6c00; _bs_session=BAh7B0kiD3Nlc3Npb25faWQGOgZFRkkiJWFhOTlmNjdkODEzYjIwNGMyNGUwMTZmNjlkMDBjMjlhBjsAVEkiEF9jc3JmX3Rva2VuBjsARkkiMUJjek16b0JSUDluYk5MekI0YlNTMklPb2Q3V3pNQzJXcHQ1enY1RDgrT3c9BjsARg%3D%3D--80cc0f5e6211d60923eda39a15903de5a280521a; _table_session=BAh7B0kiD3Nlc3Npb25faWQGOgZFRkkiJTdhZTA3MzFhMGMxM2Q4YTAxZGQ3ZTNlMDM2ODIwOWY3BjsAVEkiEF9jc3JmX3Rva2VuBjsARkkiMWxKWVRtT3hGU3dxT0tnbmJ1OG1iL3FXSW9jWVRJdnZhZHJmNTN2b1BqR2M9BjsARg%3D%3D--a8b8801fe97e379d91991be9a0d21a60f46bc09e; _usertable_session=BAh7CEkiD3Nlc3Npb25faWQGOgZFRkkiJTRmY2NiMWMyOTE1ZThhYzE1MzVlYmU3ODMxZjdhM2NmBjsAVEkiEF9jc3JmX3Rva2VuBjsARkkiMXlibkQxRk5wVVFFU05OcDVxMEQvUURSZWRJQVlRY1JwYTdoSkRucEtlYXc9BjsARkkiCmZsYXNoBjsARm86JUFjdGlvbkRpc3BhdGNoOjpGbGFzaDo6Rmxhc2hIYXNoCToKQHVzZWRvOghTZXQGOgpAaGFzaHsAOgxAY2xvc2VkRjoNQGZsYXNoZXN7BjoLbm90aWNlSSItRmllbGQgcmVsYXRpb24gd2FzIHN1Y2Nlc3NmdWxseSBjcmVhdGVkLgY7AEY6CUBub3cw--c455129d4f2ca1e085c6ad184fd200aecc0b7061; _tbls_session=BAh7B0kiD3Nlc3Npb25faWQGOgZFRkkiJWY5MmM2Mzk2ZWQ0M2ZlODZkN2E5YjMxYmViOTU4NTI2BjsAVEkiEF9jc3JmX3Rva2VuBjsARkkiMVZjemQ4UGhpZXhnaEhnOUE2alRCRmdGSXFBclViMFhwQlo5Ulg2VTRhdFk9BjsARg%3D%3D--53586c2b8499a2c56c427cd8b8e3de116331bd4d; _typel_session=BAh7CEkiD3Nlc3Npb25faWQGOgZFRkkiJWQzMjkxZGExNGY5ZTQzNzIzZTk5MWZmZTM0NDY2NTFiBjsAVEkiEF9jc3JmX3Rva2VuBjsARkkiMWM5cVg1c3pKalpQSjd3Yk5lanQ5alpjZW4zRmNOVXdQS29YNExGOXJIUWM9BjsARkkiGXdhcmRlbi51c2VyLnVzZXIua2V5BjsAVFsISSIJVXNlcgY7AEZbBmkGSSIiJDJhJDEwJEVybm5aY0RTdm9sRjRETENhdjRveGUGOwBU--df06a9ed1ab2763964f111c2534c9f2a3630c12c; _ampersand_factory_session=BAh7CUkiD3Nlc3Npb25faWQGOgZFRkkiJWI2NTFmMThjZDNkMWU4NTNhNmI4OWU1MjNhYjMyZmQ0BjsAVEkiDWluc3RhbmNlBjsARmkGSSIQX2NzcmZfdG9rZW4GOwBGSSIxTEtBZER3MFlQQUV6Nmh1NW95TG4vUTFGcFdXa1ozWTVJaUx5aXh4ZndTVT0GOwBGSSIbd2FyZGVuLnVzZXIud29ya2VyLmtleQY7AFRbCEkiC1dvcmtlcgY7AEZbBmkGSSIiJDJhJDEwJGlEdndMRmhzQXB5eE1tLnhjMFM2di4GOwBU--e6bc7e5d4e945842bb7862fd547d433b3c7bfdcb; _lang_session=BAh7B0kiD3Nlc3Npb25faWQGOgZFRkkiJTY2YzI4YTY5NDkzNzE1ZGIzYzUwNWM3ZDg2ZmY1MWNiBjsAVEkiEF9jc3JmX3Rva2VuBjsARkkiMVdVczNjYnUvY2tZaHFvMVlwLy9zemdCcFliUytKdTlUTGZ3M1RIUlI3aHc9BjsARg%3D%3D--52f16b665cb4cfc5b54cea21c7b082ab6b75b1bf; session_id_welcome=127.0.0.1-dfebfa33-25aa-4072-bce4-08f7e89e2d04; session_id_hellow=127.0.0.1-bbea59f2-333e-4593-a45c-2c44a5133d77; session_id_admin=127.0.0.1-bf448199-cadc-41e3-b1a7-bed302e89a3e'
p1104
asbasbasbag49
(g65
g51
NtRp1105
(dp1106
g54
(dp1107
sg63
g790
sg56
(lp1108
g49
(g70
g51
NtRp1109
(dp1110
g54
(dp1111
g74
g75
ssg63
g1105
sg56
(lp1112
S'http_host'
p1113
asbag49
(g70
g51
NtRp1114
(dp1115
g54
(dp1116
g81
g82
ssg63
g1105
sg56
(lp1117
S':'
asbag49
(g70
g51
NtRp1118
(dp1119
g54
(dp1120
sg63
g1105
sg56
(lp1121
g49
(g50
g51
NtRp1122
(dp1123
g54
(dp1124
g62
I4
ssg63
g1118
sg56
(lp1125
S'localhost:8887'
p1126
asbasbasbag49
(g65
g51
NtRp1127
(dp1128
g54
(dp1129
sg63
g790
sg56
(lp1130
g49
(g70
g51
NtRp1131
(dp1132
g54
(dp1133
g74
g75
ssg63
g1127
sg56
(lp1134
S'http_user_agent'
p1135
asbag49
(g70
g51
NtRp1136
(dp1137
g54
(dp1138
g81
g82
ssg63
g1127
sg56
(lp1139
S':'
asbag49
(g70
g51
NtRp1140
(dp1141
g54
(dp1142
sg63
g1127
sg56
(lp1143
g49
(g50
g51
NtRp1144
(dp1145
g54
(dp1146
g62
I4
ssg63
g1140
sg56
(lp1147
S'Mozilla/5.0 (Macintosh; Intel Mac OS X 10_8_3) AppleWebKit/537.22 (KHTML, like Gecko) Chrome/25.0.1364.172 Safari/537.22'
p1148
asbasbasbag49
(g65
g51
NtRp1149
(dp1150
g54
(dp1151
sg63
g790
sg56
(lp1152
g49
(g70
g51
NtRp1153
(dp1154
g54
(dp1155
g74
g75
ssg63
g1149
sg56
(lp1156
S'is_jython'
p1157
asbag49
(g70
g51
NtRp1158
(dp1159
g54
(dp1160
g81
g82
ssg63
g1149
sg56
(lp1161
S':'
asbag49
(g70
g51
NtRp1162
(dp1163
g54
(dp1164
sg63
g1149
sg56
(lp1165
g49
(g50
g51
NtRp1166
(dp1167
g54
(dp1168
g62
I4
ssg63
g1162
sg56
(lp1169
g92
asbasbasbag49
(g65
g51
NtRp1170
(dp1171
g54
(dp1172
sg63
g790
sg56
(lp1173
g49
(g70
g51
NtRp1174
(dp1175
g54
(dp1176
g74
g75
ssg63
g1170
sg56
(lp1177
S'is_pypy'
p1178
asbag49
(g70
g51
NtRp1179
(dp1180
g54
(dp1181
g81
g82
ssg63
g1170
sg56
(lp1182
S':'
asbag49
(g70
g51
NtRp1183
(dp1184
g54
(dp1185
sg63
g1170
sg56
(lp1186
g49
(g50
g51
NtRp1187
(dp1188
g54
(dp1189
g62
I4
ssg63
g1183
sg56
(lp1190
g92
asbasbasbag49
(g65
g51
NtRp1191
(dp1192
g54
(dp1193
sg63
g790
sg56
(lp1194
g49
(g70
g51
NtRp1195
(dp1196
g54
(dp1197
g74
g75
ssg63
g1191
sg56
(lp1198
S'local_hosts'
p1199
asbag49
(g70
g51
NtRp1200
(dp1201
g54
(dp1202
g81
g82
ssg63
g1191
sg56
(lp1203
S':'
asbag49
(g70
g51
NtRp1204
(dp1205
g54
(dp1206
sg63
g1191
sg56
(lp1207
g49
(g50
g51
NtRp1208
(dp1209
g54
(dp1210
g62
I4
ssg63
g1204
sg56
(lp1211
g49
(g58
g51
NtRp1212
(dp1213
g54
(dp1214
g62
I3
ssg63
Nsg56
(lp1215
g49
(g65
g51
NtRp1216
(dp1217
g54
(dp1218
sg63
g1212
sg56
(lp1219
g49
(g70
g51
NtRp1220
(dp1221
g54
(dp1222
sg63
g1216
sg56
(lp1223
g49
(g50
g51
NtRp1224
(dp1225
g54
(dp1226
g62
I3
ssg63
g1220
sg56
(lp1227
S'130.91.151.157'
p1228
asbasbasbag49
(g65
g51
NtRp1229
(dp1230
g54
(dp1231
sg63
g1212
sg56
(lp1232
g49
(g70
g51
NtRp1233
(dp1234
g54
(dp1235
sg63
g1229
sg56
(lp1236
g49
(g50
g51
NtRp1237
(dp1238
g54
(dp1239
g62
I3
ssg63
g1233
sg56
(lp1240
S'::1'
p1241
asbasbasbag49
(g65
g51
NtRp1242
(dp1243
g54
(dp1244
sg63
g1212
sg56
(lp1245
g49
(g70
g51
NtRp1246
(dp1247
g54
(dp1248
sg63
g1242
sg56
(lp1249
g49
(g50
g51
NtRp1250
(dp1251
g54
(dp1252
g62
I3
ssg63
g1246
sg56
(lp1253
S'::ffff:127.0.0.1'
p1254
asbasbasbag49
(g65
g51
NtRp1255
(dp1256
g54
(dp1257
sg63
g1212
sg56
(lp1258
g49
(g70
g51
NtRp1259
(dp1260
g54
(dp1261
sg63
g1255
sg56
(lp1262
g49
(g50
g51
NtRp1263
(dp1264
g54
(dp1265
g62
I3
ssg63
g1259
sg56
(lp1266
S'127.0.0.1'
p1267
asbasbasbag49
(g65
g51
NtRp1268
(dp1269
g54
(dp1270
sg63
g1212
sg56
(lp1271
g49
(g70
g51
NtRp1272
(dp1273
g54
(dp1274
sg63
g1268
sg56
(lp1275
g49
(g50
g51
NtRp1276
(dp1277
g54
(dp1278
g62
I3
ssg63
g1272
sg56
(lp1279
S'hntvlan531.0924.wlan.wireless-pennnet.upenn.edu'
p1280
asbasbasbasbasbasbasbag49
(g65
g51
NtRp1281
(dp1282
g54
(dp1283
sg63
g790
sg56
(lp1284
g49
(g70
g51
NtRp1285
(dp1286
g54
(dp1287
g74
g75
ssg63
g1281
sg56
(lp1288
S'path_info'
p1289
asbag49
(g70
g51
NtRp1290
(dp1291
g54
(dp1292
g81
g82
ssg63
g1281
sg56
(lp1293
S':'
asbag49
(g70
g51
NtRp1294
(dp1295
g54
(dp1296
sg63
g1281
sg56
(lp1297
g49
(g50
g51
NtRp1298
(dp1299
g54
(dp1300
g62
I4
ssg63
g1294
sg56
(lp1301
S'/hellow/game/show/1'
p1302
asbasbasbag49
(g65
g51
NtRp1303
(dp1304
g54
(dp1305
sg63
g790
sg56
(lp1306
g49
(g70
g51
NtRp1307
(dp1308
g54
(dp1309
g74
g75
ssg63
g1303
sg56
(lp1310
S'query_string'
p1311
asbag49
(g70
g51
NtRp1312
(dp1313
g54
(dp1314
g81
g82
ssg63
g1303
sg56
(lp1315
S':'
asbag49
(g70
g51
NtRp1316
(dp1317
g54
(dp1318
sg63
g1303
sg56
(lp1319
g49
(g50
g51
NtRp1320
(dp1321
g54
(dp1322
g62
I4
ssg63
g1316
sg56
(lp1323
S''
asbasbasbag49
(g65
g51
NtRp1324
(dp1325
g54
(dp1326
sg63
g790
sg56
(lp1327
g49
(g70
g51
NtRp1328
(dp1329
g54
(dp1330
g74
g75
ssg63
g1324
sg56
(lp1331
S'remote_addr'
p1332
asbag49
(g70
g51
NtRp1333
(dp1334
g54
(dp1335
g81
g82
ssg63
g1324
sg56
(lp1336
S':'
asbag49
(g70
g51
NtRp1337
(dp1338
g54
(dp1339
sg63
g1324
sg56
(lp1340
g49
(g50
g51
NtRp1341
(dp1342
g54
(dp1343
g62
I4
ssg63
g1337
sg56
(lp1344
g216
asbasbasbag49
(g65
g51
NtRp1345
(dp1346
g54
(dp1347
sg63
g790
sg56
(lp1348
g49
(g70
g51
NtRp1349
(dp1350
g54
(dp1351
g74
g75
ssg63
g1345
sg56
(lp1352
S'remote_port'
p1353
asbag49
(g70
g51
NtRp1354
(dp1355
g54
(dp1356
g81
g82
ssg63
g1345
sg56
(lp1357
S':'
asbag49
(g70
g51
NtRp1358
(dp1359
g54
(dp1360
sg63
g1345
sg56
(lp1361
g49
(g50
g51
NtRp1362
(dp1363
g54
(dp1364
g62
I4
ssg63
g1358
sg56
(lp1365
S'54191'
p1366
asbasbasbag49
(g65
g51
NtRp1367
(dp1368
g54
(dp1369
sg63
g790
sg56
(lp1370
g49
(g70
g51
NtRp1371
(dp1372
g54
(dp1373
g74
g75
ssg63
g1367
sg56
(lp1374
S'request_method'
p1375
asbag49
(g70
g51
NtRp1376
(dp1377
g54
(dp1378
g81
g82
ssg63
g1367
sg56
(lp1379
S':'
asbag49
(g70
g51
NtRp1380
(dp1381
g54
(dp1382
sg63
g1367
sg56
(lp1383
g49
(g50
g51
NtRp1384
(dp1385
g54
(dp1386
g62
I4
ssg63
g1380
sg56
(lp1387
S'GET'
p1388
asbasbasbag49
(g65
g51
NtRp1389
(dp1390
g54
(dp1391
sg63
g790
sg56
(lp1392
g49
(g70
g51
NtRp1393
(dp1394
g54
(dp1395
g74
g75
ssg63
g1389
sg56
(lp1396
S'request_uri'
p1397
asbag49
(g70
g51
NtRp1398
(dp1399
g54
(dp1400
g81
g82
ssg63
g1389
sg56
(lp1401
S':'
asbag49
(g70
g51
NtRp1402
(dp1403
g54
(dp1404
sg63
g1389
sg56
(lp1405
g49
(g50
g51
NtRp1406
(dp1407
g54
(dp1408
g62
I4
ssg63
g1402
sg56
(lp1409
g1302
asbasbasbag49
(g65
g51
NtRp1410
(dp1411
g54
(dp1412
sg63
g790
sg56
(lp1413
g49
(g70
g51
NtRp1414
(dp1415
g54
(dp1416
g74
g75
ssg63
g1410
sg56
(lp1417
S'script_name'
p1418
asbag49
(g70
g51
NtRp1419
(dp1420
g54
(dp1421
g81
g82
ssg63
g1410
sg56
(lp1422
S':'
asbag49
(g70
g51
NtRp1423
(dp1424
g54
(dp1425
sg63
g1410
sg56
(lp1426
g49
(g50
g51
NtRp1427
(dp1428
g54
(dp1429
g62
I4
ssg63
g1423
sg56
(lp1430
S''
asbasbasbag49
(g65
g51
NtRp1431
(dp1432
g54
(dp1433
sg63
g790
sg56
(lp1434
g49
(g70
g51
NtRp1435
(dp1436
g54
(dp1437
g74
g75
ssg63
g1431
sg56
(lp1438
S'server_name'
p1439
asbag49
(g70
g51
NtRp1440
(dp1441
g54
(dp1442
g81
g82
ssg63
g1431
sg56
(lp1443
S':'
asbag49
(g70
g51
NtRp1444
(dp1445
g54
(dp1446
sg63
g1431
sg56
(lp1447
g49
(g50
g51
NtRp1448
(dp1449
g54
(dp1450
g62
I4
ssg63
g1444
sg56
(lp1451
S'hntvlan531.0924.wlan.wireless-pennnet.upenn.edu'
p1452
asbasbasbag49
(g65
g51
NtRp1453
(dp1454
g54
(dp1455
sg63
g790
sg56
(lp1456
g49
(g70
g51
NtRp1457
(dp1458
g54
(dp1459
g74
g75
ssg63
g1453
sg56
(lp1460
S'server_port'
p1461
asbag49
(g70
g51
NtRp1462
(dp1463
g54
(dp1464
g81
g82
ssg63
g1453
sg56
(lp1465
S':'
asbag49
(g70
g51
NtRp1466
(dp1467
g54
(dp1468
sg63
g1453
sg56
(lp1469
g49
(g50
g51
NtRp1470
(dp1471
g54
(dp1472
g62
I4
ssg63
g1466
sg56
(lp1473
S'8887'
p1474
asbasbasbag49
(g65
g51
NtRp1475
(dp1476
g54
(dp1477
sg63
g790
sg56
(lp1478
g49
(g70
g51
NtRp1479
(dp1480
g54
(dp1481
g74
g75
ssg63
g1475
sg56
(lp1482
S'server_protocol'
p1483
asbag49
(g70
g51
NtRp1484
(dp1485
g54
(dp1486
g81
g82
ssg63
g1475
sg56
(lp1487
S':'
asbag49
(g70
g51
NtRp1488
(dp1489
g54
(dp1490
sg63
g1475
sg56
(lp1491
g49
(g50
g51
NtRp1492
(dp1493
g54
(dp1494
g62
I4
ssg63
g1488
sg56
(lp1495
S'HTTP/1.1'
p1496
asbasbasbag49
(g65
g51
NtRp1497
(dp1498
g54
(dp1499
sg63
g790
sg56
(lp1500
g49
(g70
g51
NtRp1501
(dp1502
g54
(dp1503
g74
g75
ssg63
g1497
sg56
(lp1504
S'server_software'
p1505
asbag49
(g70
g51
NtRp1506
(dp1507
g54
(dp1508
g81
g82
ssg63
g1497
sg56
(lp1509
S':'
asbag49
(g70
g51
NtRp1510
(dp1511
g54
(dp1512
sg63
g1497
sg56
(lp1513
g49
(g50
g51
NtRp1514
(dp1515
g54
(dp1516
g62
I4
ssg63
g1510
sg56
(lp1517
S'Rocket 1.2.6'
p1518
asbasbasbag49
(g65
g51
NtRp1519
(dp1520
g54
(dp1521
sg63
g790
sg56
(lp1522
g49
(g70
g51
NtRp1523
(dp1524
g54
(dp1525
g74
g75
ssg63
g1519
sg56
(lp1526
S'web2py_path'
p1527
asbag49
(g70
g51
NtRp1528
(dp1529
g54
(dp1530
g81
g82
ssg63
g1519
sg56
(lp1531
S':'
asbag49
(g70
g51
NtRp1532
(dp1533
g54
(dp1534
sg63
g1519
sg56
(lp1535
g49
(g50
g51
NtRp1536
(dp1537
g54
(dp1538
g62
I4
ssg63
g1532
sg56
(lp1539
g837
asbasbasbag49
(g65
g51
NtRp1540
(dp1541
g54
(dp1542
sg63
g790
sg56
(lp1543
g49
(g70
g51
NtRp1544
(dp1545
g54
(dp1546
g74
g75
ssg63
g1540
sg56
(lp1547
S'web2py_version'
p1548
asbag49
(g70
g51
NtRp1549
(dp1550
g54
(dp1551
g81
g82
ssg63
g1540
sg56
(lp1552
S':'
asbag49
(g70
g51
NtRp1553
(dp1554
g54
(dp1555
sg63
g1540
sg56
(lp1556
g49
(g50
g51
NtRp1557
(dp1558
g54
(dp1559
g62
I4
ssg63
g1553
sg56
(lp1560
g49
(g58
g51
NtRp1561
(dp1562
g54
(dp1563
g62
I3
ssg63
Nsg56
(lp1564
g49
(g65
g51
NtRp1565
(dp1566
g54
(dp1567
sg63
g1561
sg56
(lp1568
g49
(g70
g51
NtRp1569
(dp1570
g54
(dp1571
sg63
g1565
sg56
(lp1572
g49
(g50
g51
NtRp1573
(dp1574
g54
(dp1575
g62
I3
ssg63
g1569
sg56
(lp1576
S'2'
asbasbasbag49
(g65
g51
NtRp1577
(dp1578
g54
(dp1579
sg63
g1561
sg56
(lp1580
g49
(g70
g51
NtRp1581
(dp1582
g54
(dp1583
sg63
g1577
sg56
(lp1584
g49
(g50
g51
NtRp1585
(dp1586
g54
(dp1587
g62
I3
ssg63
g1581
sg56
(lp1588
S'4'
asbasbasbag49
(g65
g51
NtRp1589
(dp1590
g54
(dp1591
sg63
g1561
sg56
(lp1592
g49
(g70
g51
NtRp1593
(dp1594
g54
(dp1595
sg63
g1589
sg56
(lp1596
g49
(g50
g51
NtRp1597
(dp1598
g54
(dp1599
g62
I3
ssg63
g1593
sg56
(lp1600
S'5'
asbasbasbag49
(g65
g51
NtRp1601
(dp1602
g54
(dp1603
sg63
g1561
sg56
(lp1604
g49
(g70
g51
NtRp1605
(dp1606
g54
(dp1607
sg63
g1601
sg56
(lp1608
g49
(g50
g51
NtRp1609
(dp1610
g54
(dp1611
g62
I3
ssg63
g1605
sg56
(lp1612
S'stable'
p1613
asbasbasbag49
(g65
g51
NtRp1614
(dp1615
g54
(dp1616
sg63
g1561
sg56
(lp1617
g49
(g70
g51
NtRp1618
(dp1619
g54
(dp1620
sg63
g1614
sg56
(lp1621
g49
(g50
g51
NtRp1622
(dp1623
g54
(dp1624
g62
I3
ssg63
g1618
sg56
(lp1625
S'datetime.datetime(2013, 3, 18, 22, 46, 22)'
p1626
asbasbasbasbasbasbasbag49
(g65
g51
NtRp1627
(dp1628
g54
(dp1629
sg63
g790
sg56
(lp1630
g49
(g70
g51
NtRp1631
(dp1632
g54
(dp1633
g74
g75
ssg63
g1627
sg56
(lp1634
S'wsgi_errors'
p1635
asbag49
(g70
g51
NtRp1636
(dp1637
g54
(dp1638
g81
g82
ssg63
g1627
sg56
(lp1639
S':'
asbag49
(g70
g51
NtRp1640
(dp1641
g54
(dp1642
sg63
g1627
sg56
(lp1643
g49
(g50
g51
NtRp1644
(dp1645
g54
(dp1646
g62
I4
ssg63
g1640
sg56
(lp1647
S"<open file '<stderr>', mode 'w' at 0x540b0>"
p1648
asbasbasbag49
(g65
g51
NtRp1649
(dp1650
g54
(dp1651
sg63
g790
sg56
(lp1652
g49
(g70
g51
NtRp1653
(dp1654
g54
(dp1655
g74
g75
ssg63
g1649
sg56
(lp1656
S'wsgi_file_wrapper'
p1657
asbag49
(g70
g51
NtRp1658
(dp1659
g54
(dp1660
g81
g82
ssg63
g1649
sg56
(lp1661
S':'
asbag49
(g70
g51
NtRp1662
(dp1663
g54
(dp1664
sg63
g1649
sg56
(lp1665
g49
(g50
g51
NtRp1666
(dp1667
g54
(dp1668
g62
I4
ssg63
g1662
sg56
(lp1669
S'<class wsgiref.util.FileWrapper at 0x329d060>'
p1670
asbasbasbag49
(g65
g51
NtRp1671
(dp1672
g54
(dp1673
sg63
g790
sg56
(lp1674
g49
(g70
g51
NtRp1675
(dp1676
g54
(dp1677
g74
g75
ssg63
g1671
sg56
(lp1678
S'wsgi_input'
p1679
asbag49
(g70
g51
NtRp1680
(dp1681
g54
(dp1682
g81
g82
ssg63
g1671
sg56
(lp1683
S':'
asbag49
(g70
g51
NtRp1684
(dp1685
g54
(dp1686
sg63
g1671
sg56
(lp1687
g49
(g50
g51
NtRp1688
(dp1689
g54
(dp1690
g62
I4
ssg63
g1684
sg56
(lp1691
S'<socket._fileobject object at 0xa2f04f0>'
p1692
asbasbasbag49
(g65
g51
NtRp1693
(dp1694
g54
(dp1695
sg63
g790
sg56
(lp1696
g49
(g70
g51
NtRp1697
(dp1698
g54
(dp1699
g74
g75
ssg63
g1693
sg56
(lp1700
S'wsgi_multiprocess'
p1701
asbag49
(g70
g51
NtRp1702
(dp1703
g54
(dp1704
g81
g82
ssg63
g1693
sg56
(lp1705
S':'
asbag49
(g70
g51
NtRp1706
(dp1707
g54
(dp1708
sg63
g1693
sg56
(lp1709
g49
(g50
g51
NtRp1710
(dp1711
g54
(dp1712
g62
I4
ssg63
g1706
sg56
(lp1713
g92
asbasbasbag49
(g65
g51
NtRp1714
(dp1715
g54
(dp1716
sg63
g790
sg56
(lp1717
g49
(g70
g51
NtRp1718
(dp1719
g54
(dp1720
g74
g75
ssg63
g1714
sg56
(lp1721
S'wsgi_multithread'
p1722
asbag49
(g70
g51
NtRp1723
(dp1724
g54
(dp1725
g81
g82
ssg63
g1714
sg56
(lp1726
S':'
asbag49
(g70
g51
NtRp1727
(dp1728
g54
(dp1729
sg63
g1714
sg56
(lp1730
g49
(g50
g51
NtRp1731
(dp1732
g54
(dp1733
g62
I4
ssg63
g1727
sg56
(lp1734
g928
asbasbasbag49
(g65
g51
NtRp1735
(dp1736
g54
(dp1737
sg63
g790
sg56
(lp1738
g49
(g70
g51
NtRp1739
(dp1740
g54
(dp1741
g74
g75
ssg63
g1735
sg56
(lp1742
S'wsgi_run_once'
p1743
asbag49
(g70
g51
NtRp1744
(dp1745
g54
(dp1746
g81
g82
ssg63
g1735
sg56
(lp1747
S':'
asbag49
(g70
g51
NtRp1748
(dp1749
g54
(dp1750
sg63
g1735
sg56
(lp1751
g49
(g50
g51
NtRp1752
(dp1753
g54
(dp1754
g62
I4
ssg63
g1748
sg56
(lp1755
g92
asbasbasbag49
(g65
g51
NtRp1756
(dp1757
g54
(dp1758
sg63
g790
sg56
(lp1759
g49
(g70
g51
NtRp1760
(dp1761
g54
(dp1762
g74
g75
ssg63
g1756
sg56
(lp1763
S'wsgi_url_scheme'
p1764
asbag49
(g70
g51
NtRp1765
(dp1766
g54
(dp1767
g81
g82
ssg63
g1756
sg56
(lp1768
S':'
asbag49
(g70
g51
NtRp1769
(dp1770
g54
(dp1771
sg63
g1756
sg56
(lp1772
g49
(g50
g51
NtRp1773
(dp1774
g54
(dp1775
g62
I4
ssg63
g1769
sg56
(lp1776
S'http'
p1777
asbasbasbag49
(g65
g51
NtRp1778
(dp1779
g54
(dp1780
sg63
g790
sg56
(lp1781
g49
(g70
g51
NtRp1782
(dp1783
g54
(dp1784
g74
g75
ssg63
g1778
sg56
(lp1785
S'wsgi_version'
p1786
asbag49
(g70
g51
NtRp1787
(dp1788
g54
(dp1789
g81
g82
ssg63
g1778
sg56
(lp1790
S':'
asbag49
(g70
g51
NtRp1791
(dp1792
g54
(dp1793
sg63
g1778
sg56
(lp1794
g49
(g50
g51
NtRp1795
(dp1796
g54
(dp1797
g62
I4
ssg63
g1791
sg56
(lp1798
g49
(g58
g51
NtRp1799
(dp1800
g54
(dp1801
g62
I3
ssg63
Nsg56
(lp1802
g49
(g65
g51
NtRp1803
(dp1804
g54
(dp1805
sg63
g1799
sg56
(lp1806
g49
(g70
g51
NtRp1807
(dp1808
g54
(dp1809
sg63
g1803
sg56
(lp1810
g49
(g50
g51
NtRp1811
(dp1812
g54
(dp1813
g62
I3
ssg63
g1807
sg56
(lp1814
S'1'
asbasbasbag49
(g65
g51
NtRp1815
(dp1816
g54
(dp1817
sg63
g1799
sg56
(lp1818
g49
(g70
g51
NtRp1819
(dp1820
g54
(dp1821
sg63
g1815
sg56
(lp1822
g49
(g50
g51
NtRp1823
(dp1824
g54
(dp1825
g62
I3
ssg63
g1819
sg56
(lp1826
S'0'
asbasbasbasbasbasbasbasbasbasbasbag49
(g65
g51
NtRp1827
(dp1828
g54
(dp1829
sg63
g59
sg56
(lp1830
g49
(g70
g51
NtRp1831
(dp1832
g54
(dp1833
g74
g75
ssg63
g1827
sg56
(lp1834
S'extension'
p1835
asbag49
(g70
g51
NtRp1836
(dp1837
g54
(dp1838
g81
g82
ssg63
g1827
sg56
(lp1839
S':'
asbag49
(g70
g51
NtRp1840
(dp1841
g54
(dp1842
sg63
g1827
sg56
(lp1843
g49
(g50
g51
NtRp1844
(dp1845
g54
(dp1846
g62
I5
ssg63
g1840
sg56
(lp1847
S'html'
p1848
asbasbasbag49
(g65
g51
NtRp1849
(dp1850
g54
(dp1851
sg63
g59
sg56
(lp1852
g49
(g70
g51
NtRp1853
(dp1854
g54
(dp1855
g74
g75
ssg63
g1849
sg56
(lp1856
S'folder'
p1857
asbag49
(g70
g51
NtRp1858
(dp1859
g54
(dp1860
g81
g82
ssg63
g1849
sg56
(lp1861
S':'
asbag49
(g70
g51
NtRp1862
(dp1863
g54
(dp1864
sg63
g1849
sg56
(lp1865
g49
(g50
g51
NtRp1866
(dp1867
g54
(dp1868
g62
I5
ssg63
g1862
sg56
(lp1869
S'/Users/zamechek/Downloads/web2py/web2py.app/Contents/Resources/applications/hellow/'
p1870
asbasbasbag49
(g65
g51
NtRp1871
(dp1872
g54
(dp1873
sg63
g59
sg56
(lp1874
g49
(g70
g51
NtRp1875
(dp1876
g54
(dp1877
g74
g75
ssg63
g1871
sg56
(lp1878
S'function'
p1879
asbag49
(g70
g51
NtRp1880
(dp1881
g54
(dp1882
g81
g82
ssg63
g1871
sg56
(lp1883
S':'
asbag49
(g70
g51
NtRp1884
(dp1885
g54
(dp1886
sg63
g1871
sg56
(lp1887
g49
(g50
g51
NtRp1888
(dp1889
g54
(dp1890
g62
I5
ssg63
g1884
sg56
(lp1891
S'show'
p1892
asbasbasbag49
(g65
g51
NtRp1893
(dp1894
g54
(dp1895
sg63
g59
sg56
(lp1896
g49
(g70
g51
NtRp1897
(dp1898
g54
(dp1899
g74
g75
ssg63
g1893
sg56
(lp1900
S'get_vars'
p1901
asbag49
(g70
g51
NtRp1902
(dp1903
g54
(dp1904
g81
g82
ssg63
g1893
sg56
(lp1905
S':'
asbag49
(g70
g51
NtRp1906
(dp1907
g54
(dp1908
sg63
g1893
sg56
(lp1909
g49
(g50
g51
NtRp1910
(dp1911
g54
(dp1912
g62
I5
ssg63
g1906
sg56
(lp1913
g49
(g58
g51
NtRp1914
(dp1915
g54
(dp1916
g62
I4
ssg63
Nsg56
(lp1917
sbasbasbasbag49
(g65
g51
NtRp1918
(dp1919
g54
(dp1920
sg63
g59
sg56
(lp1921
g49
(g70
g51
NtRp1922
(dp1923
g54
(dp1924
g74
g75
ssg63
g1918
sg56
(lp1925
S'global_settings'
p1926
asbag49
(g70
g51
NtRp1927
(dp1928
g54
(dp1929
g81
g82
ssg63
g1918
sg56
(lp1930
S':'
asbag49
(g70
g51
NtRp1931
(dp1932
g54
(dp1933
sg63
g1918
sg56
(lp1934
g49
(g50
g51
NtRp1935
(dp1936
g54
(dp1937
g62
I5
ssg63
g1931
sg56
(lp1938
g49
(g58
g51
NtRp1939
(dp1940
g54
(dp1941
g62
I4
ssg63
Nsg56
(lp1942
g49
(g65
g51
NtRp1943
(dp1944
g54
(dp1945
sg63
g1939
sg56
(lp1946
g49
(g70
g51
NtRp1947
(dp1948
g54
(dp1949
g74
g75
ssg63
g1943
sg56
(lp1950
g802
asbag49
(g70
g51
NtRp1951
(dp1952
g54
(dp1953
g81
g82
ssg63
g1943
sg56
(lp1954
S':'
asbag49
(g70
g51
NtRp1955
(dp1956
g54
(dp1957
sg63
g1943
sg56
(lp1958
g49
(g50
g51
NtRp1959
(dp1960
g54
(dp1961
g62
I4
ssg63
g1955
sg56
(lp1962
S"set(['/Users/zamechek/Downloads/web2py/web2py.app/Contents/Resources/applications/examples/', '/Users/zamechek/Downloads/web2py/web2py.app/Contents/Resources/applications/hellow/', '/Users/zamechek/Downloads/web2py/web2py.app/Contents/Resources/applications/admin/', '/Users/zamechek/Downloads/web2py/web2py.app/Contents/Resources/applications/slots/', '/Users/zamechek/Downloads/web2py/web2py.app/Contents/Resources/applications/welcome/'])"
p1963
asbasbasbag49
(g65
g51
NtRp1964
(dp1965
g54
(dp1966
sg63
g1939
sg56
(lp1967
g49
(g70
g51
NtRp1968
(dp1969
g54
(dp1970
g74
g75
ssg63
g1964
sg56
(lp1971
g824
asbag49
(g70
g51
NtRp1972
(dp1973
g54
(dp1974
g81
g82
ssg63
g1964
sg56
(lp1975
S':'
asbag49
(g70
g51
NtRp1976
(dp1977
g54
(dp1978
sg63
g1964
sg56
(lp1979
g49
(g50
g51
NtRp1980
(dp1981
g54
(dp1982
g62
I4
ssg63
g1976
sg56
(lp1983
g837
asbasbasbag49
(g65
g51
NtRp1984
(dp1985
g54
(dp1986
sg63
g1939
sg56
(lp1987
g49
(g70
g51
NtRp1988
(dp1989
g54
(dp1990
g74
g75
ssg63
g1984
sg56
(lp1991
g846
asbag49
(g70
g51
NtRp1992
(dp1993
g54
(dp1994
g81
g82
ssg63
g1984
sg56
(lp1995
S':'
asbag49
(g70
g51
NtRp1996
(dp1997
g54
(dp1998
sg63
g1984
sg56
(lp1999
g49
(g50
g51
NtRp2000
(dp2001
g54
(dp2002
g62
I4
ssg63
g1996
sg56
(lp2003
g49
(g58
g51
NtRp2004
(dp2005
g54
(dp2006
g62
I3
ssg63
Nsg56
(lp2007
sbasbasbasbag49
(g65
g51
NtRp2008
(dp2009
g54
(dp2010
sg63
g1939
sg56
(lp2011
g49
(g70
g51
NtRp2012
(dp2013
g54
(dp2014
g74
g75
ssg63
g2008
sg56
(lp2015
g871
asbag49
(g70
g51
NtRp2016
(dp2017
g54
(dp2018
g81
g82
ssg63
g2008
sg56
(lp2019
S':'
asbag49
(g70
g51
NtRp2020
(dp2021
g54
(dp2022
sg63
g2008
sg56
(lp2023
g49
(g50
g51
NtRp2024
(dp2025
g54
(dp2026
g62
I4
ssg63
g2020
sg56
(lp2027
S"<Values at 0x32c8f58: {'verbose': False, 'ip': '127.0.0.1', 'with_scheduler': False, 'ips': ['130.91.151.157'], 'shutdown_timeout': 5, 'taskbar': False, 'port': 8000, 'maxthreads': None, 'softcron': False, 'server_name': 'hntvlan531.0924.wlan.wireless-pennnet.upenn.edu', 'bpython': False, 'nogui': False, 'pid_filename': 'httpserver.pid', 'extcron': False, 'runcron': False, 'run_system_tests': False, 'test': None, 'folder': '/Users/zamechek/Downloads/web2py/web2py.app/Contents/Resources', 'config': '', 'import_models': False, 'winservice': '', 'shell': None, 'run': '', 'log_filename': 'httpserver.log', 'debuglevel': 30, 'args': [''], 'socket_timeout': 5, 'ssl_ca_certificate': None, 'scheduler': None, 'profiler_filename': None, 'ssl_private_key': '', 'scheduler_groups': None, 'password': '<ask>', 'request_queue_size': 5, 'ssl_certificate': '', 'cronjob': False, 'numthreads': None, 'quiet': False, 'interfaces': None, 'minthreads': None, 'timeout': 10, 'plain': False, 'nobanner': False}>"
p2028
asbasbasbag49
(g65
g51
NtRp2029
(dp2030
g54
(dp2031
sg63
g1939
sg56
(lp2032
g49
(g70
g51
NtRp2033
(dp2034
g54
(dp2035
g74
g75
ssg63
g2029
sg56
(lp2036
g893
asbag49
(g70
g51
NtRp2037
(dp2038
g54
(dp2039
g81
g82
ssg63
g2029
sg56
(lp2040
S':'
asbag49
(g70
g51
NtRp2041
(dp2042
g54
(dp2043
sg63
g2029
sg56
(lp2044
g49
(g50
g51
NtRp2045
(dp2046
g54
(dp2047
g62
I4
ssg63
g2041
sg56
(lp2048
S'set([])'
p2049
asbasbasbag49
(g65
g51
NtRp2050
(dp2051
g54
(dp2052
sg63
g1939
sg56
(lp2053
g49
(g70
g51
NtRp2054
(dp2055
g54
(dp2056
g74
g75
ssg63
g2050
sg56
(lp2057
g915
asbag49
(g70
g51
NtRp2058
(dp2059
g54
(dp2060
g81
g82
ssg63
g2050
sg56
(lp2061
S':'
asbag49
(g70
g51
NtRp2062
(dp2063
g54
(dp2064
sg63
g2050
sg56
(lp2065
g49
(g50
g51
NtRp2066
(dp2067
g54
(dp2068
g62
I4
ssg63
g2062
sg56
(lp2069
g928
asbasbasbag49
(g65
g51
NtRp2070
(dp2071
g54
(dp2072
sg63
g1939
sg56
(lp2073
g49
(g70
g51
NtRp2074
(dp2075
g54
(dp2076
g74
g75
ssg63
g2070
sg56
(lp2077
g937
asbag49
(g70
g51
NtRp2078
(dp2079
g54
(dp2080
g81
g82
ssg63
g2070
sg56
(lp2081
S':'
asbag49
(g70
g51
NtRp2082
(dp2083
g54
(dp2084
sg63
g2070
sg56
(lp2085
g49
(g50
g51
NtRp2086
(dp2087
g54
(dp2088
g62
I4
ssg63
g2082
sg56
(lp2089
g950
asbasbasbag49
(g65
g51
NtRp2090
(dp2091
g54
(dp2092
sg63
g1939
sg56
(lp2093
g49
(g70
g51
NtRp2094
(dp2095
g54
(dp2096
g74
g75
ssg63
g2090
sg56
(lp2097
g1157
asbag49
(g70
g51
NtRp2098
(dp2099
g54
(dp2100
g81
g82
ssg63
g2090
sg56
(lp2101
S':'
asbag49
(g70
g51
NtRp2102
(dp2103
g54
(dp2104
sg63
g2090
sg56
(lp2105
g49
(g50
g51
NtRp2106
(dp2107
g54
(dp2108
g62
I4
ssg63
g2102
sg56
(lp2109
g92
asbasbasbag49
(g65
g51
NtRp2110
(dp2111
g54
(dp2112
sg63
g1939
sg56
(lp2113
g49
(g70
g51
NtRp2114
(dp2115
g54
(dp2116
g74
g75
ssg63
g2110
sg56
(lp2117
g1178
asbag49
(g70
g51
NtRp2118
(dp2119
g54
(dp2120
g81
g82
ssg63
g2110
sg56
(lp2121
S':'
asbag49
(g70
g51
NtRp2122
(dp2123
g54
(dp2124
sg63
g2110
sg56
(lp2125
g49
(g50
g51
NtRp2126
(dp2127
g54
(dp2128
g62
I4
ssg63
g2122
sg56
(lp2129
g92
asbasbasbag49
(g65
g51
NtRp2130
(dp2131
g54
(dp2132
sg63
g1939
sg56
(lp2133
g49
(g70
g51
NtRp2134
(dp2135
g54
(dp2136
g74
g75
ssg63
g2130
sg56
(lp2137
g1199
asbag49
(g70
g51
NtRp2138
(dp2139
g54
(dp2140
g81
g82
ssg63
g2130
sg56
(lp2141
S':'
asbag49
(g70
g51
NtRp2142
(dp2143
g54
(dp2144
sg63
g2130
sg56
(lp2145
g49
(g50
g51
NtRp2146
(dp2147
g54
(dp2148
g62
I4
ssg63
g2142
sg56
(lp2149
g49
(g58
g51
NtRp2150
(dp2151
g54
(dp2152
g62
I3
ssg63
Nsg56
(lp2153
g49
(g65
g51
NtRp2154
(dp2155
g54
(dp2156
sg63
g2150
sg56
(lp2157
g49
(g70
g51
NtRp2158
(dp2159
g54
(dp2160
sg63
g2154
sg56
(lp2161
g49
(g50
g51
NtRp2162
(dp2163
g54
(dp2164
g62
I3
ssg63
g2158
sg56
(lp2165
g1228
asbasbasbag49
(g65
g51
NtRp2166
(dp2167
g54
(dp2168
sg63
g2150
sg56
(lp2169
g49
(g70
g51
NtRp2170
(dp2171
g54
(dp2172
sg63
g2166
sg56
(lp2173
g49
(g50
g51
NtRp2174
(dp2175
g54
(dp2176
g62
I3
ssg63
g2170
sg56
(lp2177
g1241
asbasbasbag49
(g65
g51
NtRp2178
(dp2179
g54
(dp2180
sg63
g2150
sg56
(lp2181
g49
(g70
g51
NtRp2182
(dp2183
g54
(dp2184
sg63
g2178
sg56
(lp2185
g49
(g50
g51
NtRp2186
(dp2187
g54
(dp2188
g62
I3
ssg63
g2182
sg56
(lp2189
g1254
asbasbasbag49
(g65
g51
NtRp2190
(dp2191
g54
(dp2192
sg63
g2150
sg56
(lp2193
g49
(g70
g51
NtRp2194
(dp2195
g54
(dp2196
sg63
g2190
sg56
(lp2197
g49
(g50
g51
NtRp2198
(dp2199
g54
(dp2200
g62
I3
ssg63
g2194
sg56
(lp2201
g1267
asbasbasbag49
(g65
g51
NtRp2202
(dp2203
g54
(dp2204
sg63
g2150
sg56
(lp2205
g49
(g70
g51
NtRp2206
(dp2207
g54
(dp2208
sg63
g2202
sg56
(lp2209
g49
(g50
g51
NtRp2210
(dp2211
g54
(dp2212
g62
I3
ssg63
g2206
sg56
(lp2213
g1280
asbasbasbasbasbasbasbag49
(g65
g51
NtRp2214
(dp2215
g54
(dp2216
sg63
g1939
sg56
(lp2217
g49
(g70
g51
NtRp2218
(dp2219
g54
(dp2220
g74
g75
ssg63
g2214
sg56
(lp2221
g1548
asbag49
(g70
g51
NtRp2222
(dp2223
g54
(dp2224
g81
g82
ssg63
g2214
sg56
(lp2225
S':'
asbag49
(g70
g51
NtRp2226
(dp2227
g54
(dp2228
sg63
g2214
sg56
(lp2229
g49
(g50
g51
NtRp2230
(dp2231
g54
(dp2232
g62
I4
ssg63
g2226
sg56
(lp2233
g49
(g58
g51
NtRp2234
(dp2235
g54
(dp2236
g62
I3
ssg63
Nsg56
(lp2237
g49
(g65
g51
NtRp2238
(dp2239
g54
(dp2240
sg63
g2234
sg56
(lp2241
g49
(g70
g51
NtRp2242
(dp2243
g54
(dp2244
sg63
g2238
sg56
(lp2245
g49
(g50
g51
NtRp2246
(dp2247
g54
(dp2248
g62
I3
ssg63
g2242
sg56
(lp2249
S'2'
asbasbasbag49
(g65
g51
NtRp2250
(dp2251
g54
(dp2252
sg63
g2234
sg56
(lp2253
g49
(g70
g51
NtRp2254
(dp2255
g54
(dp2256
sg63
g2250
sg56
(lp2257
g49
(g50
g51
NtRp2258
(dp2259
g54
(dp2260
g62
I3
ssg63
g2254
sg56
(lp2261
S'4'
asbasbasbag49
(g65
g51
NtRp2262
(dp2263
g54
(dp2264
sg63
g2234
sg56
(lp2265
g49
(g70
g51
NtRp2266
(dp2267
g54
(dp2268
sg63
g2262
sg56
(lp2269
g49
(g50
g51
NtRp2270
(dp2271
g54
(dp2272
g62
I3
ssg63
g2266
sg56
(lp2273
S'5'
asbasbasbag49
(g65
g51
NtRp2274
(dp2275
g54
(dp2276
sg63
g2234
sg56
(lp2277
g49
(g70
g51
NtRp2278
(dp2279
g54
(dp2280
sg63
g2274
sg56
(lp2281
g49
(g50
g51
NtRp2282
(dp2283
g54
(dp2284
g62
I3
ssg63
g2278
sg56
(lp2285
g1613
asbasbasbag49
(g65
g51
NtRp2286
(dp2287
g54
(dp2288
sg63
g2234
sg56
(lp2289
g49
(g70
g51
NtRp2290
(dp2291
g54
(dp2292
sg63
g2286
sg56
(lp2293
g49
(g50
g51
NtRp2294
(dp2295
g54
(dp2296
g62
I3
ssg63
g2290
sg56
(lp2297
S'datetime.datetime(2013, 3, 18, 22, 46, 22)'
p2298
asbasbasbasbasbasbasbasbasbasbasbag49
(g65
g51
NtRp2299
(dp2300
g54
(dp2301
sg63
g59
sg56
(lp2302
g49
(g70
g51
NtRp2303
(dp2304
g54
(dp2305
g74
g75
ssg63
g2299
sg56
(lp2306
S'is_https'
p2307
asbag49
(g70
g51
NtRp2308
(dp2309
g54
(dp2310
g81
g82
ssg63
g2299
sg56
(lp2311
S':'
asbag49
(g70
g51
NtRp2312
(dp2313
g54
(dp2314
sg63
g2299
sg56
(lp2315
g49
(g50
g51
NtRp2316
(dp2317
g54
(dp2318
g62
I5
ssg63
g2312
sg56
(lp2319
g92
asbasbasbag49
(g65
g51
NtRp2320
(dp2321
g54
(dp2322
sg63
g59
sg56
(lp2323
g49
(g70
g51
NtRp2324
(dp2325
g54
(dp2326
g74
g75
ssg63
g2320
sg56
(lp2327
S'is_local'
p2328
asbag49
(g70
g51
NtRp2329
(dp2330
g54
(dp2331
g81
g82
ssg63
g2320
sg56
(lp2332
S':'
asbag49
(g70
g51
NtRp2333
(dp2334
g54
(dp2335
sg63
g2320
sg56
(lp2336
g49
(g50
g51
NtRp2337
(dp2338
g54
(dp2339
g62
I5
ssg63
g2333
sg56
(lp2340
g928
asbasbasbag49
(g65
g51
NtRp2341
(dp2342
g54
(dp2343
sg63
g59
sg56
(lp2344
g49
(g70
g51
NtRp2345
(dp2346
g54
(dp2347
g74
g75
ssg63
g2341
sg56
(lp2348
S'is_restful'
p2349
asbag49
(g70
g51
NtRp2350
(dp2351
g54
(dp2352
g81
g82
ssg63
g2341
sg56
(lp2353
S':'
asbag49
(g70
g51
NtRp2354
(dp2355
g54
(dp2356
sg63
g2341
sg56
(lp2357
g49
(g50
g51
NtRp2358
(dp2359
g54
(dp2360
g62
I5
ssg63
g2354
sg56
(lp2361
g92
asbasbasbag49
(g65
g51
NtRp2362
(dp2363
g54
(dp2364
sg63
g59
sg56
(lp2365
g49
(g70
g51
NtRp2366
(dp2367
g54
(dp2368
g74
g75
ssg63
g2362
sg56
(lp2369
S'now'
p2370
asbag49
(g70
g51
NtRp2371
(dp2372
g54
(dp2373
g81
g82
ssg63
g2362
sg56
(lp2374
S':'
asbag49
(g70
g51
NtRp2375
(dp2376
g54
(dp2377
sg63
g2362
sg56
(lp2378
g49
(g50
g51
NtRp2379
(dp2380
g54
(dp2381
g62
I5
ssg63
g2375
sg56
(lp2382
S'datetime.datetime(2013, 3, 26, 15, 56, 57, 357482)'
p2383
asbasbasbag49
(g65
g51
NtRp2384
(dp2385
g54
(dp2386
sg63
g59
sg56
(lp2387
g49
(g70
g51
NtRp2388
(dp2389
g54
(dp2390
g74
g75
ssg63
g2384
sg56
(lp2391
S'post_vars'
p2392
asbag49
(g70
g51
NtRp2393
(dp2394
g54
(dp2395
g81
g82
ssg63
g2384
sg56
(lp2396
S':'
asbag49
(g70
g51
NtRp2397
(dp2398
g54
(dp2399
sg63
g2384
sg56
(lp2400
g49
(g50
g51
NtRp2401
(dp2402
g54
(dp2403
g62
I5
ssg63
g2397
sg56
(lp2404
g49
(g58
g51
NtRp2405
(dp2406
g54
(dp2407
g62
I4
ssg63
Nsg56
(lp2408
sbasbasbasbag49
(g65
g51
NtRp2409
(dp2410
g54
(dp2411
sg63
g59
sg56
(lp2412
g49
(g70
g51
NtRp2413
(dp2414
g54
(dp2415
g74
g75
ssg63
g2409
sg56
(lp2416
S'raw_args'
p2417
asbag49
(g70
g51
NtRp2418
(dp2419
g54
(dp2420
g81
g82
ssg63
g2409
sg56
(lp2421
S':'
asbag49
(g70
g51
NtRp2422
(dp2423
g54
(dp2424
sg63
g2409
sg56
(lp2425
g49
(g50
g51
NtRp2426
(dp2427
g54
(dp2428
g62
I5
ssg63
g2422
sg56
(lp2429
S'1'
asbasbasbag49
(g65
g51
NtRp2430
(dp2431
g54
(dp2432
sg63
g59
sg56
(lp2433
g49
(g70
g51
NtRp2434
(dp2435
g54
(dp2436
g74
g75
ssg63
g2430
sg56
(lp2437
S'raw_extension'
p2438
asbag49
(g70
g51
NtRp2439
(dp2440
g54
(dp2441
g81
g82
ssg63
g2430
sg56
(lp2442
S':'
asbag49
(g70
g51
NtRp2443
(dp2444
g54
(dp2445
sg63
g2430
sg56
(lp2446
g49
(g50
g51
NtRp2447
(dp2448
g54
(dp2449
g62
I5
ssg63
g2443
sg56
(lp2450
S'None'
p2451
asbasbasbag49
(g65
g51
NtRp2452
(dp2453
g54
(dp2454
sg63
g59
sg56
(lp2455
g49
(g70
g51
NtRp2456
(dp2457
g54
(dp2458
g74
g75
ssg63
g2452
sg56
(lp2459
S'url'
p2460
asbag49
(g70
g51
NtRp2461
(dp2462
g54
(dp2463
g81
g82
ssg63
g2452
sg56
(lp2464
S':'
asbag49
(g70
g51
NtRp2465
(dp2466
g54
(dp2467
sg63
g2452
sg56
(lp2468
g49
(g50
g51
NtRp2469
(dp2470
g54
(dp2471
g62
I5
ssg63
g2465
sg56
(lp2472
g1302
asbasbasbag49
(g65
g51
NtRp2473
(dp2474
g54
(dp2475
sg63
g59
sg56
(lp2476
g49
(g70
g51
NtRp2477
(dp2478
g54
(dp2479
g74
g75
ssg63
g2473
sg56
(lp2480
S'utcnow'
p2481
asbag49
(g70
g51
NtRp2482
(dp2483
g54
(dp2484
g81
g82
ssg63
g2473
sg56
(lp2485
S':'
asbag49
(g70
g51
NtRp2486
(dp2487
g54
(dp2488
sg63
g2473
sg56
(lp2489
g49
(g50
g51
NtRp2490
(dp2491
g54
(dp2492
g62
I5
ssg63
g2486
sg56
(lp2493
S'datetime.datetime(2013, 3, 26, 19, 56, 57, 357492)'
p2494
asbasbasbag49
(g65
g51
NtRp2495
(dp2496
g54
(dp2497
sg63
g59
sg56
(lp2498
g49
(g70
g51
NtRp2499
(dp2500
g54
(dp2501
g74
g75
ssg63
g2495
sg56
(lp2502
S'uuid'
p2503
asbag49
(g70
g51
NtRp2504
(dp2505
g54
(dp2506
g81
g82
ssg63
g2495
sg56
(lp2507
S':'
asbag49
(g70
g51
NtRp2508
(dp2509
g54
(dp2510
sg63
g2495
sg56
(lp2511
g49
(g50
g51
NtRp2512
(dp2513
g54
(dp2514
g62
I5
ssg63
g2508
sg56
(lp2515
S'hellow/127.0.0.1.2013-03-26.15-56-57.90ec0761-6afc-409e-9d5b-0e8d33f14b57'
p2516
asbasbasbag49
(g65
g51
NtRp2517
(dp2518
g54
(dp2519
sg63
g59
sg56
(lp2520
g49
(g70
g51
NtRp2521
(dp2522
g54
(dp2523
g74
g75
ssg63
g2517
sg56
(lp2524
S'vars'
p2525
asbag49
(g70
g51
NtRp2526
(dp2527
g54
(dp2528
g81
g82
ssg63
g2517
sg56
(lp2529
S':'
asbag49
(g70
g51
NtRp2530
(dp2531
g54
(dp2532
sg63
g2517
sg56
(lp2533
g49
(g50
g51
NtRp2534
(dp2535
g54
(dp2536
g62
I5
ssg63
g2530
sg56
(lp2537
g49
(g58
g51
NtRp2538
(dp2539
g54
(dp2540
g62
I4
ssg63
Nsg56
(lp2541
sbasbasbasbag49
(g65
g51
NtRp2542
(dp2543
g54
(dp2544
sg63
g59
sg56
(lp2545
g49
(g70
g51
NtRp2546
(dp2547
g54
(dp2548
g74
g75
ssg63
g2542
sg56
(lp2549
S'wsgi'
p2550
asbag49
(g70
g51
NtRp2551
(dp2552
g54
(dp2553
g81
g82
ssg63
g2542
sg56
(lp2554
S':'
asbag49
(g70
g51
NtRp2555
(dp2556
g54
(dp2557
sg63
g2542
sg56
(lp2558
g49
(g50
g51
NtRp2559
(dp2560
g54
(dp2561
g62
I5
ssg63
g2555
sg56
(lp2562
g49
(g58
g51
NtRp2563
(dp2564
g54
(dp2565
g62
I4
ssg63
Nsg56
(lp2566
g49
(g65
g51
NtRp2567
(dp2568
g54
(dp2569
sg63
g2563
sg56
(lp2570
g49
(g70
g51
NtRp2571
(dp2572
g54
(dp2573
g74
g75
ssg63
g2567
sg56
(lp2574
S'environ'
p2575
asbag49
(g70
g51
NtRp2576
(dp2577
g54
(dp2578
g81
g82
ssg63
g2567
sg56
(lp2579
S':'
asbag49
(g70
g51
NtRp2580
(dp2581
g54
(dp2582
sg63
g2567
sg56
(lp2583
g49
(g50
g51
NtRp2584
(dp2585
g54
(dp2586
g62
I4
ssg63
g2580
sg56
(lp2587
g49
(g58
g51
NtRp2588
(dp2589
g54
(dp2590
g62
I3
ssg63
Nsg56
(lp2591
g49
(g65
g51
NtRp2592
(dp2593
g54
(dp2594
sg63
g2588
sg56
(lp2595
g49
(g70
g51
NtRp2596
(dp2597
g54
(dp2598
g74
g75
ssg63
g2592
sg56
(lp2599
S'HTTP_ACCEPT'
p2600
asbag49
(g70
g51
NtRp2601
(dp2602
g54
(dp2603
g81
g82
ssg63
g2592
sg56
(lp2604
S':'
asbag49
(g70
g51
NtRp2605
(dp2606
g54
(dp2607
sg63
g2592
sg56
(lp2608
g49
(g50
g51
NtRp2609
(dp2610
g54
(dp2611
g62
I3
ssg63
g2605
sg56
(lp2612
g972
asbasbasbag49
(g65
g51
NtRp2613
(dp2614
g54
(dp2615
sg63
g2588
sg56
(lp2616
g49
(g70
g51
NtRp2617
(dp2618
g54
(dp2619
g74
g75
ssg63
g2613
sg56
(lp2620
S'HTTP_ACCEPT_CHARSET'
p2621
asbag49
(g70
g51
NtRp2622
(dp2623
g54
(dp2624
g81
g82
ssg63
g2613
sg56
(lp2625
S':'
asbag49
(g70
g51
NtRp2626
(dp2627
g54
(dp2628
sg63
g2613
sg56
(lp2629
g49
(g50
g51
NtRp2630
(dp2631
g54
(dp2632
g62
I3
ssg63
g2626
sg56
(lp2633
g994
asbasbasbag49
(g65
g51
NtRp2634
(dp2635
g54
(dp2636
sg63
g2588
sg56
(lp2637
g49
(g70
g51
NtRp2638
(dp2639
g54
(dp2640
g74
g75
ssg63
g2634
sg56
(lp2641
S'HTTP_ACCEPT_ENCODING'
p2642
asbag49
(g70
g51
NtRp2643
(dp2644
g54
(dp2645
g81
g82
ssg63
g2634
sg56
(lp2646
S':'
asbag49
(g70
g51
NtRp2647
(dp2648
g54
(dp2649
sg63
g2634
sg56
(lp2650
g49
(g50
g51
NtRp2651
(dp2652
g54
(dp2653
g62
I3
ssg63
g2647
sg56
(lp2654
g1016
asbasbasbag49
(g65
g51
NtRp2655
(dp2656
g54
(dp2657
sg63
g2588
sg56
(lp2658
g49
(g70
g51
NtRp2659
(dp2660
g54
(dp2661
g74
g75
ssg63
g2655
sg56
(lp2662
S'HTTP_ACCEPT_LANGUAGE'
p2663
asbag49
(g70
g51
NtRp2664
(dp2665
g54
(dp2666
g81
g82
ssg63
g2655
sg56
(lp2667
S':'
asbag49
(g70
g51
NtRp2668
(dp2669
g54
(dp2670
sg63
g2655
sg56
(lp2671
g49
(g50
g51
NtRp2672
(dp2673
g54
(dp2674
g62
I3
ssg63
g2668
sg56
(lp2675
g1038
asbasbasbag49
(g65
g51
NtRp2676
(dp2677
g54
(dp2678
sg63
g2588
sg56
(lp2679
g49
(g70
g51
NtRp2680
(dp2681
g54
(dp2682
g74
g75
ssg63
g2676
sg56
(lp2683
S'HTTP_CACHE_CONTROL'
p2684
asbag49
(g70
g51
NtRp2685
(dp2686
g54
(dp2687
g81
g82
ssg63
g2676
sg56
(lp2688
S':'
asbag49
(g70
g51
NtRp2689
(dp2690
g54
(dp2691
sg63
g2676
sg56
(lp2692
g49
(g50
g51
NtRp2693
(dp2694
g54
(dp2695
g62
I3
ssg63
g2689
sg56
(lp2696
g1060
asbasbasbag49
(g65
g51
NtRp2697
(dp2698
g54
(dp2699
sg63
g2588
sg56
(lp2700
g49
(g70
g51
NtRp2701
(dp2702
g54
(dp2703
g74
g75
ssg63
g2697
sg56
(lp2704
S'HTTP_CONNECTION'
p2705
asbag49
(g70
g51
NtRp2706
(dp2707
g54
(dp2708
g81
g82
ssg63
g2697
sg56
(lp2709
S':'
asbag49
(g70
g51
NtRp2710
(dp2711
g54
(dp2712
sg63
g2697
sg56
(lp2713
g49
(g50
g51
NtRp2714
(dp2715
g54
(dp2716
g62
I3
ssg63
g2710
sg56
(lp2717
g1082
asbasbasbag49
(g65
g51
NtRp2718
(dp2719
g54
(dp2720
sg63
g2588
sg56
(lp2721
g49
(g70
g51
NtRp2722
(dp2723
g54
(dp2724
g74
g75
ssg63
g2718
sg56
(lp2725
S'HTTP_COOKIE'
p2726
asbag49
(g70
g51
NtRp2727
(dp2728
g54
(dp2729
g81
g82
ssg63
g2718
sg56
(lp2730
S':'
asbag49
(g70
g51
NtRp2731
(dp2732
g54
(dp2733
sg63
g2718
sg56
(lp2734
g49
(g50
g51
NtRp2735
(dp2736
g54
(dp2737
g62
I3
ssg63
g2731
sg56
(lp2738
g1104
asbasbasbag49
(g65
g51
NtRp2739
(dp2740
g54
(dp2741
sg63
g2588
sg56
(lp2742
g49
(g70
g51
NtRp2743
(dp2744
g54
(dp2745
g74
g75
ssg63
g2739
sg56
(lp2746
S'HTTP_HOST'
p2747
asbag49
(g70
g51
NtRp2748
(dp2749
g54
(dp2750
g81
g82
ssg63
g2739
sg56
(lp2751
S':'
asbag49
(g70
g51
NtRp2752
(dp2753
g54
(dp2754
sg63
g2739
sg56
(lp2755
g49
(g50
g51
NtRp2756
(dp2757
g54
(dp2758
g62
I3
ssg63
g2752
sg56
(lp2759
g1126
asbasbasbag49
(g65
g51
NtRp2760
(dp2761
g54
(dp2762
sg63
g2588
sg56
(lp2763
g49
(g70
g51
NtRp2764
(dp2765
g54
(dp2766
g74
g75
ssg63
g2760
sg56
(lp2767
S'HTTP_USER_AGENT'
p2768
asbag49
(g70
g51
NtRp2769
(dp2770
g54
(dp2771
g81
g82
ssg63
g2760
sg56
(lp2772
S':'
asbag49
(g70
g51
NtRp2773
(dp2774
g54
(dp2775
sg63
g2760
sg56
(lp2776
g49
(g50
g51
NtRp2777
(dp2778
g54
(dp2779
g62
I3
ssg63
g2773
sg56
(lp2780
g1148
asbasbasbag49
(g65
g51
NtRp2781
(dp2782
g54
(dp2783
sg63
g2588
sg56
(lp2784
g49
(g70
g51
NtRp2785
(dp2786
g54
(dp2787
g74
g75
ssg63
g2781
sg56
(lp2788
S'PATH_INFO'
p2789
asbag49
(g70
g51
NtRp2790
(dp2791
g54
(dp2792
g81
g82
ssg63
g2781
sg56
(lp2793
S':'
asbag49
(g70
g51
NtRp2794
(dp2795
g54
(dp2796
sg63
g2781
sg56
(lp2797
g49
(g50
g51
NtRp2798
(dp2799
g54
(dp2800
g62
I3
ssg63
g2794
sg56
(lp2801
g1302
asbasbasbag49
(g65
g51
NtRp2802
(dp2803
g54
(dp2804
sg63
g2588
sg56
(lp2805
g49
(g70
g51
NtRp2806
(dp2807
g54
(dp2808
g74
g75
ssg63
g2802
sg56
(lp2809
S'QUERY_STRING'
p2810
asbag49
(g70
g51
NtRp2811
(dp2812
g54
(dp2813
g81
g82
ssg63
g2802
sg56
(lp2814
S':'
asbag49
(g70
g51
NtRp2815
(dp2816
g54
(dp2817
sg63
g2802
sg56
(lp2818
g49
(g50
g51
NtRp2819
(dp2820
g54
(dp2821
g62
I3
ssg63
g2815
sg56
(lp2822
S''
asbasbasbag49
(g65
g51
NtRp2823
(dp2824
g54
(dp2825
sg63
g2588
sg56
(lp2826
g49
(g70
g51
NtRp2827
(dp2828
g54
(dp2829
g74
g75
ssg63
g2823
sg56
(lp2830
S'REMOTE_ADDR'
p2831
asbag49
(g70
g51
NtRp2832
(dp2833
g54
(dp2834
g81
g82
ssg63
g2823
sg56
(lp2835
S':'
asbag49
(g70
g51
NtRp2836
(dp2837
g54
(dp2838
sg63
g2823
sg56
(lp2839
g49
(g50
g51
NtRp2840
(dp2841
g54
(dp2842
g62
I3
ssg63
g2836
sg56
(lp2843
g216
asbasbasbag49
(g65
g51
NtRp2844
(dp2845
g54
(dp2846
sg63
g2588
sg56
(lp2847
g49
(g70
g51
NtRp2848
(dp2849
g54
(dp2850
g74
g75
ssg63
g2844
sg56
(lp2851
S'REMOTE_PORT'
p2852
asbag49
(g70
g51
NtRp2853
(dp2854
g54
(dp2855
g81
g82
ssg63
g2844
sg56
(lp2856
S':'
asbag49
(g70
g51
NtRp2857
(dp2858
g54
(dp2859
sg63
g2844
sg56
(lp2860
g49
(g50
g51
NtRp2861
(dp2862
g54
(dp2863
g62
I3
ssg63
g2857
sg56
(lp2864
g1366
asbasbasbag49
(g65
g51
NtRp2865
(dp2866
g54
(dp2867
sg63
g2588
sg56
(lp2868
g49
(g70
g51
NtRp2869
(dp2870
g54
(dp2871
g74
g75
ssg63
g2865
sg56
(lp2872
S'REQUEST_METHOD'
p2873
asbag49
(g70
g51
NtRp2874
(dp2875
g54
(dp2876
g81
g82
ssg63
g2865
sg56
(lp2877
S':'
asbag49
(g70
g51
NtRp2878
(dp2879
g54
(dp2880
sg63
g2865
sg56
(lp2881
g49
(g50
g51
NtRp2882
(dp2883
g54
(dp2884
g62
I3
ssg63
g2878
sg56
(lp2885
g1388
asbasbasbag49
(g65
g51
NtRp2886
(dp2887
g54
(dp2888
sg63
g2588
sg56
(lp2889
g49
(g70
g51
NtRp2890
(dp2891
g54
(dp2892
g74
g75
ssg63
g2886
sg56
(lp2893
S'REQUEST_URI'
p2894
asbag49
(g70
g51
NtRp2895
(dp2896
g54
(dp2897
g81
g82
ssg63
g2886
sg56
(lp2898
S':'
asbag49
(g70
g51
NtRp2899
(dp2900
g54
(dp2901
sg63
g2886
sg56
(lp2902
g49
(g50
g51
NtRp2903
(dp2904
g54
(dp2905
g62
I3
ssg63
g2899
sg56
(lp2906
g1302
asbasbasbag49
(g65
g51
NtRp2907
(dp2908
g54
(dp2909
sg63
g2588
sg56
(lp2910
g49
(g70
g51
NtRp2911
(dp2912
g54
(dp2913
g74
g75
ssg63
g2907
sg56
(lp2914
S'SCRIPT_NAME'
p2915
asbag49
(g70
g51
NtRp2916
(dp2917
g54
(dp2918
g81
g82
ssg63
g2907
sg56
(lp2919
S':'
asbag49
(g70
g51
NtRp2920
(dp2921
g54
(dp2922
sg63
g2907
sg56
(lp2923
g49
(g50
g51
NtRp2924
(dp2925
g54
(dp2926
g62
I3
ssg63
g2920
sg56
(lp2927
S''
asbasbasbag49
(g65
g51
NtRp2928
(dp2929
g54
(dp2930
sg63
g2588
sg56
(lp2931
g49
(g70
g51
NtRp2932
(dp2933
g54
(dp2934
g74
g75
ssg63
g2928
sg56
(lp2935
S'SERVER_NAME'
p2936
asbag49
(g70
g51
NtRp2937
(dp2938
g54
(dp2939
g81
g82
ssg63
g2928
sg56
(lp2940
S':'
asbag49
(g70
g51
NtRp2941
(dp2942
g54
(dp2943
sg63
g2928
sg56
(lp2944
g49
(g50
g51
NtRp2945
(dp2946
g54
(dp2947
g62
I3
ssg63
g2941
sg56
(lp2948
g1452
asbasbasbag49
(g65
g51
NtRp2949
(dp2950
g54
(dp2951
sg63
g2588
sg56
(lp2952
g49
(g70
g51
NtRp2953
(dp2954
g54
(dp2955
g74
g75
ssg63
g2949
sg56
(lp2956
S'SERVER_PORT'
p2957
asbag49
(g70
g51
NtRp2958
(dp2959
g54
(dp2960
g81
g82
ssg63
g2949
sg56
(lp2961
S':'
asbag49
(g70
g51
NtRp2962
(dp2963
g54
(dp2964
sg63
g2949
sg56
(lp2965
g49
(g50
g51
NtRp2966
(dp2967
g54
(dp2968
g62
I3
ssg63
g2962
sg56
(lp2969
g1474
asbasbasbag49
(g65
g51
NtRp2970
(dp2971
g54
(dp2972
sg63
g2588
sg56
(lp2973
g49
(g70
g51
NtRp2974
(dp2975
g54
(dp2976
g74
g75
ssg63
g2970
sg56
(lp2977
S'SERVER_PROTOCOL'
p2978
asbag49
(g70
g51
NtRp2979
(dp2980
g54
(dp2981
g81
g82
ssg63
g2970
sg56
(lp2982
S':'
asbag49
(g70
g51
NtRp2983
(dp2984
g54
(dp2985
sg63
g2970
sg56
(lp2986
g49
(g50
g51
NtRp2987
(dp2988
g54
(dp2989
g62
I3
ssg63
g2983
sg56
(lp2990
g1496
asbasbasbag49
(g65
g51
NtRp2991
(dp2992
g54
(dp2993
sg63
g2588
sg56
(lp2994
g49
(g70
g51
NtRp2995
(dp2996
g54
(dp2997
g74
g75
ssg63
g2991
sg56
(lp2998
S'SERVER_SOFTWARE'
p2999
asbag49
(g70
g51
NtRp3000
(dp3001
g54
(dp3002
g81
g82
ssg63
g2991
sg56
(lp3003
S':'
asbag49
(g70
g51
NtRp3004
(dp3005
g54
(dp3006
sg63
g2991
sg56
(lp3007
g49
(g50
g51
NtRp3008
(dp3009
g54
(dp3010
g62
I3
ssg63
g3004
sg56
(lp3011
g1518
asbasbasbag49
(g65
g51
NtRp3012
(dp3013
g54
(dp3014
sg63
g2588
sg56
(lp3015
g49
(g70
g51
NtRp3016
(dp3017
g54
(dp3018
g74
g75
ssg63
g3012
sg56
(lp3019
S'wsgi.errors'
p3020
asbag49
(g70
g51
NtRp3021
(dp3022
g54
(dp3023
g81
g82
ssg63
g3012
sg56
(lp3024
S':'
asbag49
(g70
g51
NtRp3025
(dp3026
g54
(dp3027
sg63
g3012
sg56
(lp3028
g49
(g50
g51
NtRp3029
(dp3030
g54
(dp3031
g62
I3
ssg63
g3025
sg56
(lp3032
S"<open file '<stderr>', mode 'w' at 0x540b0>"
p3033
asbasbasbag49
(g65
g51
NtRp3034
(dp3035
g54
(dp3036
sg63
g2588
sg56
(lp3037
g49
(g70
g51
NtRp3038
(dp3039
g54
(dp3040
g74
g75
ssg63
g3034
sg56
(lp3041
S'wsgi.file_wrapper'
p3042
asbag49
(g70
g51
NtRp3043
(dp3044
g54
(dp3045
g81
g82
ssg63
g3034
sg56
(lp3046
S':'
asbag49
(g70
g51
NtRp3047
(dp3048
g54
(dp3049
sg63
g3034
sg56
(lp3050
g49
(g50
g51
NtRp3051
(dp3052
g54
(dp3053
g62
I3
ssg63
g3047
sg56
(lp3054
S'<class wsgiref.util.FileWrapper at 0x329d060>'
p3055
asbasbasbag49
(g65
g51
NtRp3056
(dp3057
g54
(dp3058
sg63
g2588
sg56
(lp3059
g49
(g70
g51
NtRp3060
(dp3061
g54
(dp3062
g74
g75
ssg63
g3056
sg56
(lp3063
S'wsgi.input'
p3064
asbag49
(g70
g51
NtRp3065
(dp3066
g54
(dp3067
g81
g82
ssg63
g3056
sg56
(lp3068
S':'
asbag49
(g70
g51
NtRp3069
(dp3070
g54
(dp3071
sg63
g3056
sg56
(lp3072
g49
(g50
g51
NtRp3073
(dp3074
g54
(dp3075
g62
I3
ssg63
g3069
sg56
(lp3076
S'<cStringIO.StringO object at 0xab706e0>'
p3077
asbasbasbag49
(g65
g51
NtRp3078
(dp3079
g54
(dp3080
sg63
g2588
sg56
(lp3081
g49
(g70
g51
NtRp3082
(dp3083
g54
(dp3084
g74
g75
ssg63
g3078
sg56
(lp3085
S'wsgi.multiprocess'
p3086
asbag49
(g70
g51
NtRp3087
(dp3088
g54
(dp3089
g81
g82
ssg63
g3078
sg56
(lp3090
S':'
asbag49
(g70
g51
NtRp3091
(dp3092
g54
(dp3093
sg63
g3078
sg56
(lp3094
g49
(g50
g51
NtRp3095
(dp3096
g54
(dp3097
g62
I3
ssg63
g3091
sg56
(lp3098
g92
asbasbasbag49
(g65
g51
NtRp3099
(dp3100
g54
(dp3101
sg63
g2588
sg56
(lp3102
g49
(g70
g51
NtRp3103
(dp3104
g54
(dp3105
g74
g75
ssg63
g3099
sg56
(lp3106
S'wsgi.multithread'
p3107
asbag49
(g70
g51
NtRp3108
(dp3109
g54
(dp3110
g81
g82
ssg63
g3099
sg56
(lp3111
S':'
asbag49
(g70
g51
NtRp3112
(dp3113
g54
(dp3114
sg63
g3099
sg56
(lp3115
g49
(g50
g51
NtRp3116
(dp3117
g54
(dp3118
g62
I3
ssg63
g3112
sg56
(lp3119
g928
asbasbasbag49
(g65
g51
NtRp3120
(dp3121
g54
(dp3122
sg63
g2588
sg56
(lp3123
g49
(g70
g51
NtRp3124
(dp3125
g54
(dp3126
g74
g75
ssg63
g3120
sg56
(lp3127
S'wsgi.run_once'
p3128
asbag49
(g70
g51
NtRp3129
(dp3130
g54
(dp3131
g81
g82
ssg63
g3120
sg56
(lp3132
S':'
asbag49
(g70
g51
NtRp3133
(dp3134
g54
(dp3135
sg63
g3120
sg56
(lp3136
g49
(g50
g51
NtRp3137
(dp3138
g54
(dp3139
g62
I3
ssg63
g3133
sg56
(lp3140
g92
asbasbasbag49
(g65
g51
NtRp3141
(dp3142
g54
(dp3143
sg63
g2588
sg56
(lp3144
g49
(g70
g51
NtRp3145
(dp3146
g54
(dp3147
g74
g75
ssg63
g3141
sg56
(lp3148
S'wsgi.url_scheme'
p3149
asbag49
(g70
g51
NtRp3150
(dp3151
g54
(dp3152
g81
g82
ssg63
g3141
sg56
(lp3153
S':'
asbag49
(g70
g51
NtRp3154
(dp3155
g54
(dp3156
sg63
g3141
sg56
(lp3157
g49
(g50
g51
NtRp3158
(dp3159
g54
(dp3160
g62
I3
ssg63
g3154
sg56
(lp3161
g1777
asbasbasbag49
(g65
g51
NtRp3162
(dp3163
g54
(dp3164
sg63
g2588
sg56
(lp3165
g49
(g70
g51
NtRp3166
(dp3167
g54
(dp3168
g74
g75
ssg63
g3162
sg56
(lp3169
S'wsgi.version'
p3170
asbag49
(g70
g51
NtRp3171
(dp3172
g54
(dp3173
g81
g82
ssg63
g3162
sg56
(lp3174
S':'
asbag49
(g70
g51
NtRp3175
(dp3176
g54
(dp3177
sg63
g3162
sg56
(lp3178
g49
(g50
g51
NtRp3179
(dp3180
g54
(dp3181
g62
I3
ssg63
g3175
sg56
(lp3182
S'1'
asbasbasbasbasbasbasbasbasbasbasbasbasbsS'frames'
p3183
(lp3184
(dp3185
S'file'
p3186
S'/home/mdipierro/web2py/gluon/restricted.py'
p3187
sS'dump'
p3188
(dp3189
sS'lnum'
p3190
I212
sS'lines'
p3191
(dp3192
sS'call'
p3193
S'(code=\'response.write(\\\'<!--[if HTML5]><![endif]-->\\\\n<!D..."></script>\\\\n</body>\\\\n</html>\\\\n\\\\n\\\', escape=False)\', environment={\'A\': <class \'gluon.html.A\'>, \'Auth\': <class \'gluon.tools.Auth\'>, \'B\': <class \'gluon.html.B\'>, \'BEAUTIFY\': <class \'gluon.html.BEAUTIFY\'>, \'BODY\': <class \'gluon.html.BODY\'>, \'BR\': <class \'gluon.html.BR\'>, \'BUTTON\': <class \'gluon.html.BUTTON\'>, \'CAT\': <class \'gluon.html.CAT\'>, \'CENTER\': <class \'gluon.html.CENTER\'>, \'CLEANUP\': <class \'gluon.validators.CLEANUP\'>, ...}, layer=\'/Users/zamechek/Downloads/web2py/web2py.app/Cont...esources/applications/hellow/views/game/show.html\')'
p3194
sS'func'
p3195
S'restricted'
p3196
sa(dp3197
g3186
S'/Users/zamechek/Downloads/web2py/web2py.app/Contents/Resources/applications/hellow/views/game/show.html'
p3198
sg3188
(dp3199
sg3190
I101
sg3191
(dp3200
I96
S'response.write(\'\\n        Bet: <input type="text" name="bet"><br>\\n    \\t<input type="submit" value="Submit">\\n    </form> -->\\n    \', escape=False)'
p3201
sI97
S'response.write(form)'
p3202
sI98
S"response.write('\\n    \\n\\t<h2>Submitted variables</h2>\\n\\t', escape=False)"
p3203
sI99
S'response.write(BEAUTIFY(request.vars))'
p3204
sI100
S"response.write('\\n\\t<h2>Errors in form</h2>\\n\\t', escape=False)"
p3205
sI101
S'response.write(BEAUTIFY(form.errors))'
p3206
sI102
S"response.write('\\n</div>\\n', escape=False)"
p3207
sI103
S"response.write('\\n            ', escape=False)"
p3208
sI104
S"response.write('\\n        </div>\\n\\n        ', escape=False)"
p3209
sI105
S'if right_sidebar_enabled:'
p3210
sI106
S'    response.write(\'\\n        <div class="span3">\\n            \', escape=False)'
p3211
sI107
S"    response.write('\\n            <h3>Right Sidebar</h3>\\n            <p></p>\\n            ', escape=False)"
p3212
sI108
S"    response.write('\\n        </div>\\n        ', escape=False)"
p3213
sI109
S'    pass'
p3214
sI110
S'response.write(\'\\n    </section><!--/main-->\\n\\n    <!-- Footer ================================================== -->\\n    <div class="row">\\n        <footer class="footer span12" id="footer">\\n            <div class="footer-content">\\n                \', escape=False)'
p3215
sI111
S'response.write(\' <!-- this is default footer -->\\n                <div class="copyright pull-left">\', escape=False)'
p3216
sI92
S"    response.write('> ', escape=False)"
p3217
sI93
S'    response.write(row.id)'
p3218
sI94
S"    response.write('<br>', escape=False)"
p3219
sI95
S'    pass'
p3220
ssg3193
S'()'
p3221
sg3195
S'<module>'
p3222
sasS'pyver'
p3223
S'Python 2.5.1: /Users/zamechek/Downloads/web2py/web2py.app/Contents/MacOS/python'
p3224
sS'session'
p3225
g49
(g50
g51
NtRp3226
(dp3227
g54
(dp3228
sg56
(lp3229
g49
(g58
g51
NtRp3230
(dp3231
g54
(dp3232
g62
I5
ssg63
Nsg56
(lp3233
g49
(g65
g51
NtRp3234
(dp3235
g54
(dp3236
sg63
g3230
sg56
(lp3237
g49
(g70
g51
NtRp3238
(dp3239
g54
(dp3240
g74
g75
ssg63
g3234
sg56
(lp3241
S'last_orderby'
p3242
asbag49
(g70
g51
NtRp3243
(dp3244
g54
(dp3245
g81
g82
ssg63
g3234
sg56
(lp3246
S':'
asbag49
(g70
g51
NtRp3247
(dp3248
g54
(dp3249
sg63
g3234
sg56
(lp3250
g49
(g50
g51
NtRp3251
(dp3252
g54
(dp3253
g62
I5
ssg63
g3247
sg56
(lp3254
S'None'
p3255
asbasbasbag49
(g65
g51
NtRp3256
(dp3257
g54
(dp3258
sg63
g3230
sg56
(lp3259
g49
(g70
g51
NtRp3260
(dp3261
g54
(dp3262
g74
g75
ssg63
g3256
sg56
(lp3263
S'last_query'
p3264
asbag49
(g70
g51
NtRp3265
(dp3266
g54
(dp3267
g81
g82
ssg63
g3256
sg56
(lp3268
S':'
asbag49
(g70
g51
NtRp3269
(dp3270
g54
(dp3271
sg63
g3256
sg56
(lp3272
g49
(g50
g51
NtRp3273
(dp3274
g54
(dp3275
g62
I5
ssg63
g3269
sg56
(lp3276
S'db.auth_user.id>0'
p3277
asbasbasbasbasbsS'etype'
p3278
S"<type 'exceptions.AttributeError'>"
p3279
sS'date'
p3280
S'Tue Mar 26 15:56:57 2013'
p3281
sS'response'
p3282
g49
(g50
g51
NtRp3283
(dp3284
g54
(dp3285
sg56
(lp3286
g49
(g58
g51
NtRp3287
(dp3288
g54
(dp3289
g62
I5
ssg63
Nsg56
(lp3290
g49
(g65
g51
NtRp3291
(dp3292
g54
(dp3293
sg63
g3287
sg56
(lp3294
g49
(g70
g51
NtRp3295
(dp3296
g54
(dp3297
g74
g75
ssg63
g3291
sg56
(lp3298
g159
asbag49
(g70
g51
NtRp3299
(dp3300
g54
(dp3301
g81
g82
ssg63
g3291
sg56
(lp3302
S':'
asbag49
(g70
g51
NtRp3303
(dp3304
g54
(dp3305
sg63
g3291
sg56
(lp3306
g49
(g50
g51
NtRp3307
(dp3308
g54
(dp3309
g62
I5
ssg63
g3303
sg56
(lp3310
S'<cStringIO.StringO object at 0xaa7f480>'
p3311
asbasbasbag49
(g65
g51
NtRp3312
(dp3313
g54
(dp3314
sg63
g3287
sg56
(lp3315
g49
(g70
g51
NtRp3316
(dp3317
g54
(dp3318
g74
g75
ssg63
g3312
sg56
(lp3319
g247
asbag49
(g70
g51
NtRp3320
(dp3321
g54
(dp3322
g81
g82
ssg63
g3312
sg56
(lp3323
S':'
asbag49
(g70
g51
NtRp3324
(dp3325
g54
(dp3326
sg63
g3312
sg56
(lp3327
g49
(g50
g51
NtRp3328
(dp3329
g54
(dp3330
g62
I5
ssg63
g3324
sg56
(lp3331
g49
(g58
g51
NtRp3332
(dp3333
g54
(dp3334
g62
I4
ssg63
Nsg56
(lp3335
g49
(g65
g51
NtRp3336
(dp3337
g54
(dp3338
sg63
g3332
sg56
(lp3339
g49
(g70
g51
NtRp3340
(dp3341
g54
(dp3342
g74
g75
ssg63
g3336
sg56
(lp3343
S'session_id_hellow'
p3344
asbag49
(g70
g51
NtRp3345
(dp3346
g54
(dp3347
g81
g82
ssg63
g3336
sg56
(lp3348
S':'
asbag49
(g70
g51
NtRp3349
(dp3350
g54
(dp3351
sg63
g3336
sg56
(lp3352
g49
(g50
g51
NtRp3353
(dp3354
g54
(dp3355
g62
I4
ssg63
g3349
sg56
(lp3356
g458
ag49
(g58
g51
NtRp3357
(dp3358
g54
(dp3359
g62
I3
ssg63
Nsg56
(lp3360
g49
(g65
g51
NtRp3361
(dp3362
g54
(dp3363
sg63
g3357
sg56
(lp3364
g49
(g70
g51
NtRp3365
(dp3366
g54
(dp3367
g74
g75
ssg63
g3361
sg56
(lp3368
g298
asbag49
(g70
g51
NtRp3369
(dp3370
g54
(dp3371
g81
g82
ssg63
g3361
sg56
(lp3372
S':'
asbag49
(g70
g51
NtRp3373
(dp3374
g54
(dp3375
sg63
g3361
sg56
(lp3376
g49
(g50
g51
NtRp3377
(dp3378
g54
(dp3379
g62
I3
ssg63
g3373
sg56
(lp3380
S''
asbasbasbag49
(g65
g51
NtRp3381
(dp3382
g54
(dp3383
sg63
g3357
sg56
(lp3384
g49
(g70
g51
NtRp3385
(dp3386
g54
(dp3387
g74
g75
ssg63
g3381
sg56
(lp3388
g319
asbag49
(g70
g51
NtRp3389
(dp3390
g54
(dp3391
g81
g82
ssg63
g3381
sg56
(lp3392
S':'
asbag49
(g70
g51
NtRp3393
(dp3394
g54
(dp3395
sg63
g3381
sg56
(lp3396
g49
(g50
g51
NtRp3397
(dp3398
g54
(dp3399
g62
I3
ssg63
g3393
sg56
(lp3400
S''
asbasbasbag49
(g65
g51
NtRp3401
(dp3402
g54
(dp3403
sg63
g3357
sg56
(lp3404
g49
(g70
g51
NtRp3405
(dp3406
g54
(dp3407
g74
g75
ssg63
g3401
sg56
(lp3408
g340
asbag49
(g70
g51
NtRp3409
(dp3410
g54
(dp3411
g81
g82
ssg63
g3401
sg56
(lp3412
S':'
asbag49
(g70
g51
NtRp3413
(dp3414
g54
(dp3415
sg63
g3401
sg56
(lp3416
g49
(g50
g51
NtRp3417
(dp3418
g54
(dp3419
g62
I3
ssg63
g3413
sg56
(lp3420
S''
asbasbasbag49
(g65
g51
NtRp3421
(dp3422
g54
(dp3423
sg63
g3357
sg56
(lp3424
g49
(g70
g51
NtRp3425
(dp3426
g54
(dp3427
g74
g75
ssg63
g3421
sg56
(lp3428
g361
asbag49
(g70
g51
NtRp3429
(dp3430
g54
(dp3431
g81
g82
ssg63
g3421
sg56
(lp3432
S':'
asbag49
(g70
g51
NtRp3433
(dp3434
g54
(dp3435
sg63
g3421
sg56
(lp3436
g49
(g50
g51
NtRp3437
(dp3438
g54
(dp3439
g62
I3
ssg63
g3433
sg56
(lp3440
S''
asbasbasbag49
(g65
g51
NtRp3441
(dp3442
g54
(dp3443
sg63
g3357
sg56
(lp3444
g49
(g70
g51
NtRp3445
(dp3446
g54
(dp3447
g74
g75
ssg63
g3441
sg56
(lp3448
g382
asbag49
(g70
g51
NtRp3449
(dp3450
g54
(dp3451
g81
g82
ssg63
g3441
sg56
(lp3452
S':'
asbag49
(g70
g51
NtRp3453
(dp3454
g54
(dp3455
sg63
g3441
sg56
(lp3456
g49
(g50
g51
NtRp3457
(dp3458
g54
(dp3459
g62
I3
ssg63
g3453
sg56
(lp3460
S'/'
asbasbasbag49
(g65
g51
NtRp3461
(dp3462
g54
(dp3463
sg63
g3357
sg56
(lp3464
g49
(g70
g51
NtRp3465
(dp3466
g54
(dp3467
g74
g75
ssg63
g3461
sg56
(lp3468
g403
asbag49
(g70
g51
NtRp3469
(dp3470
g54
(dp3471
g81
g82
ssg63
g3461
sg56
(lp3472
S':'
asbag49
(g70
g51
NtRp3473
(dp3474
g54
(dp3475
sg63
g3461
sg56
(lp3476
g49
(g50
g51
NtRp3477
(dp3478
g54
(dp3479
g62
I3
ssg63
g3473
sg56
(lp3480
S''
asbasbasbag49
(g65
g51
NtRp3481
(dp3482
g54
(dp3483
sg63
g3357
sg56
(lp3484
g49
(g70
g51
NtRp3485
(dp3486
g54
(dp3487
g74
g75
ssg63
g3481
sg56
(lp3488
g424
asbag49
(g70
g51
NtRp3489
(dp3490
g54
(dp3491
g81
g82
ssg63
g3481
sg56
(lp3492
S':'
asbag49
(g70
g51
NtRp3493
(dp3494
g54
(dp3495
sg63
g3481
sg56
(lp3496
g49
(g50
g51
NtRp3497
(dp3498
g54
(dp3499
g62
I3
ssg63
g3493
sg56
(lp3500
S''
asbasbasbasbasbasbasbasbasbasbasbag49
(g65
g51
NtRp3501
(dp3502
g54
(dp3503
sg63
g3287
sg56
(lp3504
g49
(g70
g51
NtRp3505
(dp3506
g54
(dp3507
g74
g75
ssg63
g3501
sg56
(lp3508
S'delimiters'
p3509
asbag49
(g70
g51
NtRp3510
(dp3511
g54
(dp3512
g81
g82
ssg63
g3501
sg56
(lp3513
S':'
asbag49
(g70
g51
NtRp3514
(dp3515
g54
(dp3516
sg63
g3501
sg56
(lp3517
g49
(g50
g51
NtRp3518
(dp3519
g54
(dp3520
g62
I5
ssg63
g3514
sg56
(lp3521
g49
(g58
g51
NtRp3522
(dp3523
g54
(dp3524
g62
I4
ssg63
Nsg56
(lp3525
g49
(g65
g51
NtRp3526
(dp3527
g54
(dp3528
sg63
g3522
sg56
(lp3529
g49
(g70
g51
NtRp3530
(dp3531
g54
(dp3532
sg63
g3526
sg56
(lp3533
g49
(g50
g51
NtRp3534
(dp3535
g54
(dp3536
g62
I4
ssg63
g3530
sg56
(lp3537
S'{{'
p3538
asbasbasbag49
(g65
g51
NtRp3539
(dp3540
g54
(dp3541
sg63
g3522
sg56
(lp3542
g49
(g70
g51
NtRp3543
(dp3544
g54
(dp3545
sg63
g3539
sg56
(lp3546
g49
(g50
g51
NtRp3547
(dp3548
g54
(dp3549
g62
I4
ssg63
g3543
sg56
(lp3550
S'}}'
p3551
asbasbasbasbasbasbasbag49
(g65
g51
NtRp3552
(dp3553
g54
(dp3554
sg63
g3287
sg56
(lp3555
g49
(g70
g51
NtRp3556
(dp3557
g54
(dp3558
g74
g75
ssg63
g3552
sg56
(lp3559
S'files'
p3560
asbag49
(g70
g51
NtRp3561
(dp3562
g54
(dp3563
g81
g82
ssg63
g3552
sg56
(lp3564
S':'
asbag49
(g70
g51
NtRp3565
(dp3566
g54
(dp3567
sg63
g3552
sg56
(lp3568
g49
(g50
g51
NtRp3569
(dp3570
g54
(dp3571
g62
I5
ssg63
g3565
sg56
(lp3572
g49
(g58
g51
NtRp3573
(dp3574
g54
(dp3575
g62
I4
ssg63
Nsg56
(lp3576
g49
(g65
g51
NtRp3577
(dp3578
g54
(dp3579
sg63
g3573
sg56
(lp3580
g49
(g70
g51
NtRp3581
(dp3582
g54
(dp3583
sg63
g3577
sg56
(lp3584
g49
(g50
g51
NtRp3585
(dp3586
g54
(dp3587
g62
I4
ssg63
g3581
sg56
(lp3588
S'/hellow/static/js/jquery.js'
p3589
asbasbasbag49
(g65
g51
NtRp3590
(dp3591
g54
(dp3592
sg63
g3573
sg56
(lp3593
g49
(g70
g51
NtRp3594
(dp3595
g54
(dp3596
sg63
g3590
sg56
(lp3597
g49
(g50
g51
NtRp3598
(dp3599
g54
(dp3600
g62
I4
ssg63
g3594
sg56
(lp3601
S'/hellow/static/css/calendar.css'
p3602
asbasbasbag49
(g65
g51
NtRp3603
(dp3604
g54
(dp3605
sg63
g3573
sg56
(lp3606
g49
(g70
g51
NtRp3607
(dp3608
g54
(dp3609
sg63
g3603
sg56
(lp3610
g49
(g50
g51
NtRp3611
(dp3612
g54
(dp3613
g62
I4
ssg63
g3607
sg56
(lp3614
S'/hellow/static/js/calendar.js'
p3615
asbasbasbag49
(g65
g51
NtRp3616
(dp3617
g54
(dp3618
sg63
g3573
sg56
(lp3619
g49
(g70
g51
NtRp3620
(dp3621
g54
(dp3622
sg63
g3616
sg56
(lp3623
g49
(g50
g51
NtRp3624
(dp3625
g54
(dp3626
g62
I4
ssg63
g3620
sg56
(lp3627
S'/hellow/static/js/web2py.js'
p3628
asbasbasbag49
(g65
g51
NtRp3629
(dp3630
g54
(dp3631
sg63
g3573
sg56
(lp3632
g49
(g70
g51
NtRp3633
(dp3634
g54
(dp3635
sg63
g3629
sg56
(lp3636
g49
(g50
g51
NtRp3637
(dp3638
g54
(dp3639
g62
I4
ssg63
g3633
sg56
(lp3640
S'/hellow/static/css/web2py.css'
p3641
asbasbasbag49
(g65
g51
NtRp3642
(dp3643
g54
(dp3644
sg63
g3573
sg56
(lp3645
g49
(g70
g51
NtRp3646
(dp3647
g54
(dp3648
sg63
g3642
sg56
(lp3649
g49
(g50
g51
NtRp3650
(dp3651
g54
(dp3652
g62
I4
ssg63
g3646
sg56
(lp3653
S'/hellow/static/css/bootstrap.min.css'
p3654
asbasbasbag49
(g65
g51
NtRp3655
(dp3656
g54
(dp3657
sg63
g3573
sg56
(lp3658
g49
(g70
g51
NtRp3659
(dp3660
g54
(dp3661
sg63
g3655
sg56
(lp3662
g49
(g50
g51
NtRp3663
(dp3664
g54
(dp3665
g62
I4
ssg63
g3659
sg56
(lp3666
S'/hellow/static/css/bootstrap-responsive.min.css'
p3667
asbasbasbag49
(g65
g51
NtRp3668
(dp3669
g54
(dp3670
sg63
g3573
sg56
(lp3671
g49
(g70
g51
NtRp3672
(dp3673
g54
(dp3674
sg63
g3668
sg56
(lp3675
g49
(g50
g51
NtRp3676
(dp3677
g54
(dp3678
g62
I4
ssg63
g3672
sg56
(lp3679
S'/hellow/static/css/web2py_bootstrap.css'
p3680
asbasbasbasbasbasbasbag49
(g65
g51
NtRp3681
(dp3682
g54
(dp3683
sg63
g3287
sg56
(lp3684
g49
(g70
g51
NtRp3685
(dp3686
g54
(dp3687
g74
g75
ssg63
g3681
sg56
(lp3688
S'flash'
p3689
asbag49
(g70
g51
NtRp3690
(dp3691
g54
(dp3692
g81
g82
ssg63
g3681
sg56
(lp3693
S':'
asbag49
(g70
g51
NtRp3694
(dp3695
g54
(dp3696
sg63
g3681
sg56
(lp3697
g49
(g50
g51
NtRp3698
(dp3699
g54
(dp3700
g62
I5
ssg63
g3694
sg56
(lp3701
S'please fill out the form'
p3702
asbasbasbag49
(g65
g51
NtRp3703
(dp3704
g54
(dp3705
sg63
g3287
sg56
(lp3706
g49
(g70
g51
NtRp3707
(dp3708
g54
(dp3709
g74
g75
ssg63
g3703
sg56
(lp3710
S'generic_patterns'
p3711
asbag49
(g70
g51
NtRp3712
(dp3713
g54
(dp3714
g81
g82
ssg63
g3703
sg56
(lp3715
S':'
asbag49
(g70
g51
NtRp3716
(dp3717
g54
(dp3718
sg63
g3703
sg56
(lp3719
g49
(g50
g51
NtRp3720
(dp3721
g54
(dp3722
g62
I5
ssg63
g3716
sg56
(lp3723
g49
(g58
g51
NtRp3724
(dp3725
g54
(dp3726
g62
I4
ssg63
Nsg56
(lp3727
g49
(g65
g51
NtRp3728
(dp3729
g54
(dp3730
sg63
g3724
sg56
(lp3731
g49
(g70
g51
NtRp3732
(dp3733
g54
(dp3734
sg63
g3728
sg56
(lp3735
g49
(g50
g51
NtRp3736
(dp3737
g54
(dp3738
g62
I4
ssg63
g3732
sg56
(lp3739
S'*'
asbasbasbasbasbasbasbag49
(g65
g51
NtRp3740
(dp3741
g54
(dp3742
sg63
g3287
sg56
(lp3743
g49
(g70
g51
NtRp3744
(dp3745
g54
(dp3746
g74
g75
ssg63
g3740
sg56
(lp3747
S'google_analytics_id'
p3748
asbag49
(g70
g51
NtRp3749
(dp3750
g54
(dp3751
g81
g82
ssg63
g3740
sg56
(lp3752
S':'
asbag49
(g70
g51
NtRp3753
(dp3754
g54
(dp3755
sg63
g3740
sg56
(lp3756
g49
(g50
g51
NtRp3757
(dp3758
g54
(dp3759
g62
I5
ssg63
g3753
sg56
(lp3760
S'None'
p3761
asbasbasbag49
(g65
g51
NtRp3762
(dp3763
g54
(dp3764
sg63
g3287
sg56
(lp3765
g49
(g70
g51
NtRp3766
(dp3767
g54
(dp3768
g74
g75
ssg63
g3762
sg56
(lp3769
S'headers'
p3770
asbag49
(g70
g51
NtRp3771
(dp3772
g54
(dp3773
g81
g82
ssg63
g3762
sg56
(lp3774
S':'
asbag49
(g70
g51
NtRp3775
(dp3776
g54
(dp3777
sg63
g3762
sg56
(lp3778
g49
(g50
g51
NtRp3779
(dp3780
g54
(dp3781
g62
I5
ssg63
g3775
sg56
(lp3782
g49
(g58
g51
NtRp3783
(dp3784
g54
(dp3785
g62
I4
ssg63
Nsg56
(lp3786
g49
(g65
g51
NtRp3787
(dp3788
g54
(dp3789
sg63
g3783
sg56
(lp3790
g49
(g70
g51
NtRp3791
(dp3792
g54
(dp3793
g74
g75
ssg63
g3787
sg56
(lp3794
S'X-Powered-By'
p3795
asbag49
(g70
g51
NtRp3796
(dp3797
g54
(dp3798
g81
g82
ssg63
g3787
sg56
(lp3799
S':'
asbag49
(g70
g51
NtRp3800
(dp3801
g54
(dp3802
sg63
g3787
sg56
(lp3803
g49
(g50
g51
NtRp3804
(dp3805
g54
(dp3806
g62
I4
ssg63
g3800
sg56
(lp3807
S'web2py'
p3808
asbasbasbasbasbasbasbag49
(g65
g51
NtRp3809
(dp3810
g54
(dp3811
sg63
g3287
sg56
(lp3812
g49
(g70
g51
NtRp3813
(dp3814
g54
(dp3815
g74
g75
ssg63
g3809
sg56
(lp3816
S'logo'
p3817
asbag49
(g70
g51
NtRp3818
(dp3819
g54
(dp3820
g81
g82
ssg63
g3809
sg56
(lp3821
S':'
asbag49
(g70
g51
NtRp3822
(dp3823
g54
(dp3824
sg63
g3809
sg56
(lp3825
g49
(g50
g51
NtRp3826
(dp3827
g54
(dp3828
g62
I5
ssg63
g3822
sg56
(lp3829
g49
(cgluon.html
A
p3830
g51
NtRp3831
(dp3832
g54
(dp3833
S'_class'
p3834
S'brand'
p3835
sS'_href'
p3836
S'http://www.web2py.com/'
p3837
ssg63
Nsg56
(lp3838
g49
(cgluon.html
B
p3839
g51
NtRp3840
(dp3841
g54
(dp3842
sg63
g3831
sg56
(lp3843
S'web'
p3844
ag49
(cgluon.html
SPAN
p3845
g51
NtRp3846
(dp3847
g54
(dp3848
sg63
g3840
sg56
(lp3849
I2
asbaS'py'
p3850
asbacgluon.html
XML_unpickle
p3851
(S's\r\x00\x00\x00&trade;&nbsp;'
tRp3852
asbasbasbasbag49
(g65
g51
NtRp3853
(dp3854
g54
(dp3855
sg63
g3287
sg56
(lp3856
g49
(g70
g51
NtRp3857
(dp3858
g54
(dp3859
g74
g75
ssg63
g3853
sg56
(lp3860
S'menu'
p3861
asbag49
(g70
g51
NtRp3862
(dp3863
g54
(dp3864
g81
g82
ssg63
g3853
sg56
(lp3865
S':'
asbag49
(g70
g51
NtRp3866
(dp3867
g54
(dp3868
sg63
g3853
sg56
(lp3869
g49
(g50
g51
NtRp3870
(dp3871
g54
(dp3872
g62
I5
ssg63
g3866
sg56
(lp3873
g49
(g58
g51
NtRp3874
(dp3875
g54
(dp3876
g62
I4
ssg63
Nsg56
(lp3877
g49
(g65
g51
NtRp3878
(dp3879
g54
(dp3880
sg63
g3874
sg56
(lp3881
g49
(g70
g51
NtRp3882
(dp3883
g54
(dp3884
sg63
g3878
sg56
(lp3885
g49
(g50
g51
NtRp3886
(dp3887
g54
(dp3888
g62
I4
ssg63
g3882
sg56
(lp3889
g49
(g58
g51
NtRp3890
(dp3891
g54
(dp3892
g62
I3
ssg63
Nsg56
(lp3893
g49
(g65
g51
NtRp3894
(dp3895
g54
(dp3896
sg63
g3890
sg56
(lp3897
g49
(g70
g51
NtRp3898
(dp3899
g54
(dp3900
sg63
g3894
sg56
(lp3901
g49
(g50
g51
NtRp3902
(dp3903
g54
(dp3904
g62
I3
ssg63
g3898
sg56
(lp3905
cgluon.languages
lazyT_unpickle
p3906
(S't\x04\x00\x00\x00Home'
tRp3907
asbasbasbag49
(g65
g51
NtRp3908
(dp3909
g54
(dp3910
sg63
g3890
sg56
(lp3911
g49
(g70
g51
NtRp3912
(dp3913
g54
(dp3914
sg63
g3908
sg56
(lp3915
g49
(g50
g51
NtRp3916
(dp3917
g54
(dp3918
g62
I3
ssg63
g3912
sg56
(lp3919
g92
asbasbasbag49
(g65
g51
NtRp3920
(dp3921
g54
(dp3922
sg63
g3890
sg56
(lp3923
g49
(g70
g51
NtRp3924
(dp3925
g54
(dp3926
sg63
g3920
sg56
(lp3927
g49
(g50
g51
NtRp3928
(dp3929
g54
(dp3930
g62
I3
ssg63
g3924
sg56
(lp3931
S'/hellow/default/index'
p3932
asbasbasbag49
(g65
g51
NtRp3933
(dp3934
g54
(dp3935
sg63
g3890
sg56
(lp3936
g49
(g70
g51
NtRp3937
(dp3938
g54
(dp3939
sg63
g3933
sg56
(lp3940
g49
(g50
g51
NtRp3941
(dp3942
g54
(dp3943
g62
I3
ssg63
g3937
sg56
(lp3944
g49
(g58
g51
NtRp3945
(dp3946
g54
(dp3947
g62
I2
ssg63
Nsg56
(lp3948
sbasbasbasbasbasbasbasbag49
(g65
g51
NtRp3949
(dp3950
g54
(dp3951
sg63
g3874
sg56
(lp3952
g49
(g70
g51
NtRp3953
(dp3954
g54
(dp3955
sg63
g3949
sg56
(lp3956
g49
(g50
g51
NtRp3957
(dp3958
g54
(dp3959
g62
I4
ssg63
g3953
sg56
(lp3960
g49
(g58
g51
NtRp3961
(dp3962
g54
(dp3963
g62
I3
ssg63
Nsg56
(lp3964
g49
(g65
g51
NtRp3965
(dp3966
g54
(dp3967
sg63
g3961
sg56
(lp3968
g49
(g70
g51
NtRp3969
(dp3970
g54
(dp3971
sg63
g3965
sg56
(lp3972
g49
(g50
g51
NtRp3973
(dp3974
g54
(dp3975
g62
I3
ssg63
g3969
sg56
(lp3976
g49
(g3845
g51
NtRp3977
(dp3978
g54
(dp3979
g3834
S'highlighted'
p3980
ssg63
g49
(g3830
g51
NtRp3981
(dp3982
g54
(dp3983
g3836
S'http://web2py.com'
p3984
ssg63
g49
(cgluon.html
LI
p3985
g51
NtRp3986
(dp3987
g54
(dp3988
g3834
S'dropdown'
p3989
ssg63
g49
(cgluon.html
UL
p3990
g51
NtRp3991
(dp3992
g54
(dp3993
S'mobile'
p3994
I00
sS'ul_class'
p3995
S'dropdown-menu'
p3996
sS'li_last'
p3997
S'web2py-menu-last'
p3998
sS'li_class'
p3999
g3989
sS'li_first'
p4000
S'web2py-menu-first'
p4001
sg3834
S'nav'
p4002
sS'li_active'
p4003
S'web2py-menu-active'
p4004
ssg63
Nsg56
(lp4005
g49
(g3985
g51
NtRp4006
(dp4007
g54
(dp4008
g3834
g4001
ssg63
g3991
sg56
(lp4009
g49
(g3830
g51
NtRp4010
(dp4011
g54
(dp4012
g3836
g3932
ssg63
g4006
sg56
(lp4013
g3907
asbasbag3986
asbsg56
(lp4014
g3981
ag49
(g3990
g51
NtRp4015
(dp4016
g54
(dp4017
g3834
g3996
ssg63
g3986
sg56
(lp4018
g49
(g3985
g51
NtRp4019
(dp4020
g54
(dp4021
sg63
g4015
sg56
(lp4022
g49
(g3830
g51
NtRp4023
(dp4024
g54
(dp4025
g3836
S'/admin/default/site'
p4026
ssg63
g4019
sg56
(lp4027
g3906
(S's\x08\x00\x00\x00My Sites'
tRp4028
asbasbag49
(g3985
g51
NtRp4029
(dp4030
g54
(dp4031
g3834
g3989
ssg63
g4015
sg56
(lp4032
g49
(g3830
g51
NtRp4033
(dp4034
g54
(dp4035
g3836
S'/admin/default/design/hellow'
p4036
ssg63
g4029
sg56
(lp4037
g3906
(S's\x08\x00\x00\x00This App'
tRp4038
asbag49
(g3990
g51
NtRp4039
(dp4040
g54
(dp4041
g3834
g3996
ssg63
g4029
sg56
(lp4042
g49
(g3985
g51
NtRp4043
(dp4044
g54
(dp4045
sg63
g4039
sg56
(lp4046
g49
(g3830
g51
NtRp4047
(dp4048
g54
(dp4049
g3836
S'/admin/default/edit/hellow/controllers/game.py'
p4050
ssg63
g4043
sg56
(lp4051
g3906
(S't\n\x00\x00\x00Controller'
tRp4052
asbasbag49
(g3985
g51
NtRp4053
(dp4054
g54
(dp4055
sg63
g4039
sg56
(lp4056
g49
(g3830
g51
NtRp4057
(dp4058
g54
(dp4059
g3836
S'/admin/default/edit/hellow/views/game/show.html'
p4060
ssg63
g4053
sg56
(lp4061
g3906
(S't\x04\x00\x00\x00View'
tRp4062
asbasbag49
(g3985
g51
NtRp4063
(dp4064
g54
(dp4065
sg63
g4039
sg56
(lp4066
g49
(g3830
g51
NtRp4067
(dp4068
g54
(dp4069
g3836
S'/admin/default/edit/hellow/views/layout.html'
p4070
ssg63
g4063
sg56
(lp4071
g3906
(S't\x06\x00\x00\x00Layout'
tRp4072
asbasbag49
(g3985
g51
NtRp4073
(dp4074
g54
(dp4075
sg63
g4039
sg56
(lp4076
g49
(g3830
g51
NtRp4077
(dp4078
g54
(dp4079
g3836
S'/admin/default/edit/hellow/static/css/web2py.css'
p4080
ssg63
g4073
sg56
(lp4081
g3906
(S't\n\x00\x00\x00Stylesheet'
tRp4082
asbasbag49
(g3985
g51
NtRp4083
(dp4084
g54
(dp4085
sg63
g4039
sg56
(lp4086
g49
(g3830
g51
NtRp4087
(dp4088
g54
(dp4089
g3836
S'/admin/default/edit/hellow/models/db.py'
p4090
ssg63
g4083
sg56
(lp4091
g3906
(S's\x08\x00\x00\x00DB Model'
tRp4092
asbasbag49
(g3985
g51
NtRp4093
(dp4094
g54
(dp4095
sg63
g4039
sg56
(lp4096
g49
(g3830
g51
NtRp4097
(dp4098
g54
(dp4099
g3836
S'/admin/default/edit/hellow/models/menu.py'
p4100
ssg63
g4093
sg56
(lp4101
g3906
(S's\n\x00\x00\x00Menu Model'
tRp4102
asbasbag49
(g3985
g51
NtRp4103
(dp4104
g54
(dp4105
sg63
g4039
sg56
(lp4106
g49
(g3830
g51
NtRp4107
(dp4108
g54
(dp4109
g3836
S'/hellow/appadmin/index'
p4110
ssg63
g4103
sg56
(lp4111
g3906
(S't\x08\x00\x00\x00Database'
tRp4112
asbasbag49
(g3985
g51
NtRp4113
(dp4114
g54
(dp4115
sg63
g4039
sg56
(lp4116
g49
(g3830
g51
NtRp4117
(dp4118
g54
(dp4119
g3836
S'/admin/default/errors/hellow'
p4120
ssg63
g4113
sg56
(lp4121
g3906
(S't\x06\x00\x00\x00Errors'
tRp4122
asbasbag49
(g3985
g51
NtRp4123
(dp4124
g54
(dp4125
sg63
g4039
sg56
(lp4126
g49
(g3830
g51
NtRp4127
(dp4128
g54
(dp4129
g3836
S'/admin/default/about/hellow'
p4130
ssg63
g4123
sg56
(lp4131
g3906
(S't\x05\x00\x00\x00About'
tRp4132
asbasbasbasbag49
(g3985
g51
NtRp4133
(dp4134
g54
(dp4135
g3834
g3989
ssg63
g4015
sg56
(lp4136
g49
(g3830
g51
NtRp4137
(dp4138
g54
(dp4139
g3836
S'http://www.web2py.com'
p4140
ssg63
g4133
sg56
(lp4141
S'web2py.com'
p4142
asbag49
(g3990
g51
NtRp4143
(dp4144
g54
(dp4145
g3834
g3996
ssg63
g4133
sg56
(lp4146
g49
(g3985
g51
NtRp4147
(dp4148
g54
(dp4149
sg63
g4143
sg56
(lp4150
g49
(g3830
g51
NtRp4151
(dp4152
g54
(dp4153
g3836
S'http://www.web2py.com/examples/default/download'
p4154
ssg63
g4147
sg56
(lp4155
g3906
(S't\x08\x00\x00\x00Download'
tRp4156
asbasbag49
(g3985
g51
NtRp4157
(dp4158
g54
(dp4159
sg63
g4143
sg56
(lp4160
g49
(g3830
g51
NtRp4161
(dp4162
g54
(dp4163
g3836
S'http://www.web2py.com/examples/default/support'
p4164
ssg63
g4157
sg56
(lp4165
g3906
(S't\x07\x00\x00\x00Support'
tRp4166
asbasbag49
(g3985
g51
NtRp4167
(dp4168
g54
(dp4169
sg63
g4143
sg56
(lp4170
g49
(g3830
g51
NtRp4171
(dp4172
g54
(dp4173
g3836
S'http://web2py.com/demo_admin'
p4174
ssg63
g4167
sg56
(lp4175
g3906
(S't\x04\x00\x00\x00Demo'
tRp4176
asbasbag49
(g3985
g51
NtRp4177
(dp4178
g54
(dp4179
sg63
g4143
sg56
(lp4180
g49
(g3830
g51
NtRp4181
(dp4182
g54
(dp4183
g3836
S'http://web2py.com/examples/default/examples'
p4184
ssg63
g4177
sg56
(lp4185
g3906
(S's\x0e\x00\x00\x00Quick Examples'
tRp4186
asbasbag49
(g3985
g51
NtRp4187
(dp4188
g54
(dp4189
sg63
g4143
sg56
(lp4190
g49
(g3830
g51
NtRp4191
(dp4192
g54
(dp4193
g3836
S'http://web2py.com/AlterEgo'
p4194
ssg63
g4187
sg56
(lp4195
g3906
(S't\x03\x00\x00\x00FAQ'
tRp4196
asbasbag49
(g3985
g51
NtRp4197
(dp4198
g54
(dp4199
sg63
g4143
sg56
(lp4200
g49
(g3830
g51
NtRp4201
(dp4202
g54
(dp4203
g3836
S'http://www.web2py.com/examples/default/videos/'
p4204
ssg63
g4197
sg56
(lp4205
g3906
(S't\x06\x00\x00\x00Videos'
tRp4206
asbasbag49
(g3985
g51
NtRp4207
(dp4208
g54
(dp4209
sg63
g4143
sg56
(lp4210
g49
(g3830
g51
NtRp4211
(dp4212
g54
(dp4213
g3836
S'http://web2py.com/appliances'
p4214
ssg63
g4207
sg56
(lp4215
g3906
(S's\x11\x00\x00\x00Free Applications'
tRp4216
asbasbag49
(g3985
g51
NtRp4217
(dp4218
g54
(dp4219
sg63
g4143
sg56
(lp4220
g49
(g3830
g51
NtRp4221
(dp4222
g54
(dp4223
g3836
S'http://web2py.com/plugins'
p4224
ssg63
g4217
sg56
(lp4225
g3906
(S't\x07\x00\x00\x00Plugins'
tRp4226
asbasbag49
(g3985
g51
NtRp4227
(dp4228
g54
(dp4229
sg63
g4143
sg56
(lp4230
g49
(g3830
g51
NtRp4231
(dp4232
g54
(dp4233
g3836
S'http://web2py.com/layouts'
p4234
ssg63
g4227
sg56
(lp4235
g3906
(S't\x07\x00\x00\x00Layouts'
tRp4236
asbasbag49
(g3985
g51
NtRp4237
(dp4238
g54
(dp4239
sg63
g4143
sg56
(lp4240
g49
(g3830
g51
NtRp4241
(dp4242
g54
(dp4243
g3836
S'http://web2pyslices.com/'
p4244
ssg63
g4237
sg56
(lp4245
g3906
(S't\x07\x00\x00\x00Recipes'
tRp4246
asbasbag49
(g3985
g51
NtRp4247
(dp4248
g54
(dp4249
sg63
g4143
sg56
(lp4250
g49
(g3830
g51
NtRp4251
(dp4252
g54
(dp4253
g3836
S'http://web2py.com/semantic'
p4254
ssg63
g4247
sg56
(lp4255
g3906
(S't\x08\x00\x00\x00Semantic'
tRp4256
asbasbasbasbag49
(g3985
g51
NtRp4257
(dp4258
g54
(dp4259
g3834
g3989
ssg63
g4015
sg56
(lp4260
g49
(g3830
g51
NtRp4261
(dp4262
g54
(dp4263
g3836
S'http://www.web2py.com/book'
p4264
ssg63
g4257
sg56
(lp4265
g3906
(S't\r\x00\x00\x00Documentation'
tRp4266
asbag49
(g3990
g51
NtRp4267
(dp4268
g54
(dp4269
g3834
g3996
ssg63
g4257
sg56
(lp4270
g49
(g3985
g51
NtRp4271
(dp4272
g54
(dp4273
sg63
g4267
sg56
(lp4274
g49
(g3830
g51
NtRp4275
(dp4276
g54
(dp4277
g3836
S'http://www.web2py.com/book/default/chapter/00'
p4278
ssg63
g4271
sg56
(lp4279
g3906
(S't\x07\x00\x00\x00Preface'
tRp4280
asbasbag49
(g3985
g51
NtRp4281
(dp4282
g54
(dp4283
sg63
g4267
sg56
(lp4284
g49
(g3830
g51
NtRp4285
(dp4286
g54
(dp4287
g3836
S'http://www.web2py.com/book/default/chapter/01'
p4288
ssg63
g4281
sg56
(lp4289
g3906
(S't\x0c\x00\x00\x00Introduction'
tRp4290
asbasbag49
(g3985
g51
NtRp4291
(dp4292
g54
(dp4293
sg63
g4267
sg56
(lp4294
g49
(g3830
g51
NtRp4295
(dp4296
g54
(dp4297
g3836
S'http://www.web2py.com/book/default/chapter/02'
p4298
ssg63
g4291
sg56
(lp4299
g3906
(S't\x06\x00\x00\x00Python'
tRp4300
asbasbag49
(g3985
g51
NtRp4301
(dp4302
g54
(dp4303
sg63
g4267
sg56
(lp4304
g49
(g3830
g51
NtRp4305
(dp4306
g54
(dp4307
g3836
S'http://www.web2py.com/book/default/chapter/03'
p4308
ssg63
g4301
sg56
(lp4309
g3906
(S't\x08\x00\x00\x00Overview'
tRp4310
asbasbag49
(g3985
g51
NtRp4311
(dp4312
g54
(dp4313
sg63
g4267
sg56
(lp4314
g49
(g3830
g51
NtRp4315
(dp4316
g54
(dp4317
g3836
S'http://www.web2py.com/book/default/chapter/04'
p4318
ssg63
g4311
sg56
(lp4319
g3906
(S's\x08\x00\x00\x00The Core'
tRp4320
asbasbag49
(g3985
g51
NtRp4321
(dp4322
g54
(dp4323
sg63
g4267
sg56
(lp4324
g49
(g3830
g51
NtRp4325
(dp4326
g54
(dp4327
g3836
S'http://www.web2py.com/book/default/chapter/05'
p4328
ssg63
g4321
sg56
(lp4329
g3906
(S's\t\x00\x00\x00The Views'
tRp4330
asbasbag49
(g3985
g51
NtRp4331
(dp4332
g54
(dp4333
sg63
g4267
sg56
(lp4334
g49
(g3830
g51
NtRp4335
(dp4336
g54
(dp4337
g3836
S'http://www.web2py.com/book/default/chapter/06'
p4338
ssg63
g4331
sg56
(lp4339
g3906
(S't\x08\x00\x00\x00Database'
tRp4340
asbasbag49
(g3985
g51
NtRp4341
(dp4342
g54
(dp4343
sg63
g4267
sg56
(lp4344
g49
(g3830
g51
NtRp4345
(dp4346
g54
(dp4347
g3836
S'http://www.web2py.com/book/default/chapter/07'
p4348
ssg63
g4341
sg56
(lp4349
g3906
(S's\x14\x00\x00\x00Forms and Validators'
tRp4350
asbasbag49
(g3985
g51
NtRp4351
(dp4352
g54
(dp4353
sg63
g4267
sg56
(lp4354
g49
(g3830
g51
NtRp4355
(dp4356
g54
(dp4357
g3836
S'http://www.web2py.com/book/default/chapter/08'
p4358
ssg63
g4351
sg56
(lp4359
g3906
(S's\r\x00\x00\x00Email and SMS'
tRp4360
asbasbag49
(g3985
g51
NtRp4361
(dp4362
g54
(dp4363
sg63
g4267
sg56
(lp4364
g49
(g3830
g51
NtRp4365
(dp4366
g54
(dp4367
g3836
S'http://www.web2py.com/book/default/chapter/09'
p4368
ssg63
g4361
sg56
(lp4369
g3906
(S's\x0e\x00\x00\x00Access Control'
tRp4370
asbasbag49
(g3985
g51
NtRp4371
(dp4372
g54
(dp4373
sg63
g4267
sg56
(lp4374
g49
(g3830
g51
NtRp4375
(dp4376
g54
(dp4377
g3836
S'http://www.web2py.com/book/default/chapter/10'
p4378
ssg63
g4371
sg56
(lp4379
g3906
(S't\x08\x00\x00\x00Services'
tRp4380
asbasbag49
(g3985
g51
NtRp4381
(dp4382
g54
(dp4383
sg63
g4267
sg56
(lp4384
g49
(g3830
g51
NtRp4385
(dp4386
g54
(dp4387
g3836
S'http://www.web2py.com/book/default/chapter/11'
p4388
ssg63
g4381
sg56
(lp4389
g3906
(S's\x0c\x00\x00\x00Ajax Recipes'
tRp4390
asbasbag49
(g3985
g51
NtRp4391
(dp4392
g54
(dp4393
sg63
g4267
sg56
(lp4394
g49
(g3830
g51
NtRp4395
(dp4396
g54
(dp4397
g3836
S'http://www.web2py.com/book/default/chapter/12'
p4398
ssg63
g4391
sg56
(lp4399
g3906
(S's\x16\x00\x00\x00Components and Plugins'
tRp4400
asbasbag49
(g3985
g51
NtRp4401
(dp4402
g54
(dp4403
sg63
g4267
sg56
(lp4404
g49
(g3830
g51
NtRp4405
(dp4406
g54
(dp4407
g3836
S'http://www.web2py.com/book/default/chapter/13'
p4408
ssg63
g4401
sg56
(lp4409
g3906
(S's\x12\x00\x00\x00Deployment Recipes'
tRp4410
asbasbag49
(g3985
g51
NtRp4411
(dp4412
g54
(dp4413
sg63
g4267
sg56
(lp4414
g49
(g3830
g51
NtRp4415
(dp4416
g54
(dp4417
g3836
S'http://www.web2py.com/book/default/chapter/14'
p4418
ssg63
g4411
sg56
(lp4419
g3906
(S's\r\x00\x00\x00Other Recipes'
tRp4420
asbasbag49
(g3985
g51
NtRp4421
(dp4422
g54
(dp4423
sg63
g4267
sg56
(lp4424
g49
(g3830
g51
NtRp4425
(dp4426
g54
(dp4427
g3836
S'http://stores.lulu.com/web2py'
p4428
ssg63
g4421
sg56
(lp4429
g3906
(S's\r\x00\x00\x00Buy this book'
tRp4430
asbasbasbasbag49
(g3985
g51
NtRp4431
(dp4432
g54
(dp4433
g3834
g3989
ssg63
g4015
sg56
(lp4434
g49
(g3830
g51
NtRp4435
(dp4436
g54
(dp4437
S'_onclick'
p4438
S'javascript:void(0);return false;'
p4439
sg3836
S'#'
ssg63
g4431
sg56
(lp4440
g3906
(S't\t\x00\x00\x00Community'
tRp4441
asbag49
(g3990
g51
NtRp4442
(dp4443
g54
(dp4444
g3834
g3996
ssg63
g4431
sg56
(lp4445
g49
(g3985
g51
NtRp4446
(dp4447
g54
(dp4448
sg63
g4442
sg56
(lp4449
g49
(g3830
g51
NtRp4450
(dp4451
g54
(dp4452
g3836
S'http://www.web2py.com/examples/default/usergroups'
p4453
ssg63
g4446
sg56
(lp4454
g3906
(S't\x06\x00\x00\x00Groups'
tRp4455
asbasbag49
(g3985
g51
NtRp4456
(dp4457
g54
(dp4458
sg63
g4442
sg56
(lp4459
g49
(g3830
g51
NtRp4460
(dp4461
g54
(dp4462
g3836
S'http://twitter.com/web2py'
p4463
ssg63
g4456
sg56
(lp4464
g3906
(S't\x07\x00\x00\x00Twitter'
tRp4465
asbasbag49
(g3985
g51
NtRp4466
(dp4467
g54
(dp4468
sg63
g4442
sg56
(lp4469
g49
(g3830
g51
NtRp4470
(dp4471
g54
(dp4472
g3836
S'http://webchat.freenode.net/?channels=web2py'
p4473
ssg63
g4466
sg56
(lp4474
g3906
(S's\t\x00\x00\x00Live Chat'
tRp4475
asbasbasbasbag49
(g3985
g51
NtRp4476
(dp4477
g54
(dp4478
g3834
g3989
ssg63
g4015
sg56
(lp4479
g49
(g3830
g51
NtRp4480
(dp4481
g54
(dp4482
g4438
g4439
sg3836
S'#'
ssg63
g4476
sg56
(lp4483
g3906
(S't\x07\x00\x00\x00Plugins'
tRp4484
asbag49
(g3990
g51
NtRp4485
(dp4486
g54
(dp4487
g3834
g3996
ssg63
g4476
sg56
(lp4488
g49
(g3985
g51
NtRp4489
(dp4490
g54
(dp4491
sg63
g4485
sg56
(lp4492
g49
(g3830
g51
NtRp4493
(dp4494
g54
(dp4495
g3836
S'http://web2py.com/examples/default/download'
p4496
ssg63
g4489
sg56
(lp4497
S'plugin_wiki'
p4498
asbasbag49
(g3985
g51
NtRp4499
(dp4500
g54
(dp4501
sg63
g4485
sg56
(lp4502
g49
(g3830
g51
NtRp4503
(dp4504
g54
(dp4505
g3836
g4224
ssg63
g4499
sg56
(lp4506
g3906
(S's\r\x00\x00\x00Other Plugins'
tRp4507
asbasbag49
(g3985
g51
NtRp4508
(dp4509
g54
(dp4510
sg63
g4485
sg56
(lp4511
g49
(g3830
g51
NtRp4512
(dp4513
g54
(dp4514
g3836
g4234
ssg63
g4508
sg56
(lp4515
g3906
(S's\x0e\x00\x00\x00Layout Plugins'
tRp4516
asbasbasbasbasbasbsg56
(lp4517
g3977
asbsg56
(lp4518
g3808
asbasbasbasbag49
(g65
g51
NtRp4519
(dp4520
g54
(dp4521
sg63
g3961
sg56
(lp4522
g49
(g70
g51
NtRp4523
(dp4524
g54
(dp4525
sg63
g4519
sg56
(lp4526
g49
(g50
g51
NtRp4527
(dp4528
g54
(dp4529
g62
I3
ssg63
g4523
sg56
(lp4530
g92
asbasbasbag49
(g65
g51
NtRp4531
(dp4532
g54
(dp4533
sg63
g3961
sg56
(lp4534
g49
(g70
g51
NtRp4535
(dp4536
g54
(dp4537
sg63
g4531
sg56
(lp4538
g49
(g50
g51
NtRp4539
(dp4540
g54
(dp4541
g62
I3
ssg63
g4535
sg56
(lp4542
g3984
asbasbasbag49
(g65
g51
NtRp4543
(dp4544
g54
(dp4545
sg63
g3961
sg56
(lp4546
g49
(g70
g51
NtRp4547
(dp4548
g54
(dp4549
sg63
g4543
sg56
(lp4550
g49
(g50
g51
NtRp4551
(dp4552
g54
(dp4553
g62
I3
ssg63
g4547
sg56
(lp4554
g49
(g58
g51
NtRp4555
(dp4556
g54
(dp4557
g62
I2
ssg63
Nsg56
(lp4558
g49
(g65
g51
NtRp4559
(dp4560
g54
(dp4561
sg63
g4555
sg56
(lp4562
g49
(g70
g51
NtRp4563
(dp4564
g54
(dp4565
sg63
g4559
sg56
(lp4566
g49
(g50
g51
NtRp4567
(dp4568
g54
(dp4569
g62
I2
ssg63
g4563
sg56
(lp4570
g49
(g58
g51
NtRp4571
(dp4572
g54
(dp4573
g62
I1
ssg63
Nsg56
(lp4574
g49
(g65
g51
NtRp4575
(dp4576
g54
(dp4577
sg63
g4571
sg56
(lp4578
g49
(g70
g51
NtRp4579
(dp4580
g54
(dp4581
sg63
g4575
sg56
(lp4582
g49
(g50
g51
NtRp4583
(dp4584
g54
(dp4585
g62
I1
ssg63
g4579
sg56
(lp4586
g4028
asbasbasbag49
(g65
g51
NtRp4587
(dp4588
g54
(dp4589
sg63
g4571
sg56
(lp4590
g49
(g70
g51
NtRp4591
(dp4592
g54
(dp4593
sg63
g4587
sg56
(lp4594
g49
(g50
g51
NtRp4595
(dp4596
g54
(dp4597
g62
I1
ssg63
g4591
sg56
(lp4598
I00
asbasbasbag49
(g65
g51
NtRp4599
(dp4600
g54
(dp4601
sg63
g4571
sg56
(lp4602
g49
(g70
g51
NtRp4603
(dp4604
g54
(dp4605
sg63
g4599
sg56
(lp4606
g49
(g50
g51
NtRp4607
(dp4608
g54
(dp4609
g62
I1
ssg63
g4603
sg56
(lp4610
g4026
asbasbasbasbasbasbasbag49
(g65
g51
NtRp4611
(dp4612
g54
(dp4613
sg63
g4555
sg56
(lp4614
g49
(g70
g51
NtRp4615
(dp4616
g54
(dp4617
sg63
g4611
sg56
(lp4618
g49
(g50
g51
NtRp4619
(dp4620
g54
(dp4621
g62
I2
ssg63
g4615
sg56
(lp4622
g49
(g58
g51
NtRp4623
(dp4624
g54
(dp4625
g62
I1
ssg63
Nsg56
(lp4626
g49
(g65
g51
NtRp4627
(dp4628
g54
(dp4629
sg63
g4623
sg56
(lp4630
g49
(g70
g51
NtRp4631
(dp4632
g54
(dp4633
sg63
g4627
sg56
(lp4634
g49
(g50
g51
NtRp4635
(dp4636
g54
(dp4637
g62
I1
ssg63
g4631
sg56
(lp4638
g4038
asbasbasbag49
(g65
g51
NtRp4639
(dp4640
g54
(dp4641
sg63
g4623
sg56
(lp4642
g49
(g70
g51
NtRp4643
(dp4644
g54
(dp4645
sg63
g4639
sg56
(lp4646
g49
(g50
g51
NtRp4647
(dp4648
g54
(dp4649
g62
I1
ssg63
g4643
sg56
(lp4650
I00
asbasbasbag49
(g65
g51
NtRp4651
(dp4652
g54
(dp4653
sg63
g4623
sg56
(lp4654
g49
(g70
g51
NtRp4655
(dp4656
g54
(dp4657
sg63
g4651
sg56
(lp4658
g49
(g50
g51
NtRp4659
(dp4660
g54
(dp4661
g62
I1
ssg63
g4655
sg56
(lp4662
g4036
asbasbasbag49
(g65
g51
NtRp4663
(dp4664
g54
(dp4665
sg63
g4623
sg56
(lp4666
g49
(g70
g51
NtRp4667
(dp4668
g54
(dp4669
sg63
g4663
sg56
(lp4670
g49
(g50
g51
NtRp4671
(dp4672
g54
(dp4673
g62
I1
ssg63
g4667
sg56
(lp4674
(lp4675
(g4052
I00
g4050
tp4676
a(g4062
I00
g4060
tp4677
a(g4072
I00
g4070
tp4678
a(g4082
I00
g4080
tp4679
a(g4092
I00
g4090
tp4680
a(g4102
I00
g4100
tp4681
a(g4112
I00
g4110
tp4682
a(g4122
I00
g4120
tp4683
a(g4132
I00
g4130
tp4684
aasbasbasbasbasbasbasbag49
(g65
g51
NtRp4685
(dp4686
g54
(dp4687
sg63
g4555
sg56
(lp4688
g49
(g70
g51
NtRp4689
(dp4690
g54
(dp4691
sg63
g4685
sg56
(lp4692
g49
(g50
g51
NtRp4693
(dp4694
g54
(dp4695
g62
I2
ssg63
g4689
sg56
(lp4696
g49
(g58
g51
NtRp4697
(dp4698
g54
(dp4699
g62
I1
ssg63
Nsg56
(lp4700
g49
(g65
g51
NtRp4701
(dp4702
g54
(dp4703
sg63
g4697
sg56
(lp4704
g49
(g70
g51
NtRp4705
(dp4706
g54
(dp4707
sg63
g4701
sg56
(lp4708
g49
(g50
g51
NtRp4709
(dp4710
g54
(dp4711
g62
I1
ssg63
g4705
sg56
(lp4712
g4142
asbasbasbag49
(g65
g51
NtRp4713
(dp4714
g54
(dp4715
sg63
g4697
sg56
(lp4716
g49
(g70
g51
NtRp4717
(dp4718
g54
(dp4719
sg63
g4713
sg56
(lp4720
g49
(g50
g51
NtRp4721
(dp4722
g54
(dp4723
g62
I1
ssg63
g4717
sg56
(lp4724
I00
asbasbasbag49
(g65
g51
NtRp4725
(dp4726
g54
(dp4727
sg63
g4697
sg56
(lp4728
g49
(g70
g51
NtRp4729
(dp4730
g54
(dp4731
sg63
g4725
sg56
(lp4732
g49
(g50
g51
NtRp4733
(dp4734
g54
(dp4735
g62
I1
ssg63
g4729
sg56
(lp4736
g4140
asbasbasbag49
(g65
g51
NtRp4737
(dp4738
g54
(dp4739
sg63
g4697
sg56
(lp4740
g49
(g70
g51
NtRp4741
(dp4742
g54
(dp4743
sg63
g4737
sg56
(lp4744
g49
(g50
g51
NtRp4745
(dp4746
g54
(dp4747
g62
I1
ssg63
g4741
sg56
(lp4748
(lp4749
(g4156
I00
g4154
tp4750
a(g4166
I00
g4164
tp4751
a(g4176
I00
g4174
tp4752
a(g4186
I00
g4184
tp4753
a(g4196
I00
g4194
tp4754
a(g4206
I00
g4204
tp4755
a(g4216
I00
g4214
tp4756
a(g4226
I00
g4224
tp4757
a(g4236
I00
g4234
tp4758
a(g4246
I00
g4244
tp4759
a(g4256
I00
g4254
tp4760
aasbasbasbasbasbasbasbag49
(g65
g51
NtRp4761
(dp4762
g54
(dp4763
sg63
g4555
sg56
(lp4764
g49
(g70
g51
NtRp4765
(dp4766
g54
(dp4767
sg63
g4761
sg56
(lp4768
g49
(g50
g51
NtRp4769
(dp4770
g54
(dp4771
g62
I2
ssg63
g4765
sg56
(lp4772
g49
(g58
g51
NtRp4773
(dp4774
g54
(dp4775
g62
I1
ssg63
Nsg56
(lp4776
g49
(g65
g51
NtRp4777
(dp4778
g54
(dp4779
sg63
g4773
sg56
(lp4780
g49
(g70
g51
NtRp4781
(dp4782
g54
(dp4783
sg63
g4777
sg56
(lp4784
g49
(g50
g51
NtRp4785
(dp4786
g54
(dp4787
g62
I1
ssg63
g4781
sg56
(lp4788
g4266
asbasbasbag49
(g65
g51
NtRp4789
(dp4790
g54
(dp4791
sg63
g4773
sg56
(lp4792
g49
(g70
g51
NtRp4793
(dp4794
g54
(dp4795
sg63
g4789
sg56
(lp4796
g49
(g50
g51
NtRp4797
(dp4798
g54
(dp4799
g62
I1
ssg63
g4793
sg56
(lp4800
I00
asbasbasbag49
(g65
g51
NtRp4801
(dp4802
g54
(dp4803
sg63
g4773
sg56
(lp4804
g49
(g70
g51
NtRp4805
(dp4806
g54
(dp4807
sg63
g4801
sg56
(lp4808
g49
(g50
g51
NtRp4809
(dp4810
g54
(dp4811
g62
I1
ssg63
g4805
sg56
(lp4812
g4264
asbasbasbag49
(g65
g51
NtRp4813
(dp4814
g54
(dp4815
sg63
g4773
sg56
(lp4816
g49
(g70
g51
NtRp4817
(dp4818
g54
(dp4819
sg63
g4813
sg56
(lp4820
g49
(g50
g51
NtRp4821
(dp4822
g54
(dp4823
g62
I1
ssg63
g4817
sg56
(lp4824
(lp4825
(g4280
I00
g4278
tp4826
a(g4290
I00
g4288
tp4827
a(g4300
I00
g4298
tp4828
a(g4310
I00
g4308
tp4829
a(g4320
I00
g4318
tp4830
a(g4330
I00
g4328
tp4831
a(g4340
I00
g4338
tp4832
a(g4350
I00
g4348
tp4833
a(g4360
I00
g4358
tp4834
a(g4370
I00
g4368
tp4835
a(g4380
I00
g4378
tp4836
a(g4390
I00
g4388
tp4837
a(g4400
I00
g4398
tp4838
a(g4410
I00
g4408
tp4839
a(g4420
I00
g4418
tp4840
a(g4430
I00
g4428
tp4841
aasbasbasbasbasbasbasbag49
(g65
g51
NtRp4842
(dp4843
g54
(dp4844
sg63
g4555
sg56
(lp4845
g49
(g70
g51
NtRp4846
(dp4847
g54
(dp4848
sg63
g4842
sg56
(lp4849
g49
(g50
g51
NtRp4850
(dp4851
g54
(dp4852
g62
I2
ssg63
g4846
sg56
(lp4853
g49
(g58
g51
NtRp4854
(dp4855
g54
(dp4856
g62
I1
ssg63
Nsg56
(lp4857
g49
(g65
g51
NtRp4858
(dp4859
g54
(dp4860
sg63
g4854
sg56
(lp4861
g49
(g70
g51
NtRp4862
(dp4863
g54
(dp4864
sg63
g4858
sg56
(lp4865
g49
(g50
g51
NtRp4866
(dp4867
g54
(dp4868
g62
I1
ssg63
g4862
sg56
(lp4869
g4441
asbasbasbag49
(g65
g51
NtRp4870
(dp4871
g54
(dp4872
sg63
g4854
sg56
(lp4873
g49
(g70
g51
NtRp4874
(dp4875
g54
(dp4876
sg63
g4870
sg56
(lp4877
g49
(g50
g51
NtRp4878
(dp4879
g54
(dp4880
g62
I1
ssg63
g4874
sg56
(lp4881
I00
asbasbasbag49
(g65
g51
NtRp4882
(dp4883
g54
(dp4884
sg63
g4854
sg56
(lp4885
g49
(g70
g51
NtRp4886
(dp4887
g54
(dp4888
sg63
g4882
sg56
(lp4889
g49
(g50
g51
NtRp4890
(dp4891
g54
(dp4892
g62
I1
ssg63
g4886
sg56
(lp4893
Nasbasbasbag49
(g65
g51
NtRp4894
(dp4895
g54
(dp4896
sg63
g4854
sg56
(lp4897
g49
(g70
g51
NtRp4898
(dp4899
g54
(dp4900
sg63
g4894
sg56
(lp4901
g49
(g50
g51
NtRp4902
(dp4903
g54
(dp4904
g62
I1
ssg63
g4898
sg56
(lp4905
(lp4906
(g4455
I00
g4453
tp4907
a(g4465
I00
g4463
tp4908
a(g4475
I00
g4473
tp4909
aasbasbasbasbasbasbasbag49
(g65
g51
NtRp4910
(dp4911
g54
(dp4912
sg63
g4555
sg56
(lp4913
g49
(g70
g51
NtRp4914
(dp4915
g54
(dp4916
sg63
g4910
sg56
(lp4917
g49
(g50
g51
NtRp4918
(dp4919
g54
(dp4920
g62
I2
ssg63
g4914
sg56
(lp4921
g49
(g58
g51
NtRp4922
(dp4923
g54
(dp4924
g62
I1
ssg63
Nsg56
(lp4925
g49
(g65
g51
NtRp4926
(dp4927
g54
(dp4928
sg63
g4922
sg56
(lp4929
g49
(g70
g51
NtRp4930
(dp4931
g54
(dp4932
sg63
g4926
sg56
(lp4933
g49
(g50
g51
NtRp4934
(dp4935
g54
(dp4936
g62
I1
ssg63
g4930
sg56
(lp4937
g4484
asbasbasbag49
(g65
g51
NtRp4938
(dp4939
g54
(dp4940
sg63
g4922
sg56
(lp4941
g49
(g70
g51
NtRp4942
(dp4943
g54
(dp4944
sg63
g4938
sg56
(lp4945
g49
(g50
g51
NtRp4946
(dp4947
g54
(dp4948
g62
I1
ssg63
g4942
sg56
(lp4949
I00
asbasbasbag49
(g65
g51
NtRp4950
(dp4951
g54
(dp4952
sg63
g4922
sg56
(lp4953
g49
(g70
g51
NtRp4954
(dp4955
g54
(dp4956
sg63
g4950
sg56
(lp4957
g49
(g50
g51
NtRp4958
(dp4959
g54
(dp4960
g62
I1
ssg63
g4954
sg56
(lp4961
Nasbasbasbag49
(g65
g51
NtRp4962
(dp4963
g54
(dp4964
sg63
g4922
sg56
(lp4965
g49
(g70
g51
NtRp4966
(dp4967
g54
(dp4968
sg63
g4962
sg56
(lp4969
g49
(g50
g51
NtRp4970
(dp4971
g54
(dp4972
g62
I1
ssg63
g4966
sg56
(lp4973
(lp4974
(g4498
I00
g4496
tp4975
a(g4507
I00
g4224
tp4976
a(g4516
I00
g4234
tp4977
aasbasbasbasbasbasbasbasbasbasbasbasbasbasbasbasbasbasbasbag49
(g65
g51
NtRp4978
(dp4979
g54
(dp4980
sg63
g3287
sg56
(lp4981
g49
(g70
g51
NtRp4982
(dp4983
g54
(dp4984
g74
g75
ssg63
g4978
sg56
(lp4985
S'meta'
p4986
asbag49
(g70
g51
NtRp4987
(dp4988
g54
(dp4989
g81
g82
ssg63
g4978
sg56
(lp4990
S':'
asbag49
(g70
g51
NtRp4991
(dp4992
g54
(dp4993
sg63
g4978
sg56
(lp4994
g49
(g50
g51
NtRp4995
(dp4996
g54
(dp4997
g62
I5
ssg63
g4991
sg56
(lp4998
g49
(g58
g51
NtRp4999
(dp5000
g54
(dp5001
g62
I4
ssg63
Nsg56
(lp5002
g49
(g65
g51
NtRp5003
(dp5004
g54
(dp5005
sg63
g4999
sg56
(lp5006
g49
(g70
g51
NtRp5007
(dp5008
g54
(dp5009
g74
g75
ssg63
g5003
sg56
(lp5010
S'author'
p5011
asbag49
(g70
g51
NtRp5012
(dp5013
g54
(dp5014
g81
g82
ssg63
g5003
sg56
(lp5015
S':'
asbag49
(g70
g51
NtRp5016
(dp5017
g54
(dp5018
sg63
g5003
sg56
(lp5019
g49
(g50
g51
NtRp5020
(dp5021
g54
(dp5022
g62
I4
ssg63
g5016
sg56
(lp5023
S'Your Name <you@example.com>'
p5024
asbasbasbag49
(g65
g51
NtRp5025
(dp5026
g54
(dp5027
sg63
g4999
sg56
(lp5028
g49
(g70
g51
NtRp5029
(dp5030
g54
(dp5031
g74
g75
ssg63
g5025
sg56
(lp5032
S'description'
p5033
asbag49
(g70
g51
NtRp5034
(dp5035
g54
(dp5036
g81
g82
ssg63
g5025
sg56
(lp5037
S':'
asbag49
(g70
g51
NtRp5038
(dp5039
g54
(dp5040
sg63
g5025
sg56
(lp5041
g49
(g50
g51
NtRp5042
(dp5043
g54
(dp5044
g62
I4
ssg63
g5038
sg56
(lp5045
S'a cool new app'
p5046
asbasbasbag49
(g65
g51
NtRp5047
(dp5048
g54
(dp5049
sg63
g4999
sg56
(lp5050
g49
(g70
g51
NtRp5051
(dp5052
g54
(dp5053
g74
g75
ssg63
g5047
sg56
(lp5054
S'generator'
p5055
asbag49
(g70
g51
NtRp5056
(dp5057
g54
(dp5058
g81
g82
ssg63
g5047
sg56
(lp5059
S':'
asbag49
(g70
g51
NtRp5060
(dp5061
g54
(dp5062
sg63
g5047
sg56
(lp5063
g49
(g50
g51
NtRp5064
(dp5065
g54
(dp5066
g62
I4
ssg63
g5060
sg56
(lp5067
S'Web2py Web Framework'
p5068
asbasbasbag49
(g65
g51
NtRp5069
(dp5070
g54
(dp5071
sg63
g4999
sg56
(lp5072
g49
(g70
g51
NtRp5073
(dp5074
g54
(dp5075
g74
g75
ssg63
g5069
sg56
(lp5076
S'keywords'
p5077
asbag49
(g70
g51
NtRp5078
(dp5079
g54
(dp5080
g81
g82
ssg63
g5069
sg56
(lp5081
S':'
asbag49
(g70
g51
NtRp5082
(dp5083
g54
(dp5084
sg63
g5069
sg56
(lp5085
g49
(g50
g51
NtRp5086
(dp5087
g54
(dp5088
g62
I4
ssg63
g5082
sg56
(lp5089
S'web2py, python, framework'
p5090
asbasbasbasbasbasbasbag49
(g65
g51
NtRp5091
(dp5092
g54
(dp5093
sg63
g3287
sg56
(lp5094
g49
(g70
g51
NtRp5095
(dp5096
g54
(dp5097
g74
g75
ssg63
g5091
sg56
(lp5098
S'models_to_run'
p5099
asbag49
(g70
g51
NtRp5100
(dp5101
g54
(dp5102
g81
g82
ssg63
g5091
sg56
(lp5103
S':'
asbag49
(g70
g51
NtRp5104
(dp5105
g54
(dp5106
sg63
g5091
sg56
(lp5107
g49
(g50
g51
NtRp5108
(dp5109
g54
(dp5110
g62
I5
ssg63
g5104
sg56
(lp5111
g49
(g58
g51
NtRp5112
(dp5113
g54
(dp5114
g62
I4
ssg63
Nsg56
(lp5115
g49
(g65
g51
NtRp5116
(dp5117
g54
(dp5118
sg63
g5112
sg56
(lp5119
g49
(g70
g51
NtRp5120
(dp5121
g54
(dp5122
sg63
g5116
sg56
(lp5123
g49
(g50
g51
NtRp5124
(dp5125
g54
(dp5126
g62
I4
ssg63
g5120
sg56
(lp5127
S'^\\w+\\.py$'
p5128
asbasbasbag49
(g65
g51
NtRp5129
(dp5130
g54
(dp5131
sg63
g5112
sg56
(lp5132
g49
(g70
g51
NtRp5133
(dp5134
g54
(dp5135
sg63
g5129
sg56
(lp5136
g49
(g50
g51
NtRp5137
(dp5138
g54
(dp5139
g62
I4
ssg63
g5133
sg56
(lp5140
S'^game/\\w+\\.py$'
p5141
asbasbasbag49
(g65
g51
NtRp5142
(dp5143
g54
(dp5144
sg63
g5112
sg56
(lp5145
g49
(g70
g51
NtRp5146
(dp5147
g54
(dp5148
sg63
g5142
sg56
(lp5149
g49
(g50
g51
NtRp5150
(dp5151
g54
(dp5152
g62
I4
ssg63
g5146
sg56
(lp5153
S'^game/show/\\w+\\.py$'
p5154
asbasbasbasbasbasbasbag49
(g65
g51
NtRp5155
(dp5156
g54
(dp5157
sg63
g3287
sg56
(lp5158
g49
(g70
g51
NtRp5159
(dp5160
g54
(dp5161
g74
g75
ssg63
g5155
sg56
(lp5162
S'postprocessing'
p5163
asbag49
(g70
g51
NtRp5164
(dp5165
g54
(dp5166
g81
g82
ssg63
g5155
sg56
(lp5167
S':'
asbag49
(g70
g51
NtRp5168
(dp5169
g54
(dp5170
sg63
g5155
sg56
(lp5171
g49
(g50
g51
NtRp5172
(dp5173
g54
(dp5174
g62
I5
ssg63
g5168
sg56
(lp5175
g49
(g58
g51
NtRp5176
(dp5177
g54
(dp5178
g62
I4
ssg63
Nsg56
(lp5179
sbasbasbasbag49
(g65
g51
NtRp5180
(dp5181
g54
(dp5182
sg63
g3287
sg56
(lp5183
g49
(g70
g51
NtRp5184
(dp5185
g54
(dp5186
g74
g75
ssg63
g5180
sg56
(lp5187
S'session_cookie_expires'
p5188
asbag49
(g70
g51
NtRp5189
(dp5190
g54
(dp5191
g81
g82
ssg63
g5180
sg56
(lp5192
S':'
asbag49
(g70
g51
NtRp5193
(dp5194
g54
(dp5195
sg63
g5180
sg56
(lp5196
g49
(g50
g51
NtRp5197
(dp5198
g54
(dp5199
g62
I5
ssg63
g5193
sg56
(lp5200
S'None'
p5201
asbasbasbag49
(g65
g51
NtRp5202
(dp5203
g54
(dp5204
sg63
g3287
sg56
(lp5205
g49
(g70
g51
NtRp5206
(dp5207
g54
(dp5208
g74
g75
ssg63
g5202
sg56
(lp5209
S'session_data_name'
p5210
asbag49
(g70
g51
NtRp5211
(dp5212
g54
(dp5213
g81
g82
ssg63
g5202
sg56
(lp5214
S':'
asbag49
(g70
g51
NtRp5215
(dp5216
g54
(dp5217
sg63
g5202
sg56
(lp5218
g49
(g50
g51
NtRp5219
(dp5220
g54
(dp5221
g62
I5
ssg63
g5215
sg56
(lp5222
S'session_data_hellow'
p5223
asbasbasbag49
(g65
g51
NtRp5224
(dp5225
g54
(dp5226
sg63
g3287
sg56
(lp5227
g49
(g70
g51
NtRp5228
(dp5229
g54
(dp5230
g74
g75
ssg63
g5224
sg56
(lp5231
S'session_file'
p5232
asbag49
(g70
g51
NtRp5233
(dp5234
g54
(dp5235
g81
g82
ssg63
g5224
sg56
(lp5236
S':'
asbag49
(g70
g51
NtRp5237
(dp5238
g54
(dp5239
sg63
g5224
sg56
(lp5240
g49
(g50
g51
NtRp5241
(dp5242
g54
(dp5243
g62
I5
ssg63
g5237
sg56
(lp5244
S"<open file '/Users/zamechek/Downloads/web2py/web2py.app/Contents/Resources/applications/hellow/sessions/127.0.0.1-bbea59f2-333e-4593-a45c-2c44a5133d77', mode 'rb+' at 0xa206a88>"
p5245
asbasbasbag49
(g65
g51
NtRp5246
(dp5247
g54
(dp5248
sg63
g3287
sg56
(lp5249
g49
(g70
g51
NtRp5250
(dp5251
g54
(dp5252
g74
g75
ssg63
g5246
sg56
(lp5253
S'session_filename'
p5254
asbag49
(g70
g51
NtRp5255
(dp5256
g54
(dp5257
g81
g82
ssg63
g5246
sg56
(lp5258
S':'
asbag49
(g70
g51
NtRp5259
(dp5260
g54
(dp5261
sg63
g5246
sg56
(lp5262
g49
(g50
g51
NtRp5263
(dp5264
g54
(dp5265
g62
I5
ssg63
g5259
sg56
(lp5266
S'/Users/zamechek/Downloads/web2py/web2py.app/Contents/Resources/applications/hellow/sessions/127.0.0.1-bbea59f2-333e-4593-a45c-2c44a5133d77'
p5267
asbasbasbag49
(g65
g51
NtRp5268
(dp5269
g54
(dp5270
sg63
g3287
sg56
(lp5271
g49
(g70
g51
NtRp5272
(dp5273
g54
(dp5274
g74
g75
ssg63
g5268
sg56
(lp5275
S'session_id'
p5276
asbag49
(g70
g51
NtRp5277
(dp5278
g54
(dp5279
g81
g82
ssg63
g5268
sg56
(lp5280
S':'
asbag49
(g70
g51
NtRp5281
(dp5282
g54
(dp5283
sg63
g5268
sg56
(lp5284
g49
(g50
g51
NtRp5285
(dp5286
g54
(dp5287
g62
I5
ssg63
g5281
sg56
(lp5288
g458
asbasbasbag49
(g65
g51
NtRp5289
(dp5290
g54
(dp5291
sg63
g3287
sg56
(lp5292
g49
(g70
g51
NtRp5293
(dp5294
g54
(dp5295
g74
g75
ssg63
g5289
sg56
(lp5296
S'session_id_name'
p5297
asbag49
(g70
g51
NtRp5298
(dp5299
g54
(dp5300
g81
g82
ssg63
g5289
sg56
(lp5301
S':'
asbag49
(g70
g51
NtRp5302
(dp5303
g54
(dp5304
sg63
g5289
sg56
(lp5305
g49
(g50
g51
NtRp5306
(dp5307
g54
(dp5308
g62
I5
ssg63
g5302
sg56
(lp5309
g3344
asbasbasbag49
(g65
g51
NtRp5310
(dp5311
g54
(dp5312
sg63
g3287
sg56
(lp5313
g49
(g70
g51
NtRp5314
(dp5315
g54
(dp5316
g74
g75
ssg63
g5310
sg56
(lp5317
S'session_locked'
p5318
asbag49
(g70
g51
NtRp5319
(dp5320
g54
(dp5321
g81
g82
ssg63
g5310
sg56
(lp5322
S':'
asbag49
(g70
g51
NtRp5323
(dp5324
g54
(dp5325
sg63
g5310
sg56
(lp5326
g49
(g50
g51
NtRp5327
(dp5328
g54
(dp5329
g62
I5
ssg63
g5323
sg56
(lp5330
g928
asbasbasbag49
(g65
g51
NtRp5331
(dp5332
g54
(dp5333
sg63
g3287
sg56
(lp5334
g49
(g70
g51
NtRp5335
(dp5336
g54
(dp5337
g74
g75
ssg63
g5331
sg56
(lp5338
S'session_new'
p5339
asbag49
(g70
g51
NtRp5340
(dp5341
g54
(dp5342
g81
g82
ssg63
g5331
sg56
(lp5343
S':'
asbag49
(g70
g51
NtRp5344
(dp5345
g54
(dp5346
sg63
g5331
sg56
(lp5347
g49
(g50
g51
NtRp5348
(dp5349
g54
(dp5350
g62
I5
ssg63
g5344
sg56
(lp5351
g92
asbasbasbag49
(g65
g51
NtRp5352
(dp5353
g54
(dp5354
sg63
g3287
sg56
(lp5355
g49
(g70
g51
NtRp5356
(dp5357
g54
(dp5358
g74
g75
ssg63
g5352
sg56
(lp5359
S'session_storage_type'
p5360
asbag49
(g70
g51
NtRp5361
(dp5362
g54
(dp5363
g81
g82
ssg63
g5352
sg56
(lp5364
S':'
asbag49
(g70
g51
NtRp5365
(dp5366
g54
(dp5367
sg63
g5352
sg56
(lp5368
g49
(g50
g51
NtRp5369
(dp5370
g54
(dp5371
g62
I5
ssg63
g5365
sg56
(lp5372
g3186
asbasbasbag49
(g65
g51
NtRp5373
(dp5374
g54
(dp5375
sg63
g3287
sg56
(lp5376
g49
(g70
g51
NtRp5377
(dp5378
g54
(dp5379
g74
g75
ssg63
g5373
sg56
(lp5380
S'status'
p5381
asbag49
(g70
g51
NtRp5382
(dp5383
g54
(dp5384
g81
g82
ssg63
g5373
sg56
(lp5385
S':'
asbag49
(g70
g51
NtRp5386
(dp5387
g54
(dp5388
sg63
g5373
sg56
(lp5389
g49
(g50
g51
NtRp5390
(dp5391
g54
(dp5392
g62
I5
ssg63
g5386
sg56
(lp5393
S'200'
p5394
asbasbasbag49
(g65
g51
NtRp5395
(dp5396
g54
(dp5397
sg63
g3287
sg56
(lp5398
g49
(g70
g51
NtRp5399
(dp5400
g54
(dp5401
g74
g75
ssg63
g5395
sg56
(lp5402
S'subtitle'
p5403
asbag49
(g70
g51
NtRp5404
(dp5405
g54
(dp5406
g81
g82
ssg63
g5395
sg56
(lp5407
S':'
asbag49
(g70
g51
NtRp5408
(dp5409
g54
(dp5410
sg63
g5395
sg56
(lp5411
g49
(g50
g51
NtRp5412
(dp5413
g54
(dp5414
g62
I5
ssg63
g5408
sg56
(lp5415
g3906
(S's\r\x00\x00\x00customize me!'
tRp5416
asbasbasbag49
(g65
g51
NtRp5417
(dp5418
g54
(dp5419
sg63
g3287
sg56
(lp5420
g49
(g70
g51
NtRp5421
(dp5422
g54
(dp5423
g74
g75
ssg63
g5417
sg56
(lp5424
S'title'
p5425
asbag49
(g70
g51
NtRp5426
(dp5427
g54
(dp5428
g81
g82
ssg63
g5417
sg56
(lp5429
S':'
asbag49
(g70
g51
NtRp5430
(dp5431
g54
(dp5432
sg63
g5417
sg56
(lp5433
g49
(g50
g51
NtRp5434
(dp5435
g54
(dp5436
g62
I5
ssg63
g5430
sg56
(lp5437
S'Hellow'
p5438
asbasbasbag49
(g65
g51
NtRp5439
(dp5440
g54
(dp5441
sg63
g3287
sg56
(lp5442
g49
(g70
g51
NtRp5443
(dp5444
g54
(dp5445
g74
g75
ssg63
g5439
sg56
(lp5446
S'view'
p5447
asbag49
(g70
g51
NtRp5448
(dp5449
g54
(dp5450
g81
g82
ssg63
g5439
sg56
(lp5451
S':'
asbag49
(g70
g51
NtRp5452
(dp5453
g54
(dp5454
sg63
g5439
sg56
(lp5455
g49
(g50
g51
NtRp5456
(dp5457
g54
(dp5458
g62
I5
ssg63
g5452
sg56
(lp5459
S'game/show.html'
p5460
asbasbasbasbasbsS'locals'
p5461
(dp5462
S'Service'
p5463
S"<class 'gluon.tools.Service'>"
p5464
sS'OBJECT'
p5465
S"<class 'gluon.html.OBJECT'>"
p5466
sS'SQLDB'
p5467
S"<class 'gluon.dal.DAL'>"
p5468
sg3225
S"<Storage {'last_query': 'db.auth_user.id>0', '_u...ssion_hash': '28811d05964b59599a0fd5ef164934b9'}>"
p5469
sS'LINK'
p5470
S"<class 'gluon.html.LINK'>"
p5471
sS'BR'
p5472
S"<class 'gluon.html.BR'>"
p5473
sS'local_import'
p5474
S'<function <lambda> at 0xb49e130>'
p5475
sS'OPTGROUP'
p5476
S"<class 'gluon.html.OPTGROUP'>"
p5477
sS'row'
p5478
S"<Row {'odds': 2, 'id': 2}>"
p5479
sS'PRE'
p5480
S"<class 'gluon.html.PRE'>"
p5481
sS'IS_INT_IN_RANGE'
p5482
S"<class 'gluon.validators.IS_INT_IN_RANGE'>"
p5483
sS'left_sidebar_enabled'
p5484
g92
sS'IS_LOWER'
p5485
S"<class 'gluon.validators.IS_LOWER'>"
p5486
sS'IS_STRONG'
p5487
S"<class 'gluon.validators.IS_STRONG'>"
p5488
sS'cache'
p5489
S'<gluon.cache.Cache object at 0xac0dc10>'
p5490
sS'IS_IN_DB'
p5491
S"<class 'gluon.validators.IS_IN_DB'>"
p5492
sS'TAG'
p5493
S'<gluon.html.__TAG__ object at 0x2ed1d70>'
p5494
sS'SQLField'
p5495
S"<class 'gluon.dal.Field'>"
p5496
sS'mail'
p5497
S'<gluon.tools.Mail object at 0xc2512d0>'
p5498
sS'BODY'
p5499
S"<class 'gluon.html.BODY'>"
p5500
sS'IS_DATE_IN_RANGE'
p5501
S"<class 'gluon.validators.IS_DATE_IN_RANGE'>"
p5502
sS'IFRAME'
p5503
S"<class 'gluon.html.IFRAME'>"
p5504
sS'URL'
p5505
S'<function URL at 0x2ebeef0>'
p5506
sS'__file__'
p5507
S"'/Users/zamechek/Downloads/web2py/web2py.app/Cont...esources/applications/hellow/views/game/show.html'"
p5508
sS'db'
p5509
S'<DAL uri="sqlite://storage.sqlite">'
p5510
sS'auth'
p5511
S'<gluon.tools.Auth object at 0xaadcab0>'
p5512
sS'P'
S"<class 'gluon.html.P'>"
p5513
sS'TFOOT'
p5514
S"<class 'gluon.html.TFOOT'>"
p5515
sS'XHTML'
p5516
S"<class 'gluon.html.XHTML'>"
p5517
sS'ON'
p5518
g928
sS'OL'
p5519
S"<class 'gluon.html.OL'>"
p5520
sS'name'
p5521
S"'Shawn Zamechek'"
p5522
sS'TEXTAREA'
p5523
S"<class 'gluon.html.TEXTAREA'>"
p5524
sS'MENU'
p5525
S"<class 'gluon.html.MENU'>"
p5526
sS'IS_IMAGE'
p5527
S"<class 'gluon.validators.IS_IMAGE'>"
p5528
sS'EM'
p5529
S"<class 'gluon.html.EM'>"
p5530
sS'CODE'
p5531
S"<class 'gluon.html.CODE'>"
p5532
sS'HTTP'
p5533
S"<class 'gluon.http.HTTP'>"
p5534
sS'HR'
p5535
S"<class 'gluon.html.HR'>"
p5536
sS'IS_DATETIME'
p5537
S"<class 'gluon.validators.IS_DATETIME'>"
p5538
sS'STYLE'
p5539
S"<class 'gluon.html.STYLE'>"
p5540
sS'LABEL'
p5541
S"<class 'gluon.html.LABEL'>"
p5542
sS'CLEANUP'
p5543
S"<class 'gluon.validators.CLEANUP'>"
p5544
sS'plugins'
p5545
S'<gluon.tools.PluginManager object at 0xa891990>'
p5546
sS'SELECT'
p5547
S"<class 'gluon.html.SELECT'>"
p5548
sS'use_janrain'
p5549
S'<function use_janrain at 0x721c170>'
p5550
sS'CENTER'
p5551
S"<class 'gluon.html.CENTER'>"
p5552
sS'prettydate'
p5553
S'<function prettydate at 0x720f4b0>'
p5554
sS'Crud'
p5555
S"<class 'gluon.tools.Crud'>"
p5556
sS'Auth'
p5557
S"<class 'gluon.tools.Auth'>"
p5558
sS'DEVELOPMENT_MENU'
p5559
g928
sS'__builtins__'
p5560
S"{'ArithmeticError': <type 'exceptions.ArithmeticError'>, 'AssertionError': <type 'exceptions.AssertionError'>, 'AttributeError': <type 'exceptions.AttributeError'>, 'BaseException': <type 'exceptions.BaseException'>, 'DeprecationWarning': <type 'exceptions.DeprecationWarning'>, 'EOFError': <type 'exceptions.EOFError'>, 'Ellipsis': Ellipsis, 'EnvironmentError': <type 'exceptions.EnvironmentError'>, 'Exception': <type 'exceptions.Exception'>, 'False': False, ...}"
p5561
sS'HTML'
p5562
S"<class 'gluon.html.HTML'>"
p5563
sS'SQLFORM'
p5564
S"<class 'gluon.sqlhtml.SQLFORM'>"
p5565
sS'LOAD'
p5566
S'<function LOAD at 0x31884f0>'
p5567
sS'redirect'
p5568
S'<function redirect at 0x2bd74b0>'
p5569
sS'FIELDSET'
p5570
S"<class 'gluon.html.FIELDSET'>"
p5571
sS'IS_EQUAL_TO'
p5572
S"<class 'gluon.validators.IS_EQUAL_TO'>"
p5573
sS'embed64'
p5574
S'<function embed64 at 0x2ed3b30>'
p5575
sS'IS_LIST_OF'
p5576
S"<class 'gluon.validators.IS_LIST_OF'>"
p5577
sS'INPUT'
p5578
S"<class 'gluon.html.INPUT'>"
p5579
sS'EMBED'
p5580
S"<class 'gluon.html.EMBED'>"
p5581
sS'_'
S'<function _ at 0xa2676b0>'
p5582
sS'H2'
p5583
S"<class 'gluon.html.H2'>"
p5584
sS'H3'
p5585
S"<class 'gluon.html.H3'>"
p5586
sS'BUTTON'
p5587
S"<class 'gluon.html.BUTTON'>"
p5588
sS'H1'
p5589
S"<class 'gluon.html.H1'>"
p5590
sS'H6'
p5591
S"<class 'gluon.html.H6'>"
p5592
sS'H4'
p5593
S"<class 'gluon.html.H4'>"
p5594
sS'H5'
p5595
S"<class 'gluon.html.H5'>"
p5596
sS'UL'
p5597
S"<class 'gluon.html.UL'>"
p5598
sS'IS_UPPER'
p5599
S"<class 'gluon.validators.IS_UPPER'>"
p5600
sS'xmlescape'
p5601
S'<function xmlescape at 0x2ebea70>'
p5602
sS'IS_TIME'
p5603
S"<class 'gluon.validators.IS_TIME'>"
p5604
sS'OPTION'
p5605
S"<class 'gluon.html.OPTION'>"
p5606
sS'TITLE'
p5607
S"<class 'gluon.html.TITLE'>"
p5608
sS'CRYPT'
p5609
S"<class 'gluon.validators.CRYPT'>"
p5610
sS'IS_EMPTY_OR'
p5611
S"<class 'gluon.validators.IS_EMPTY_OR'>"
p5612
sS'MARKMIN'
p5613
S"<class 'gluon.html.MARKMIN'>"
p5614
sS'__name__'
p5615
S"'__restricted__'"
p5616
sS'slots'
p5617
S'<Rows (2)>'
p5618
sS'STRONG'
p5619
S"<class 'gluon.html.STRONG'>"
p5620
sS'COL'
p5621
S"<class 'gluon.html.COL'>"
p5622
sS'service'
p5623
S'<gluon.tools.Service object at 0xa86f4f0>'
p5624
sS'SCRIPT'
p5625
S"<class 'gluon.html.SCRIPT'>"
p5626
sS'is_mobile'
p5627
g92
sS'TABLE'
p5628
S"<class 'gluon.html.TABLE'>"
p5629
sS'IS_IPV4'
p5630
S"<class 'gluon.validators.IS_IPV4'>"
p5631
sS'IS_LENGTH'
p5632
S"<class 'gluon.validators.IS_LENGTH'>"
p5633
sS'XML'
p5634
S"<class 'gluon.html.XML'>"
p5635
sS'B'
S"<class 'gluon.html.B'>"
p5636
sS'IMG'
p5637
S"<class 'gluon.html.IMG'>"
p5638
sS'SQLTABLE'
p5639
S"<class 'gluon.sqlhtml.SQLTABLE'>"
p5640
sS'IS_MATCH'
p5641
S"<class 'gluon.validators.IS_MATCH'>"
p5642
sS'IS_ALPHANUMERIC'
p5643
S"<class 'gluon.validators.IS_ALPHANUMERIC'>"
p5644
sS'SPAN'
p5645
S"<class 'gluon.html.SPAN'>"
p5646
sS'IS_JSON'
p5647
S"<class 'gluon.validators.IS_JSON'>"
p5648
sS'IS_SLUG'
p5649
S"<class 'gluon.validators.IS_SLUG'>"
p5650
sS'BEAUTIFY'
p5651
S"<class 'gluon.html.BEAUTIFY'>"
p5652
sS'META'
p5653
S"<class 'gluon.html.META'>"
p5654
sS'balance'
p5655
S'100'
p5656
sS'IS_DATE'
p5657
S"<class 'gluon.validators.IS_DATE'>"
p5658
sS'IS_EMAIL'
p5659
S"<class 'gluon.validators.IS_EMAIL'>"
p5660
sS'IS_NOT_EMPTY'
p5661
S"<class 'gluon.validators.IS_NOT_EMPTY'>"
p5662
sS'IS_FLOAT_IN_RANGE'
p5663
S"<class 'gluon.validators.IS_FLOAT_IN_RANGE'>"
p5664
sS'TBODY'
p5665
S"<class 'gluon.html.TBODY'>"
p5666
sS'CAT'
p5667
S"<class 'gluon.html.CAT'>"
p5668
sS'Field'
p5669
S"<class 'gluon.dal.Field'>"
p5670
sS'middle_columns'
p5671
S"'span12'"
p5672
sS'DIV'
p5673
S"<class 'gluon.html.DIV'>"
p5674
sS'LEGEND'
p5675
S"<class 'gluon.html.LEGEND'>"
p5676
sS'form'
p5677
S"{'form': <gluon.sqlhtml.SQLFORM object at 0xabaf090>}"
p5678
sS'COLGROUP'
p5679
S"<class 'gluon.html.COLGROUP'>"
p5680
sS'DAL'
p5681
S"<class 'gluon.dal.DAL'>"
p5682
sS'TT'
p5683
S"<class 'gluon.html.TT'>"
p5684
sS'TR'
p5685
S"<class 'gluon.html.TR'>"
p5686
sS'LI'
p5687
S"<class 'gluon.html.LI'>"
p5688
sS'right_sidebar_enabled'
p5689
g92
sS'TH'
p5690
S"<class 'gluon.html.TH'>"
p5691
sS'TD'
p5692
S"<class 'gluon.html.TD'>"
p5693
sS'PluginManager'
p5694
S"<class 'gluon.tools.PluginManager'>"
p5695
sS'IS_URL'
p5696
S"<class 'gluon.validators.IS_URL'>"
p5697
sS'A'
S"<class 'gluon.html.A'>"
p5698
sS'HEAD'
p5699
S"<class 'gluon.html.HEAD'>"
p5700
sS'IS_DATETIME_IN_RANGE'
p5701
S"<class 'gluon.validators.IS_DATETIME_IN_RANGE'>"
p5702
sS'FORM'
p5703
S"<class 'gluon.html.FORM'>"
p5704
sS'I'
S"<class 'gluon.html.I'>"
p5705
sS'crud'
p5706
S'<gluon.tools.Crud object at 0xaf27710>'
p5707
sS'IS_NOT_IN_DB'
p5708
S"<class 'gluon.validators.IS_NOT_IN_DB'>"
p5709
sg3282
S"<Storage {'body': <cStringIO.StringO object at 0...lambda> at 0xa2676f0>, 'view': 'game/show.html'}>"
p5710
sS'THEAD'
p5711
S"<class 'gluon.html.THEAD'>"
p5712
sS'IS_NULL_OR'
p5713
S"<class 'gluon.validators.IS_EMPTY_OR'>"
p5714
sS'gameid'
p5715
S"'1'"
p5716
sg48
S"<Storage {'function': 'show', 'body': <cStringIO...pplications/hellow/', 'post_vars': <Storage {}>}>"
p5717
sS'IS_EXPR'
p5718
S"<class 'gluon.validators.IS_EXPR'>"
p5719
sS'T'
S'<gluon.languages.translator object at 0xa1c3db0>'
p5720
sS'IS_IN_SET'
p5721
S"<class 'gluon.validators.IS_IN_SET'>"
p5722
sS'IS_UPLOAD_FILENAME'
p5723
S"<class 'gluon.validators.IS_UPLOAD_FILENAME'>"
p5724
sS'IS_DECIMAL_IN_RANGE'
p5725
S"<class 'gluon.validators.IS_DECIMAL_IN_RANGE'>"
p5726
sssS'traceback'
p5727
S'Traceback (most recent call last):\n  File "/home/mdipierro/web2py/gluon/restricted.py", line 212, in restricted\n  File "/Users/zamechek/Downloads/web2py/web2py.app/Contents/Resources/applications/hellow/views/game/show.html", line 101, in <module>\nAttributeError: \'dict\' object has no attribute \'errors\'\n'
p5728
s.