(dp1
S'output'
p2
S"<type 'exceptions.TypeError'> isAWinner() takes exactly 1 argument (0 given)"
p3
sS'layer'
p4
S'/Users/zamechek/Downloads/web2py/web2py.app/Contents/Resources/applications/hellow/controllers/slot.py'
p5
sS'code'
p6
S'# coding: utf8\n# try something like\nimport random\ndef index(): return dict(message="hello from slot.py")\n\ndef show():\n    id = request.args[0]\n    slot = db.slot(id)\n    return isAWinner()\n\n\ndef isAWinner(self):\n    if random.randomint(10) < self.odd:\n        return "win"\n    else: return "not win"\n\nresponse._vars=response._caller(show)\n'
p7
sS'snapshot'
p8
(dp9
S'exception'
p10
(dp11
S'__hash__'
p12
S"<method-wrapper '__hash__' of exceptions.TypeError object at 0xa0d5918>"
p13
sS'__setattr__'
p14
S"<method-wrapper '__setattr__' of exceptions.TypeError object at 0xa0d5918>"
p15
sS'__reduce_ex__'
p16
S'<built-in method __reduce_ex__ of exceptions.TypeError object at 0xa0d5918>'
p17
sS'__getslice__'
p18
S"<method-wrapper '__getslice__' of exceptions.TypeError object at 0xa0d5918>"
p19
sS'__getitem__'
p20
S"<method-wrapper '__getitem__' of exceptions.TypeError object at 0xa0d5918>"
p21
sS'__setstate__'
p22
S'<built-in method __setstate__ of exceptions.TypeError object at 0xa0d5918>'
p23
sS'__reduce__'
p24
S'<built-in method __reduce__ of exceptions.TypeError object at 0xa0d5918>'
p25
sS'__str__'
p26
S"<method-wrapper '__str__' of exceptions.TypeError object at 0xa0d5918>"
p27
sS'args'
p28
S"('isAWinner() takes exactly 1 argument (0 given)',)"
p29
sS'__getattribute__'
p30
S"<method-wrapper '__getattribute__' of exceptions.TypeError object at 0xa0d5918>"
p31
sS'__class__'
p32
S"<type 'exceptions.TypeError'>"
p33
sS'__delattr__'
p34
S"<method-wrapper '__delattr__' of exceptions.TypeError object at 0xa0d5918>"
p35
sS'__repr__'
p36
S"<method-wrapper '__repr__' of exceptions.TypeError object at 0xa0d5918>"
p37
sS'__dict__'
p38
S'{}'
p39
sS'__doc__'
p40
S"'Inappropriate argument type.'"
p41
sS'__init__'
p42
S"<method-wrapper '__init__' of exceptions.TypeError object at 0xa0d5918>"
p43
sS'__new__'
p44
S'<built-in method __new__ of type object at 0x5fa140>'
p45
ssS'evalue'
p46
S'isAWinner() takes exactly 1 argument (0 given)'
p47
sS'request'
p48
ccopy_reg
_reconstructor
p49
(cgluon.html
BEAUTIFY
p50
c__builtin__
object
p51
NtRp52
(dp53
S'attributes'
p54
(dp55
sS'components'
p56
(lp57
g49
(cgluon.html
TABLE
p58
g51
NtRp59
(dp60
g54
(dp61
S'level'
p62
I5
ssS'parent'
p63
Nsg56
(lp64
g49
(cgluon.html
TR
p65
g51
NtRp66
(dp67
g54
(dp68
sg63
g59
sg56
(lp69
g49
(cgluon.html
TD
p70
g51
NtRp71
(dp72
g54
(dp73
S'_style'
p74
S'font-weight:bold;vertical-align:top'
p75
ssg63
g66
sg56
(lp76
S'ajax'
p77
asbag49
(g70
g51
NtRp78
(dp79
g54
(dp80
S'_valign'
p81
S'top'
p82
ssg63
g66
sg56
(lp83
S':'
asbag49
(g70
g51
NtRp84
(dp85
g54
(dp86
sg63
g66
sg56
(lp87
g49
(g50
g51
NtRp88
(dp89
g54
(dp90
g62
I5
ssg63
g84
sg56
(lp91
S'False'
p92
asbasbasbag49
(g65
g51
NtRp93
(dp94
g54
(dp95
sg63
g59
sg56
(lp96
g49
(g70
g51
NtRp97
(dp98
g54
(dp99
g74
g75
ssg63
g93
sg56
(lp100
S'application'
p101
asbag49
(g70
g51
NtRp102
(dp103
g54
(dp104
g81
g82
ssg63
g93
sg56
(lp105
S':'
asbag49
(g70
g51
NtRp106
(dp107
g54
(dp108
sg63
g93
sg56
(lp109
g49
(g50
g51
NtRp110
(dp111
g54
(dp112
g62
I5
ssg63
g106
sg56
(lp113
S'hellow'
p114
asbasbasbag49
(g65
g51
NtRp115
(dp116
g54
(dp117
sg63
g59
sg56
(lp118
g49
(g70
g51
NtRp119
(dp120
g54
(dp121
g74
g75
ssg63
g115
sg56
(lp122
g28
asbag49
(g70
g51
NtRp123
(dp124
g54
(dp125
g81
g82
ssg63
g115
sg56
(lp126
S':'
asbag49
(g70
g51
NtRp127
(dp128
g54
(dp129
sg63
g115
sg56
(lp130
g49
(g50
g51
NtRp131
(dp132
g54
(dp133
g62
I5
ssg63
g127
sg56
(lp134
g49
(g58
g51
NtRp135
(dp136
g54
(dp137
g62
I4
ssg63
Nsg56
(lp138
g49
(g65
g51
NtRp139
(dp140
g54
(dp141
sg63
g135
sg56
(lp142
g49
(g70
g51
NtRp143
(dp144
g54
(dp145
sg63
g139
sg56
(lp146
g49
(g50
g51
NtRp147
(dp148
g54
(dp149
g62
I4
ssg63
g143
sg56
(lp150
S'1'
asbasbasbasbasbasbasbag49
(g65
g51
NtRp151
(dp152
g54
(dp153
sg63
g59
sg56
(lp154
g49
(g70
g51
NtRp155
(dp156
g54
(dp157
g74
g75
ssg63
g151
sg56
(lp158
S'body'
p159
asbag49
(g70
g51
NtRp160
(dp161
g54
(dp162
g81
g82
ssg63
g151
sg56
(lp163
S':'
asbag49
(g70
g51
NtRp164
(dp165
g54
(dp166
sg63
g151
sg56
(lp167
g49
(g50
g51
NtRp168
(dp169
g54
(dp170
g62
I5
ssg63
g164
sg56
(lp171
S'<cStringIO.StringO object at 0xa93b380>'
p172
asbasbasbag49
(g65
g51
NtRp173
(dp174
g54
(dp175
sg63
g59
sg56
(lp176
g49
(g70
g51
NtRp177
(dp178
g54
(dp179
g74
g75
ssg63
g173
sg56
(lp180
S'cid'
p181
asbag49
(g70
g51
NtRp182
(dp183
g54
(dp184
g81
g82
ssg63
g173
sg56
(lp185
S':'
asbag49
(g70
g51
NtRp186
(dp187
g54
(dp188
sg63
g173
sg56
(lp189
g49
(g50
g51
NtRp190
(dp191
g54
(dp192
g62
I5
ssg63
g186
sg56
(lp193
S'None'
p194
asbasbasbag49
(g65
g51
NtRp195
(dp196
g54
(dp197
sg63
g59
sg56
(lp198
g49
(g70
g51
NtRp199
(dp200
g54
(dp201
g74
g75
ssg63
g195
sg56
(lp202
S'client'
p203
asbag49
(g70
g51
NtRp204
(dp205
g54
(dp206
g81
g82
ssg63
g195
sg56
(lp207
S':'
asbag49
(g70
g51
NtRp208
(dp209
g54
(dp210
sg63
g195
sg56
(lp211
g49
(g50
g51
NtRp212
(dp213
g54
(dp214
g62
I5
ssg63
g208
sg56
(lp215
S'127.0.0.1'
p216
asbasbasbag49
(g65
g51
NtRp217
(dp218
g54
(dp219
sg63
g59
sg56
(lp220
g49
(g70
g51
NtRp221
(dp222
g54
(dp223
g74
g75
ssg63
g217
sg56
(lp224
S'controller'
p225
asbag49
(g70
g51
NtRp226
(dp227
g54
(dp228
g81
g82
ssg63
g217
sg56
(lp229
S':'
asbag49
(g70
g51
NtRp230
(dp231
g54
(dp232
sg63
g217
sg56
(lp233
g49
(g50
g51
NtRp234
(dp235
g54
(dp236
g62
I5
ssg63
g230
sg56
(lp237
S'slot'
p238
asbasbasbag49
(g65
g51
NtRp239
(dp240
g54
(dp241
sg63
g59
sg56
(lp242
g49
(g70
g51
NtRp243
(dp244
g54
(dp245
g74
g75
ssg63
g239
sg56
(lp246
S'cookies'
p247
asbag49
(g70
g51
NtRp248
(dp249
g54
(dp250
g81
g82
ssg63
g239
sg56
(lp251
S':'
asbag49
(g70
g51
NtRp252
(dp253
g54
(dp254
sg63
g239
sg56
(lp255
g49
(g50
g51
NtRp256
(dp257
g54
(dp258
g62
I5
ssg63
g252
sg56
(lp259
g49
(g58
g51
NtRp260
(dp261
g54
(dp262
g62
I4
ssg63
Nsg56
(lp263
g49
(g65
g51
NtRp264
(dp265
g54
(dp266
sg63
g260
sg56
(lp267
g49
(g70
g51
NtRp268
(dp269
g54
(dp270
g74
g75
ssg63
g264
sg56
(lp271
S'session_data_examples'
p272
asbag49
(g70
g51
NtRp273
(dp274
g54
(dp275
g81
g82
ssg63
g264
sg56
(lp276
S':'
asbag49
(g70
g51
NtRp277
(dp278
g54
(dp279
sg63
g264
sg56
(lp280
g49
(g50
g51
NtRp281
(dp282
g54
(dp283
g62
I4
ssg63
g277
sg56
(lp284
S'6590e93a92ae056071f3d5d23c5da718:8mcaYr3jD5OS9Hm5obiuGpOS1hqNCswQLIoFlRGZYdaR8FVZ84s0w9vMAEY5L6DK8gvTZcQowujTbbDj-ns3802lRCPwkkcburTr1lmHorC9hQtD5W0yZ89O_mdlKuHPlwEItXQ5_WAFut_RTkzpuyS0nQWmuEGxVuLk0DXc0ndh8WySsXoErgPnINq0aXqKzueVqcmNBWwB7tluAV8oSQyVVnjPajiXfmT2moAb3dPnaGC3yePavU4XAXO8FVarzcdAnZ4bnTo9uMJJvT2hL9oQVbtD8YY8yMHurMAdtIpf8wcGfXNr6SjFTzpMxYtAg1tv7XdXpUPETM1Ox80jE-qsgQd_Xr1FA049-xsoxpdA4EzMUoouiTJ995NWCOJNjo6VICpuSvfOJBlnOLd8aLxueLUtuyScbkLd2jOCQIsF2aV6hhIZWDXpJwlCKPkIckeaXaaHeE4EqTZR6N0JnA=='
p285
ag49
(g58
g51
NtRp286
(dp287
g54
(dp288
g62
I3
ssg63
Nsg56
(lp289
g49
(g65
g51
NtRp290
(dp291
g54
(dp292
sg63
g286
sg56
(lp293
g49
(g70
g51
NtRp294
(dp295
g54
(dp296
g74
g75
ssg63
g290
sg56
(lp297
S'comment'
p298
asbag49
(g70
g51
NtRp299
(dp300
g54
(dp301
g81
g82
ssg63
g290
sg56
(lp302
S':'
asbag49
(g70
g51
NtRp303
(dp304
g54
(dp305
sg63
g290
sg56
(lp306
g49
(g50
g51
NtRp307
(dp308
g54
(dp309
g62
I3
ssg63
g303
sg56
(lp310
S''
asbasbasbag49
(g65
g51
NtRp311
(dp312
g54
(dp313
sg63
g286
sg56
(lp314
g49
(g70
g51
NtRp315
(dp316
g54
(dp317
g74
g75
ssg63
g311
sg56
(lp318
S'domain'
p319
asbag49
(g70
g51
NtRp320
(dp321
g54
(dp322
g81
g82
ssg63
g311
sg56
(lp323
S':'
asbag49
(g70
g51
NtRp324
(dp325
g54
(dp326
sg63
g311
sg56
(lp327
g49
(g50
g51
NtRp328
(dp329
g54
(dp330
g62
I3
ssg63
g324
sg56
(lp331
S''
asbasbasbag49
(g65
g51
NtRp332
(dp333
g54
(dp334
sg63
g286
sg56
(lp335
g49
(g70
g51
NtRp336
(dp337
g54
(dp338
g74
g75
ssg63
g332
sg56
(lp339
S'expires'
p340
asbag49
(g70
g51
NtRp341
(dp342
g54
(dp343
g81
g82
ssg63
g332
sg56
(lp344
S':'
asbag49
(g70
g51
NtRp345
(dp346
g54
(dp347
sg63
g332
sg56
(lp348
g49
(g50
g51
NtRp349
(dp350
g54
(dp351
g62
I3
ssg63
g345
sg56
(lp352
S''
asbasbasbag49
(g65
g51
NtRp353
(dp354
g54
(dp355
sg63
g286
sg56
(lp356
g49
(g70
g51
NtRp357
(dp358
g54
(dp359
g74
g75
ssg63
g353
sg56
(lp360
S'max-age'
p361
asbag49
(g70
g51
NtRp362
(dp363
g54
(dp364
g81
g82
ssg63
g353
sg56
(lp365
S':'
asbag49
(g70
g51
NtRp366
(dp367
g54
(dp368
sg63
g353
sg56
(lp369
g49
(g50
g51
NtRp370
(dp371
g54
(dp372
g62
I3
ssg63
g366
sg56
(lp373
S''
asbasbasbag49
(g65
g51
NtRp374
(dp375
g54
(dp376
sg63
g286
sg56
(lp377
g49
(g70
g51
NtRp378
(dp379
g54
(dp380
g74
g75
ssg63
g374
sg56
(lp381
S'path'
p382
asbag49
(g70
g51
NtRp383
(dp384
g54
(dp385
g81
g82
ssg63
g374
sg56
(lp386
S':'
asbag49
(g70
g51
NtRp387
(dp388
g54
(dp389
sg63
g374
sg56
(lp390
g49
(g50
g51
NtRp391
(dp392
g54
(dp393
g62
I3
ssg63
g387
sg56
(lp394
S''
asbasbasbag49
(g65
g51
NtRp395
(dp396
g54
(dp397
sg63
g286
sg56
(lp398
g49
(g70
g51
NtRp399
(dp400
g54
(dp401
g74
g75
ssg63
g395
sg56
(lp402
S'secure'
p403
asbag49
(g70
g51
NtRp404
(dp405
g54
(dp406
g81
g82
ssg63
g395
sg56
(lp407
S':'
asbag49
(g70
g51
NtRp408
(dp409
g54
(dp410
sg63
g395
sg56
(lp411
g49
(g50
g51
NtRp412
(dp413
g54
(dp414
g62
I3
ssg63
g408
sg56
(lp415
S''
asbasbasbag49
(g65
g51
NtRp416
(dp417
g54
(dp418
sg63
g286
sg56
(lp419
g49
(g70
g51
NtRp420
(dp421
g54
(dp422
g74
g75
ssg63
g416
sg56
(lp423
S'version'
p424
asbag49
(g70
g51
NtRp425
(dp426
g54
(dp427
g81
g82
ssg63
g416
sg56
(lp428
S':'
asbag49
(g70
g51
NtRp429
(dp430
g54
(dp431
sg63
g416
sg56
(lp432
g49
(g50
g51
NtRp433
(dp434
g54
(dp435
g62
I3
ssg63
g429
sg56
(lp436
S''
asbasbasbasbasbasbasbag49
(g65
g51
NtRp437
(dp438
g54
(dp439
sg63
g260
sg56
(lp440
g49
(g70
g51
NtRp441
(dp442
g54
(dp443
g74
g75
ssg63
g437
sg56
(lp444
S'session_id_admin'
p445
asbag49
(g70
g51
NtRp446
(dp447
g54
(dp448
g81
g82
ssg63
g437
sg56
(lp449
S':'
asbag49
(g70
g51
NtRp450
(dp451
g54
(dp452
sg63
g437
sg56
(lp453
g49
(g50
g51
NtRp454
(dp455
g54
(dp456
g62
I4
ssg63
g450
sg56
(lp457
S'127.0.0.1-66a1de5b-ba15-4b30-ba06-132c9e7969c1'
p458
ag49
(g58
g51
NtRp459
(dp460
g54
(dp461
g62
I3
ssg63
Nsg56
(lp462
g49
(g65
g51
NtRp463
(dp464
g54
(dp465
sg63
g459
sg56
(lp466
g49
(g70
g51
NtRp467
(dp468
g54
(dp469
g74
g75
ssg63
g463
sg56
(lp470
g298
asbag49
(g70
g51
NtRp471
(dp472
g54
(dp473
g81
g82
ssg63
g463
sg56
(lp474
S':'
asbag49
(g70
g51
NtRp475
(dp476
g54
(dp477
sg63
g463
sg56
(lp478
g49
(g50
g51
NtRp479
(dp480
g54
(dp481
g62
I3
ssg63
g475
sg56
(lp482
S''
asbasbasbag49
(g65
g51
NtRp483
(dp484
g54
(dp485
sg63
g459
sg56
(lp486
g49
(g70
g51
NtRp487
(dp488
g54
(dp489
g74
g75
ssg63
g483
sg56
(lp490
g319
asbag49
(g70
g51
NtRp491
(dp492
g54
(dp493
g81
g82
ssg63
g483
sg56
(lp494
S':'
asbag49
(g70
g51
NtRp495
(dp496
g54
(dp497
sg63
g483
sg56
(lp498
g49
(g50
g51
NtRp499
(dp500
g54
(dp501
g62
I3
ssg63
g495
sg56
(lp502
S''
asbasbasbag49
(g65
g51
NtRp503
(dp504
g54
(dp505
sg63
g459
sg56
(lp506
g49
(g70
g51
NtRp507
(dp508
g54
(dp509
g74
g75
ssg63
g503
sg56
(lp510
g340
asbag49
(g70
g51
NtRp511
(dp512
g54
(dp513
g81
g82
ssg63
g503
sg56
(lp514
S':'
asbag49
(g70
g51
NtRp515
(dp516
g54
(dp517
sg63
g503
sg56
(lp518
g49
(g50
g51
NtRp519
(dp520
g54
(dp521
g62
I3
ssg63
g515
sg56
(lp522
S''
asbasbasbag49
(g65
g51
NtRp523
(dp524
g54
(dp525
sg63
g459
sg56
(lp526
g49
(g70
g51
NtRp527
(dp528
g54
(dp529
g74
g75
ssg63
g523
sg56
(lp530
g361
asbag49
(g70
g51
NtRp531
(dp532
g54
(dp533
g81
g82
ssg63
g523
sg56
(lp534
S':'
asbag49
(g70
g51
NtRp535
(dp536
g54
(dp537
sg63
g523
sg56
(lp538
g49
(g50
g51
NtRp539
(dp540
g54
(dp541
g62
I3
ssg63
g535
sg56
(lp542
S''
asbasbasbag49
(g65
g51
NtRp543
(dp544
g54
(dp545
sg63
g459
sg56
(lp546
g49
(g70
g51
NtRp547
(dp548
g54
(dp549
g74
g75
ssg63
g543
sg56
(lp550
g382
asbag49
(g70
g51
NtRp551
(dp552
g54
(dp553
g81
g82
ssg63
g543
sg56
(lp554
S':'
asbag49
(g70
g51
NtRp555
(dp556
g54
(dp557
sg63
g543
sg56
(lp558
g49
(g50
g51
NtRp559
(dp560
g54
(dp561
g62
I3
ssg63
g555
sg56
(lp562
S''
asbasbasbag49
(g65
g51
NtRp563
(dp564
g54
(dp565
sg63
g459
sg56
(lp566
g49
(g70
g51
NtRp567
(dp568
g54
(dp569
g74
g75
ssg63
g563
sg56
(lp570
g403
asbag49
(g70
g51
NtRp571
(dp572
g54
(dp573
g81
g82
ssg63
g563
sg56
(lp574
S':'
asbag49
(g70
g51
NtRp575
(dp576
g54
(dp577
sg63
g563
sg56
(lp578
g49
(g50
g51
NtRp579
(dp580
g54
(dp581
g62
I3
ssg63
g575
sg56
(lp582
S''
asbasbasbag49
(g65
g51
NtRp583
(dp584
g54
(dp585
sg63
g459
sg56
(lp586
g49
(g70
g51
NtRp587
(dp588
g54
(dp589
g74
g75
ssg63
g583
sg56
(lp590
g424
asbag49
(g70
g51
NtRp591
(dp592
g54
(dp593
g81
g82
ssg63
g583
sg56
(lp594
S':'
asbag49
(g70
g51
NtRp595
(dp596
g54
(dp597
sg63
g583
sg56
(lp598
g49
(g50
g51
NtRp599
(dp600
g54
(dp601
g62
I3
ssg63
g595
sg56
(lp602
S''
asbasbasbasbasbasbasbag49
(g65
g51
NtRp603
(dp604
g54
(dp605
sg63
g260
sg56
(lp606
g49
(g70
g51
NtRp607
(dp608
g54
(dp609
g74
g75
ssg63
g603
sg56
(lp610
S'session_id_hellow'
p611
asbag49
(g70
g51
NtRp612
(dp613
g54
(dp614
g81
g82
ssg63
g603
sg56
(lp615
S':'
asbag49
(g70
g51
NtRp616
(dp617
g54
(dp618
sg63
g603
sg56
(lp619
g49
(g50
g51
NtRp620
(dp621
g54
(dp622
g62
I4
ssg63
g616
sg56
(lp623
S'127.0.0.1-f0c125e4-5d5e-4805-8c10-bdfc66367729'
p624
ag49
(g58
g51
NtRp625
(dp626
g54
(dp627
g62
I3
ssg63
Nsg56
(lp628
g49
(g65
g51
NtRp629
(dp630
g54
(dp631
sg63
g625
sg56
(lp632
g49
(g70
g51
NtRp633
(dp634
g54
(dp635
g74
g75
ssg63
g629
sg56
(lp636
g298
asbag49
(g70
g51
NtRp637
(dp638
g54
(dp639
g81
g82
ssg63
g629
sg56
(lp640
S':'
asbag49
(g70
g51
NtRp641
(dp642
g54
(dp643
sg63
g629
sg56
(lp644
g49
(g50
g51
NtRp645
(dp646
g54
(dp647
g62
I3
ssg63
g641
sg56
(lp648
S''
asbasbasbag49
(g65
g51
NtRp649
(dp650
g54
(dp651
sg63
g625
sg56
(lp652
g49
(g70
g51
NtRp653
(dp654
g54
(dp655
g74
g75
ssg63
g649
sg56
(lp656
g319
asbag49
(g70
g51
NtRp657
(dp658
g54
(dp659
g81
g82
ssg63
g649
sg56
(lp660
S':'
asbag49
(g70
g51
NtRp661
(dp662
g54
(dp663
sg63
g649
sg56
(lp664
g49
(g50
g51
NtRp665
(dp666
g54
(dp667
g62
I3
ssg63
g661
sg56
(lp668
S''
asbasbasbag49
(g65
g51
NtRp669
(dp670
g54
(dp671
sg63
g625
sg56
(lp672
g49
(g70
g51
NtRp673
(dp674
g54
(dp675
g74
g75
ssg63
g669
sg56
(lp676
g340
asbag49
(g70
g51
NtRp677
(dp678
g54
(dp679
g81
g82
ssg63
g669
sg56
(lp680
S':'
asbag49
(g70
g51
NtRp681
(dp682
g54
(dp683
sg63
g669
sg56
(lp684
g49
(g50
g51
NtRp685
(dp686
g54
(dp687
g62
I3
ssg63
g681
sg56
(lp688
S''
asbasbasbag49
(g65
g51
NtRp689
(dp690
g54
(dp691
sg63
g625
sg56
(lp692
g49
(g70
g51
NtRp693
(dp694
g54
(dp695
g74
g75
ssg63
g689
sg56
(lp696
g361
asbag49
(g70
g51
NtRp697
(dp698
g54
(dp699
g81
g82
ssg63
g689
sg56
(lp700
S':'
asbag49
(g70
g51
NtRp701
(dp702
g54
(dp703
sg63
g689
sg56
(lp704
g49
(g50
g51
NtRp705
(dp706
g54
(dp707
g62
I3
ssg63
g701
sg56
(lp708
S''
asbasbasbag49
(g65
g51
NtRp709
(dp710
g54
(dp711
sg63
g625
sg56
(lp712
g49
(g70
g51
NtRp713
(dp714
g54
(dp715
g74
g75
ssg63
g709
sg56
(lp716
g382
asbag49
(g70
g51
NtRp717
(dp718
g54
(dp719
g81
g82
ssg63
g709
sg56
(lp720
S':'
asbag49
(g70
g51
NtRp721
(dp722
g54
(dp723
sg63
g709
sg56
(lp724
g49
(g50
g51
NtRp725
(dp726
g54
(dp727
g62
I3
ssg63
g721
sg56
(lp728
S''
asbasbasbag49
(g65
g51
NtRp729
(dp730
g54
(dp731
sg63
g625
sg56
(lp732
g49
(g70
g51
NtRp733
(dp734
g54
(dp735
g74
g75
ssg63
g729
sg56
(lp736
g403
asbag49
(g70
g51
NtRp737
(dp738
g54
(dp739
g81
g82
ssg63
g729
sg56
(lp740
S':'
asbag49
(g70
g51
NtRp741
(dp742
g54
(dp743
sg63
g729
sg56
(lp744
g49
(g50
g51
NtRp745
(dp746
g54
(dp747
g62
I3
ssg63
g741
sg56
(lp748
S''
asbasbasbag49
(g65
g51
NtRp749
(dp750
g54
(dp751
sg63
g625
sg56
(lp752
g49
(g70
g51
NtRp753
(dp754
g54
(dp755
g74
g75
ssg63
g749
sg56
(lp756
g424
asbag49
(g70
g51
NtRp757
(dp758
g54
(dp759
g81
g82
ssg63
g749
sg56
(lp760
S':'
asbag49
(g70
g51
NtRp761
(dp762
g54
(dp763
sg63
g749
sg56
(lp764
g49
(g50
g51
NtRp765
(dp766
g54
(dp767
g62
I3
ssg63
g761
sg56
(lp768
S''
asbasbasbasbasbasbasbag49
(g65
g51
NtRp769
(dp770
g54
(dp771
sg63
g260
sg56
(lp772
g49
(g70
g51
NtRp773
(dp774
g54
(dp775
g74
g75
ssg63
g769
sg56
(lp776
S'session_id_slots'
p777
asbag49
(g70
g51
NtRp778
(dp779
g54
(dp780
g81
g82
ssg63
g769
sg56
(lp781
S':'
asbag49
(g70
g51
NtRp782
(dp783
g54
(dp784
sg63
g769
sg56
(lp785
g49
(g50
g51
NtRp786
(dp787
g54
(dp788
g62
I4
ssg63
g782
sg56
(lp789
S'127.0.0.1-c959d0b0-1e49-49e4-b6ce-60b17dcbfd08'
p790
ag49
(g58
g51
NtRp791
(dp792
g54
(dp793
g62
I3
ssg63
Nsg56
(lp794
g49
(g65
g51
NtRp795
(dp796
g54
(dp797
sg63
g791
sg56
(lp798
g49
(g70
g51
NtRp799
(dp800
g54
(dp801
g74
g75
ssg63
g795
sg56
(lp802
g298
asbag49
(g70
g51
NtRp803
(dp804
g54
(dp805
g81
g82
ssg63
g795
sg56
(lp806
S':'
asbag49
(g70
g51
NtRp807
(dp808
g54
(dp809
sg63
g795
sg56
(lp810
g49
(g50
g51
NtRp811
(dp812
g54
(dp813
g62
I3
ssg63
g807
sg56
(lp814
S''
asbasbasbag49
(g65
g51
NtRp815
(dp816
g54
(dp817
sg63
g791
sg56
(lp818
g49
(g70
g51
NtRp819
(dp820
g54
(dp821
g74
g75
ssg63
g815
sg56
(lp822
g319
asbag49
(g70
g51
NtRp823
(dp824
g54
(dp825
g81
g82
ssg63
g815
sg56
(lp826
S':'
asbag49
(g70
g51
NtRp827
(dp828
g54
(dp829
sg63
g815
sg56
(lp830
g49
(g50
g51
NtRp831
(dp832
g54
(dp833
g62
I3
ssg63
g827
sg56
(lp834
S''
asbasbasbag49
(g65
g51
NtRp835
(dp836
g54
(dp837
sg63
g791
sg56
(lp838
g49
(g70
g51
NtRp839
(dp840
g54
(dp841
g74
g75
ssg63
g835
sg56
(lp842
g340
asbag49
(g70
g51
NtRp843
(dp844
g54
(dp845
g81
g82
ssg63
g835
sg56
(lp846
S':'
asbag49
(g70
g51
NtRp847
(dp848
g54
(dp849
sg63
g835
sg56
(lp850
g49
(g50
g51
NtRp851
(dp852
g54
(dp853
g62
I3
ssg63
g847
sg56
(lp854
S''
asbasbasbag49
(g65
g51
NtRp855
(dp856
g54
(dp857
sg63
g791
sg56
(lp858
g49
(g70
g51
NtRp859
(dp860
g54
(dp861
g74
g75
ssg63
g855
sg56
(lp862
g361
asbag49
(g70
g51
NtRp863
(dp864
g54
(dp865
g81
g82
ssg63
g855
sg56
(lp866
S':'
asbag49
(g70
g51
NtRp867
(dp868
g54
(dp869
sg63
g855
sg56
(lp870
g49
(g50
g51
NtRp871
(dp872
g54
(dp873
g62
I3
ssg63
g867
sg56
(lp874
S''
asbasbasbag49
(g65
g51
NtRp875
(dp876
g54
(dp877
sg63
g791
sg56
(lp878
g49
(g70
g51
NtRp879
(dp880
g54
(dp881
g74
g75
ssg63
g875
sg56
(lp882
g382
asbag49
(g70
g51
NtRp883
(dp884
g54
(dp885
g81
g82
ssg63
g875
sg56
(lp886
S':'
asbag49
(g70
g51
NtRp887
(dp888
g54
(dp889
sg63
g875
sg56
(lp890
g49
(g50
g51
NtRp891
(dp892
g54
(dp893
g62
I3
ssg63
g887
sg56
(lp894
S''
asbasbasbag49
(g65
g51
NtRp895
(dp896
g54
(dp897
sg63
g791
sg56
(lp898
g49
(g70
g51
NtRp899
(dp900
g54
(dp901
g74
g75
ssg63
g895
sg56
(lp902
g403
asbag49
(g70
g51
NtRp903
(dp904
g54
(dp905
g81
g82
ssg63
g895
sg56
(lp906
S':'
asbag49
(g70
g51
NtRp907
(dp908
g54
(dp909
sg63
g895
sg56
(lp910
g49
(g50
g51
NtRp911
(dp912
g54
(dp913
g62
I3
ssg63
g907
sg56
(lp914
S''
asbasbasbag49
(g65
g51
NtRp915
(dp916
g54
(dp917
sg63
g791
sg56
(lp918
g49
(g70
g51
NtRp919
(dp920
g54
(dp921
g74
g75
ssg63
g915
sg56
(lp922
g424
asbag49
(g70
g51
NtRp923
(dp924
g54
(dp925
g81
g82
ssg63
g915
sg56
(lp926
S':'
asbag49
(g70
g51
NtRp927
(dp928
g54
(dp929
sg63
g915
sg56
(lp930
g49
(g50
g51
NtRp931
(dp932
g54
(dp933
g62
I3
ssg63
g927
sg56
(lp934
S''
asbasbasbasbasbasbasbag49
(g65
g51
NtRp935
(dp936
g54
(dp937
sg63
g260
sg56
(lp938
g49
(g70
g51
NtRp939
(dp940
g54
(dp941
g74
g75
ssg63
g935
sg56
(lp942
S'session_id_welcome'
p943
asbag49
(g70
g51
NtRp944
(dp945
g54
(dp946
g81
g82
ssg63
g935
sg56
(lp947
S':'
asbag49
(g70
g51
NtRp948
(dp949
g54
(dp950
sg63
g935
sg56
(lp951
g49
(g50
g51
NtRp952
(dp953
g54
(dp954
g62
I4
ssg63
g948
sg56
(lp955
S'127.0.0.1-245d6654-272e-49f5-968f-2cbd15b43359'
p956
ag49
(g58
g51
NtRp957
(dp958
g54
(dp959
g62
I3
ssg63
Nsg56
(lp960
g49
(g65
g51
NtRp961
(dp962
g54
(dp963
sg63
g957
sg56
(lp964
g49
(g70
g51
NtRp965
(dp966
g54
(dp967
g74
g75
ssg63
g961
sg56
(lp968
g298
asbag49
(g70
g51
NtRp969
(dp970
g54
(dp971
g81
g82
ssg63
g961
sg56
(lp972
S':'
asbag49
(g70
g51
NtRp973
(dp974
g54
(dp975
sg63
g961
sg56
(lp976
g49
(g50
g51
NtRp977
(dp978
g54
(dp979
g62
I3
ssg63
g973
sg56
(lp980
S''
asbasbasbag49
(g65
g51
NtRp981
(dp982
g54
(dp983
sg63
g957
sg56
(lp984
g49
(g70
g51
NtRp985
(dp986
g54
(dp987
g74
g75
ssg63
g981
sg56
(lp988
g319
asbag49
(g70
g51
NtRp989
(dp990
g54
(dp991
g81
g82
ssg63
g981
sg56
(lp992
S':'
asbag49
(g70
g51
NtRp993
(dp994
g54
(dp995
sg63
g981
sg56
(lp996
g49
(g50
g51
NtRp997
(dp998
g54
(dp999
g62
I3
ssg63
g993
sg56
(lp1000
S''
asbasbasbag49
(g65
g51
NtRp1001
(dp1002
g54
(dp1003
sg63
g957
sg56
(lp1004
g49
(g70
g51
NtRp1005
(dp1006
g54
(dp1007
g74
g75
ssg63
g1001
sg56
(lp1008
g340
asbag49
(g70
g51
NtRp1009
(dp1010
g54
(dp1011
g81
g82
ssg63
g1001
sg56
(lp1012
S':'
asbag49
(g70
g51
NtRp1013
(dp1014
g54
(dp1015
sg63
g1001
sg56
(lp1016
g49
(g50
g51
NtRp1017
(dp1018
g54
(dp1019
g62
I3
ssg63
g1013
sg56
(lp1020
S''
asbasbasbag49
(g65
g51
NtRp1021
(dp1022
g54
(dp1023
sg63
g957
sg56
(lp1024
g49
(g70
g51
NtRp1025
(dp1026
g54
(dp1027
g74
g75
ssg63
g1021
sg56
(lp1028
g361
asbag49
(g70
g51
NtRp1029
(dp1030
g54
(dp1031
g81
g82
ssg63
g1021
sg56
(lp1032
S':'
asbag49
(g70
g51
NtRp1033
(dp1034
g54
(dp1035
sg63
g1021
sg56
(lp1036
g49
(g50
g51
NtRp1037
(dp1038
g54
(dp1039
g62
I3
ssg63
g1033
sg56
(lp1040
S''
asbasbasbag49
(g65
g51
NtRp1041
(dp1042
g54
(dp1043
sg63
g957
sg56
(lp1044
g49
(g70
g51
NtRp1045
(dp1046
g54
(dp1047
g74
g75
ssg63
g1041
sg56
(lp1048
g382
asbag49
(g70
g51
NtRp1049
(dp1050
g54
(dp1051
g81
g82
ssg63
g1041
sg56
(lp1052
S':'
asbag49
(g70
g51
NtRp1053
(dp1054
g54
(dp1055
sg63
g1041
sg56
(lp1056
g49
(g50
g51
NtRp1057
(dp1058
g54
(dp1059
g62
I3
ssg63
g1053
sg56
(lp1060
S''
asbasbasbag49
(g65
g51
NtRp1061
(dp1062
g54
(dp1063
sg63
g957
sg56
(lp1064
g49
(g70
g51
NtRp1065
(dp1066
g54
(dp1067
g74
g75
ssg63
g1061
sg56
(lp1068
g403
asbag49
(g70
g51
NtRp1069
(dp1070
g54
(dp1071
g81
g82
ssg63
g1061
sg56
(lp1072
S':'
asbag49
(g70
g51
NtRp1073
(dp1074
g54
(dp1075
sg63
g1061
sg56
(lp1076
g49
(g50
g51
NtRp1077
(dp1078
g54
(dp1079
g62
I3
ssg63
g1073
sg56
(lp1080
S''
asbasbasbag49
(g65
g51
NtRp1081
(dp1082
g54
(dp1083
sg63
g957
sg56
(lp1084
g49
(g70
g51
NtRp1085
(dp1086
g54
(dp1087
g74
g75
ssg63
g1081
sg56
(lp1088
g424
asbag49
(g70
g51
NtRp1089
(dp1090
g54
(dp1091
g81
g82
ssg63
g1081
sg56
(lp1092
S':'
asbag49
(g70
g51
NtRp1093
(dp1094
g54
(dp1095
sg63
g1081
sg56
(lp1096
g49
(g50
g51
NtRp1097
(dp1098
g54
(dp1099
g62
I3
ssg63
g1093
sg56
(lp1100
S''
asbasbasbasbasbasbasbasbasbasbasbag49
(g65
g51
NtRp1101
(dp1102
g54
(dp1103
sg63
g59
sg56
(lp1104
g49
(g70
g51
NtRp1105
(dp1106
g54
(dp1107
g74
g75
ssg63
g1101
sg56
(lp1108
S'env'
p1109
asbag49
(g70
g51
NtRp1110
(dp1111
g54
(dp1112
g81
g82
ssg63
g1101
sg56
(lp1113
S':'
asbag49
(g70
g51
NtRp1114
(dp1115
g54
(dp1116
sg63
g1101
sg56
(lp1117
g49
(g50
g51
NtRp1118
(dp1119
g54
(dp1120
g62
I5
ssg63
g1114
sg56
(lp1121
g49
(g58
g51
NtRp1122
(dp1123
g54
(dp1124
g62
I4
ssg63
Nsg56
(lp1125
g49
(g65
g51
NtRp1126
(dp1127
g54
(dp1128
sg63
g1122
sg56
(lp1129
g49
(g70
g51
NtRp1130
(dp1131
g54
(dp1132
g74
g75
ssg63
g1126
sg56
(lp1133
S'app_folders'
p1134
asbag49
(g70
g51
NtRp1135
(dp1136
g54
(dp1137
g81
g82
ssg63
g1126
sg56
(lp1138
S':'
asbag49
(g70
g51
NtRp1139
(dp1140
g54
(dp1141
sg63
g1126
sg56
(lp1142
g49
(g50
g51
NtRp1143
(dp1144
g54
(dp1145
g62
I4
ssg63
g1139
sg56
(lp1146
S"set(['/Users/zamechek/Downloads/web2py/web2py.app/Contents/Resources/applications/examples/', '/Users/zamechek/Downloads/web2py/web2py.app/Contents/Resources/applications/hellow/', '/Users/zamechek/Downloads/web2py/web2py.app/Contents/Resources/applications/admin/', '/Users/zamechek/Downloads/web2py/web2py.app/Contents/Resources/applications/slots/', '/Users/zamechek/Downloads/web2py/web2py.app/Contents/Resources/applications/welcome/'])"
p1147
asbasbasbag49
(g65
g51
NtRp1148
(dp1149
g54
(dp1150
sg63
g1122
sg56
(lp1151
g49
(g70
g51
NtRp1152
(dp1153
g54
(dp1154
g74
g75
ssg63
g1148
sg56
(lp1155
S'applications_parent'
p1156
asbag49
(g70
g51
NtRp1157
(dp1158
g54
(dp1159
g81
g82
ssg63
g1148
sg56
(lp1160
S':'
asbag49
(g70
g51
NtRp1161
(dp1162
g54
(dp1163
sg63
g1148
sg56
(lp1164
g49
(g50
g51
NtRp1165
(dp1166
g54
(dp1167
g62
I4
ssg63
g1161
sg56
(lp1168
S'/Users/zamechek/Downloads/web2py/web2py.app/Contents/Resources'
p1169
asbasbasbag49
(g65
g51
NtRp1170
(dp1171
g54
(dp1172
sg63
g1122
sg56
(lp1173
g49
(g70
g51
NtRp1174
(dp1175
g54
(dp1176
g74
g75
ssg63
g1170
sg56
(lp1177
S'cmd_args'
p1178
asbag49
(g70
g51
NtRp1179
(dp1180
g54
(dp1181
g81
g82
ssg63
g1170
sg56
(lp1182
S':'
asbag49
(g70
g51
NtRp1183
(dp1184
g54
(dp1185
sg63
g1170
sg56
(lp1186
g49
(g50
g51
NtRp1187
(dp1188
g54
(dp1189
g62
I4
ssg63
g1183
sg56
(lp1190
g49
(g58
g51
NtRp1191
(dp1192
g54
(dp1193
g62
I3
ssg63
Nsg56
(lp1194
sbasbasbasbag49
(g65
g51
NtRp1195
(dp1196
g54
(dp1197
sg63
g1122
sg56
(lp1198
g49
(g70
g51
NtRp1199
(dp1200
g54
(dp1201
g74
g75
ssg63
g1195
sg56
(lp1202
S'cmd_options'
p1203
asbag49
(g70
g51
NtRp1204
(dp1205
g54
(dp1206
g81
g82
ssg63
g1195
sg56
(lp1207
S':'
asbag49
(g70
g51
NtRp1208
(dp1209
g54
(dp1210
sg63
g1195
sg56
(lp1211
g49
(g50
g51
NtRp1212
(dp1213
g54
(dp1214
g62
I4
ssg63
g1208
sg56
(lp1215
S"<Values at 0x32c8f58: {'verbose': False, 'ip': '127.0.0.1', 'with_scheduler': False, 'ips': ['130.91.151.157'], 'shutdown_timeout': 5, 'taskbar': False, 'port': 8000, 'maxthreads': None, 'softcron': False, 'server_name': 'hntvlan531.0924.wlan.wireless-pennnet.upenn.edu', 'bpython': False, 'nogui': False, 'pid_filename': 'httpserver.pid', 'extcron': False, 'runcron': False, 'run_system_tests': False, 'test': None, 'folder': '/Users/zamechek/Downloads/web2py/web2py.app/Contents/Resources', 'config': '', 'import_models': False, 'winservice': '', 'shell': None, 'run': '', 'log_filename': 'httpserver.log', 'debuglevel': 30, 'args': [''], 'socket_timeout': 5, 'ssl_ca_certificate': None, 'scheduler': None, 'profiler_filename': None, 'ssl_private_key': '', 'scheduler_groups': None, 'password': '<ask>', 'request_queue_size': 5, 'ssl_certificate': '', 'cronjob': False, 'numthreads': None, 'quiet': False, 'interfaces': None, 'minthreads': None, 'timeout': 10, 'plain': False, 'nobanner': False}>"
p1216
asbasbasbag49
(g65
g51
NtRp1217
(dp1218
g54
(dp1219
sg63
g1122
sg56
(lp1220
g49
(g70
g51
NtRp1221
(dp1222
g54
(dp1223
g74
g75
ssg63
g1217
sg56
(lp1224
S'db_sessions'
p1225
asbag49
(g70
g51
NtRp1226
(dp1227
g54
(dp1228
g81
g82
ssg63
g1217
sg56
(lp1229
S':'
asbag49
(g70
g51
NtRp1230
(dp1231
g54
(dp1232
sg63
g1217
sg56
(lp1233
g49
(g50
g51
NtRp1234
(dp1235
g54
(dp1236
g62
I4
ssg63
g1230
sg56
(lp1237
S'set([])'
p1238
asbasbasbag49
(g65
g51
NtRp1239
(dp1240
g54
(dp1241
sg63
g1122
sg56
(lp1242
g49
(g70
g51
NtRp1243
(dp1244
g54
(dp1245
g74
g75
ssg63
g1239
sg56
(lp1246
S'debugging'
p1247
asbag49
(g70
g51
NtRp1248
(dp1249
g54
(dp1250
g81
g82
ssg63
g1239
sg56
(lp1251
S':'
asbag49
(g70
g51
NtRp1252
(dp1253
g54
(dp1254
sg63
g1239
sg56
(lp1255
g49
(g50
g51
NtRp1256
(dp1257
g54
(dp1258
g62
I4
ssg63
g1252
sg56
(lp1259
S'True'
p1260
asbasbasbag49
(g65
g51
NtRp1261
(dp1262
g54
(dp1263
sg63
g1122
sg56
(lp1264
g49
(g70
g51
NtRp1265
(dp1266
g54
(dp1267
g74
g75
ssg63
g1261
sg56
(lp1268
S'gluon_parent'
p1269
asbag49
(g70
g51
NtRp1270
(dp1271
g54
(dp1272
g81
g82
ssg63
g1261
sg56
(lp1273
S':'
asbag49
(g70
g51
NtRp1274
(dp1275
g54
(dp1276
sg63
g1261
sg56
(lp1277
g49
(g50
g51
NtRp1278
(dp1279
g54
(dp1280
g62
I4
ssg63
g1274
sg56
(lp1281
S'/Users/zamechek/Downloads/web2py/web2py.app/Contents/Resources'
p1282
asbasbasbag49
(g65
g51
NtRp1283
(dp1284
g54
(dp1285
sg63
g1122
sg56
(lp1286
g49
(g70
g51
NtRp1287
(dp1288
g54
(dp1289
g74
g75
ssg63
g1283
sg56
(lp1290
S'http_accept'
p1291
asbag49
(g70
g51
NtRp1292
(dp1293
g54
(dp1294
g81
g82
ssg63
g1283
sg56
(lp1295
S':'
asbag49
(g70
g51
NtRp1296
(dp1297
g54
(dp1298
sg63
g1283
sg56
(lp1299
g49
(g50
g51
NtRp1300
(dp1301
g54
(dp1302
g62
I4
ssg63
g1296
sg56
(lp1303
S'text/html,application/xhtml+xml,application/xml;q=0.9,*/*;q=0.8'
p1304
asbasbasbag49
(g65
g51
NtRp1305
(dp1306
g54
(dp1307
sg63
g1122
sg56
(lp1308
g49
(g70
g51
NtRp1309
(dp1310
g54
(dp1311
g74
g75
ssg63
g1305
sg56
(lp1312
S'http_accept_charset'
p1313
asbag49
(g70
g51
NtRp1314
(dp1315
g54
(dp1316
g81
g82
ssg63
g1305
sg56
(lp1317
S':'
asbag49
(g70
g51
NtRp1318
(dp1319
g54
(dp1320
sg63
g1305
sg56
(lp1321
g49
(g50
g51
NtRp1322
(dp1323
g54
(dp1324
g62
I4
ssg63
g1318
sg56
(lp1325
S'ISO-8859-1,utf-8;q=0.7,*;q=0.3'
p1326
asbasbasbag49
(g65
g51
NtRp1327
(dp1328
g54
(dp1329
sg63
g1122
sg56
(lp1330
g49
(g70
g51
NtRp1331
(dp1332
g54
(dp1333
g74
g75
ssg63
g1327
sg56
(lp1334
S'http_accept_encoding'
p1335
asbag49
(g70
g51
NtRp1336
(dp1337
g54
(dp1338
g81
g82
ssg63
g1327
sg56
(lp1339
S':'
asbag49
(g70
g51
NtRp1340
(dp1341
g54
(dp1342
sg63
g1327
sg56
(lp1343
g49
(g50
g51
NtRp1344
(dp1345
g54
(dp1346
g62
I4
ssg63
g1340
sg56
(lp1347
S'gzip,deflate,sdch'
p1348
asbasbasbag49
(g65
g51
NtRp1349
(dp1350
g54
(dp1351
sg63
g1122
sg56
(lp1352
g49
(g70
g51
NtRp1353
(dp1354
g54
(dp1355
g74
g75
ssg63
g1349
sg56
(lp1356
S'http_accept_language'
p1357
asbag49
(g70
g51
NtRp1358
(dp1359
g54
(dp1360
g81
g82
ssg63
g1349
sg56
(lp1361
S':'
asbag49
(g70
g51
NtRp1362
(dp1363
g54
(dp1364
sg63
g1349
sg56
(lp1365
g49
(g50
g51
NtRp1366
(dp1367
g54
(dp1368
g62
I4
ssg63
g1362
sg56
(lp1369
S'en-US,en;q=0.8'
p1370
asbasbasbag49
(g65
g51
NtRp1371
(dp1372
g54
(dp1373
sg63
g1122
sg56
(lp1374
g49
(g70
g51
NtRp1375
(dp1376
g54
(dp1377
g74
g75
ssg63
g1371
sg56
(lp1378
S'http_cache_control'
p1379
asbag49
(g70
g51
NtRp1380
(dp1381
g54
(dp1382
g81
g82
ssg63
g1371
sg56
(lp1383
S':'
asbag49
(g70
g51
NtRp1384
(dp1385
g54
(dp1386
sg63
g1371
sg56
(lp1387
g49
(g50
g51
NtRp1388
(dp1389
g54
(dp1390
g62
I4
ssg63
g1384
sg56
(lp1391
S'max-age=0'
p1392
asbasbasbag49
(g65
g51
NtRp1393
(dp1394
g54
(dp1395
sg63
g1122
sg56
(lp1396
g49
(g70
g51
NtRp1397
(dp1398
g54
(dp1399
g74
g75
ssg63
g1393
sg56
(lp1400
S'http_connection'
p1401
asbag49
(g70
g51
NtRp1402
(dp1403
g54
(dp1404
g81
g82
ssg63
g1393
sg56
(lp1405
S':'
asbag49
(g70
g51
NtRp1406
(dp1407
g54
(dp1408
sg63
g1393
sg56
(lp1409
g49
(g50
g51
NtRp1410
(dp1411
g54
(dp1412
g62
I4
ssg63
g1406
sg56
(lp1413
S'keep-alive'
p1414
asbasbasbag49
(g65
g51
NtRp1415
(dp1416
g54
(dp1417
sg63
g1122
sg56
(lp1418
g49
(g70
g51
NtRp1419
(dp1420
g54
(dp1421
g74
g75
ssg63
g1415
sg56
(lp1422
S'http_cookie'
p1423
asbag49
(g70
g51
NtRp1424
(dp1425
g54
(dp1426
g81
g82
ssg63
g1415
sg56
(lp1427
S':'
asbag49
(g70
g51
NtRp1428
(dp1429
g54
(dp1430
sg63
g1415
sg56
(lp1431
g49
(g50
g51
NtRp1432
(dp1433
g54
(dp1434
g62
I4
ssg63
g1428
sg56
(lp1435
S'session_id_welcome=127.0.0.1-245d6654-272e-49f5-968f-2cbd15b43359; session_id_slots=127.0.0.1-c959d0b0-1e49-49e4-b6ce-60b17dcbfd08; session_data_examples="6590e93a92ae056071f3d5d23c5da718:8mcaYr3jD5OS9Hm5obiuGpOS1hqNCswQLIoFlRGZYdaR8FVZ84s0w9vMAEY5L6DK8gvTZcQowujTbbDj-ns3802lRCPwkkcburTr1lmHorC9hQtD5W0yZ89O_mdlKuHPlwEItXQ5_WAFut_RTkzpuyS0nQWmuEGxVuLk0DXc0ndh8WySsXoErgPnINq0aXqKzueVqcmNBWwB7tluAV8oSQyVVnjPajiXfmT2moAb3dPnaGC3yePavU4XAXO8FVarzcdAnZ4bnTo9uMJJvT2hL9oQVbtD8YY8yMHurMAdtIpf8wcGfXNr6SjFTzpMxYtAg1tv7XdXpUPETM1Ox80jE-qsgQd_Xr1FA049-xsoxpdA4EzMUoouiTJ995NWCOJNjo6VICpuSvfOJBlnOLd8aLxueLUtuyScbkLd2jOCQIsF2aV6hhIZWDXpJwlCKPkIckeaXaaHeE4EqTZR6N0JnA=="; session_id_hellow=127.0.0.1-f0c125e4-5d5e-4805-8c10-bdfc66367729; session_id_admin=127.0.0.1-66a1de5b-ba15-4b30-ba06-132c9e7969c1'
p1436
asbasbasbag49
(g65
g51
NtRp1437
(dp1438
g54
(dp1439
sg63
g1122
sg56
(lp1440
g49
(g70
g51
NtRp1441
(dp1442
g54
(dp1443
g74
g75
ssg63
g1437
sg56
(lp1444
S'http_host'
p1445
asbag49
(g70
g51
NtRp1446
(dp1447
g54
(dp1448
g81
g82
ssg63
g1437
sg56
(lp1449
S':'
asbag49
(g70
g51
NtRp1450
(dp1451
g54
(dp1452
sg63
g1437
sg56
(lp1453
g49
(g50
g51
NtRp1454
(dp1455
g54
(dp1456
g62
I4
ssg63
g1450
sg56
(lp1457
S'127.0.0.1:8887'
p1458
asbasbasbag49
(g65
g51
NtRp1459
(dp1460
g54
(dp1461
sg63
g1122
sg56
(lp1462
g49
(g70
g51
NtRp1463
(dp1464
g54
(dp1465
g74
g75
ssg63
g1459
sg56
(lp1466
S'http_user_agent'
p1467
asbag49
(g70
g51
NtRp1468
(dp1469
g54
(dp1470
g81
g82
ssg63
g1459
sg56
(lp1471
S':'
asbag49
(g70
g51
NtRp1472
(dp1473
g54
(dp1474
sg63
g1459
sg56
(lp1475
g49
(g50
g51
NtRp1476
(dp1477
g54
(dp1478
g62
I4
ssg63
g1472
sg56
(lp1479
S'Mozilla/5.0 (Macintosh; Intel Mac OS X 10_8_3) AppleWebKit/537.22 (KHTML, like Gecko) Chrome/25.0.1364.172 Safari/537.22'
p1480
asbasbasbag49
(g65
g51
NtRp1481
(dp1482
g54
(dp1483
sg63
g1122
sg56
(lp1484
g49
(g70
g51
NtRp1485
(dp1486
g54
(dp1487
g74
g75
ssg63
g1481
sg56
(lp1488
S'is_jython'
p1489
asbag49
(g70
g51
NtRp1490
(dp1491
g54
(dp1492
g81
g82
ssg63
g1481
sg56
(lp1493
S':'
asbag49
(g70
g51
NtRp1494
(dp1495
g54
(dp1496
sg63
g1481
sg56
(lp1497
g49
(g50
g51
NtRp1498
(dp1499
g54
(dp1500
g62
I4
ssg63
g1494
sg56
(lp1501
g92
asbasbasbag49
(g65
g51
NtRp1502
(dp1503
g54
(dp1504
sg63
g1122
sg56
(lp1505
g49
(g70
g51
NtRp1506
(dp1507
g54
(dp1508
g74
g75
ssg63
g1502
sg56
(lp1509
S'is_pypy'
p1510
asbag49
(g70
g51
NtRp1511
(dp1512
g54
(dp1513
g81
g82
ssg63
g1502
sg56
(lp1514
S':'
asbag49
(g70
g51
NtRp1515
(dp1516
g54
(dp1517
sg63
g1502
sg56
(lp1518
g49
(g50
g51
NtRp1519
(dp1520
g54
(dp1521
g62
I4
ssg63
g1515
sg56
(lp1522
g92
asbasbasbag49
(g65
g51
NtRp1523
(dp1524
g54
(dp1525
sg63
g1122
sg56
(lp1526
g49
(g70
g51
NtRp1527
(dp1528
g54
(dp1529
g74
g75
ssg63
g1523
sg56
(lp1530
S'local_hosts'
p1531
asbag49
(g70
g51
NtRp1532
(dp1533
g54
(dp1534
g81
g82
ssg63
g1523
sg56
(lp1535
S':'
asbag49
(g70
g51
NtRp1536
(dp1537
g54
(dp1538
sg63
g1523
sg56
(lp1539
g49
(g50
g51
NtRp1540
(dp1541
g54
(dp1542
g62
I4
ssg63
g1536
sg56
(lp1543
g49
(g58
g51
NtRp1544
(dp1545
g54
(dp1546
g62
I3
ssg63
Nsg56
(lp1547
g49
(g65
g51
NtRp1548
(dp1549
g54
(dp1550
sg63
g1544
sg56
(lp1551
g49
(g70
g51
NtRp1552
(dp1553
g54
(dp1554
sg63
g1548
sg56
(lp1555
g49
(g50
g51
NtRp1556
(dp1557
g54
(dp1558
g62
I3
ssg63
g1552
sg56
(lp1559
S'130.91.151.157'
p1560
asbasbasbag49
(g65
g51
NtRp1561
(dp1562
g54
(dp1563
sg63
g1544
sg56
(lp1564
g49
(g70
g51
NtRp1565
(dp1566
g54
(dp1567
sg63
g1561
sg56
(lp1568
g49
(g50
g51
NtRp1569
(dp1570
g54
(dp1571
g62
I3
ssg63
g1565
sg56
(lp1572
S'::1'
p1573
asbasbasbag49
(g65
g51
NtRp1574
(dp1575
g54
(dp1576
sg63
g1544
sg56
(lp1577
g49
(g70
g51
NtRp1578
(dp1579
g54
(dp1580
sg63
g1574
sg56
(lp1581
g49
(g50
g51
NtRp1582
(dp1583
g54
(dp1584
g62
I3
ssg63
g1578
sg56
(lp1585
S'::ffff:127.0.0.1'
p1586
asbasbasbag49
(g65
g51
NtRp1587
(dp1588
g54
(dp1589
sg63
g1544
sg56
(lp1590
g49
(g70
g51
NtRp1591
(dp1592
g54
(dp1593
sg63
g1587
sg56
(lp1594
g49
(g50
g51
NtRp1595
(dp1596
g54
(dp1597
g62
I3
ssg63
g1591
sg56
(lp1598
S'127.0.0.1'
p1599
asbasbasbag49
(g65
g51
NtRp1600
(dp1601
g54
(dp1602
sg63
g1544
sg56
(lp1603
g49
(g70
g51
NtRp1604
(dp1605
g54
(dp1606
sg63
g1600
sg56
(lp1607
g49
(g50
g51
NtRp1608
(dp1609
g54
(dp1610
g62
I3
ssg63
g1604
sg56
(lp1611
S'hntvlan531.0924.wlan.wireless-pennnet.upenn.edu'
p1612
asbasbasbasbasbasbasbag49
(g65
g51
NtRp1613
(dp1614
g54
(dp1615
sg63
g1122
sg56
(lp1616
g49
(g70
g51
NtRp1617
(dp1618
g54
(dp1619
g74
g75
ssg63
g1613
sg56
(lp1620
S'path_info'
p1621
asbag49
(g70
g51
NtRp1622
(dp1623
g54
(dp1624
g81
g82
ssg63
g1613
sg56
(lp1625
S':'
asbag49
(g70
g51
NtRp1626
(dp1627
g54
(dp1628
sg63
g1613
sg56
(lp1629
g49
(g50
g51
NtRp1630
(dp1631
g54
(dp1632
g62
I4
ssg63
g1626
sg56
(lp1633
S'/hellow/slot/show/1'
p1634
asbasbasbag49
(g65
g51
NtRp1635
(dp1636
g54
(dp1637
sg63
g1122
sg56
(lp1638
g49
(g70
g51
NtRp1639
(dp1640
g54
(dp1641
g74
g75
ssg63
g1635
sg56
(lp1642
S'query_string'
p1643
asbag49
(g70
g51
NtRp1644
(dp1645
g54
(dp1646
g81
g82
ssg63
g1635
sg56
(lp1647
S':'
asbag49
(g70
g51
NtRp1648
(dp1649
g54
(dp1650
sg63
g1635
sg56
(lp1651
g49
(g50
g51
NtRp1652
(dp1653
g54
(dp1654
g62
I4
ssg63
g1648
sg56
(lp1655
S''
asbasbasbag49
(g65
g51
NtRp1656
(dp1657
g54
(dp1658
sg63
g1122
sg56
(lp1659
g49
(g70
g51
NtRp1660
(dp1661
g54
(dp1662
g74
g75
ssg63
g1656
sg56
(lp1663
S'remote_addr'
p1664
asbag49
(g70
g51
NtRp1665
(dp1666
g54
(dp1667
g81
g82
ssg63
g1656
sg56
(lp1668
S':'
asbag49
(g70
g51
NtRp1669
(dp1670
g54
(dp1671
sg63
g1656
sg56
(lp1672
g49
(g50
g51
NtRp1673
(dp1674
g54
(dp1675
g62
I4
ssg63
g1669
sg56
(lp1676
g216
asbasbasbag49
(g65
g51
NtRp1677
(dp1678
g54
(dp1679
sg63
g1122
sg56
(lp1680
g49
(g70
g51
NtRp1681
(dp1682
g54
(dp1683
g74
g75
ssg63
g1677
sg56
(lp1684
S'remote_port'
p1685
asbag49
(g70
g51
NtRp1686
(dp1687
g54
(dp1688
g81
g82
ssg63
g1677
sg56
(lp1689
S':'
asbag49
(g70
g51
NtRp1690
(dp1691
g54
(dp1692
sg63
g1677
sg56
(lp1693
g49
(g50
g51
NtRp1694
(dp1695
g54
(dp1696
g62
I4
ssg63
g1690
sg56
(lp1697
S'63948'
p1698
asbasbasbag49
(g65
g51
NtRp1699
(dp1700
g54
(dp1701
sg63
g1122
sg56
(lp1702
g49
(g70
g51
NtRp1703
(dp1704
g54
(dp1705
g74
g75
ssg63
g1699
sg56
(lp1706
S'request_method'
p1707
asbag49
(g70
g51
NtRp1708
(dp1709
g54
(dp1710
g81
g82
ssg63
g1699
sg56
(lp1711
S':'
asbag49
(g70
g51
NtRp1712
(dp1713
g54
(dp1714
sg63
g1699
sg56
(lp1715
g49
(g50
g51
NtRp1716
(dp1717
g54
(dp1718
g62
I4
ssg63
g1712
sg56
(lp1719
S'GET'
p1720
asbasbasbag49
(g65
g51
NtRp1721
(dp1722
g54
(dp1723
sg63
g1122
sg56
(lp1724
g49
(g70
g51
NtRp1725
(dp1726
g54
(dp1727
g74
g75
ssg63
g1721
sg56
(lp1728
S'request_uri'
p1729
asbag49
(g70
g51
NtRp1730
(dp1731
g54
(dp1732
g81
g82
ssg63
g1721
sg56
(lp1733
S':'
asbag49
(g70
g51
NtRp1734
(dp1735
g54
(dp1736
sg63
g1721
sg56
(lp1737
g49
(g50
g51
NtRp1738
(dp1739
g54
(dp1740
g62
I4
ssg63
g1734
sg56
(lp1741
g1634
asbasbasbag49
(g65
g51
NtRp1742
(dp1743
g54
(dp1744
sg63
g1122
sg56
(lp1745
g49
(g70
g51
NtRp1746
(dp1747
g54
(dp1748
g74
g75
ssg63
g1742
sg56
(lp1749
S'script_name'
p1750
asbag49
(g70
g51
NtRp1751
(dp1752
g54
(dp1753
g81
g82
ssg63
g1742
sg56
(lp1754
S':'
asbag49
(g70
g51
NtRp1755
(dp1756
g54
(dp1757
sg63
g1742
sg56
(lp1758
g49
(g50
g51
NtRp1759
(dp1760
g54
(dp1761
g62
I4
ssg63
g1755
sg56
(lp1762
S''
asbasbasbag49
(g65
g51
NtRp1763
(dp1764
g54
(dp1765
sg63
g1122
sg56
(lp1766
g49
(g70
g51
NtRp1767
(dp1768
g54
(dp1769
g74
g75
ssg63
g1763
sg56
(lp1770
S'server_name'
p1771
asbag49
(g70
g51
NtRp1772
(dp1773
g54
(dp1774
g81
g82
ssg63
g1763
sg56
(lp1775
S':'
asbag49
(g70
g51
NtRp1776
(dp1777
g54
(dp1778
sg63
g1763
sg56
(lp1779
g49
(g50
g51
NtRp1780
(dp1781
g54
(dp1782
g62
I4
ssg63
g1776
sg56
(lp1783
S'hntvlan531.0924.wlan.wireless-pennnet.upenn.edu'
p1784
asbasbasbag49
(g65
g51
NtRp1785
(dp1786
g54
(dp1787
sg63
g1122
sg56
(lp1788
g49
(g70
g51
NtRp1789
(dp1790
g54
(dp1791
g74
g75
ssg63
g1785
sg56
(lp1792
S'server_port'
p1793
asbag49
(g70
g51
NtRp1794
(dp1795
g54
(dp1796
g81
g82
ssg63
g1785
sg56
(lp1797
S':'
asbag49
(g70
g51
NtRp1798
(dp1799
g54
(dp1800
sg63
g1785
sg56
(lp1801
g49
(g50
g51
NtRp1802
(dp1803
g54
(dp1804
g62
I4
ssg63
g1798
sg56
(lp1805
S'8887'
p1806
asbasbasbag49
(g65
g51
NtRp1807
(dp1808
g54
(dp1809
sg63
g1122
sg56
(lp1810
g49
(g70
g51
NtRp1811
(dp1812
g54
(dp1813
g74
g75
ssg63
g1807
sg56
(lp1814
S'server_protocol'
p1815
asbag49
(g70
g51
NtRp1816
(dp1817
g54
(dp1818
g81
g82
ssg63
g1807
sg56
(lp1819
S':'
asbag49
(g70
g51
NtRp1820
(dp1821
g54
(dp1822
sg63
g1807
sg56
(lp1823
g49
(g50
g51
NtRp1824
(dp1825
g54
(dp1826
g62
I4
ssg63
g1820
sg56
(lp1827
S'HTTP/1.1'
p1828
asbasbasbag49
(g65
g51
NtRp1829
(dp1830
g54
(dp1831
sg63
g1122
sg56
(lp1832
g49
(g70
g51
NtRp1833
(dp1834
g54
(dp1835
g74
g75
ssg63
g1829
sg56
(lp1836
S'server_software'
p1837
asbag49
(g70
g51
NtRp1838
(dp1839
g54
(dp1840
g81
g82
ssg63
g1829
sg56
(lp1841
S':'
asbag49
(g70
g51
NtRp1842
(dp1843
g54
(dp1844
sg63
g1829
sg56
(lp1845
g49
(g50
g51
NtRp1846
(dp1847
g54
(dp1848
g62
I4
ssg63
g1842
sg56
(lp1849
S'Rocket 1.2.6'
p1850
asbasbasbag49
(g65
g51
NtRp1851
(dp1852
g54
(dp1853
sg63
g1122
sg56
(lp1854
g49
(g70
g51
NtRp1855
(dp1856
g54
(dp1857
g74
g75
ssg63
g1851
sg56
(lp1858
S'web2py_path'
p1859
asbag49
(g70
g51
NtRp1860
(dp1861
g54
(dp1862
g81
g82
ssg63
g1851
sg56
(lp1863
S':'
asbag49
(g70
g51
NtRp1864
(dp1865
g54
(dp1866
sg63
g1851
sg56
(lp1867
g49
(g50
g51
NtRp1868
(dp1869
g54
(dp1870
g62
I4
ssg63
g1864
sg56
(lp1871
g1169
asbasbasbag49
(g65
g51
NtRp1872
(dp1873
g54
(dp1874
sg63
g1122
sg56
(lp1875
g49
(g70
g51
NtRp1876
(dp1877
g54
(dp1878
g74
g75
ssg63
g1872
sg56
(lp1879
S'web2py_version'
p1880
asbag49
(g70
g51
NtRp1881
(dp1882
g54
(dp1883
g81
g82
ssg63
g1872
sg56
(lp1884
S':'
asbag49
(g70
g51
NtRp1885
(dp1886
g54
(dp1887
sg63
g1872
sg56
(lp1888
g49
(g50
g51
NtRp1889
(dp1890
g54
(dp1891
g62
I4
ssg63
g1885
sg56
(lp1892
g49
(g58
g51
NtRp1893
(dp1894
g54
(dp1895
g62
I3
ssg63
Nsg56
(lp1896
g49
(g65
g51
NtRp1897
(dp1898
g54
(dp1899
sg63
g1893
sg56
(lp1900
g49
(g70
g51
NtRp1901
(dp1902
g54
(dp1903
sg63
g1897
sg56
(lp1904
g49
(g50
g51
NtRp1905
(dp1906
g54
(dp1907
g62
I3
ssg63
g1901
sg56
(lp1908
S'2'
asbasbasbag49
(g65
g51
NtRp1909
(dp1910
g54
(dp1911
sg63
g1893
sg56
(lp1912
g49
(g70
g51
NtRp1913
(dp1914
g54
(dp1915
sg63
g1909
sg56
(lp1916
g49
(g50
g51
NtRp1917
(dp1918
g54
(dp1919
g62
I3
ssg63
g1913
sg56
(lp1920
S'4'
asbasbasbag49
(g65
g51
NtRp1921
(dp1922
g54
(dp1923
sg63
g1893
sg56
(lp1924
g49
(g70
g51
NtRp1925
(dp1926
g54
(dp1927
sg63
g1921
sg56
(lp1928
g49
(g50
g51
NtRp1929
(dp1930
g54
(dp1931
g62
I3
ssg63
g1925
sg56
(lp1932
S'5'
asbasbasbag49
(g65
g51
NtRp1933
(dp1934
g54
(dp1935
sg63
g1893
sg56
(lp1936
g49
(g70
g51
NtRp1937
(dp1938
g54
(dp1939
sg63
g1933
sg56
(lp1940
g49
(g50
g51
NtRp1941
(dp1942
g54
(dp1943
g62
I3
ssg63
g1937
sg56
(lp1944
S'stable'
p1945
asbasbasbag49
(g65
g51
NtRp1946
(dp1947
g54
(dp1948
sg63
g1893
sg56
(lp1949
g49
(g70
g51
NtRp1950
(dp1951
g54
(dp1952
sg63
g1946
sg56
(lp1953
g49
(g50
g51
NtRp1954
(dp1955
g54
(dp1956
g62
I3
ssg63
g1950
sg56
(lp1957
S'datetime.datetime(2013, 3, 18, 22, 46, 22)'
p1958
asbasbasbasbasbasbasbag49
(g65
g51
NtRp1959
(dp1960
g54
(dp1961
sg63
g1122
sg56
(lp1962
g49
(g70
g51
NtRp1963
(dp1964
g54
(dp1965
g74
g75
ssg63
g1959
sg56
(lp1966
S'wsgi_errors'
p1967
asbag49
(g70
g51
NtRp1968
(dp1969
g54
(dp1970
g81
g82
ssg63
g1959
sg56
(lp1971
S':'
asbag49
(g70
g51
NtRp1972
(dp1973
g54
(dp1974
sg63
g1959
sg56
(lp1975
g49
(g50
g51
NtRp1976
(dp1977
g54
(dp1978
g62
I4
ssg63
g1972
sg56
(lp1979
S"<open file '<stderr>', mode 'w' at 0x540b0>"
p1980
asbasbasbag49
(g65
g51
NtRp1981
(dp1982
g54
(dp1983
sg63
g1122
sg56
(lp1984
g49
(g70
g51
NtRp1985
(dp1986
g54
(dp1987
g74
g75
ssg63
g1981
sg56
(lp1988
S'wsgi_file_wrapper'
p1989
asbag49
(g70
g51
NtRp1990
(dp1991
g54
(dp1992
g81
g82
ssg63
g1981
sg56
(lp1993
S':'
asbag49
(g70
g51
NtRp1994
(dp1995
g54
(dp1996
sg63
g1981
sg56
(lp1997
g49
(g50
g51
NtRp1998
(dp1999
g54
(dp2000
g62
I4
ssg63
g1994
sg56
(lp2001
S'<class wsgiref.util.FileWrapper at 0x329d060>'
p2002
asbasbasbag49
(g65
g51
NtRp2003
(dp2004
g54
(dp2005
sg63
g1122
sg56
(lp2006
g49
(g70
g51
NtRp2007
(dp2008
g54
(dp2009
g74
g75
ssg63
g2003
sg56
(lp2010
S'wsgi_input'
p2011
asbag49
(g70
g51
NtRp2012
(dp2013
g54
(dp2014
g81
g82
ssg63
g2003
sg56
(lp2015
S':'
asbag49
(g70
g51
NtRp2016
(dp2017
g54
(dp2018
sg63
g2003
sg56
(lp2019
g49
(g50
g51
NtRp2020
(dp2021
g54
(dp2022
g62
I4
ssg63
g2016
sg56
(lp2023
S'<socket._fileobject object at 0xa29b7b0>'
p2024
asbasbasbag49
(g65
g51
NtRp2025
(dp2026
g54
(dp2027
sg63
g1122
sg56
(lp2028
g49
(g70
g51
NtRp2029
(dp2030
g54
(dp2031
g74
g75
ssg63
g2025
sg56
(lp2032
S'wsgi_multiprocess'
p2033
asbag49
(g70
g51
NtRp2034
(dp2035
g54
(dp2036
g81
g82
ssg63
g2025
sg56
(lp2037
S':'
asbag49
(g70
g51
NtRp2038
(dp2039
g54
(dp2040
sg63
g2025
sg56
(lp2041
g49
(g50
g51
NtRp2042
(dp2043
g54
(dp2044
g62
I4
ssg63
g2038
sg56
(lp2045
g92
asbasbasbag49
(g65
g51
NtRp2046
(dp2047
g54
(dp2048
sg63
g1122
sg56
(lp2049
g49
(g70
g51
NtRp2050
(dp2051
g54
(dp2052
g74
g75
ssg63
g2046
sg56
(lp2053
S'wsgi_multithread'
p2054
asbag49
(g70
g51
NtRp2055
(dp2056
g54
(dp2057
g81
g82
ssg63
g2046
sg56
(lp2058
S':'
asbag49
(g70
g51
NtRp2059
(dp2060
g54
(dp2061
sg63
g2046
sg56
(lp2062
g49
(g50
g51
NtRp2063
(dp2064
g54
(dp2065
g62
I4
ssg63
g2059
sg56
(lp2066
g1260
asbasbasbag49
(g65
g51
NtRp2067
(dp2068
g54
(dp2069
sg63
g1122
sg56
(lp2070
g49
(g70
g51
NtRp2071
(dp2072
g54
(dp2073
g74
g75
ssg63
g2067
sg56
(lp2074
S'wsgi_run_once'
p2075
asbag49
(g70
g51
NtRp2076
(dp2077
g54
(dp2078
g81
g82
ssg63
g2067
sg56
(lp2079
S':'
asbag49
(g70
g51
NtRp2080
(dp2081
g54
(dp2082
sg63
g2067
sg56
(lp2083
g49
(g50
g51
NtRp2084
(dp2085
g54
(dp2086
g62
I4
ssg63
g2080
sg56
(lp2087
g92
asbasbasbag49
(g65
g51
NtRp2088
(dp2089
g54
(dp2090
sg63
g1122
sg56
(lp2091
g49
(g70
g51
NtRp2092
(dp2093
g54
(dp2094
g74
g75
ssg63
g2088
sg56
(lp2095
S'wsgi_url_scheme'
p2096
asbag49
(g70
g51
NtRp2097
(dp2098
g54
(dp2099
g81
g82
ssg63
g2088
sg56
(lp2100
S':'
asbag49
(g70
g51
NtRp2101
(dp2102
g54
(dp2103
sg63
g2088
sg56
(lp2104
g49
(g50
g51
NtRp2105
(dp2106
g54
(dp2107
g62
I4
ssg63
g2101
sg56
(lp2108
S'http'
p2109
asbasbasbag49
(g65
g51
NtRp2110
(dp2111
g54
(dp2112
sg63
g1122
sg56
(lp2113
g49
(g70
g51
NtRp2114
(dp2115
g54
(dp2116
g74
g75
ssg63
g2110
sg56
(lp2117
S'wsgi_version'
p2118
asbag49
(g70
g51
NtRp2119
(dp2120
g54
(dp2121
g81
g82
ssg63
g2110
sg56
(lp2122
S':'
asbag49
(g70
g51
NtRp2123
(dp2124
g54
(dp2125
sg63
g2110
sg56
(lp2126
g49
(g50
g51
NtRp2127
(dp2128
g54
(dp2129
g62
I4
ssg63
g2123
sg56
(lp2130
g49
(g58
g51
NtRp2131
(dp2132
g54
(dp2133
g62
I3
ssg63
Nsg56
(lp2134
g49
(g65
g51
NtRp2135
(dp2136
g54
(dp2137
sg63
g2131
sg56
(lp2138
g49
(g70
g51
NtRp2139
(dp2140
g54
(dp2141
sg63
g2135
sg56
(lp2142
g49
(g50
g51
NtRp2143
(dp2144
g54
(dp2145
g62
I3
ssg63
g2139
sg56
(lp2146
S'1'
asbasbasbag49
(g65
g51
NtRp2147
(dp2148
g54
(dp2149
sg63
g2131
sg56
(lp2150
g49
(g70
g51
NtRp2151
(dp2152
g54
(dp2153
sg63
g2147
sg56
(lp2154
g49
(g50
g51
NtRp2155
(dp2156
g54
(dp2157
g62
I3
ssg63
g2151
sg56
(lp2158
S'0'
asbasbasbasbasbasbasbasbasbasbasbag49
(g65
g51
NtRp2159
(dp2160
g54
(dp2161
sg63
g59
sg56
(lp2162
g49
(g70
g51
NtRp2163
(dp2164
g54
(dp2165
g74
g75
ssg63
g2159
sg56
(lp2166
S'extension'
p2167
asbag49
(g70
g51
NtRp2168
(dp2169
g54
(dp2170
g81
g82
ssg63
g2159
sg56
(lp2171
S':'
asbag49
(g70
g51
NtRp2172
(dp2173
g54
(dp2174
sg63
g2159
sg56
(lp2175
g49
(g50
g51
NtRp2176
(dp2177
g54
(dp2178
g62
I5
ssg63
g2172
sg56
(lp2179
S'html'
p2180
asbasbasbag49
(g65
g51
NtRp2181
(dp2182
g54
(dp2183
sg63
g59
sg56
(lp2184
g49
(g70
g51
NtRp2185
(dp2186
g54
(dp2187
g74
g75
ssg63
g2181
sg56
(lp2188
S'folder'
p2189
asbag49
(g70
g51
NtRp2190
(dp2191
g54
(dp2192
g81
g82
ssg63
g2181
sg56
(lp2193
S':'
asbag49
(g70
g51
NtRp2194
(dp2195
g54
(dp2196
sg63
g2181
sg56
(lp2197
g49
(g50
g51
NtRp2198
(dp2199
g54
(dp2200
g62
I5
ssg63
g2194
sg56
(lp2201
S'/Users/zamechek/Downloads/web2py/web2py.app/Contents/Resources/applications/hellow/'
p2202
asbasbasbag49
(g65
g51
NtRp2203
(dp2204
g54
(dp2205
sg63
g59
sg56
(lp2206
g49
(g70
g51
NtRp2207
(dp2208
g54
(dp2209
g74
g75
ssg63
g2203
sg56
(lp2210
S'function'
p2211
asbag49
(g70
g51
NtRp2212
(dp2213
g54
(dp2214
g81
g82
ssg63
g2203
sg56
(lp2215
S':'
asbag49
(g70
g51
NtRp2216
(dp2217
g54
(dp2218
sg63
g2203
sg56
(lp2219
g49
(g50
g51
NtRp2220
(dp2221
g54
(dp2222
g62
I5
ssg63
g2216
sg56
(lp2223
S'show'
p2224
asbasbasbag49
(g65
g51
NtRp2225
(dp2226
g54
(dp2227
sg63
g59
sg56
(lp2228
g49
(g70
g51
NtRp2229
(dp2230
g54
(dp2231
g74
g75
ssg63
g2225
sg56
(lp2232
S'get_vars'
p2233
asbag49
(g70
g51
NtRp2234
(dp2235
g54
(dp2236
g81
g82
ssg63
g2225
sg56
(lp2237
S':'
asbag49
(g70
g51
NtRp2238
(dp2239
g54
(dp2240
sg63
g2225
sg56
(lp2241
g49
(g50
g51
NtRp2242
(dp2243
g54
(dp2244
g62
I5
ssg63
g2238
sg56
(lp2245
g49
(g58
g51
NtRp2246
(dp2247
g54
(dp2248
g62
I4
ssg63
Nsg56
(lp2249
sbasbasbasbag49
(g65
g51
NtRp2250
(dp2251
g54
(dp2252
sg63
g59
sg56
(lp2253
g49
(g70
g51
NtRp2254
(dp2255
g54
(dp2256
g74
g75
ssg63
g2250
sg56
(lp2257
S'global_settings'
p2258
asbag49
(g70
g51
NtRp2259
(dp2260
g54
(dp2261
g81
g82
ssg63
g2250
sg56
(lp2262
S':'
asbag49
(g70
g51
NtRp2263
(dp2264
g54
(dp2265
sg63
g2250
sg56
(lp2266
g49
(g50
g51
NtRp2267
(dp2268
g54
(dp2269
g62
I5
ssg63
g2263
sg56
(lp2270
g49
(g58
g51
NtRp2271
(dp2272
g54
(dp2273
g62
I4
ssg63
Nsg56
(lp2274
g49
(g65
g51
NtRp2275
(dp2276
g54
(dp2277
sg63
g2271
sg56
(lp2278
g49
(g70
g51
NtRp2279
(dp2280
g54
(dp2281
g74
g75
ssg63
g2275
sg56
(lp2282
g1134
asbag49
(g70
g51
NtRp2283
(dp2284
g54
(dp2285
g81
g82
ssg63
g2275
sg56
(lp2286
S':'
asbag49
(g70
g51
NtRp2287
(dp2288
g54
(dp2289
sg63
g2275
sg56
(lp2290
g49
(g50
g51
NtRp2291
(dp2292
g54
(dp2293
g62
I4
ssg63
g2287
sg56
(lp2294
S"set(['/Users/zamechek/Downloads/web2py/web2py.app/Contents/Resources/applications/examples/', '/Users/zamechek/Downloads/web2py/web2py.app/Contents/Resources/applications/hellow/', '/Users/zamechek/Downloads/web2py/web2py.app/Contents/Resources/applications/admin/', '/Users/zamechek/Downloads/web2py/web2py.app/Contents/Resources/applications/slots/', '/Users/zamechek/Downloads/web2py/web2py.app/Contents/Resources/applications/welcome/'])"
p2295
asbasbasbag49
(g65
g51
NtRp2296
(dp2297
g54
(dp2298
sg63
g2271
sg56
(lp2299
g49
(g70
g51
NtRp2300
(dp2301
g54
(dp2302
g74
g75
ssg63
g2296
sg56
(lp2303
g1156
asbag49
(g70
g51
NtRp2304
(dp2305
g54
(dp2306
g81
g82
ssg63
g2296
sg56
(lp2307
S':'
asbag49
(g70
g51
NtRp2308
(dp2309
g54
(dp2310
sg63
g2296
sg56
(lp2311
g49
(g50
g51
NtRp2312
(dp2313
g54
(dp2314
g62
I4
ssg63
g2308
sg56
(lp2315
g1169
asbasbasbag49
(g65
g51
NtRp2316
(dp2317
g54
(dp2318
sg63
g2271
sg56
(lp2319
g49
(g70
g51
NtRp2320
(dp2321
g54
(dp2322
g74
g75
ssg63
g2316
sg56
(lp2323
g1178
asbag49
(g70
g51
NtRp2324
(dp2325
g54
(dp2326
g81
g82
ssg63
g2316
sg56
(lp2327
S':'
asbag49
(g70
g51
NtRp2328
(dp2329
g54
(dp2330
sg63
g2316
sg56
(lp2331
g49
(g50
g51
NtRp2332
(dp2333
g54
(dp2334
g62
I4
ssg63
g2328
sg56
(lp2335
g49
(g58
g51
NtRp2336
(dp2337
g54
(dp2338
g62
I3
ssg63
Nsg56
(lp2339
sbasbasbasbag49
(g65
g51
NtRp2340
(dp2341
g54
(dp2342
sg63
g2271
sg56
(lp2343
g49
(g70
g51
NtRp2344
(dp2345
g54
(dp2346
g74
g75
ssg63
g2340
sg56
(lp2347
g1203
asbag49
(g70
g51
NtRp2348
(dp2349
g54
(dp2350
g81
g82
ssg63
g2340
sg56
(lp2351
S':'
asbag49
(g70
g51
NtRp2352
(dp2353
g54
(dp2354
sg63
g2340
sg56
(lp2355
g49
(g50
g51
NtRp2356
(dp2357
g54
(dp2358
g62
I4
ssg63
g2352
sg56
(lp2359
S"<Values at 0x32c8f58: {'verbose': False, 'ip': '127.0.0.1', 'with_scheduler': False, 'ips': ['130.91.151.157'], 'shutdown_timeout': 5, 'taskbar': False, 'port': 8000, 'maxthreads': None, 'softcron': False, 'server_name': 'hntvlan531.0924.wlan.wireless-pennnet.upenn.edu', 'bpython': False, 'nogui': False, 'pid_filename': 'httpserver.pid', 'extcron': False, 'runcron': False, 'run_system_tests': False, 'test': None, 'folder': '/Users/zamechek/Downloads/web2py/web2py.app/Contents/Resources', 'config': '', 'import_models': False, 'winservice': '', 'shell': None, 'run': '', 'log_filename': 'httpserver.log', 'debuglevel': 30, 'args': [''], 'socket_timeout': 5, 'ssl_ca_certificate': None, 'scheduler': None, 'profiler_filename': None, 'ssl_private_key': '', 'scheduler_groups': None, 'password': '<ask>', 'request_queue_size': 5, 'ssl_certificate': '', 'cronjob': False, 'numthreads': None, 'quiet': False, 'interfaces': None, 'minthreads': None, 'timeout': 10, 'plain': False, 'nobanner': False}>"
p2360
asbasbasbag49
(g65
g51
NtRp2361
(dp2362
g54
(dp2363
sg63
g2271
sg56
(lp2364
g49
(g70
g51
NtRp2365
(dp2366
g54
(dp2367
g74
g75
ssg63
g2361
sg56
(lp2368
g1225
asbag49
(g70
g51
NtRp2369
(dp2370
g54
(dp2371
g81
g82
ssg63
g2361
sg56
(lp2372
S':'
asbag49
(g70
g51
NtRp2373
(dp2374
g54
(dp2375
sg63
g2361
sg56
(lp2376
g49
(g50
g51
NtRp2377
(dp2378
g54
(dp2379
g62
I4
ssg63
g2373
sg56
(lp2380
S'set([])'
p2381
asbasbasbag49
(g65
g51
NtRp2382
(dp2383
g54
(dp2384
sg63
g2271
sg56
(lp2385
g49
(g70
g51
NtRp2386
(dp2387
g54
(dp2388
g74
g75
ssg63
g2382
sg56
(lp2389
g1247
asbag49
(g70
g51
NtRp2390
(dp2391
g54
(dp2392
g81
g82
ssg63
g2382
sg56
(lp2393
S':'
asbag49
(g70
g51
NtRp2394
(dp2395
g54
(dp2396
sg63
g2382
sg56
(lp2397
g49
(g50
g51
NtRp2398
(dp2399
g54
(dp2400
g62
I4
ssg63
g2394
sg56
(lp2401
g1260
asbasbasbag49
(g65
g51
NtRp2402
(dp2403
g54
(dp2404
sg63
g2271
sg56
(lp2405
g49
(g70
g51
NtRp2406
(dp2407
g54
(dp2408
g74
g75
ssg63
g2402
sg56
(lp2409
g1269
asbag49
(g70
g51
NtRp2410
(dp2411
g54
(dp2412
g81
g82
ssg63
g2402
sg56
(lp2413
S':'
asbag49
(g70
g51
NtRp2414
(dp2415
g54
(dp2416
sg63
g2402
sg56
(lp2417
g49
(g50
g51
NtRp2418
(dp2419
g54
(dp2420
g62
I4
ssg63
g2414
sg56
(lp2421
g1282
asbasbasbag49
(g65
g51
NtRp2422
(dp2423
g54
(dp2424
sg63
g2271
sg56
(lp2425
g49
(g70
g51
NtRp2426
(dp2427
g54
(dp2428
g74
g75
ssg63
g2422
sg56
(lp2429
g1489
asbag49
(g70
g51
NtRp2430
(dp2431
g54
(dp2432
g81
g82
ssg63
g2422
sg56
(lp2433
S':'
asbag49
(g70
g51
NtRp2434
(dp2435
g54
(dp2436
sg63
g2422
sg56
(lp2437
g49
(g50
g51
NtRp2438
(dp2439
g54
(dp2440
g62
I4
ssg63
g2434
sg56
(lp2441
g92
asbasbasbag49
(g65
g51
NtRp2442
(dp2443
g54
(dp2444
sg63
g2271
sg56
(lp2445
g49
(g70
g51
NtRp2446
(dp2447
g54
(dp2448
g74
g75
ssg63
g2442
sg56
(lp2449
g1510
asbag49
(g70
g51
NtRp2450
(dp2451
g54
(dp2452
g81
g82
ssg63
g2442
sg56
(lp2453
S':'
asbag49
(g70
g51
NtRp2454
(dp2455
g54
(dp2456
sg63
g2442
sg56
(lp2457
g49
(g50
g51
NtRp2458
(dp2459
g54
(dp2460
g62
I4
ssg63
g2454
sg56
(lp2461
g92
asbasbasbag49
(g65
g51
NtRp2462
(dp2463
g54
(dp2464
sg63
g2271
sg56
(lp2465
g49
(g70
g51
NtRp2466
(dp2467
g54
(dp2468
g74
g75
ssg63
g2462
sg56
(lp2469
g1531
asbag49
(g70
g51
NtRp2470
(dp2471
g54
(dp2472
g81
g82
ssg63
g2462
sg56
(lp2473
S':'
asbag49
(g70
g51
NtRp2474
(dp2475
g54
(dp2476
sg63
g2462
sg56
(lp2477
g49
(g50
g51
NtRp2478
(dp2479
g54
(dp2480
g62
I4
ssg63
g2474
sg56
(lp2481
g49
(g58
g51
NtRp2482
(dp2483
g54
(dp2484
g62
I3
ssg63
Nsg56
(lp2485
g49
(g65
g51
NtRp2486
(dp2487
g54
(dp2488
sg63
g2482
sg56
(lp2489
g49
(g70
g51
NtRp2490
(dp2491
g54
(dp2492
sg63
g2486
sg56
(lp2493
g49
(g50
g51
NtRp2494
(dp2495
g54
(dp2496
g62
I3
ssg63
g2490
sg56
(lp2497
g1560
asbasbasbag49
(g65
g51
NtRp2498
(dp2499
g54
(dp2500
sg63
g2482
sg56
(lp2501
g49
(g70
g51
NtRp2502
(dp2503
g54
(dp2504
sg63
g2498
sg56
(lp2505
g49
(g50
g51
NtRp2506
(dp2507
g54
(dp2508
g62
I3
ssg63
g2502
sg56
(lp2509
g1573
asbasbasbag49
(g65
g51
NtRp2510
(dp2511
g54
(dp2512
sg63
g2482
sg56
(lp2513
g49
(g70
g51
NtRp2514
(dp2515
g54
(dp2516
sg63
g2510
sg56
(lp2517
g49
(g50
g51
NtRp2518
(dp2519
g54
(dp2520
g62
I3
ssg63
g2514
sg56
(lp2521
g1586
asbasbasbag49
(g65
g51
NtRp2522
(dp2523
g54
(dp2524
sg63
g2482
sg56
(lp2525
g49
(g70
g51
NtRp2526
(dp2527
g54
(dp2528
sg63
g2522
sg56
(lp2529
g49
(g50
g51
NtRp2530
(dp2531
g54
(dp2532
g62
I3
ssg63
g2526
sg56
(lp2533
g1599
asbasbasbag49
(g65
g51
NtRp2534
(dp2535
g54
(dp2536
sg63
g2482
sg56
(lp2537
g49
(g70
g51
NtRp2538
(dp2539
g54
(dp2540
sg63
g2534
sg56
(lp2541
g49
(g50
g51
NtRp2542
(dp2543
g54
(dp2544
g62
I3
ssg63
g2538
sg56
(lp2545
g1612
asbasbasbasbasbasbasbag49
(g65
g51
NtRp2546
(dp2547
g54
(dp2548
sg63
g2271
sg56
(lp2549
g49
(g70
g51
NtRp2550
(dp2551
g54
(dp2552
g74
g75
ssg63
g2546
sg56
(lp2553
g1880
asbag49
(g70
g51
NtRp2554
(dp2555
g54
(dp2556
g81
g82
ssg63
g2546
sg56
(lp2557
S':'
asbag49
(g70
g51
NtRp2558
(dp2559
g54
(dp2560
sg63
g2546
sg56
(lp2561
g49
(g50
g51
NtRp2562
(dp2563
g54
(dp2564
g62
I4
ssg63
g2558
sg56
(lp2565
g49
(g58
g51
NtRp2566
(dp2567
g54
(dp2568
g62
I3
ssg63
Nsg56
(lp2569
g49
(g65
g51
NtRp2570
(dp2571
g54
(dp2572
sg63
g2566
sg56
(lp2573
g49
(g70
g51
NtRp2574
(dp2575
g54
(dp2576
sg63
g2570
sg56
(lp2577
g49
(g50
g51
NtRp2578
(dp2579
g54
(dp2580
g62
I3
ssg63
g2574
sg56
(lp2581
S'2'
asbasbasbag49
(g65
g51
NtRp2582
(dp2583
g54
(dp2584
sg63
g2566
sg56
(lp2585
g49
(g70
g51
NtRp2586
(dp2587
g54
(dp2588
sg63
g2582
sg56
(lp2589
g49
(g50
g51
NtRp2590
(dp2591
g54
(dp2592
g62
I3
ssg63
g2586
sg56
(lp2593
S'4'
asbasbasbag49
(g65
g51
NtRp2594
(dp2595
g54
(dp2596
sg63
g2566
sg56
(lp2597
g49
(g70
g51
NtRp2598
(dp2599
g54
(dp2600
sg63
g2594
sg56
(lp2601
g49
(g50
g51
NtRp2602
(dp2603
g54
(dp2604
g62
I3
ssg63
g2598
sg56
(lp2605
S'5'
asbasbasbag49
(g65
g51
NtRp2606
(dp2607
g54
(dp2608
sg63
g2566
sg56
(lp2609
g49
(g70
g51
NtRp2610
(dp2611
g54
(dp2612
sg63
g2606
sg56
(lp2613
g49
(g50
g51
NtRp2614
(dp2615
g54
(dp2616
g62
I3
ssg63
g2610
sg56
(lp2617
g1945
asbasbasbag49
(g65
g51
NtRp2618
(dp2619
g54
(dp2620
sg63
g2566
sg56
(lp2621
g49
(g70
g51
NtRp2622
(dp2623
g54
(dp2624
sg63
g2618
sg56
(lp2625
g49
(g50
g51
NtRp2626
(dp2627
g54
(dp2628
g62
I3
ssg63
g2622
sg56
(lp2629
S'datetime.datetime(2013, 3, 18, 22, 46, 22)'
p2630
asbasbasbasbasbasbasbasbasbasbasbag49
(g65
g51
NtRp2631
(dp2632
g54
(dp2633
sg63
g59
sg56
(lp2634
g49
(g70
g51
NtRp2635
(dp2636
g54
(dp2637
g74
g75
ssg63
g2631
sg56
(lp2638
S'is_https'
p2639
asbag49
(g70
g51
NtRp2640
(dp2641
g54
(dp2642
g81
g82
ssg63
g2631
sg56
(lp2643
S':'
asbag49
(g70
g51
NtRp2644
(dp2645
g54
(dp2646
sg63
g2631
sg56
(lp2647
g49
(g50
g51
NtRp2648
(dp2649
g54
(dp2650
g62
I5
ssg63
g2644
sg56
(lp2651
g92
asbasbasbag49
(g65
g51
NtRp2652
(dp2653
g54
(dp2654
sg63
g59
sg56
(lp2655
g49
(g70
g51
NtRp2656
(dp2657
g54
(dp2658
g74
g75
ssg63
g2652
sg56
(lp2659
S'is_local'
p2660
asbag49
(g70
g51
NtRp2661
(dp2662
g54
(dp2663
g81
g82
ssg63
g2652
sg56
(lp2664
S':'
asbag49
(g70
g51
NtRp2665
(dp2666
g54
(dp2667
sg63
g2652
sg56
(lp2668
g49
(g50
g51
NtRp2669
(dp2670
g54
(dp2671
g62
I5
ssg63
g2665
sg56
(lp2672
g1260
asbasbasbag49
(g65
g51
NtRp2673
(dp2674
g54
(dp2675
sg63
g59
sg56
(lp2676
g49
(g70
g51
NtRp2677
(dp2678
g54
(dp2679
g74
g75
ssg63
g2673
sg56
(lp2680
S'is_restful'
p2681
asbag49
(g70
g51
NtRp2682
(dp2683
g54
(dp2684
g81
g82
ssg63
g2673
sg56
(lp2685
S':'
asbag49
(g70
g51
NtRp2686
(dp2687
g54
(dp2688
sg63
g2673
sg56
(lp2689
g49
(g50
g51
NtRp2690
(dp2691
g54
(dp2692
g62
I5
ssg63
g2686
sg56
(lp2693
g92
asbasbasbag49
(g65
g51
NtRp2694
(dp2695
g54
(dp2696
sg63
g59
sg56
(lp2697
g49
(g70
g51
NtRp2698
(dp2699
g54
(dp2700
g74
g75
ssg63
g2694
sg56
(lp2701
S'now'
p2702
asbag49
(g70
g51
NtRp2703
(dp2704
g54
(dp2705
g81
g82
ssg63
g2694
sg56
(lp2706
S':'
asbag49
(g70
g51
NtRp2707
(dp2708
g54
(dp2709
sg63
g2694
sg56
(lp2710
g49
(g50
g51
NtRp2711
(dp2712
g54
(dp2713
g62
I5
ssg63
g2707
sg56
(lp2714
S'datetime.datetime(2013, 3, 25, 12, 8, 57, 511269)'
p2715
asbasbasbag49
(g65
g51
NtRp2716
(dp2717
g54
(dp2718
sg63
g59
sg56
(lp2719
g49
(g70
g51
NtRp2720
(dp2721
g54
(dp2722
g74
g75
ssg63
g2716
sg56
(lp2723
S'post_vars'
p2724
asbag49
(g70
g51
NtRp2725
(dp2726
g54
(dp2727
g81
g82
ssg63
g2716
sg56
(lp2728
S':'
asbag49
(g70
g51
NtRp2729
(dp2730
g54
(dp2731
sg63
g2716
sg56
(lp2732
g49
(g50
g51
NtRp2733
(dp2734
g54
(dp2735
g62
I5
ssg63
g2729
sg56
(lp2736
g49
(g58
g51
NtRp2737
(dp2738
g54
(dp2739
g62
I4
ssg63
Nsg56
(lp2740
sbasbasbasbag49
(g65
g51
NtRp2741
(dp2742
g54
(dp2743
sg63
g59
sg56
(lp2744
g49
(g70
g51
NtRp2745
(dp2746
g54
(dp2747
g74
g75
ssg63
g2741
sg56
(lp2748
S'raw_args'
p2749
asbag49
(g70
g51
NtRp2750
(dp2751
g54
(dp2752
g81
g82
ssg63
g2741
sg56
(lp2753
S':'
asbag49
(g70
g51
NtRp2754
(dp2755
g54
(dp2756
sg63
g2741
sg56
(lp2757
g49
(g50
g51
NtRp2758
(dp2759
g54
(dp2760
g62
I5
ssg63
g2754
sg56
(lp2761
S'1'
asbasbasbag49
(g65
g51
NtRp2762
(dp2763
g54
(dp2764
sg63
g59
sg56
(lp2765
g49
(g70
g51
NtRp2766
(dp2767
g54
(dp2768
g74
g75
ssg63
g2762
sg56
(lp2769
S'raw_extension'
p2770
asbag49
(g70
g51
NtRp2771
(dp2772
g54
(dp2773
g81
g82
ssg63
g2762
sg56
(lp2774
S':'
asbag49
(g70
g51
NtRp2775
(dp2776
g54
(dp2777
sg63
g2762
sg56
(lp2778
g49
(g50
g51
NtRp2779
(dp2780
g54
(dp2781
g62
I5
ssg63
g2775
sg56
(lp2782
S'None'
p2783
asbasbasbag49
(g65
g51
NtRp2784
(dp2785
g54
(dp2786
sg63
g59
sg56
(lp2787
g49
(g70
g51
NtRp2788
(dp2789
g54
(dp2790
g74
g75
ssg63
g2784
sg56
(lp2791
S'url'
p2792
asbag49
(g70
g51
NtRp2793
(dp2794
g54
(dp2795
g81
g82
ssg63
g2784
sg56
(lp2796
S':'
asbag49
(g70
g51
NtRp2797
(dp2798
g54
(dp2799
sg63
g2784
sg56
(lp2800
g49
(g50
g51
NtRp2801
(dp2802
g54
(dp2803
g62
I5
ssg63
g2797
sg56
(lp2804
g1634
asbasbasbag49
(g65
g51
NtRp2805
(dp2806
g54
(dp2807
sg63
g59
sg56
(lp2808
g49
(g70
g51
NtRp2809
(dp2810
g54
(dp2811
g74
g75
ssg63
g2805
sg56
(lp2812
S'utcnow'
p2813
asbag49
(g70
g51
NtRp2814
(dp2815
g54
(dp2816
g81
g82
ssg63
g2805
sg56
(lp2817
S':'
asbag49
(g70
g51
NtRp2818
(dp2819
g54
(dp2820
sg63
g2805
sg56
(lp2821
g49
(g50
g51
NtRp2822
(dp2823
g54
(dp2824
g62
I5
ssg63
g2818
sg56
(lp2825
S'datetime.datetime(2013, 3, 25, 16, 8, 57, 511284)'
p2826
asbasbasbag49
(g65
g51
NtRp2827
(dp2828
g54
(dp2829
sg63
g59
sg56
(lp2830
g49
(g70
g51
NtRp2831
(dp2832
g54
(dp2833
g74
g75
ssg63
g2827
sg56
(lp2834
S'uuid'
p2835
asbag49
(g70
g51
NtRp2836
(dp2837
g54
(dp2838
g81
g82
ssg63
g2827
sg56
(lp2839
S':'
asbag49
(g70
g51
NtRp2840
(dp2841
g54
(dp2842
sg63
g2827
sg56
(lp2843
g49
(g50
g51
NtRp2844
(dp2845
g54
(dp2846
g62
I5
ssg63
g2840
sg56
(lp2847
S'hellow/127.0.0.1.2013-03-25.12-08-57.202a6abc-6582-49a2-894e-2c114d559bd5'
p2848
asbasbasbag49
(g65
g51
NtRp2849
(dp2850
g54
(dp2851
sg63
g59
sg56
(lp2852
g49
(g70
g51
NtRp2853
(dp2854
g54
(dp2855
g74
g75
ssg63
g2849
sg56
(lp2856
S'vars'
p2857
asbag49
(g70
g51
NtRp2858
(dp2859
g54
(dp2860
g81
g82
ssg63
g2849
sg56
(lp2861
S':'
asbag49
(g70
g51
NtRp2862
(dp2863
g54
(dp2864
sg63
g2849
sg56
(lp2865
g49
(g50
g51
NtRp2866
(dp2867
g54
(dp2868
g62
I5
ssg63
g2862
sg56
(lp2869
g49
(g58
g51
NtRp2870
(dp2871
g54
(dp2872
g62
I4
ssg63
Nsg56
(lp2873
sbasbasbasbag49
(g65
g51
NtRp2874
(dp2875
g54
(dp2876
sg63
g59
sg56
(lp2877
g49
(g70
g51
NtRp2878
(dp2879
g54
(dp2880
g74
g75
ssg63
g2874
sg56
(lp2881
S'wsgi'
p2882
asbag49
(g70
g51
NtRp2883
(dp2884
g54
(dp2885
g81
g82
ssg63
g2874
sg56
(lp2886
S':'
asbag49
(g70
g51
NtRp2887
(dp2888
g54
(dp2889
sg63
g2874
sg56
(lp2890
g49
(g50
g51
NtRp2891
(dp2892
g54
(dp2893
g62
I5
ssg63
g2887
sg56
(lp2894
g49
(g58
g51
NtRp2895
(dp2896
g54
(dp2897
g62
I4
ssg63
Nsg56
(lp2898
g49
(g65
g51
NtRp2899
(dp2900
g54
(dp2901
sg63
g2895
sg56
(lp2902
g49
(g70
g51
NtRp2903
(dp2904
g54
(dp2905
g74
g75
ssg63
g2899
sg56
(lp2906
S'environ'
p2907
asbag49
(g70
g51
NtRp2908
(dp2909
g54
(dp2910
g81
g82
ssg63
g2899
sg56
(lp2911
S':'
asbag49
(g70
g51
NtRp2912
(dp2913
g54
(dp2914
sg63
g2899
sg56
(lp2915
g49
(g50
g51
NtRp2916
(dp2917
g54
(dp2918
g62
I4
ssg63
g2912
sg56
(lp2919
g49
(g58
g51
NtRp2920
(dp2921
g54
(dp2922
g62
I3
ssg63
Nsg56
(lp2923
g49
(g65
g51
NtRp2924
(dp2925
g54
(dp2926
sg63
g2920
sg56
(lp2927
g49
(g70
g51
NtRp2928
(dp2929
g54
(dp2930
g74
g75
ssg63
g2924
sg56
(lp2931
S'HTTP_ACCEPT'
p2932
asbag49
(g70
g51
NtRp2933
(dp2934
g54
(dp2935
g81
g82
ssg63
g2924
sg56
(lp2936
S':'
asbag49
(g70
g51
NtRp2937
(dp2938
g54
(dp2939
sg63
g2924
sg56
(lp2940
g49
(g50
g51
NtRp2941
(dp2942
g54
(dp2943
g62
I3
ssg63
g2937
sg56
(lp2944
g1304
asbasbasbag49
(g65
g51
NtRp2945
(dp2946
g54
(dp2947
sg63
g2920
sg56
(lp2948
g49
(g70
g51
NtRp2949
(dp2950
g54
(dp2951
g74
g75
ssg63
g2945
sg56
(lp2952
S'HTTP_ACCEPT_CHARSET'
p2953
asbag49
(g70
g51
NtRp2954
(dp2955
g54
(dp2956
g81
g82
ssg63
g2945
sg56
(lp2957
S':'
asbag49
(g70
g51
NtRp2958
(dp2959
g54
(dp2960
sg63
g2945
sg56
(lp2961
g49
(g50
g51
NtRp2962
(dp2963
g54
(dp2964
g62
I3
ssg63
g2958
sg56
(lp2965
g1326
asbasbasbag49
(g65
g51
NtRp2966
(dp2967
g54
(dp2968
sg63
g2920
sg56
(lp2969
g49
(g70
g51
NtRp2970
(dp2971
g54
(dp2972
g74
g75
ssg63
g2966
sg56
(lp2973
S'HTTP_ACCEPT_ENCODING'
p2974
asbag49
(g70
g51
NtRp2975
(dp2976
g54
(dp2977
g81
g82
ssg63
g2966
sg56
(lp2978
S':'
asbag49
(g70
g51
NtRp2979
(dp2980
g54
(dp2981
sg63
g2966
sg56
(lp2982
g49
(g50
g51
NtRp2983
(dp2984
g54
(dp2985
g62
I3
ssg63
g2979
sg56
(lp2986
g1348
asbasbasbag49
(g65
g51
NtRp2987
(dp2988
g54
(dp2989
sg63
g2920
sg56
(lp2990
g49
(g70
g51
NtRp2991
(dp2992
g54
(dp2993
g74
g75
ssg63
g2987
sg56
(lp2994
S'HTTP_ACCEPT_LANGUAGE'
p2995
asbag49
(g70
g51
NtRp2996
(dp2997
g54
(dp2998
g81
g82
ssg63
g2987
sg56
(lp2999
S':'
asbag49
(g70
g51
NtRp3000
(dp3001
g54
(dp3002
sg63
g2987
sg56
(lp3003
g49
(g50
g51
NtRp3004
(dp3005
g54
(dp3006
g62
I3
ssg63
g3000
sg56
(lp3007
g1370
asbasbasbag49
(g65
g51
NtRp3008
(dp3009
g54
(dp3010
sg63
g2920
sg56
(lp3011
g49
(g70
g51
NtRp3012
(dp3013
g54
(dp3014
g74
g75
ssg63
g3008
sg56
(lp3015
S'HTTP_CACHE_CONTROL'
p3016
asbag49
(g70
g51
NtRp3017
(dp3018
g54
(dp3019
g81
g82
ssg63
g3008
sg56
(lp3020
S':'
asbag49
(g70
g51
NtRp3021
(dp3022
g54
(dp3023
sg63
g3008
sg56
(lp3024
g49
(g50
g51
NtRp3025
(dp3026
g54
(dp3027
g62
I3
ssg63
g3021
sg56
(lp3028
g1392
asbasbasbag49
(g65
g51
NtRp3029
(dp3030
g54
(dp3031
sg63
g2920
sg56
(lp3032
g49
(g70
g51
NtRp3033
(dp3034
g54
(dp3035
g74
g75
ssg63
g3029
sg56
(lp3036
S'HTTP_CONNECTION'
p3037
asbag49
(g70
g51
NtRp3038
(dp3039
g54
(dp3040
g81
g82
ssg63
g3029
sg56
(lp3041
S':'
asbag49
(g70
g51
NtRp3042
(dp3043
g54
(dp3044
sg63
g3029
sg56
(lp3045
g49
(g50
g51
NtRp3046
(dp3047
g54
(dp3048
g62
I3
ssg63
g3042
sg56
(lp3049
g1414
asbasbasbag49
(g65
g51
NtRp3050
(dp3051
g54
(dp3052
sg63
g2920
sg56
(lp3053
g49
(g70
g51
NtRp3054
(dp3055
g54
(dp3056
g74
g75
ssg63
g3050
sg56
(lp3057
S'HTTP_COOKIE'
p3058
asbag49
(g70
g51
NtRp3059
(dp3060
g54
(dp3061
g81
g82
ssg63
g3050
sg56
(lp3062
S':'
asbag49
(g70
g51
NtRp3063
(dp3064
g54
(dp3065
sg63
g3050
sg56
(lp3066
g49
(g50
g51
NtRp3067
(dp3068
g54
(dp3069
g62
I3
ssg63
g3063
sg56
(lp3070
g1436
asbasbasbag49
(g65
g51
NtRp3071
(dp3072
g54
(dp3073
sg63
g2920
sg56
(lp3074
g49
(g70
g51
NtRp3075
(dp3076
g54
(dp3077
g74
g75
ssg63
g3071
sg56
(lp3078
S'HTTP_HOST'
p3079
asbag49
(g70
g51
NtRp3080
(dp3081
g54
(dp3082
g81
g82
ssg63
g3071
sg56
(lp3083
S':'
asbag49
(g70
g51
NtRp3084
(dp3085
g54
(dp3086
sg63
g3071
sg56
(lp3087
g49
(g50
g51
NtRp3088
(dp3089
g54
(dp3090
g62
I3
ssg63
g3084
sg56
(lp3091
g1458
asbasbasbag49
(g65
g51
NtRp3092
(dp3093
g54
(dp3094
sg63
g2920
sg56
(lp3095
g49
(g70
g51
NtRp3096
(dp3097
g54
(dp3098
g74
g75
ssg63
g3092
sg56
(lp3099
S'HTTP_USER_AGENT'
p3100
asbag49
(g70
g51
NtRp3101
(dp3102
g54
(dp3103
g81
g82
ssg63
g3092
sg56
(lp3104
S':'
asbag49
(g70
g51
NtRp3105
(dp3106
g54
(dp3107
sg63
g3092
sg56
(lp3108
g49
(g50
g51
NtRp3109
(dp3110
g54
(dp3111
g62
I3
ssg63
g3105
sg56
(lp3112
g1480
asbasbasbag49
(g65
g51
NtRp3113
(dp3114
g54
(dp3115
sg63
g2920
sg56
(lp3116
g49
(g70
g51
NtRp3117
(dp3118
g54
(dp3119
g74
g75
ssg63
g3113
sg56
(lp3120
S'PATH_INFO'
p3121
asbag49
(g70
g51
NtRp3122
(dp3123
g54
(dp3124
g81
g82
ssg63
g3113
sg56
(lp3125
S':'
asbag49
(g70
g51
NtRp3126
(dp3127
g54
(dp3128
sg63
g3113
sg56
(lp3129
g49
(g50
g51
NtRp3130
(dp3131
g54
(dp3132
g62
I3
ssg63
g3126
sg56
(lp3133
g1634
asbasbasbag49
(g65
g51
NtRp3134
(dp3135
g54
(dp3136
sg63
g2920
sg56
(lp3137
g49
(g70
g51
NtRp3138
(dp3139
g54
(dp3140
g74
g75
ssg63
g3134
sg56
(lp3141
S'QUERY_STRING'
p3142
asbag49
(g70
g51
NtRp3143
(dp3144
g54
(dp3145
g81
g82
ssg63
g3134
sg56
(lp3146
S':'
asbag49
(g70
g51
NtRp3147
(dp3148
g54
(dp3149
sg63
g3134
sg56
(lp3150
g49
(g50
g51
NtRp3151
(dp3152
g54
(dp3153
g62
I3
ssg63
g3147
sg56
(lp3154
S''
asbasbasbag49
(g65
g51
NtRp3155
(dp3156
g54
(dp3157
sg63
g2920
sg56
(lp3158
g49
(g70
g51
NtRp3159
(dp3160
g54
(dp3161
g74
g75
ssg63
g3155
sg56
(lp3162
S'REMOTE_ADDR'
p3163
asbag49
(g70
g51
NtRp3164
(dp3165
g54
(dp3166
g81
g82
ssg63
g3155
sg56
(lp3167
S':'
asbag49
(g70
g51
NtRp3168
(dp3169
g54
(dp3170
sg63
g3155
sg56
(lp3171
g49
(g50
g51
NtRp3172
(dp3173
g54
(dp3174
g62
I3
ssg63
g3168
sg56
(lp3175
g216
asbasbasbag49
(g65
g51
NtRp3176
(dp3177
g54
(dp3178
sg63
g2920
sg56
(lp3179
g49
(g70
g51
NtRp3180
(dp3181
g54
(dp3182
g74
g75
ssg63
g3176
sg56
(lp3183
S'REMOTE_PORT'
p3184
asbag49
(g70
g51
NtRp3185
(dp3186
g54
(dp3187
g81
g82
ssg63
g3176
sg56
(lp3188
S':'
asbag49
(g70
g51
NtRp3189
(dp3190
g54
(dp3191
sg63
g3176
sg56
(lp3192
g49
(g50
g51
NtRp3193
(dp3194
g54
(dp3195
g62
I3
ssg63
g3189
sg56
(lp3196
g1698
asbasbasbag49
(g65
g51
NtRp3197
(dp3198
g54
(dp3199
sg63
g2920
sg56
(lp3200
g49
(g70
g51
NtRp3201
(dp3202
g54
(dp3203
g74
g75
ssg63
g3197
sg56
(lp3204
S'REQUEST_METHOD'
p3205
asbag49
(g70
g51
NtRp3206
(dp3207
g54
(dp3208
g81
g82
ssg63
g3197
sg56
(lp3209
S':'
asbag49
(g70
g51
NtRp3210
(dp3211
g54
(dp3212
sg63
g3197
sg56
(lp3213
g49
(g50
g51
NtRp3214
(dp3215
g54
(dp3216
g62
I3
ssg63
g3210
sg56
(lp3217
g1720
asbasbasbag49
(g65
g51
NtRp3218
(dp3219
g54
(dp3220
sg63
g2920
sg56
(lp3221
g49
(g70
g51
NtRp3222
(dp3223
g54
(dp3224
g74
g75
ssg63
g3218
sg56
(lp3225
S'REQUEST_URI'
p3226
asbag49
(g70
g51
NtRp3227
(dp3228
g54
(dp3229
g81
g82
ssg63
g3218
sg56
(lp3230
S':'
asbag49
(g70
g51
NtRp3231
(dp3232
g54
(dp3233
sg63
g3218
sg56
(lp3234
g49
(g50
g51
NtRp3235
(dp3236
g54
(dp3237
g62
I3
ssg63
g3231
sg56
(lp3238
g1634
asbasbasbag49
(g65
g51
NtRp3239
(dp3240
g54
(dp3241
sg63
g2920
sg56
(lp3242
g49
(g70
g51
NtRp3243
(dp3244
g54
(dp3245
g74
g75
ssg63
g3239
sg56
(lp3246
S'SCRIPT_NAME'
p3247
asbag49
(g70
g51
NtRp3248
(dp3249
g54
(dp3250
g81
g82
ssg63
g3239
sg56
(lp3251
S':'
asbag49
(g70
g51
NtRp3252
(dp3253
g54
(dp3254
sg63
g3239
sg56
(lp3255
g49
(g50
g51
NtRp3256
(dp3257
g54
(dp3258
g62
I3
ssg63
g3252
sg56
(lp3259
S''
asbasbasbag49
(g65
g51
NtRp3260
(dp3261
g54
(dp3262
sg63
g2920
sg56
(lp3263
g49
(g70
g51
NtRp3264
(dp3265
g54
(dp3266
g74
g75
ssg63
g3260
sg56
(lp3267
S'SERVER_NAME'
p3268
asbag49
(g70
g51
NtRp3269
(dp3270
g54
(dp3271
g81
g82
ssg63
g3260
sg56
(lp3272
S':'
asbag49
(g70
g51
NtRp3273
(dp3274
g54
(dp3275
sg63
g3260
sg56
(lp3276
g49
(g50
g51
NtRp3277
(dp3278
g54
(dp3279
g62
I3
ssg63
g3273
sg56
(lp3280
g1784
asbasbasbag49
(g65
g51
NtRp3281
(dp3282
g54
(dp3283
sg63
g2920
sg56
(lp3284
g49
(g70
g51
NtRp3285
(dp3286
g54
(dp3287
g74
g75
ssg63
g3281
sg56
(lp3288
S'SERVER_PORT'
p3289
asbag49
(g70
g51
NtRp3290
(dp3291
g54
(dp3292
g81
g82
ssg63
g3281
sg56
(lp3293
S':'
asbag49
(g70
g51
NtRp3294
(dp3295
g54
(dp3296
sg63
g3281
sg56
(lp3297
g49
(g50
g51
NtRp3298
(dp3299
g54
(dp3300
g62
I3
ssg63
g3294
sg56
(lp3301
g1806
asbasbasbag49
(g65
g51
NtRp3302
(dp3303
g54
(dp3304
sg63
g2920
sg56
(lp3305
g49
(g70
g51
NtRp3306
(dp3307
g54
(dp3308
g74
g75
ssg63
g3302
sg56
(lp3309
S'SERVER_PROTOCOL'
p3310
asbag49
(g70
g51
NtRp3311
(dp3312
g54
(dp3313
g81
g82
ssg63
g3302
sg56
(lp3314
S':'
asbag49
(g70
g51
NtRp3315
(dp3316
g54
(dp3317
sg63
g3302
sg56
(lp3318
g49
(g50
g51
NtRp3319
(dp3320
g54
(dp3321
g62
I3
ssg63
g3315
sg56
(lp3322
g1828
asbasbasbag49
(g65
g51
NtRp3323
(dp3324
g54
(dp3325
sg63
g2920
sg56
(lp3326
g49
(g70
g51
NtRp3327
(dp3328
g54
(dp3329
g74
g75
ssg63
g3323
sg56
(lp3330
S'SERVER_SOFTWARE'
p3331
asbag49
(g70
g51
NtRp3332
(dp3333
g54
(dp3334
g81
g82
ssg63
g3323
sg56
(lp3335
S':'
asbag49
(g70
g51
NtRp3336
(dp3337
g54
(dp3338
sg63
g3323
sg56
(lp3339
g49
(g50
g51
NtRp3340
(dp3341
g54
(dp3342
g62
I3
ssg63
g3336
sg56
(lp3343
g1850
asbasbasbag49
(g65
g51
NtRp3344
(dp3345
g54
(dp3346
sg63
g2920
sg56
(lp3347
g49
(g70
g51
NtRp3348
(dp3349
g54
(dp3350
g74
g75
ssg63
g3344
sg56
(lp3351
S'wsgi.errors'
p3352
asbag49
(g70
g51
NtRp3353
(dp3354
g54
(dp3355
g81
g82
ssg63
g3344
sg56
(lp3356
S':'
asbag49
(g70
g51
NtRp3357
(dp3358
g54
(dp3359
sg63
g3344
sg56
(lp3360
g49
(g50
g51
NtRp3361
(dp3362
g54
(dp3363
g62
I3
ssg63
g3357
sg56
(lp3364
S"<open file '<stderr>', mode 'w' at 0x540b0>"
p3365
asbasbasbag49
(g65
g51
NtRp3366
(dp3367
g54
(dp3368
sg63
g2920
sg56
(lp3369
g49
(g70
g51
NtRp3370
(dp3371
g54
(dp3372
g74
g75
ssg63
g3366
sg56
(lp3373
S'wsgi.file_wrapper'
p3374
asbag49
(g70
g51
NtRp3375
(dp3376
g54
(dp3377
g81
g82
ssg63
g3366
sg56
(lp3378
S':'
asbag49
(g70
g51
NtRp3379
(dp3380
g54
(dp3381
sg63
g3366
sg56
(lp3382
g49
(g50
g51
NtRp3383
(dp3384
g54
(dp3385
g62
I3
ssg63
g3379
sg56
(lp3386
S'<class wsgiref.util.FileWrapper at 0x329d060>'
p3387
asbasbasbag49
(g65
g51
NtRp3388
(dp3389
g54
(dp3390
sg63
g2920
sg56
(lp3391
g49
(g70
g51
NtRp3392
(dp3393
g54
(dp3394
g74
g75
ssg63
g3388
sg56
(lp3395
S'wsgi.input'
p3396
asbag49
(g70
g51
NtRp3397
(dp3398
g54
(dp3399
g81
g82
ssg63
g3388
sg56
(lp3400
S':'
asbag49
(g70
g51
NtRp3401
(dp3402
g54
(dp3403
sg63
g3388
sg56
(lp3404
g49
(g50
g51
NtRp3405
(dp3406
g54
(dp3407
g62
I3
ssg63
g3401
sg56
(lp3408
S'<cStringIO.StringO object at 0xa93b380>'
p3409
asbasbasbag49
(g65
g51
NtRp3410
(dp3411
g54
(dp3412
sg63
g2920
sg56
(lp3413
g49
(g70
g51
NtRp3414
(dp3415
g54
(dp3416
g74
g75
ssg63
g3410
sg56
(lp3417
S'wsgi.multiprocess'
p3418
asbag49
(g70
g51
NtRp3419
(dp3420
g54
(dp3421
g81
g82
ssg63
g3410
sg56
(lp3422
S':'
asbag49
(g70
g51
NtRp3423
(dp3424
g54
(dp3425
sg63
g3410
sg56
(lp3426
g49
(g50
g51
NtRp3427
(dp3428
g54
(dp3429
g62
I3
ssg63
g3423
sg56
(lp3430
g92
asbasbasbag49
(g65
g51
NtRp3431
(dp3432
g54
(dp3433
sg63
g2920
sg56
(lp3434
g49
(g70
g51
NtRp3435
(dp3436
g54
(dp3437
g74
g75
ssg63
g3431
sg56
(lp3438
S'wsgi.multithread'
p3439
asbag49
(g70
g51
NtRp3440
(dp3441
g54
(dp3442
g81
g82
ssg63
g3431
sg56
(lp3443
S':'
asbag49
(g70
g51
NtRp3444
(dp3445
g54
(dp3446
sg63
g3431
sg56
(lp3447
g49
(g50
g51
NtRp3448
(dp3449
g54
(dp3450
g62
I3
ssg63
g3444
sg56
(lp3451
g1260
asbasbasbag49
(g65
g51
NtRp3452
(dp3453
g54
(dp3454
sg63
g2920
sg56
(lp3455
g49
(g70
g51
NtRp3456
(dp3457
g54
(dp3458
g74
g75
ssg63
g3452
sg56
(lp3459
S'wsgi.run_once'
p3460
asbag49
(g70
g51
NtRp3461
(dp3462
g54
(dp3463
g81
g82
ssg63
g3452
sg56
(lp3464
S':'
asbag49
(g70
g51
NtRp3465
(dp3466
g54
(dp3467
sg63
g3452
sg56
(lp3468
g49
(g50
g51
NtRp3469
(dp3470
g54
(dp3471
g62
I3
ssg63
g3465
sg56
(lp3472
g92
asbasbasbag49
(g65
g51
NtRp3473
(dp3474
g54
(dp3475
sg63
g2920
sg56
(lp3476
g49
(g70
g51
NtRp3477
(dp3478
g54
(dp3479
g74
g75
ssg63
g3473
sg56
(lp3480
S'wsgi.url_scheme'
p3481
asbag49
(g70
g51
NtRp3482
(dp3483
g54
(dp3484
g81
g82
ssg63
g3473
sg56
(lp3485
S':'
asbag49
(g70
g51
NtRp3486
(dp3487
g54
(dp3488
sg63
g3473
sg56
(lp3489
g49
(g50
g51
NtRp3490
(dp3491
g54
(dp3492
g62
I3
ssg63
g3486
sg56
(lp3493
g2109
asbasbasbag49
(g65
g51
NtRp3494
(dp3495
g54
(dp3496
sg63
g2920
sg56
(lp3497
g49
(g70
g51
NtRp3498
(dp3499
g54
(dp3500
g74
g75
ssg63
g3494
sg56
(lp3501
S'wsgi.version'
p3502
asbag49
(g70
g51
NtRp3503
(dp3504
g54
(dp3505
g81
g82
ssg63
g3494
sg56
(lp3506
S':'
asbag49
(g70
g51
NtRp3507
(dp3508
g54
(dp3509
sg63
g3494
sg56
(lp3510
g49
(g50
g51
NtRp3511
(dp3512
g54
(dp3513
g62
I3
ssg63
g3507
sg56
(lp3514
S'1'
asbasbasbasbasbasbasbasbasbasbasbasbasbsS'frames'
p3515
(lp3516
(dp3517
S'file'
p3518
S'/home/mdipierro/web2py/gluon/restricted.py'
p3519
sS'dump'
p3520
(dp3521
sS'lnum'
p3522
I212
sS'lines'
p3523
(dp3524
sS'call'
p3525
S'(code=\'# coding: utf8\\n# try something like\\nimport rando..."not win"\\n\\nresponse._vars=response._caller(show)\\n\', environment={\'A\': <class \'gluon.html.A\'>, \'Auth\': <class \'gluon.tools.Auth\'>, \'B\': <class \'gluon.html.B\'>, \'BEAUTIFY\': <class \'gluon.html.BEAUTIFY\'>, \'BODY\': <class \'gluon.html.BODY\'>, \'BR\': <class \'gluon.html.BR\'>, \'BUTTON\': <class \'gluon.html.BUTTON\'>, \'CAT\': <class \'gluon.html.CAT\'>, \'CENTER\': <class \'gluon.html.CENTER\'>, \'CLEANUP\': <class \'gluon.validators.CLEANUP\'>, ...}, layer=\'/Users/zamechek/Downloads/web2py/web2py.app/Cont...Resources/applications/hellow/controllers/slot.py\')'
p3526
sS'func'
p3527
S'restricted'
p3528
sa(dp3529
g3518
S'/Users/zamechek/Downloads/web2py/web2py.app/Contents/Resources/applications/hellow/controllers/slot.py'
p3530
sg3520
(dp3531
sg3522
I17
sg3523
(dp3532
I6
S'def show():'
p3533
sI7
S'    id = request.args[0]'
p3534
sI8
S'    slot = db.slot(id)'
p3535
sI9
S'    return isAWinner()'
p3536
sI10
S''
sI11
S''
sI12
S'def isAWinner(self):'
p3537
sI13
S'    if random.randomint(10) < self.odd:'
p3538
sI14
S'        return "win"'
p3539
sI15
S'    else: return "not win"'
p3540
ssg3525
S'()'
p3541
sg3527
S'<module>'
p3542
sa(dp3543
g3518
S'/home/mdipierro/web2py/gluon/globals.py'
p3544
sg3520
(dp3545
sg3522
I193
sg3523
(dp3546
sg3525
S'(f=<function show at 0x33bbd30>)'
p3547
sg3527
S'<lambda>'
p3548
sa(dp3549
g3518
S'/Users/zamechek/Downloads/web2py/web2py.app/Contents/Resources/applications/hellow/controllers/slot.py'
p3550
sg3520
(dp3551
sg3522
I9
sg3523
(dp3552
I4
S'def index(): return dict(message="hello from slot.py")'
p3553
sI5
S''
sI6
S'def show():'
p3554
sI7
S'    id = request.args[0]'
p3555
sI8
S'    slot = db.slot(id)'
p3556
sI9
S'    return isAWinner()'
p3557
sI10
S''
sI11
S''
sI12
S'def isAWinner(self):'
p3558
sI13
S'    if random.randomint(10) < self.odd:'
p3559
ssg3525
S'()'
p3560
sg3527
S'show'
p3561
sasS'pyver'
p3562
S'Python 2.5.1: /Users/zamechek/Downloads/web2py/web2py.app/Contents/MacOS/python'
p3563
sS'session'
p3564
g49
(g50
g51
NtRp3565
(dp3566
g54
(dp3567
sg56
(lp3568
g49
(g58
g51
NtRp3569
(dp3570
g54
(dp3571
g62
I5
ssg63
Nsg56
(lp3572
g49
(g65
g51
NtRp3573
(dp3574
g54
(dp3575
sg63
g3569
sg56
(lp3576
g49
(g70
g51
NtRp3577
(dp3578
g54
(dp3579
g74
g75
ssg63
g3573
sg56
(lp3580
S'last_orderby'
p3581
asbag49
(g70
g51
NtRp3582
(dp3583
g54
(dp3584
g81
g82
ssg63
g3573
sg56
(lp3585
S':'
asbag49
(g70
g51
NtRp3586
(dp3587
g54
(dp3588
sg63
g3573
sg56
(lp3589
g49
(g50
g51
NtRp3590
(dp3591
g54
(dp3592
g62
I5
ssg63
g3586
sg56
(lp3593
S'None'
p3594
asbasbasbag49
(g65
g51
NtRp3595
(dp3596
g54
(dp3597
sg63
g3569
sg56
(lp3598
g49
(g70
g51
NtRp3599
(dp3600
g54
(dp3601
g74
g75
ssg63
g3595
sg56
(lp3602
S'last_query'
p3603
asbag49
(g70
g51
NtRp3604
(dp3605
g54
(dp3606
g81
g82
ssg63
g3595
sg56
(lp3607
S':'
asbag49
(g70
g51
NtRp3608
(dp3609
g54
(dp3610
sg63
g3595
sg56
(lp3611
g49
(g50
g51
NtRp3612
(dp3613
g54
(dp3614
g62
I5
ssg63
g3608
sg56
(lp3615
S'db.slot.id>0'
p3616
asbasbasbasbasbsS'etype'
p3617
S"<type 'exceptions.TypeError'>"
p3618
sS'date'
p3619
S'Mon Mar 25 12:08:57 2013'
p3620
sS'response'
p3621
g49
(g50
g51
NtRp3622
(dp3623
g54
(dp3624
sg56
(lp3625
g49
(g58
g51
NtRp3626
(dp3627
g54
(dp3628
g62
I5
ssg63
Nsg56
(lp3629
g49
(g65
g51
NtRp3630
(dp3631
g54
(dp3632
sg63
g3626
sg56
(lp3633
g49
(g70
g51
NtRp3634
(dp3635
g54
(dp3636
g74
g75
ssg63
g3630
sg56
(lp3637
g159
asbag49
(g70
g51
NtRp3638
(dp3639
g54
(dp3640
g81
g82
ssg63
g3630
sg56
(lp3641
S':'
asbag49
(g70
g51
NtRp3642
(dp3643
g54
(dp3644
sg63
g3630
sg56
(lp3645
g49
(g50
g51
NtRp3646
(dp3647
g54
(dp3648
g62
I5
ssg63
g3642
sg56
(lp3649
S'<cStringIO.StringO object at 0xb45d120>'
p3650
asbasbasbag49
(g65
g51
NtRp3651
(dp3652
g54
(dp3653
sg63
g3626
sg56
(lp3654
g49
(g70
g51
NtRp3655
(dp3656
g54
(dp3657
g74
g75
ssg63
g3651
sg56
(lp3658
g247
asbag49
(g70
g51
NtRp3659
(dp3660
g54
(dp3661
g81
g82
ssg63
g3651
sg56
(lp3662
S':'
asbag49
(g70
g51
NtRp3663
(dp3664
g54
(dp3665
sg63
g3651
sg56
(lp3666
g49
(g50
g51
NtRp3667
(dp3668
g54
(dp3669
g62
I5
ssg63
g3663
sg56
(lp3670
g49
(g58
g51
NtRp3671
(dp3672
g54
(dp3673
g62
I4
ssg63
Nsg56
(lp3674
g49
(g65
g51
NtRp3675
(dp3676
g54
(dp3677
sg63
g3671
sg56
(lp3678
g49
(g70
g51
NtRp3679
(dp3680
g54
(dp3681
g74
g75
ssg63
g3675
sg56
(lp3682
S'session_id_hellow'
p3683
asbag49
(g70
g51
NtRp3684
(dp3685
g54
(dp3686
g81
g82
ssg63
g3675
sg56
(lp3687
S':'
asbag49
(g70
g51
NtRp3688
(dp3689
g54
(dp3690
sg63
g3675
sg56
(lp3691
g49
(g50
g51
NtRp3692
(dp3693
g54
(dp3694
g62
I4
ssg63
g3688
sg56
(lp3695
g624
ag49
(g58
g51
NtRp3696
(dp3697
g54
(dp3698
g62
I3
ssg63
Nsg56
(lp3699
g49
(g65
g51
NtRp3700
(dp3701
g54
(dp3702
sg63
g3696
sg56
(lp3703
g49
(g70
g51
NtRp3704
(dp3705
g54
(dp3706
g74
g75
ssg63
g3700
sg56
(lp3707
g298
asbag49
(g70
g51
NtRp3708
(dp3709
g54
(dp3710
g81
g82
ssg63
g3700
sg56
(lp3711
S':'
asbag49
(g70
g51
NtRp3712
(dp3713
g54
(dp3714
sg63
g3700
sg56
(lp3715
g49
(g50
g51
NtRp3716
(dp3717
g54
(dp3718
g62
I3
ssg63
g3712
sg56
(lp3719
S''
asbasbasbag49
(g65
g51
NtRp3720
(dp3721
g54
(dp3722
sg63
g3696
sg56
(lp3723
g49
(g70
g51
NtRp3724
(dp3725
g54
(dp3726
g74
g75
ssg63
g3720
sg56
(lp3727
g319
asbag49
(g70
g51
NtRp3728
(dp3729
g54
(dp3730
g81
g82
ssg63
g3720
sg56
(lp3731
S':'
asbag49
(g70
g51
NtRp3732
(dp3733
g54
(dp3734
sg63
g3720
sg56
(lp3735
g49
(g50
g51
NtRp3736
(dp3737
g54
(dp3738
g62
I3
ssg63
g3732
sg56
(lp3739
S''
asbasbasbag49
(g65
g51
NtRp3740
(dp3741
g54
(dp3742
sg63
g3696
sg56
(lp3743
g49
(g70
g51
NtRp3744
(dp3745
g54
(dp3746
g74
g75
ssg63
g3740
sg56
(lp3747
g340
asbag49
(g70
g51
NtRp3748
(dp3749
g54
(dp3750
g81
g82
ssg63
g3740
sg56
(lp3751
S':'
asbag49
(g70
g51
NtRp3752
(dp3753
g54
(dp3754
sg63
g3740
sg56
(lp3755
g49
(g50
g51
NtRp3756
(dp3757
g54
(dp3758
g62
I3
ssg63
g3752
sg56
(lp3759
S''
asbasbasbag49
(g65
g51
NtRp3760
(dp3761
g54
(dp3762
sg63
g3696
sg56
(lp3763
g49
(g70
g51
NtRp3764
(dp3765
g54
(dp3766
g74
g75
ssg63
g3760
sg56
(lp3767
g361
asbag49
(g70
g51
NtRp3768
(dp3769
g54
(dp3770
g81
g82
ssg63
g3760
sg56
(lp3771
S':'
asbag49
(g70
g51
NtRp3772
(dp3773
g54
(dp3774
sg63
g3760
sg56
(lp3775
g49
(g50
g51
NtRp3776
(dp3777
g54
(dp3778
g62
I3
ssg63
g3772
sg56
(lp3779
S''
asbasbasbag49
(g65
g51
NtRp3780
(dp3781
g54
(dp3782
sg63
g3696
sg56
(lp3783
g49
(g70
g51
NtRp3784
(dp3785
g54
(dp3786
g74
g75
ssg63
g3780
sg56
(lp3787
g382
asbag49
(g70
g51
NtRp3788
(dp3789
g54
(dp3790
g81
g82
ssg63
g3780
sg56
(lp3791
S':'
asbag49
(g70
g51
NtRp3792
(dp3793
g54
(dp3794
sg63
g3780
sg56
(lp3795
g49
(g50
g51
NtRp3796
(dp3797
g54
(dp3798
g62
I3
ssg63
g3792
sg56
(lp3799
S'/'
asbasbasbag49
(g65
g51
NtRp3800
(dp3801
g54
(dp3802
sg63
g3696
sg56
(lp3803
g49
(g70
g51
NtRp3804
(dp3805
g54
(dp3806
g74
g75
ssg63
g3800
sg56
(lp3807
g403
asbag49
(g70
g51
NtRp3808
(dp3809
g54
(dp3810
g81
g82
ssg63
g3800
sg56
(lp3811
S':'
asbag49
(g70
g51
NtRp3812
(dp3813
g54
(dp3814
sg63
g3800
sg56
(lp3815
g49
(g50
g51
NtRp3816
(dp3817
g54
(dp3818
g62
I3
ssg63
g3812
sg56
(lp3819
S''
asbasbasbag49
(g65
g51
NtRp3820
(dp3821
g54
(dp3822
sg63
g3696
sg56
(lp3823
g49
(g70
g51
NtRp3824
(dp3825
g54
(dp3826
g74
g75
ssg63
g3820
sg56
(lp3827
g424
asbag49
(g70
g51
NtRp3828
(dp3829
g54
(dp3830
g81
g82
ssg63
g3820
sg56
(lp3831
S':'
asbag49
(g70
g51
NtRp3832
(dp3833
g54
(dp3834
sg63
g3820
sg56
(lp3835
g49
(g50
g51
NtRp3836
(dp3837
g54
(dp3838
g62
I3
ssg63
g3832
sg56
(lp3839
S''
asbasbasbasbasbasbasbasbasbasbasbag49
(g65
g51
NtRp3840
(dp3841
g54
(dp3842
sg63
g3626
sg56
(lp3843
g49
(g70
g51
NtRp3844
(dp3845
g54
(dp3846
g74
g75
ssg63
g3840
sg56
(lp3847
S'delimiters'
p3848
asbag49
(g70
g51
NtRp3849
(dp3850
g54
(dp3851
g81
g82
ssg63
g3840
sg56
(lp3852
S':'
asbag49
(g70
g51
NtRp3853
(dp3854
g54
(dp3855
sg63
g3840
sg56
(lp3856
g49
(g50
g51
NtRp3857
(dp3858
g54
(dp3859
g62
I5
ssg63
g3853
sg56
(lp3860
g49
(g58
g51
NtRp3861
(dp3862
g54
(dp3863
g62
I4
ssg63
Nsg56
(lp3864
g49
(g65
g51
NtRp3865
(dp3866
g54
(dp3867
sg63
g3861
sg56
(lp3868
g49
(g70
g51
NtRp3869
(dp3870
g54
(dp3871
sg63
g3865
sg56
(lp3872
g49
(g50
g51
NtRp3873
(dp3874
g54
(dp3875
g62
I4
ssg63
g3869
sg56
(lp3876
S'{{'
p3877
asbasbasbag49
(g65
g51
NtRp3878
(dp3879
g54
(dp3880
sg63
g3861
sg56
(lp3881
g49
(g70
g51
NtRp3882
(dp3883
g54
(dp3884
sg63
g3878
sg56
(lp3885
g49
(g50
g51
NtRp3886
(dp3887
g54
(dp3888
g62
I4
ssg63
g3882
sg56
(lp3889
S'}}'
p3890
asbasbasbasbasbasbasbag49
(g65
g51
NtRp3891
(dp3892
g54
(dp3893
sg63
g3626
sg56
(lp3894
g49
(g70
g51
NtRp3895
(dp3896
g54
(dp3897
g74
g75
ssg63
g3891
sg56
(lp3898
S'files'
p3899
asbag49
(g70
g51
NtRp3900
(dp3901
g54
(dp3902
g81
g82
ssg63
g3891
sg56
(lp3903
S':'
asbag49
(g70
g51
NtRp3904
(dp3905
g54
(dp3906
sg63
g3891
sg56
(lp3907
g49
(g50
g51
NtRp3908
(dp3909
g54
(dp3910
g62
I5
ssg63
g3904
sg56
(lp3911
g49
(g58
g51
NtRp3912
(dp3913
g54
(dp3914
g62
I4
ssg63
Nsg56
(lp3915
sbasbasbasbag49
(g65
g51
NtRp3916
(dp3917
g54
(dp3918
sg63
g3626
sg56
(lp3919
g49
(g70
g51
NtRp3920
(dp3921
g54
(dp3922
g74
g75
ssg63
g3916
sg56
(lp3923
S'flash'
p3924
asbag49
(g70
g51
NtRp3925
(dp3926
g54
(dp3927
g81
g82
ssg63
g3916
sg56
(lp3928
S':'
asbag49
(g70
g51
NtRp3929
(dp3930
g54
(dp3931
sg63
g3916
sg56
(lp3932
g49
(g50
g51
NtRp3933
(dp3934
g54
(dp3935
g62
I5
ssg63
g3929
sg56
(lp3936
S''
asbasbasbag49
(g65
g51
NtRp3937
(dp3938
g54
(dp3939
sg63
g3626
sg56
(lp3940
g49
(g70
g51
NtRp3941
(dp3942
g54
(dp3943
g74
g75
ssg63
g3937
sg56
(lp3944
S'generic_patterns'
p3945
asbag49
(g70
g51
NtRp3946
(dp3947
g54
(dp3948
g81
g82
ssg63
g3937
sg56
(lp3949
S':'
asbag49
(g70
g51
NtRp3950
(dp3951
g54
(dp3952
sg63
g3937
sg56
(lp3953
g49
(g50
g51
NtRp3954
(dp3955
g54
(dp3956
g62
I5
ssg63
g3950
sg56
(lp3957
g49
(g58
g51
NtRp3958
(dp3959
g54
(dp3960
g62
I4
ssg63
Nsg56
(lp3961
g49
(g65
g51
NtRp3962
(dp3963
g54
(dp3964
sg63
g3958
sg56
(lp3965
g49
(g70
g51
NtRp3966
(dp3967
g54
(dp3968
sg63
g3962
sg56
(lp3969
g49
(g50
g51
NtRp3970
(dp3971
g54
(dp3972
g62
I4
ssg63
g3966
sg56
(lp3973
S'*'
asbasbasbasbasbasbasbag49
(g65
g51
NtRp3974
(dp3975
g54
(dp3976
sg63
g3626
sg56
(lp3977
g49
(g70
g51
NtRp3978
(dp3979
g54
(dp3980
g74
g75
ssg63
g3974
sg56
(lp3981
S'google_analytics_id'
p3982
asbag49
(g70
g51
NtRp3983
(dp3984
g54
(dp3985
g81
g82
ssg63
g3974
sg56
(lp3986
S':'
asbag49
(g70
g51
NtRp3987
(dp3988
g54
(dp3989
sg63
g3974
sg56
(lp3990
g49
(g50
g51
NtRp3991
(dp3992
g54
(dp3993
g62
I5
ssg63
g3987
sg56
(lp3994
S'None'
p3995
asbasbasbag49
(g65
g51
NtRp3996
(dp3997
g54
(dp3998
sg63
g3626
sg56
(lp3999
g49
(g70
g51
NtRp4000
(dp4001
g54
(dp4002
g74
g75
ssg63
g3996
sg56
(lp4003
S'headers'
p4004
asbag49
(g70
g51
NtRp4005
(dp4006
g54
(dp4007
g81
g82
ssg63
g3996
sg56
(lp4008
S':'
asbag49
(g70
g51
NtRp4009
(dp4010
g54
(dp4011
sg63
g3996
sg56
(lp4012
g49
(g50
g51
NtRp4013
(dp4014
g54
(dp4015
g62
I5
ssg63
g4009
sg56
(lp4016
g49
(g58
g51
NtRp4017
(dp4018
g54
(dp4019
g62
I4
ssg63
Nsg56
(lp4020
g49
(g65
g51
NtRp4021
(dp4022
g54
(dp4023
sg63
g4017
sg56
(lp4024
g49
(g70
g51
NtRp4025
(dp4026
g54
(dp4027
g74
g75
ssg63
g4021
sg56
(lp4028
S'X-Powered-By'
p4029
asbag49
(g70
g51
NtRp4030
(dp4031
g54
(dp4032
g81
g82
ssg63
g4021
sg56
(lp4033
S':'
asbag49
(g70
g51
NtRp4034
(dp4035
g54
(dp4036
sg63
g4021
sg56
(lp4037
g49
(g50
g51
NtRp4038
(dp4039
g54
(dp4040
g62
I4
ssg63
g4034
sg56
(lp4041
S'web2py'
p4042
asbasbasbasbasbasbasbag49
(g65
g51
NtRp4043
(dp4044
g54
(dp4045
sg63
g3626
sg56
(lp4046
g49
(g70
g51
NtRp4047
(dp4048
g54
(dp4049
g74
g75
ssg63
g4043
sg56
(lp4050
S'logo'
p4051
asbag49
(g70
g51
NtRp4052
(dp4053
g54
(dp4054
g81
g82
ssg63
g4043
sg56
(lp4055
S':'
asbag49
(g70
g51
NtRp4056
(dp4057
g54
(dp4058
sg63
g4043
sg56
(lp4059
g49
(g50
g51
NtRp4060
(dp4061
g54
(dp4062
g62
I5
ssg63
g4056
sg56
(lp4063
g49
(cgluon.html
A
p4064
g51
NtRp4065
(dp4066
g54
(dp4067
S'_class'
p4068
S'brand'
p4069
sS'_href'
p4070
S'http://www.web2py.com/'
p4071
ssg63
Nsg56
(lp4072
g49
(cgluon.html
B
p4073
g51
NtRp4074
(dp4075
g54
(dp4076
sg63
g4065
sg56
(lp4077
S'web'
p4078
ag49
(cgluon.html
SPAN
p4079
g51
NtRp4080
(dp4081
g54
(dp4082
sg63
g4074
sg56
(lp4083
I2
asbaS'py'
p4084
asbacgluon.html
XML_unpickle
p4085
(S's\r\x00\x00\x00&trade;&nbsp;'
tRp4086
asbasbasbasbag49
(g65
g51
NtRp4087
(dp4088
g54
(dp4089
sg63
g3626
sg56
(lp4090
g49
(g70
g51
NtRp4091
(dp4092
g54
(dp4093
g74
g75
ssg63
g4087
sg56
(lp4094
S'menu'
p4095
asbag49
(g70
g51
NtRp4096
(dp4097
g54
(dp4098
g81
g82
ssg63
g4087
sg56
(lp4099
S':'
asbag49
(g70
g51
NtRp4100
(dp4101
g54
(dp4102
sg63
g4087
sg56
(lp4103
g49
(g50
g51
NtRp4104
(dp4105
g54
(dp4106
g62
I5
ssg63
g4100
sg56
(lp4107
g49
(g58
g51
NtRp4108
(dp4109
g54
(dp4110
g62
I4
ssg63
Nsg56
(lp4111
g49
(g65
g51
NtRp4112
(dp4113
g54
(dp4114
sg63
g4108
sg56
(lp4115
g49
(g70
g51
NtRp4116
(dp4117
g54
(dp4118
sg63
g4112
sg56
(lp4119
g49
(g50
g51
NtRp4120
(dp4121
g54
(dp4122
g62
I4
ssg63
g4116
sg56
(lp4123
g49
(g58
g51
NtRp4124
(dp4125
g54
(dp4126
g62
I3
ssg63
Nsg56
(lp4127
g49
(g65
g51
NtRp4128
(dp4129
g54
(dp4130
sg63
g4124
sg56
(lp4131
g49
(g70
g51
NtRp4132
(dp4133
g54
(dp4134
sg63
g4128
sg56
(lp4135
g49
(g50
g51
NtRp4136
(dp4137
g54
(dp4138
g62
I3
ssg63
g4132
sg56
(lp4139
cgluon.languages
lazyT_unpickle
p4140
(S't\x04\x00\x00\x00Home'
tRp4141
asbasbasbag49
(g65
g51
NtRp4142
(dp4143
g54
(dp4144
sg63
g4124
sg56
(lp4145
g49
(g70
g51
NtRp4146
(dp4147
g54
(dp4148
sg63
g4142
sg56
(lp4149
g49
(g50
g51
NtRp4150
(dp4151
g54
(dp4152
g62
I3
ssg63
g4146
sg56
(lp4153
g92
asbasbasbag49
(g65
g51
NtRp4154
(dp4155
g54
(dp4156
sg63
g4124
sg56
(lp4157
g49
(g70
g51
NtRp4158
(dp4159
g54
(dp4160
sg63
g4154
sg56
(lp4161
g49
(g50
g51
NtRp4162
(dp4163
g54
(dp4164
g62
I3
ssg63
g4158
sg56
(lp4165
S'/hellow/default/index'
p4166
asbasbasbag49
(g65
g51
NtRp4167
(dp4168
g54
(dp4169
sg63
g4124
sg56
(lp4170
g49
(g70
g51
NtRp4171
(dp4172
g54
(dp4173
sg63
g4167
sg56
(lp4174
g49
(g50
g51
NtRp4175
(dp4176
g54
(dp4177
g62
I3
ssg63
g4171
sg56
(lp4178
g49
(g58
g51
NtRp4179
(dp4180
g54
(dp4181
g62
I2
ssg63
Nsg56
(lp4182
sbasbasbasbasbasbasbasbag49
(g65
g51
NtRp4183
(dp4184
g54
(dp4185
sg63
g4108
sg56
(lp4186
g49
(g70
g51
NtRp4187
(dp4188
g54
(dp4189
sg63
g4183
sg56
(lp4190
g49
(g50
g51
NtRp4191
(dp4192
g54
(dp4193
g62
I4
ssg63
g4187
sg56
(lp4194
g49
(g58
g51
NtRp4195
(dp4196
g54
(dp4197
g62
I3
ssg63
Nsg56
(lp4198
g49
(g65
g51
NtRp4199
(dp4200
g54
(dp4201
sg63
g4195
sg56
(lp4202
g49
(g70
g51
NtRp4203
(dp4204
g54
(dp4205
sg63
g4199
sg56
(lp4206
g49
(g50
g51
NtRp4207
(dp4208
g54
(dp4209
g62
I3
ssg63
g4203
sg56
(lp4210
g49
(g4079
g51
NtRp4211
(dp4212
g54
(dp4213
g4068
S'highlighted'
p4214
ssg63
Nsg56
(lp4215
g4042
asbasbasbasbag49
(g65
g51
NtRp4216
(dp4217
g54
(dp4218
sg63
g4195
sg56
(lp4219
g49
(g70
g51
NtRp4220
(dp4221
g54
(dp4222
sg63
g4216
sg56
(lp4223
g49
(g50
g51
NtRp4224
(dp4225
g54
(dp4226
g62
I3
ssg63
g4220
sg56
(lp4227
g92
asbasbasbag49
(g65
g51
NtRp4228
(dp4229
g54
(dp4230
sg63
g4195
sg56
(lp4231
g49
(g70
g51
NtRp4232
(dp4233
g54
(dp4234
sg63
g4228
sg56
(lp4235
g49
(g50
g51
NtRp4236
(dp4237
g54
(dp4238
g62
I3
ssg63
g4232
sg56
(lp4239
S'http://web2py.com'
p4240
asbasbasbag49
(g65
g51
NtRp4241
(dp4242
g54
(dp4243
sg63
g4195
sg56
(lp4244
g49
(g70
g51
NtRp4245
(dp4246
g54
(dp4247
sg63
g4241
sg56
(lp4248
g49
(g50
g51
NtRp4249
(dp4250
g54
(dp4251
g62
I3
ssg63
g4245
sg56
(lp4252
g49
(g58
g51
NtRp4253
(dp4254
g54
(dp4255
g62
I2
ssg63
Nsg56
(lp4256
g49
(g65
g51
NtRp4257
(dp4258
g54
(dp4259
sg63
g4253
sg56
(lp4260
g49
(g70
g51
NtRp4261
(dp4262
g54
(dp4263
sg63
g4257
sg56
(lp4264
g49
(g50
g51
NtRp4265
(dp4266
g54
(dp4267
g62
I2
ssg63
g4261
sg56
(lp4268
g49
(g58
g51
NtRp4269
(dp4270
g54
(dp4271
g62
I1
ssg63
Nsg56
(lp4272
g49
(g65
g51
NtRp4273
(dp4274
g54
(dp4275
sg63
g4269
sg56
(lp4276
g49
(g70
g51
NtRp4277
(dp4278
g54
(dp4279
sg63
g4273
sg56
(lp4280
g49
(g50
g51
NtRp4281
(dp4282
g54
(dp4283
g62
I1
ssg63
g4277
sg56
(lp4284
g4140
(S's\x08\x00\x00\x00My Sites'
tRp4285
asbasbasbag49
(g65
g51
NtRp4286
(dp4287
g54
(dp4288
sg63
g4269
sg56
(lp4289
g49
(g70
g51
NtRp4290
(dp4291
g54
(dp4292
sg63
g4286
sg56
(lp4293
g49
(g50
g51
NtRp4294
(dp4295
g54
(dp4296
g62
I1
ssg63
g4290
sg56
(lp4297
I00
asbasbasbag49
(g65
g51
NtRp4298
(dp4299
g54
(dp4300
sg63
g4269
sg56
(lp4301
g49
(g70
g51
NtRp4302
(dp4303
g54
(dp4304
sg63
g4298
sg56
(lp4305
g49
(g50
g51
NtRp4306
(dp4307
g54
(dp4308
g62
I1
ssg63
g4302
sg56
(lp4309
S'/admin/default/site'
p4310
asbasbasbasbasbasbasbag49
(g65
g51
NtRp4311
(dp4312
g54
(dp4313
sg63
g4253
sg56
(lp4314
g49
(g70
g51
NtRp4315
(dp4316
g54
(dp4317
sg63
g4311
sg56
(lp4318
g49
(g50
g51
NtRp4319
(dp4320
g54
(dp4321
g62
I2
ssg63
g4315
sg56
(lp4322
g49
(g58
g51
NtRp4323
(dp4324
g54
(dp4325
g62
I1
ssg63
Nsg56
(lp4326
g49
(g65
g51
NtRp4327
(dp4328
g54
(dp4329
sg63
g4323
sg56
(lp4330
g49
(g70
g51
NtRp4331
(dp4332
g54
(dp4333
sg63
g4327
sg56
(lp4334
g49
(g50
g51
NtRp4335
(dp4336
g54
(dp4337
g62
I1
ssg63
g4331
sg56
(lp4338
g4140
(S's\x08\x00\x00\x00This App'
tRp4339
asbasbasbag49
(g65
g51
NtRp4340
(dp4341
g54
(dp4342
sg63
g4323
sg56
(lp4343
g49
(g70
g51
NtRp4344
(dp4345
g54
(dp4346
sg63
g4340
sg56
(lp4347
g49
(g50
g51
NtRp4348
(dp4349
g54
(dp4350
g62
I1
ssg63
g4344
sg56
(lp4351
I00
asbasbasbag49
(g65
g51
NtRp4352
(dp4353
g54
(dp4354
sg63
g4323
sg56
(lp4355
g49
(g70
g51
NtRp4356
(dp4357
g54
(dp4358
sg63
g4352
sg56
(lp4359
g49
(g50
g51
NtRp4360
(dp4361
g54
(dp4362
g62
I1
ssg63
g4356
sg56
(lp4363
S'/admin/default/design/hellow'
p4364
asbasbasbag49
(g65
g51
NtRp4365
(dp4366
g54
(dp4367
sg63
g4323
sg56
(lp4368
g49
(g70
g51
NtRp4369
(dp4370
g54
(dp4371
sg63
g4365
sg56
(lp4372
g49
(g50
g51
NtRp4373
(dp4374
g54
(dp4375
g62
I1
ssg63
g4369
sg56
(lp4376
(lp4377
(g4140
(S't\n\x00\x00\x00Controller'
tRp4378
I00
S'/admin/default/edit/hellow/controllers/slot.py'
tp4379
a(g4140
(S't\x04\x00\x00\x00View'
tRp4380
I00
S'/admin/default/edit/hellow/views/slot/show.html'
tp4381
a(g4140
(S't\x06\x00\x00\x00Layout'
tRp4382
I00
S'/admin/default/edit/hellow/views/layout.html'
tp4383
a(g4140
(S't\n\x00\x00\x00Stylesheet'
tRp4384
I00
S'/admin/default/edit/hellow/static/css/web2py.css'
tp4385
a(g4140
(S's\x08\x00\x00\x00DB Model'
tRp4386
I00
S'/admin/default/edit/hellow/models/db.py'
tp4387
a(g4140
(S's\n\x00\x00\x00Menu Model'
tRp4388
I00
S'/admin/default/edit/hellow/models/menu.py'
tp4389
a(g4140
(S't\x08\x00\x00\x00Database'
tRp4390
I00
S'/hellow/appadmin/index'
tp4391
a(g4140
(S't\x06\x00\x00\x00Errors'
tRp4392
I00
S'/admin/default/errors/hellow'
tp4393
a(g4140
(S't\x05\x00\x00\x00About'
tRp4394
I00
S'/admin/default/about/hellow'
tp4395
aasbasbasbasbasbasbasbag49
(g65
g51
NtRp4396
(dp4397
g54
(dp4398
sg63
g4253
sg56
(lp4399
g49
(g70
g51
NtRp4400
(dp4401
g54
(dp4402
sg63
g4396
sg56
(lp4403
g49
(g50
g51
NtRp4404
(dp4405
g54
(dp4406
g62
I2
ssg63
g4400
sg56
(lp4407
g49
(g58
g51
NtRp4408
(dp4409
g54
(dp4410
g62
I1
ssg63
Nsg56
(lp4411
g49
(g65
g51
NtRp4412
(dp4413
g54
(dp4414
sg63
g4408
sg56
(lp4415
g49
(g70
g51
NtRp4416
(dp4417
g54
(dp4418
sg63
g4412
sg56
(lp4419
g49
(g50
g51
NtRp4420
(dp4421
g54
(dp4422
g62
I1
ssg63
g4416
sg56
(lp4423
S'web2py.com'
p4424
asbasbasbag49
(g65
g51
NtRp4425
(dp4426
g54
(dp4427
sg63
g4408
sg56
(lp4428
g49
(g70
g51
NtRp4429
(dp4430
g54
(dp4431
sg63
g4425
sg56
(lp4432
g49
(g50
g51
NtRp4433
(dp4434
g54
(dp4435
g62
I1
ssg63
g4429
sg56
(lp4436
I00
asbasbasbag49
(g65
g51
NtRp4437
(dp4438
g54
(dp4439
sg63
g4408
sg56
(lp4440
g49
(g70
g51
NtRp4441
(dp4442
g54
(dp4443
sg63
g4437
sg56
(lp4444
g49
(g50
g51
NtRp4445
(dp4446
g54
(dp4447
g62
I1
ssg63
g4441
sg56
(lp4448
S'http://www.web2py.com'
p4449
asbasbasbag49
(g65
g51
NtRp4450
(dp4451
g54
(dp4452
sg63
g4408
sg56
(lp4453
g49
(g70
g51
NtRp4454
(dp4455
g54
(dp4456
sg63
g4450
sg56
(lp4457
g49
(g50
g51
NtRp4458
(dp4459
g54
(dp4460
g62
I1
ssg63
g4454
sg56
(lp4461
(lp4462
(g4140
(S't\x08\x00\x00\x00Download'
tRp4463
I00
S'http://www.web2py.com/examples/default/download'
p4464
tp4465
a(g4140
(S't\x07\x00\x00\x00Support'
tRp4466
I00
S'http://www.web2py.com/examples/default/support'
p4467
tp4468
a(g4140
(S't\x04\x00\x00\x00Demo'
tRp4469
I00
S'http://web2py.com/demo_admin'
p4470
tp4471
a(g4140
(S's\x0e\x00\x00\x00Quick Examples'
tRp4472
I00
S'http://web2py.com/examples/default/examples'
p4473
tp4474
a(g4140
(S't\x03\x00\x00\x00FAQ'
tRp4475
I00
S'http://web2py.com/AlterEgo'
p4476
tp4477
a(g4140
(S't\x06\x00\x00\x00Videos'
tRp4478
I00
S'http://www.web2py.com/examples/default/videos/'
p4479
tp4480
a(g4140
(S's\x11\x00\x00\x00Free Applications'
tRp4481
I00
S'http://web2py.com/appliances'
p4482
tp4483
a(g4140
(S't\x07\x00\x00\x00Plugins'
tRp4484
I00
S'http://web2py.com/plugins'
p4485
tp4486
a(g4140
(S't\x07\x00\x00\x00Layouts'
tRp4487
I00
S'http://web2py.com/layouts'
p4488
tp4489
a(g4140
(S't\x07\x00\x00\x00Recipes'
tRp4490
I00
S'http://web2pyslices.com/'
p4491
tp4492
a(g4140
(S't\x08\x00\x00\x00Semantic'
tRp4493
I00
S'http://web2py.com/semantic'
p4494
tp4495
aasbasbasbasbasbasbasbag49
(g65
g51
NtRp4496
(dp4497
g54
(dp4498
sg63
g4253
sg56
(lp4499
g49
(g70
g51
NtRp4500
(dp4501
g54
(dp4502
sg63
g4496
sg56
(lp4503
g49
(g50
g51
NtRp4504
(dp4505
g54
(dp4506
g62
I2
ssg63
g4500
sg56
(lp4507
g49
(g58
g51
NtRp4508
(dp4509
g54
(dp4510
g62
I1
ssg63
Nsg56
(lp4511
g49
(g65
g51
NtRp4512
(dp4513
g54
(dp4514
sg63
g4508
sg56
(lp4515
g49
(g70
g51
NtRp4516
(dp4517
g54
(dp4518
sg63
g4512
sg56
(lp4519
g49
(g50
g51
NtRp4520
(dp4521
g54
(dp4522
g62
I1
ssg63
g4516
sg56
(lp4523
g4140
(S't\r\x00\x00\x00Documentation'
tRp4524
asbasbasbag49
(g65
g51
NtRp4525
(dp4526
g54
(dp4527
sg63
g4508
sg56
(lp4528
g49
(g70
g51
NtRp4529
(dp4530
g54
(dp4531
sg63
g4525
sg56
(lp4532
g49
(g50
g51
NtRp4533
(dp4534
g54
(dp4535
g62
I1
ssg63
g4529
sg56
(lp4536
I00
asbasbasbag49
(g65
g51
NtRp4537
(dp4538
g54
(dp4539
sg63
g4508
sg56
(lp4540
g49
(g70
g51
NtRp4541
(dp4542
g54
(dp4543
sg63
g4537
sg56
(lp4544
g49
(g50
g51
NtRp4545
(dp4546
g54
(dp4547
g62
I1
ssg63
g4541
sg56
(lp4548
S'http://www.web2py.com/book'
p4549
asbasbasbag49
(g65
g51
NtRp4550
(dp4551
g54
(dp4552
sg63
g4508
sg56
(lp4553
g49
(g70
g51
NtRp4554
(dp4555
g54
(dp4556
sg63
g4550
sg56
(lp4557
g49
(g50
g51
NtRp4558
(dp4559
g54
(dp4560
g62
I1
ssg63
g4554
sg56
(lp4561
(lp4562
(g4140
(S't\x07\x00\x00\x00Preface'
tRp4563
I00
S'http://www.web2py.com/book/default/chapter/00'
p4564
tp4565
a(g4140
(S't\x0c\x00\x00\x00Introduction'
tRp4566
I00
S'http://www.web2py.com/book/default/chapter/01'
p4567
tp4568
a(g4140
(S't\x06\x00\x00\x00Python'
tRp4569
I00
S'http://www.web2py.com/book/default/chapter/02'
p4570
tp4571
a(g4140
(S't\x08\x00\x00\x00Overview'
tRp4572
I00
S'http://www.web2py.com/book/default/chapter/03'
p4573
tp4574
a(g4140
(S's\x08\x00\x00\x00The Core'
tRp4575
I00
S'http://www.web2py.com/book/default/chapter/04'
p4576
tp4577
a(g4140
(S's\t\x00\x00\x00The Views'
tRp4578
I00
S'http://www.web2py.com/book/default/chapter/05'
p4579
tp4580
a(g4140
(S't\x08\x00\x00\x00Database'
tRp4581
I00
S'http://www.web2py.com/book/default/chapter/06'
p4582
tp4583
a(g4140
(S's\x14\x00\x00\x00Forms and Validators'
tRp4584
I00
S'http://www.web2py.com/book/default/chapter/07'
p4585
tp4586
a(g4140
(S's\r\x00\x00\x00Email and SMS'
tRp4587
I00
S'http://www.web2py.com/book/default/chapter/08'
p4588
tp4589
a(g4140
(S's\x0e\x00\x00\x00Access Control'
tRp4590
I00
S'http://www.web2py.com/book/default/chapter/09'
p4591
tp4592
a(g4140
(S't\x08\x00\x00\x00Services'
tRp4593
I00
S'http://www.web2py.com/book/default/chapter/10'
p4594
tp4595
a(g4140
(S's\x0c\x00\x00\x00Ajax Recipes'
tRp4596
I00
S'http://www.web2py.com/book/default/chapter/11'
p4597
tp4598
a(g4140
(S's\x16\x00\x00\x00Components and Plugins'
tRp4599
I00
S'http://www.web2py.com/book/default/chapter/12'
p4600
tp4601
a(g4140
(S's\x12\x00\x00\x00Deployment Recipes'
tRp4602
I00
S'http://www.web2py.com/book/default/chapter/13'
p4603
tp4604
a(g4140
(S's\r\x00\x00\x00Other Recipes'
tRp4605
I00
S'http://www.web2py.com/book/default/chapter/14'
p4606
tp4607
a(g4140
(S's\r\x00\x00\x00Buy this book'
tRp4608
I00
S'http://stores.lulu.com/web2py'
p4609
tp4610
aasbasbasbasbasbasbasbag49
(g65
g51
NtRp4611
(dp4612
g54
(dp4613
sg63
g4253
sg56
(lp4614
g49
(g70
g51
NtRp4615
(dp4616
g54
(dp4617
sg63
g4611
sg56
(lp4618
g49
(g50
g51
NtRp4619
(dp4620
g54
(dp4621
g62
I2
ssg63
g4615
sg56
(lp4622
g49
(g58
g51
NtRp4623
(dp4624
g54
(dp4625
g62
I1
ssg63
Nsg56
(lp4626
g49
(g65
g51
NtRp4627
(dp4628
g54
(dp4629
sg63
g4623
sg56
(lp4630
g49
(g70
g51
NtRp4631
(dp4632
g54
(dp4633
sg63
g4627
sg56
(lp4634
g49
(g50
g51
NtRp4635
(dp4636
g54
(dp4637
g62
I1
ssg63
g4631
sg56
(lp4638
g4140
(S't\t\x00\x00\x00Community'
tRp4639
asbasbasbag49
(g65
g51
NtRp4640
(dp4641
g54
(dp4642
sg63
g4623
sg56
(lp4643
g49
(g70
g51
NtRp4644
(dp4645
g54
(dp4646
sg63
g4640
sg56
(lp4647
g49
(g50
g51
NtRp4648
(dp4649
g54
(dp4650
g62
I1
ssg63
g4644
sg56
(lp4651
I00
asbasbasbag49
(g65
g51
NtRp4652
(dp4653
g54
(dp4654
sg63
g4623
sg56
(lp4655
g49
(g70
g51
NtRp4656
(dp4657
g54
(dp4658
sg63
g4652
sg56
(lp4659
g49
(g50
g51
NtRp4660
(dp4661
g54
(dp4662
g62
I1
ssg63
g4656
sg56
(lp4663
Nasbasbasbag49
(g65
g51
NtRp4664
(dp4665
g54
(dp4666
sg63
g4623
sg56
(lp4667
g49
(g70
g51
NtRp4668
(dp4669
g54
(dp4670
sg63
g4664
sg56
(lp4671
g49
(g50
g51
NtRp4672
(dp4673
g54
(dp4674
g62
I1
ssg63
g4668
sg56
(lp4675
(lp4676
(g4140
(S't\x06\x00\x00\x00Groups'
tRp4677
I00
S'http://www.web2py.com/examples/default/usergroups'
p4678
tp4679
a(g4140
(S't\x07\x00\x00\x00Twitter'
tRp4680
I00
S'http://twitter.com/web2py'
p4681
tp4682
a(g4140
(S's\t\x00\x00\x00Live Chat'
tRp4683
I00
S'http://webchat.freenode.net/?channels=web2py'
p4684
tp4685
aasbasbasbasbasbasbasbag49
(g65
g51
NtRp4686
(dp4687
g54
(dp4688
sg63
g4253
sg56
(lp4689
g49
(g70
g51
NtRp4690
(dp4691
g54
(dp4692
sg63
g4686
sg56
(lp4693
g49
(g50
g51
NtRp4694
(dp4695
g54
(dp4696
g62
I2
ssg63
g4690
sg56
(lp4697
g49
(g58
g51
NtRp4698
(dp4699
g54
(dp4700
g62
I1
ssg63
Nsg56
(lp4701
g49
(g65
g51
NtRp4702
(dp4703
g54
(dp4704
sg63
g4698
sg56
(lp4705
g49
(g70
g51
NtRp4706
(dp4707
g54
(dp4708
sg63
g4702
sg56
(lp4709
g49
(g50
g51
NtRp4710
(dp4711
g54
(dp4712
g62
I1
ssg63
g4706
sg56
(lp4713
g4140
(S't\x07\x00\x00\x00Plugins'
tRp4714
asbasbasbag49
(g65
g51
NtRp4715
(dp4716
g54
(dp4717
sg63
g4698
sg56
(lp4718
g49
(g70
g51
NtRp4719
(dp4720
g54
(dp4721
sg63
g4715
sg56
(lp4722
g49
(g50
g51
NtRp4723
(dp4724
g54
(dp4725
g62
I1
ssg63
g4719
sg56
(lp4726
I00
asbasbasbag49
(g65
g51
NtRp4727
(dp4728
g54
(dp4729
sg63
g4698
sg56
(lp4730
g49
(g70
g51
NtRp4731
(dp4732
g54
(dp4733
sg63
g4727
sg56
(lp4734
g49
(g50
g51
NtRp4735
(dp4736
g54
(dp4737
g62
I1
ssg63
g4731
sg56
(lp4738
Nasbasbasbag49
(g65
g51
NtRp4739
(dp4740
g54
(dp4741
sg63
g4698
sg56
(lp4742
g49
(g70
g51
NtRp4743
(dp4744
g54
(dp4745
sg63
g4739
sg56
(lp4746
g49
(g50
g51
NtRp4747
(dp4748
g54
(dp4749
g62
I1
ssg63
g4743
sg56
(lp4750
(lp4751
(S'plugin_wiki'
p4752
I00
S'http://web2py.com/examples/default/download'
p4753
tp4754
a(g4140
(S's\r\x00\x00\x00Other Plugins'
tRp4755
I00
g4485
tp4756
a(g4140
(S's\x0e\x00\x00\x00Layout Plugins'
tRp4757
I00
g4488
tp4758
aasbasbasbasbasbasbasbasbasbasbasbasbasbasbasbasbasbasbasbag49
(g65
g51
NtRp4759
(dp4760
g54
(dp4761
sg63
g3626
sg56
(lp4762
g49
(g70
g51
NtRp4763
(dp4764
g54
(dp4765
g74
g75
ssg63
g4759
sg56
(lp4766
S'meta'
p4767
asbag49
(g70
g51
NtRp4768
(dp4769
g54
(dp4770
g81
g82
ssg63
g4759
sg56
(lp4771
S':'
asbag49
(g70
g51
NtRp4772
(dp4773
g54
(dp4774
sg63
g4759
sg56
(lp4775
g49
(g50
g51
NtRp4776
(dp4777
g54
(dp4778
g62
I5
ssg63
g4772
sg56
(lp4779
g49
(g58
g51
NtRp4780
(dp4781
g54
(dp4782
g62
I4
ssg63
Nsg56
(lp4783
g49
(g65
g51
NtRp4784
(dp4785
g54
(dp4786
sg63
g4780
sg56
(lp4787
g49
(g70
g51
NtRp4788
(dp4789
g54
(dp4790
g74
g75
ssg63
g4784
sg56
(lp4791
S'author'
p4792
asbag49
(g70
g51
NtRp4793
(dp4794
g54
(dp4795
g81
g82
ssg63
g4784
sg56
(lp4796
S':'
asbag49
(g70
g51
NtRp4797
(dp4798
g54
(dp4799
sg63
g4784
sg56
(lp4800
g49
(g50
g51
NtRp4801
(dp4802
g54
(dp4803
g62
I4
ssg63
g4797
sg56
(lp4804
S'Your Name <you@example.com>'
p4805
asbasbasbag49
(g65
g51
NtRp4806
(dp4807
g54
(dp4808
sg63
g4780
sg56
(lp4809
g49
(g70
g51
NtRp4810
(dp4811
g54
(dp4812
g74
g75
ssg63
g4806
sg56
(lp4813
S'description'
p4814
asbag49
(g70
g51
NtRp4815
(dp4816
g54
(dp4817
g81
g82
ssg63
g4806
sg56
(lp4818
S':'
asbag49
(g70
g51
NtRp4819
(dp4820
g54
(dp4821
sg63
g4806
sg56
(lp4822
g49
(g50
g51
NtRp4823
(dp4824
g54
(dp4825
g62
I4
ssg63
g4819
sg56
(lp4826
S'a cool new app'
p4827
asbasbasbag49
(g65
g51
NtRp4828
(dp4829
g54
(dp4830
sg63
g4780
sg56
(lp4831
g49
(g70
g51
NtRp4832
(dp4833
g54
(dp4834
g74
g75
ssg63
g4828
sg56
(lp4835
S'generator'
p4836
asbag49
(g70
g51
NtRp4837
(dp4838
g54
(dp4839
g81
g82
ssg63
g4828
sg56
(lp4840
S':'
asbag49
(g70
g51
NtRp4841
(dp4842
g54
(dp4843
sg63
g4828
sg56
(lp4844
g49
(g50
g51
NtRp4845
(dp4846
g54
(dp4847
g62
I4
ssg63
g4841
sg56
(lp4848
S'Web2py Web Framework'
p4849
asbasbasbag49
(g65
g51
NtRp4850
(dp4851
g54
(dp4852
sg63
g4780
sg56
(lp4853
g49
(g70
g51
NtRp4854
(dp4855
g54
(dp4856
g74
g75
ssg63
g4850
sg56
(lp4857
S'keywords'
p4858
asbag49
(g70
g51
NtRp4859
(dp4860
g54
(dp4861
g81
g82
ssg63
g4850
sg56
(lp4862
S':'
asbag49
(g70
g51
NtRp4863
(dp4864
g54
(dp4865
sg63
g4850
sg56
(lp4866
g49
(g50
g51
NtRp4867
(dp4868
g54
(dp4869
g62
I4
ssg63
g4863
sg56
(lp4870
S'web2py, python, framework'
p4871
asbasbasbasbasbasbasbag49
(g65
g51
NtRp4872
(dp4873
g54
(dp4874
sg63
g3626
sg56
(lp4875
g49
(g70
g51
NtRp4876
(dp4877
g54
(dp4878
g74
g75
ssg63
g4872
sg56
(lp4879
S'models_to_run'
p4880
asbag49
(g70
g51
NtRp4881
(dp4882
g54
(dp4883
g81
g82
ssg63
g4872
sg56
(lp4884
S':'
asbag49
(g70
g51
NtRp4885
(dp4886
g54
(dp4887
sg63
g4872
sg56
(lp4888
g49
(g50
g51
NtRp4889
(dp4890
g54
(dp4891
g62
I5
ssg63
g4885
sg56
(lp4892
g49
(g58
g51
NtRp4893
(dp4894
g54
(dp4895
g62
I4
ssg63
Nsg56
(lp4896
g49
(g65
g51
NtRp4897
(dp4898
g54
(dp4899
sg63
g4893
sg56
(lp4900
g49
(g70
g51
NtRp4901
(dp4902
g54
(dp4903
sg63
g4897
sg56
(lp4904
g49
(g50
g51
NtRp4905
(dp4906
g54
(dp4907
g62
I4
ssg63
g4901
sg56
(lp4908
S'^\\w+\\.py$'
p4909
asbasbasbag49
(g65
g51
NtRp4910
(dp4911
g54
(dp4912
sg63
g4893
sg56
(lp4913
g49
(g70
g51
NtRp4914
(dp4915
g54
(dp4916
sg63
g4910
sg56
(lp4917
g49
(g50
g51
NtRp4918
(dp4919
g54
(dp4920
g62
I4
ssg63
g4914
sg56
(lp4921
S'^slot/\\w+\\.py$'
p4922
asbasbasbag49
(g65
g51
NtRp4923
(dp4924
g54
(dp4925
sg63
g4893
sg56
(lp4926
g49
(g70
g51
NtRp4927
(dp4928
g54
(dp4929
sg63
g4923
sg56
(lp4930
g49
(g50
g51
NtRp4931
(dp4932
g54
(dp4933
g62
I4
ssg63
g4927
sg56
(lp4934
S'^slot/show/\\w+\\.py$'
p4935
asbasbasbasbasbasbasbag49
(g65
g51
NtRp4936
(dp4937
g54
(dp4938
sg63
g3626
sg56
(lp4939
g49
(g70
g51
NtRp4940
(dp4941
g54
(dp4942
g74
g75
ssg63
g4936
sg56
(lp4943
S'postprocessing'
p4944
asbag49
(g70
g51
NtRp4945
(dp4946
g54
(dp4947
g81
g82
ssg63
g4936
sg56
(lp4948
S':'
asbag49
(g70
g51
NtRp4949
(dp4950
g54
(dp4951
sg63
g4936
sg56
(lp4952
g49
(g50
g51
NtRp4953
(dp4954
g54
(dp4955
g62
I5
ssg63
g4949
sg56
(lp4956
g49
(g58
g51
NtRp4957
(dp4958
g54
(dp4959
g62
I4
ssg63
Nsg56
(lp4960
sbasbasbasbag49
(g65
g51
NtRp4961
(dp4962
g54
(dp4963
sg63
g3626
sg56
(lp4964
g49
(g70
g51
NtRp4965
(dp4966
g54
(dp4967
g74
g75
ssg63
g4961
sg56
(lp4968
S'session_cookie_expires'
p4969
asbag49
(g70
g51
NtRp4970
(dp4971
g54
(dp4972
g81
g82
ssg63
g4961
sg56
(lp4973
S':'
asbag49
(g70
g51
NtRp4974
(dp4975
g54
(dp4976
sg63
g4961
sg56
(lp4977
g49
(g50
g51
NtRp4978
(dp4979
g54
(dp4980
g62
I5
ssg63
g4974
sg56
(lp4981
S'None'
p4982
asbasbasbag49
(g65
g51
NtRp4983
(dp4984
g54
(dp4985
sg63
g3626
sg56
(lp4986
g49
(g70
g51
NtRp4987
(dp4988
g54
(dp4989
g74
g75
ssg63
g4983
sg56
(lp4990
S'session_data_name'
p4991
asbag49
(g70
g51
NtRp4992
(dp4993
g54
(dp4994
g81
g82
ssg63
g4983
sg56
(lp4995
S':'
asbag49
(g70
g51
NtRp4996
(dp4997
g54
(dp4998
sg63
g4983
sg56
(lp4999
g49
(g50
g51
NtRp5000
(dp5001
g54
(dp5002
g62
I5
ssg63
g4996
sg56
(lp5003
S'session_data_hellow'
p5004
asbasbasbag49
(g65
g51
NtRp5005
(dp5006
g54
(dp5007
sg63
g3626
sg56
(lp5008
g49
(g70
g51
NtRp5009
(dp5010
g54
(dp5011
g74
g75
ssg63
g5005
sg56
(lp5012
S'session_file'
p5013
asbag49
(g70
g51
NtRp5014
(dp5015
g54
(dp5016
g81
g82
ssg63
g5005
sg56
(lp5017
S':'
asbag49
(g70
g51
NtRp5018
(dp5019
g54
(dp5020
sg63
g5005
sg56
(lp5021
g49
(g50
g51
NtRp5022
(dp5023
g54
(dp5024
g62
I5
ssg63
g5018
sg56
(lp5025
S"<open file '/Users/zamechek/Downloads/web2py/web2py.app/Contents/Resources/applications/hellow/sessions/127.0.0.1-f0c125e4-5d5e-4805-8c10-bdfc66367729', mode 'rb+' at 0x7247b18>"
p5026
asbasbasbag49
(g65
g51
NtRp5027
(dp5028
g54
(dp5029
sg63
g3626
sg56
(lp5030
g49
(g70
g51
NtRp5031
(dp5032
g54
(dp5033
g74
g75
ssg63
g5027
sg56
(lp5034
S'session_filename'
p5035
asbag49
(g70
g51
NtRp5036
(dp5037
g54
(dp5038
g81
g82
ssg63
g5027
sg56
(lp5039
S':'
asbag49
(g70
g51
NtRp5040
(dp5041
g54
(dp5042
sg63
g5027
sg56
(lp5043
g49
(g50
g51
NtRp5044
(dp5045
g54
(dp5046
g62
I5
ssg63
g5040
sg56
(lp5047
S'/Users/zamechek/Downloads/web2py/web2py.app/Contents/Resources/applications/hellow/sessions/127.0.0.1-f0c125e4-5d5e-4805-8c10-bdfc66367729'
p5048
asbasbasbag49
(g65
g51
NtRp5049
(dp5050
g54
(dp5051
sg63
g3626
sg56
(lp5052
g49
(g70
g51
NtRp5053
(dp5054
g54
(dp5055
g74
g75
ssg63
g5049
sg56
(lp5056
S'session_id'
p5057
asbag49
(g70
g51
NtRp5058
(dp5059
g54
(dp5060
g81
g82
ssg63
g5049
sg56
(lp5061
S':'
asbag49
(g70
g51
NtRp5062
(dp5063
g54
(dp5064
sg63
g5049
sg56
(lp5065
g49
(g50
g51
NtRp5066
(dp5067
g54
(dp5068
g62
I5
ssg63
g5062
sg56
(lp5069
g624
asbasbasbag49
(g65
g51
NtRp5070
(dp5071
g54
(dp5072
sg63
g3626
sg56
(lp5073
g49
(g70
g51
NtRp5074
(dp5075
g54
(dp5076
g74
g75
ssg63
g5070
sg56
(lp5077
S'session_id_name'
p5078
asbag49
(g70
g51
NtRp5079
(dp5080
g54
(dp5081
g81
g82
ssg63
g5070
sg56
(lp5082
S':'
asbag49
(g70
g51
NtRp5083
(dp5084
g54
(dp5085
sg63
g5070
sg56
(lp5086
g49
(g50
g51
NtRp5087
(dp5088
g54
(dp5089
g62
I5
ssg63
g5083
sg56
(lp5090
g3683
asbasbasbag49
(g65
g51
NtRp5091
(dp5092
g54
(dp5093
sg63
g3626
sg56
(lp5094
g49
(g70
g51
NtRp5095
(dp5096
g54
(dp5097
g74
g75
ssg63
g5091
sg56
(lp5098
S'session_locked'
p5099
asbag49
(g70
g51
NtRp5100
(dp5101
g54
(dp5102
g81
g82
ssg63
g5091
sg56
(lp5103
S':'
asbag49
(g70
g51
NtRp5104
(dp5105
g54
(dp5106
sg63
g5091
sg56
(lp5107
g49
(g50
g51
NtRp5108
(dp5109
g54
(dp5110
g62
I5
ssg63
g5104
sg56
(lp5111
g1260
asbasbasbag49
(g65
g51
NtRp5112
(dp5113
g54
(dp5114
sg63
g3626
sg56
(lp5115
g49
(g70
g51
NtRp5116
(dp5117
g54
(dp5118
g74
g75
ssg63
g5112
sg56
(lp5119
S'session_new'
p5120
asbag49
(g70
g51
NtRp5121
(dp5122
g54
(dp5123
g81
g82
ssg63
g5112
sg56
(lp5124
S':'
asbag49
(g70
g51
NtRp5125
(dp5126
g54
(dp5127
sg63
g5112
sg56
(lp5128
g49
(g50
g51
NtRp5129
(dp5130
g54
(dp5131
g62
I5
ssg63
g5125
sg56
(lp5132
g92
asbasbasbag49
(g65
g51
NtRp5133
(dp5134
g54
(dp5135
sg63
g3626
sg56
(lp5136
g49
(g70
g51
NtRp5137
(dp5138
g54
(dp5139
g74
g75
ssg63
g5133
sg56
(lp5140
S'session_storage_type'
p5141
asbag49
(g70
g51
NtRp5142
(dp5143
g54
(dp5144
g81
g82
ssg63
g5133
sg56
(lp5145
S':'
asbag49
(g70
g51
NtRp5146
(dp5147
g54
(dp5148
sg63
g5133
sg56
(lp5149
g49
(g50
g51
NtRp5150
(dp5151
g54
(dp5152
g62
I5
ssg63
g5146
sg56
(lp5153
g3518
asbasbasbag49
(g65
g51
NtRp5154
(dp5155
g54
(dp5156
sg63
g3626
sg56
(lp5157
g49
(g70
g51
NtRp5158
(dp5159
g54
(dp5160
g74
g75
ssg63
g5154
sg56
(lp5161
S'status'
p5162
asbag49
(g70
g51
NtRp5163
(dp5164
g54
(dp5165
g81
g82
ssg63
g5154
sg56
(lp5166
S':'
asbag49
(g70
g51
NtRp5167
(dp5168
g54
(dp5169
sg63
g5154
sg56
(lp5170
g49
(g50
g51
NtRp5171
(dp5172
g54
(dp5173
g62
I5
ssg63
g5167
sg56
(lp5174
S'200'
p5175
asbasbasbag49
(g65
g51
NtRp5176
(dp5177
g54
(dp5178
sg63
g3626
sg56
(lp5179
g49
(g70
g51
NtRp5180
(dp5181
g54
(dp5182
g74
g75
ssg63
g5176
sg56
(lp5183
S'subtitle'
p5184
asbag49
(g70
g51
NtRp5185
(dp5186
g54
(dp5187
g81
g82
ssg63
g5176
sg56
(lp5188
S':'
asbag49
(g70
g51
NtRp5189
(dp5190
g54
(dp5191
sg63
g5176
sg56
(lp5192
g49
(g50
g51
NtRp5193
(dp5194
g54
(dp5195
g62
I5
ssg63
g5189
sg56
(lp5196
g4140
(S's\r\x00\x00\x00customize me!'
tRp5197
asbasbasbag49
(g65
g51
NtRp5198
(dp5199
g54
(dp5200
sg63
g3626
sg56
(lp5201
g49
(g70
g51
NtRp5202
(dp5203
g54
(dp5204
g74
g75
ssg63
g5198
sg56
(lp5205
S'title'
p5206
asbag49
(g70
g51
NtRp5207
(dp5208
g54
(dp5209
g81
g82
ssg63
g5198
sg56
(lp5210
S':'
asbag49
(g70
g51
NtRp5211
(dp5212
g54
(dp5213
sg63
g5198
sg56
(lp5214
g49
(g50
g51
NtRp5215
(dp5216
g54
(dp5217
g62
I5
ssg63
g5211
sg56
(lp5218
S'Hellow'
p5219
asbasbasbag49
(g65
g51
NtRp5220
(dp5221
g54
(dp5222
sg63
g3626
sg56
(lp5223
g49
(g70
g51
NtRp5224
(dp5225
g54
(dp5226
g74
g75
ssg63
g5220
sg56
(lp5227
S'view'
p5228
asbag49
(g70
g51
NtRp5229
(dp5230
g54
(dp5231
g81
g82
ssg63
g5220
sg56
(lp5232
S':'
asbag49
(g70
g51
NtRp5233
(dp5234
g54
(dp5235
sg63
g5220
sg56
(lp5236
g49
(g50
g51
NtRp5237
(dp5238
g54
(dp5239
g62
I5
ssg63
g5233
sg56
(lp5240
S'slot/show.html'
p5241
asbasbasbasbasbsS'locals'
p5242
(dp5243
S'slot'
p5244
S"<Row {'odd': 5, 'id': 1}>"
p5245
sS'id'
p5246
S"'1'"
p5247
sssS'traceback'
p5248
S'Traceback (most recent call last):\n  File "/home/mdipierro/web2py/gluon/restricted.py", line 212, in restricted\n  File "/Users/zamechek/Downloads/web2py/web2py.app/Contents/Resources/applications/hellow/controllers/slot.py", line 17, in <module>\n  File "/home/mdipierro/web2py/gluon/globals.py", line 193, in <lambda>\n  File "/Users/zamechek/Downloads/web2py/web2py.app/Contents/Resources/applications/hellow/controllers/slot.py", line 9, in show\nTypeError: isAWinner() takes exactly 1 argument (0 given)\n'
p5249
s.