(dp1
S'output'
p2
S"<type 'exceptions.SyntaxError'> Field date_time does not belong to the table"
p3
sS'layer'
p4
S'/Users/zamechek/Downloads/web2py/web2py.app/Contents/Resources/applications/hellow/controllers/game.py'
p5
sS'code'
p6
S'# coding: utf8\n# try something like\nimport random\nimport datetime\ndef show():\n    id = request.args[0]\n    game = db.game(id)\n    auth_user = (game.auth_user)\n    \n    query=((db.game.id==db.game_slots.game)&(db.slot.id==db.game_slots.slot))\n    #game_and_slots=(db.game.id==db.game_slots.game)&(db.slot.id==db.game_slots.slot)\n    rows = db(query).select(db.slot.id, db.slot.odds)\n    \n    otherForm = form_from_factory(rows, game, id)\n    return dict(name=auth_user.first_name.capitalize() + " " + auth_user.last_name.capitalize(), balance = game.balance, slots = rows, gameid = id, otherForm=otherForm)\n    \ndef form_from_factory(rows , game, id):\n    game_and_slots=db((db.game.id==db.game_slots.game)&(db.slot.id==db.game_slots.slot))\n    otherForm = SQLFORM.factory(\n        Field(\'bet\', requires=IS_NOT_EMPTY()),\n        Field(\'slot\', requires=IS_IN_DB(game_and_slots, \'slot.id\'), widget=SQLFORM.widgets.radio.widget))\n    if otherForm.process().accepted:\n        mybet = int(otherForm.vars.bet)\n        currentBalance =  int(game.balance)\n        remainingBalance = isWinner(int(otherForm.vars.slot), mybet, currentBalance)\n        game.update_record(balance=str(remainingBalance))\n        db.user_action.insert(game = game, auth_user = game.auth_user, slot = otherForm.vars.slot, bet = mybet, winning = currentBalance, odds = otherForm.vars.slot, date_time = datetime.datetime.now())\n        \n\n    elif otherForm.errors:\n        response.flash = \'form has errors\'\n    return otherForm\n    \ndef isWinner(odds, bet, balance):\n    if(random.randint(1, 10) > odds):\n        response.flash = \'You won\'\n        return bet + balance\n    else:\n        response.flash = \'You lost\'\n        return balance - bet\n\nresponse._vars=response._caller(show)\n'
p7
sS'snapshot'
p8
(dp9
S'exception'
p10
(dp11
S'__getslice__'
p12
S"<method-wrapper '__getslice__' of exceptions.SyntaxError object at 0x6e86f70>"
p13
sS'text'
p14
S'None'
p15
sS'__str__'
p16
S"<method-wrapper '__str__' of exceptions.SyntaxError object at 0x6e86f70>"
p17
sS'__reduce__'
p18
S'<built-in method __reduce__ of exceptions.SyntaxError object at 0x6e86f70>'
p19
sS'__dict__'
p20
S'{}'
p21
sS'__init__'
p22
S"<method-wrapper '__init__' of exceptions.SyntaxError object at 0x6e86f70>"
p23
sS'__setattr__'
p24
S"<method-wrapper '__setattr__' of exceptions.SyntaxError object at 0x6e86f70>"
p25
sS'__reduce_ex__'
p26
S'<built-in method __reduce_ex__ of exceptions.SyntaxError object at 0x6e86f70>'
p27
sS'__new__'
p28
S'<built-in method __new__ of type object at 0x5f9320>'
p29
sS'__class__'
p30
S"<type 'exceptions.SyntaxError'>"
p31
sS'filename'
p32
S'None'
p33
sS'lineno'
p34
S'None'
p35
sS'msg'
p36
S"'Field date_time does not belong to the table'"
p37
sS'__doc__'
p38
S"'Invalid syntax.'"
p39
sS'__getitem__'
p40
S"<method-wrapper '__getitem__' of exceptions.SyntaxError object at 0x6e86f70>"
p41
sS'__setstate__'
p42
S'<built-in method __setstate__ of exceptions.SyntaxError object at 0x6e86f70>'
p43
sS'__getattribute__'
p44
S"<method-wrapper '__getattribute__' of exceptions.SyntaxError object at 0x6e86f70>"
p45
sS'print_file_and_line'
p46
S'None'
p47
sS'args'
p48
S"('Field date_time does not belong to the table',)"
p49
sS'offset'
p50
S'None'
p51
sS'__delattr__'
p52
S"<method-wrapper '__delattr__' of exceptions.SyntaxError object at 0x6e86f70>"
p53
sS'__repr__'
p54
S"<method-wrapper '__repr__' of exceptions.SyntaxError object at 0x6e86f70>"
p55
sS'__hash__'
p56
S"<method-wrapper '__hash__' of exceptions.SyntaxError object at 0x6e86f70>"
p57
ssS'evalue'
p58
S'Field date_time does not belong to the table'
p59
sS'request'
p60
ccopy_reg
_reconstructor
p61
(cgluon.html
BEAUTIFY
p62
c__builtin__
object
p63
NtRp64
(dp65
S'attributes'
p66
(dp67
sS'components'
p68
(lp69
g61
(cgluon.html
TABLE
p70
g63
NtRp71
(dp72
g66
(dp73
S'level'
p74
I5
ssS'parent'
p75
Nsg68
(lp76
g61
(cgluon.html
TR
p77
g63
NtRp78
(dp79
g66
(dp80
sg75
g71
sg68
(lp81
g61
(cgluon.html
TD
p82
g63
NtRp83
(dp84
g66
(dp85
S'_style'
p86
S'font-weight:bold;vertical-align:top'
p87
ssg75
g78
sg68
(lp88
S'ajax'
p89
asbag61
(g82
g63
NtRp90
(dp91
g66
(dp92
S'_valign'
p93
S'top'
p94
ssg75
g78
sg68
(lp95
S':'
asbag61
(g82
g63
NtRp96
(dp97
g66
(dp98
sg75
g78
sg68
(lp99
g61
(g62
g63
NtRp100
(dp101
g66
(dp102
g74
I5
ssg75
g96
sg68
(lp103
S'False'
p104
asbasbasbag61
(g77
g63
NtRp105
(dp106
g66
(dp107
sg75
g71
sg68
(lp108
g61
(g82
g63
NtRp109
(dp110
g66
(dp111
g86
g87
ssg75
g105
sg68
(lp112
S'application'
p113
asbag61
(g82
g63
NtRp114
(dp115
g66
(dp116
g93
g94
ssg75
g105
sg68
(lp117
S':'
asbag61
(g82
g63
NtRp118
(dp119
g66
(dp120
sg75
g105
sg68
(lp121
g61
(g62
g63
NtRp122
(dp123
g66
(dp124
g74
I5
ssg75
g118
sg68
(lp125
S'hellow'
p126
asbasbasbag61
(g77
g63
NtRp127
(dp128
g66
(dp129
sg75
g71
sg68
(lp130
g61
(g82
g63
NtRp131
(dp132
g66
(dp133
g86
g87
ssg75
g127
sg68
(lp134
g48
asbag61
(g82
g63
NtRp135
(dp136
g66
(dp137
g93
g94
ssg75
g127
sg68
(lp138
S':'
asbag61
(g82
g63
NtRp139
(dp140
g66
(dp141
sg75
g127
sg68
(lp142
g61
(g62
g63
NtRp143
(dp144
g66
(dp145
g74
I5
ssg75
g139
sg68
(lp146
g61
(g70
g63
NtRp147
(dp148
g66
(dp149
g74
I4
ssg75
Nsg68
(lp150
g61
(g77
g63
NtRp151
(dp152
g66
(dp153
sg75
g147
sg68
(lp154
g61
(g82
g63
NtRp155
(dp156
g66
(dp157
sg75
g151
sg68
(lp158
g61
(g62
g63
NtRp159
(dp160
g66
(dp161
g74
I4
ssg75
g155
sg68
(lp162
S'1'
asbasbasbasbasbasbasbag61
(g77
g63
NtRp163
(dp164
g66
(dp165
sg75
g71
sg68
(lp166
g61
(g82
g63
NtRp167
(dp168
g66
(dp169
g86
g87
ssg75
g163
sg68
(lp170
S'body'
p171
asbag61
(g82
g63
NtRp172
(dp173
g66
(dp174
g93
g94
ssg75
g163
sg68
(lp175
S':'
asbag61
(g82
g63
NtRp176
(dp177
g66
(dp178
sg75
g163
sg68
(lp179
g61
(g62
g63
NtRp180
(dp181
g66
(dp182
g74
I5
ssg75
g176
sg68
(lp183
S"<open file '<fdopen>', mode 'w+b' at 0x92b6a88>"
p184
asbasbasbag61
(g77
g63
NtRp185
(dp186
g66
(dp187
sg75
g71
sg68
(lp188
g61
(g82
g63
NtRp189
(dp190
g66
(dp191
g86
g87
ssg75
g185
sg68
(lp192
S'cid'
p193
asbag61
(g82
g63
NtRp194
(dp195
g66
(dp196
g93
g94
ssg75
g185
sg68
(lp197
S':'
asbag61
(g82
g63
NtRp198
(dp199
g66
(dp200
sg75
g185
sg68
(lp201
g61
(g62
g63
NtRp202
(dp203
g66
(dp204
g74
I5
ssg75
g198
sg68
(lp205
S'None'
p206
asbasbasbag61
(g77
g63
NtRp207
(dp208
g66
(dp209
sg75
g71
sg68
(lp210
g61
(g82
g63
NtRp211
(dp212
g66
(dp213
g86
g87
ssg75
g207
sg68
(lp214
S'client'
p215
asbag61
(g82
g63
NtRp216
(dp217
g66
(dp218
g93
g94
ssg75
g207
sg68
(lp219
S':'
asbag61
(g82
g63
NtRp220
(dp221
g66
(dp222
sg75
g207
sg68
(lp223
g61
(g62
g63
NtRp224
(dp225
g66
(dp226
g74
I5
ssg75
g220
sg68
(lp227
S'127.0.0.1'
p228
asbasbasbag61
(g77
g63
NtRp229
(dp230
g66
(dp231
sg75
g71
sg68
(lp232
g61
(g82
g63
NtRp233
(dp234
g66
(dp235
g86
g87
ssg75
g229
sg68
(lp236
S'controller'
p237
asbag61
(g82
g63
NtRp238
(dp239
g66
(dp240
g93
g94
ssg75
g229
sg68
(lp241
S':'
asbag61
(g82
g63
NtRp242
(dp243
g66
(dp244
sg75
g229
sg68
(lp245
g61
(g62
g63
NtRp246
(dp247
g66
(dp248
g74
I5
ssg75
g242
sg68
(lp249
S'game'
p250
asbasbasbag61
(g77
g63
NtRp251
(dp252
g66
(dp253
sg75
g71
sg68
(lp254
g61
(g82
g63
NtRp255
(dp256
g66
(dp257
g86
g87
ssg75
g251
sg68
(lp258
S'cookies'
p259
asbag61
(g82
g63
NtRp260
(dp261
g66
(dp262
g93
g94
ssg75
g251
sg68
(lp263
S':'
asbag61
(g82
g63
NtRp264
(dp265
g66
(dp266
sg75
g251
sg68
(lp267
g61
(g62
g63
NtRp268
(dp269
g66
(dp270
g74
I5
ssg75
g264
sg68
(lp271
g61
(g70
g63
NtRp272
(dp273
g66
(dp274
g74
I4
ssg75
Nsg68
(lp275
g61
(g77
g63
NtRp276
(dp277
g66
(dp278
sg75
g272
sg68
(lp279
g61
(g82
g63
NtRp280
(dp281
g66
(dp282
g86
g87
ssg75
g276
sg68
(lp283
S'session_id_admin'
p284
asbag61
(g82
g63
NtRp285
(dp286
g66
(dp287
g93
g94
ssg75
g276
sg68
(lp288
S':'
asbag61
(g82
g63
NtRp289
(dp290
g66
(dp291
sg75
g276
sg68
(lp292
g61
(g62
g63
NtRp293
(dp294
g66
(dp295
g74
I4
ssg75
g289
sg68
(lp296
S'127.0.0.1-bf448199-cadc-41e3-b1a7-bed302e89a3e'
p297
ag61
(g70
g63
NtRp298
(dp299
g66
(dp300
g74
I3
ssg75
Nsg68
(lp301
g61
(g77
g63
NtRp302
(dp303
g66
(dp304
sg75
g298
sg68
(lp305
g61
(g82
g63
NtRp306
(dp307
g66
(dp308
g86
g87
ssg75
g302
sg68
(lp309
S'comment'
p310
asbag61
(g82
g63
NtRp311
(dp312
g66
(dp313
g93
g94
ssg75
g302
sg68
(lp314
S':'
asbag61
(g82
g63
NtRp315
(dp316
g66
(dp317
sg75
g302
sg68
(lp318
g61
(g62
g63
NtRp319
(dp320
g66
(dp321
g74
I3
ssg75
g315
sg68
(lp322
S''
asbasbasbag61
(g77
g63
NtRp323
(dp324
g66
(dp325
sg75
g298
sg68
(lp326
g61
(g82
g63
NtRp327
(dp328
g66
(dp329
g86
g87
ssg75
g323
sg68
(lp330
S'domain'
p331
asbag61
(g82
g63
NtRp332
(dp333
g66
(dp334
g93
g94
ssg75
g323
sg68
(lp335
S':'
asbag61
(g82
g63
NtRp336
(dp337
g66
(dp338
sg75
g323
sg68
(lp339
g61
(g62
g63
NtRp340
(dp341
g66
(dp342
g74
I3
ssg75
g336
sg68
(lp343
S''
asbasbasbag61
(g77
g63
NtRp344
(dp345
g66
(dp346
sg75
g298
sg68
(lp347
g61
(g82
g63
NtRp348
(dp349
g66
(dp350
g86
g87
ssg75
g344
sg68
(lp351
S'expires'
p352
asbag61
(g82
g63
NtRp353
(dp354
g66
(dp355
g93
g94
ssg75
g344
sg68
(lp356
S':'
asbag61
(g82
g63
NtRp357
(dp358
g66
(dp359
sg75
g344
sg68
(lp360
g61
(g62
g63
NtRp361
(dp362
g66
(dp363
g74
I3
ssg75
g357
sg68
(lp364
S''
asbasbasbag61
(g77
g63
NtRp365
(dp366
g66
(dp367
sg75
g298
sg68
(lp368
g61
(g82
g63
NtRp369
(dp370
g66
(dp371
g86
g87
ssg75
g365
sg68
(lp372
S'max-age'
p373
asbag61
(g82
g63
NtRp374
(dp375
g66
(dp376
g93
g94
ssg75
g365
sg68
(lp377
S':'
asbag61
(g82
g63
NtRp378
(dp379
g66
(dp380
sg75
g365
sg68
(lp381
g61
(g62
g63
NtRp382
(dp383
g66
(dp384
g74
I3
ssg75
g378
sg68
(lp385
S''
asbasbasbag61
(g77
g63
NtRp386
(dp387
g66
(dp388
sg75
g298
sg68
(lp389
g61
(g82
g63
NtRp390
(dp391
g66
(dp392
g86
g87
ssg75
g386
sg68
(lp393
S'path'
p394
asbag61
(g82
g63
NtRp395
(dp396
g66
(dp397
g93
g94
ssg75
g386
sg68
(lp398
S':'
asbag61
(g82
g63
NtRp399
(dp400
g66
(dp401
sg75
g386
sg68
(lp402
g61
(g62
g63
NtRp403
(dp404
g66
(dp405
g74
I3
ssg75
g399
sg68
(lp406
S''
asbasbasbag61
(g77
g63
NtRp407
(dp408
g66
(dp409
sg75
g298
sg68
(lp410
g61
(g82
g63
NtRp411
(dp412
g66
(dp413
g86
g87
ssg75
g407
sg68
(lp414
S'secure'
p415
asbag61
(g82
g63
NtRp416
(dp417
g66
(dp418
g93
g94
ssg75
g407
sg68
(lp419
S':'
asbag61
(g82
g63
NtRp420
(dp421
g66
(dp422
sg75
g407
sg68
(lp423
g61
(g62
g63
NtRp424
(dp425
g66
(dp426
g74
I3
ssg75
g420
sg68
(lp427
S''
asbasbasbag61
(g77
g63
NtRp428
(dp429
g66
(dp430
sg75
g298
sg68
(lp431
g61
(g82
g63
NtRp432
(dp433
g66
(dp434
g86
g87
ssg75
g428
sg68
(lp435
S'version'
p436
asbag61
(g82
g63
NtRp437
(dp438
g66
(dp439
g93
g94
ssg75
g428
sg68
(lp440
S':'
asbag61
(g82
g63
NtRp441
(dp442
g66
(dp443
sg75
g428
sg68
(lp444
g61
(g62
g63
NtRp445
(dp446
g66
(dp447
g74
I3
ssg75
g441
sg68
(lp448
S''
asbasbasbasbasbasbasbag61
(g77
g63
NtRp449
(dp450
g66
(dp451
sg75
g272
sg68
(lp452
g61
(g82
g63
NtRp453
(dp454
g66
(dp455
g86
g87
ssg75
g449
sg68
(lp456
S'session_id_hellow'
p457
asbag61
(g82
g63
NtRp458
(dp459
g66
(dp460
g93
g94
ssg75
g449
sg68
(lp461
S':'
asbag61
(g82
g63
NtRp462
(dp463
g66
(dp464
sg75
g449
sg68
(lp465
g61
(g62
g63
NtRp466
(dp467
g66
(dp468
g74
I4
ssg75
g462
sg68
(lp469
S'127.0.0.1-bbea59f2-333e-4593-a45c-2c44a5133d77'
p470
ag61
(g70
g63
NtRp471
(dp472
g66
(dp473
g74
I3
ssg75
Nsg68
(lp474
g61
(g77
g63
NtRp475
(dp476
g66
(dp477
sg75
g471
sg68
(lp478
g61
(g82
g63
NtRp479
(dp480
g66
(dp481
g86
g87
ssg75
g475
sg68
(lp482
g310
asbag61
(g82
g63
NtRp483
(dp484
g66
(dp485
g93
g94
ssg75
g475
sg68
(lp486
S':'
asbag61
(g82
g63
NtRp487
(dp488
g66
(dp489
sg75
g475
sg68
(lp490
g61
(g62
g63
NtRp491
(dp492
g66
(dp493
g74
I3
ssg75
g487
sg68
(lp494
S''
asbasbasbag61
(g77
g63
NtRp495
(dp496
g66
(dp497
sg75
g471
sg68
(lp498
g61
(g82
g63
NtRp499
(dp500
g66
(dp501
g86
g87
ssg75
g495
sg68
(lp502
g331
asbag61
(g82
g63
NtRp503
(dp504
g66
(dp505
g93
g94
ssg75
g495
sg68
(lp506
S':'
asbag61
(g82
g63
NtRp507
(dp508
g66
(dp509
sg75
g495
sg68
(lp510
g61
(g62
g63
NtRp511
(dp512
g66
(dp513
g74
I3
ssg75
g507
sg68
(lp514
S''
asbasbasbag61
(g77
g63
NtRp515
(dp516
g66
(dp517
sg75
g471
sg68
(lp518
g61
(g82
g63
NtRp519
(dp520
g66
(dp521
g86
g87
ssg75
g515
sg68
(lp522
g352
asbag61
(g82
g63
NtRp523
(dp524
g66
(dp525
g93
g94
ssg75
g515
sg68
(lp526
S':'
asbag61
(g82
g63
NtRp527
(dp528
g66
(dp529
sg75
g515
sg68
(lp530
g61
(g62
g63
NtRp531
(dp532
g66
(dp533
g74
I3
ssg75
g527
sg68
(lp534
S''
asbasbasbag61
(g77
g63
NtRp535
(dp536
g66
(dp537
sg75
g471
sg68
(lp538
g61
(g82
g63
NtRp539
(dp540
g66
(dp541
g86
g87
ssg75
g535
sg68
(lp542
g373
asbag61
(g82
g63
NtRp543
(dp544
g66
(dp545
g93
g94
ssg75
g535
sg68
(lp546
S':'
asbag61
(g82
g63
NtRp547
(dp548
g66
(dp549
sg75
g535
sg68
(lp550
g61
(g62
g63
NtRp551
(dp552
g66
(dp553
g74
I3
ssg75
g547
sg68
(lp554
S''
asbasbasbag61
(g77
g63
NtRp555
(dp556
g66
(dp557
sg75
g471
sg68
(lp558
g61
(g82
g63
NtRp559
(dp560
g66
(dp561
g86
g87
ssg75
g555
sg68
(lp562
g394
asbag61
(g82
g63
NtRp563
(dp564
g66
(dp565
g93
g94
ssg75
g555
sg68
(lp566
S':'
asbag61
(g82
g63
NtRp567
(dp568
g66
(dp569
sg75
g555
sg68
(lp570
g61
(g62
g63
NtRp571
(dp572
g66
(dp573
g74
I3
ssg75
g567
sg68
(lp574
S''
asbasbasbag61
(g77
g63
NtRp575
(dp576
g66
(dp577
sg75
g471
sg68
(lp578
g61
(g82
g63
NtRp579
(dp580
g66
(dp581
g86
g87
ssg75
g575
sg68
(lp582
g415
asbag61
(g82
g63
NtRp583
(dp584
g66
(dp585
g93
g94
ssg75
g575
sg68
(lp586
S':'
asbag61
(g82
g63
NtRp587
(dp588
g66
(dp589
sg75
g575
sg68
(lp590
g61
(g62
g63
NtRp591
(dp592
g66
(dp593
g74
I3
ssg75
g587
sg68
(lp594
S''
asbasbasbag61
(g77
g63
NtRp595
(dp596
g66
(dp597
sg75
g471
sg68
(lp598
g61
(g82
g63
NtRp599
(dp600
g66
(dp601
g86
g87
ssg75
g595
sg68
(lp602
g436
asbag61
(g82
g63
NtRp603
(dp604
g66
(dp605
g93
g94
ssg75
g595
sg68
(lp606
S':'
asbag61
(g82
g63
NtRp607
(dp608
g66
(dp609
sg75
g595
sg68
(lp610
g61
(g62
g63
NtRp611
(dp612
g66
(dp613
g74
I3
ssg75
g607
sg68
(lp614
S''
asbasbasbasbasbasbasbag61
(g77
g63
NtRp615
(dp616
g66
(dp617
sg75
g272
sg68
(lp618
g61
(g82
g63
NtRp619
(dp620
g66
(dp621
g86
g87
ssg75
g615
sg68
(lp622
S'session_id_welcome'
p623
asbag61
(g82
g63
NtRp624
(dp625
g66
(dp626
g93
g94
ssg75
g615
sg68
(lp627
S':'
asbag61
(g82
g63
NtRp628
(dp629
g66
(dp630
sg75
g615
sg68
(lp631
g61
(g62
g63
NtRp632
(dp633
g66
(dp634
g74
I4
ssg75
g628
sg68
(lp635
S'127.0.0.1-dfebfa33-25aa-4072-bce4-08f7e89e2d04'
p636
ag61
(g70
g63
NtRp637
(dp638
g66
(dp639
g74
I3
ssg75
Nsg68
(lp640
g61
(g77
g63
NtRp641
(dp642
g66
(dp643
sg75
g637
sg68
(lp644
g61
(g82
g63
NtRp645
(dp646
g66
(dp647
g86
g87
ssg75
g641
sg68
(lp648
g310
asbag61
(g82
g63
NtRp649
(dp650
g66
(dp651
g93
g94
ssg75
g641
sg68
(lp652
S':'
asbag61
(g82
g63
NtRp653
(dp654
g66
(dp655
sg75
g641
sg68
(lp656
g61
(g62
g63
NtRp657
(dp658
g66
(dp659
g74
I3
ssg75
g653
sg68
(lp660
S''
asbasbasbag61
(g77
g63
NtRp661
(dp662
g66
(dp663
sg75
g637
sg68
(lp664
g61
(g82
g63
NtRp665
(dp666
g66
(dp667
g86
g87
ssg75
g661
sg68
(lp668
g331
asbag61
(g82
g63
NtRp669
(dp670
g66
(dp671
g93
g94
ssg75
g661
sg68
(lp672
S':'
asbag61
(g82
g63
NtRp673
(dp674
g66
(dp675
sg75
g661
sg68
(lp676
g61
(g62
g63
NtRp677
(dp678
g66
(dp679
g74
I3
ssg75
g673
sg68
(lp680
S''
asbasbasbag61
(g77
g63
NtRp681
(dp682
g66
(dp683
sg75
g637
sg68
(lp684
g61
(g82
g63
NtRp685
(dp686
g66
(dp687
g86
g87
ssg75
g681
sg68
(lp688
g352
asbag61
(g82
g63
NtRp689
(dp690
g66
(dp691
g93
g94
ssg75
g681
sg68
(lp692
S':'
asbag61
(g82
g63
NtRp693
(dp694
g66
(dp695
sg75
g681
sg68
(lp696
g61
(g62
g63
NtRp697
(dp698
g66
(dp699
g74
I3
ssg75
g693
sg68
(lp700
S''
asbasbasbag61
(g77
g63
NtRp701
(dp702
g66
(dp703
sg75
g637
sg68
(lp704
g61
(g82
g63
NtRp705
(dp706
g66
(dp707
g86
g87
ssg75
g701
sg68
(lp708
g373
asbag61
(g82
g63
NtRp709
(dp710
g66
(dp711
g93
g94
ssg75
g701
sg68
(lp712
S':'
asbag61
(g82
g63
NtRp713
(dp714
g66
(dp715
sg75
g701
sg68
(lp716
g61
(g62
g63
NtRp717
(dp718
g66
(dp719
g74
I3
ssg75
g713
sg68
(lp720
S''
asbasbasbag61
(g77
g63
NtRp721
(dp722
g66
(dp723
sg75
g637
sg68
(lp724
g61
(g82
g63
NtRp725
(dp726
g66
(dp727
g86
g87
ssg75
g721
sg68
(lp728
g394
asbag61
(g82
g63
NtRp729
(dp730
g66
(dp731
g93
g94
ssg75
g721
sg68
(lp732
S':'
asbag61
(g82
g63
NtRp733
(dp734
g66
(dp735
sg75
g721
sg68
(lp736
g61
(g62
g63
NtRp737
(dp738
g66
(dp739
g74
I3
ssg75
g733
sg68
(lp740
S''
asbasbasbag61
(g77
g63
NtRp741
(dp742
g66
(dp743
sg75
g637
sg68
(lp744
g61
(g82
g63
NtRp745
(dp746
g66
(dp747
g86
g87
ssg75
g741
sg68
(lp748
g415
asbag61
(g82
g63
NtRp749
(dp750
g66
(dp751
g93
g94
ssg75
g741
sg68
(lp752
S':'
asbag61
(g82
g63
NtRp753
(dp754
g66
(dp755
sg75
g741
sg68
(lp756
g61
(g62
g63
NtRp757
(dp758
g66
(dp759
g74
I3
ssg75
g753
sg68
(lp760
S''
asbasbasbag61
(g77
g63
NtRp761
(dp762
g66
(dp763
sg75
g637
sg68
(lp764
g61
(g82
g63
NtRp765
(dp766
g66
(dp767
g86
g87
ssg75
g761
sg68
(lp768
g436
asbag61
(g82
g63
NtRp769
(dp770
g66
(dp771
g93
g94
ssg75
g761
sg68
(lp772
S':'
asbag61
(g82
g63
NtRp773
(dp774
g66
(dp775
sg75
g761
sg68
(lp776
g61
(g62
g63
NtRp777
(dp778
g66
(dp779
g74
I3
ssg75
g773
sg68
(lp780
S''
asbasbasbasbasbasbasbasbasbasbasbag61
(g77
g63
NtRp781
(dp782
g66
(dp783
sg75
g71
sg68
(lp784
g61
(g82
g63
NtRp785
(dp786
g66
(dp787
g86
g87
ssg75
g781
sg68
(lp788
S'env'
p789
asbag61
(g82
g63
NtRp790
(dp791
g66
(dp792
g93
g94
ssg75
g781
sg68
(lp793
S':'
asbag61
(g82
g63
NtRp794
(dp795
g66
(dp796
sg75
g781
sg68
(lp797
g61
(g62
g63
NtRp798
(dp799
g66
(dp800
g74
I5
ssg75
g794
sg68
(lp801
g61
(g70
g63
NtRp802
(dp803
g66
(dp804
g74
I4
ssg75
Nsg68
(lp805
g61
(g77
g63
NtRp806
(dp807
g66
(dp808
sg75
g802
sg68
(lp809
g61
(g82
g63
NtRp810
(dp811
g66
(dp812
g86
g87
ssg75
g806
sg68
(lp813
S'app_folders'
p814
asbag61
(g82
g63
NtRp815
(dp816
g66
(dp817
g93
g94
ssg75
g806
sg68
(lp818
S':'
asbag61
(g82
g63
NtRp819
(dp820
g66
(dp821
sg75
g806
sg68
(lp822
g61
(g62
g63
NtRp823
(dp824
g66
(dp825
g74
I4
ssg75
g819
sg68
(lp826
S"set(['/Users/zamechek/Downloads/web2py/web2py.app/Contents/Resources/applications/hellow/', '/Users/zamechek/Downloads/web2py/web2py.app/Contents/Resources/applications/admin/', '/Users/zamechek/Downloads/web2py/web2py.app/Contents/Resources/applications/welcome/'])"
p827
asbasbasbag61
(g77
g63
NtRp828
(dp829
g66
(dp830
sg75
g802
sg68
(lp831
g61
(g82
g63
NtRp832
(dp833
g66
(dp834
g86
g87
ssg75
g828
sg68
(lp835
S'applications_parent'
p836
asbag61
(g82
g63
NtRp837
(dp838
g66
(dp839
g93
g94
ssg75
g828
sg68
(lp840
S':'
asbag61
(g82
g63
NtRp841
(dp842
g66
(dp843
sg75
g828
sg68
(lp844
g61
(g62
g63
NtRp845
(dp846
g66
(dp847
g74
I4
ssg75
g841
sg68
(lp848
S'/Users/zamechek/Downloads/web2py/web2py.app/Contents/Resources'
p849
asbasbasbag61
(g77
g63
NtRp850
(dp851
g66
(dp852
sg75
g802
sg68
(lp853
g61
(g82
g63
NtRp854
(dp855
g66
(dp856
g86
g87
ssg75
g850
sg68
(lp857
S'cmd_args'
p858
asbag61
(g82
g63
NtRp859
(dp860
g66
(dp861
g93
g94
ssg75
g850
sg68
(lp862
S':'
asbag61
(g82
g63
NtRp863
(dp864
g66
(dp865
sg75
g850
sg68
(lp866
g61
(g62
g63
NtRp867
(dp868
g66
(dp869
g74
I4
ssg75
g863
sg68
(lp870
g61
(g70
g63
NtRp871
(dp872
g66
(dp873
g74
I3
ssg75
Nsg68
(lp874
sbasbasbasbag61
(g77
g63
NtRp875
(dp876
g66
(dp877
sg75
g802
sg68
(lp878
g61
(g82
g63
NtRp879
(dp880
g66
(dp881
g86
g87
ssg75
g875
sg68
(lp882
S'cmd_options'
p883
asbag61
(g82
g63
NtRp884
(dp885
g66
(dp886
g93
g94
ssg75
g875
sg68
(lp887
S':'
asbag61
(g82
g63
NtRp888
(dp889
g66
(dp890
sg75
g875
sg68
(lp891
g61
(g62
g63
NtRp892
(dp893
g66
(dp894
g74
I4
ssg75
g888
sg68
(lp895
S"<Values at 0x478bf58: {'verbose': False, 'ip': '127.0.0.1', 'with_scheduler': False, 'ips': ['130.91.149.119'], 'shutdown_timeout': 5, 'taskbar': False, 'port': 8000, 'maxthreads': None, 'softcron': False, 'server_name': 'hntvlan5310374.wlan.sas.upenn.edu', 'bpython': False, 'nogui': False, 'pid_filename': 'httpserver.pid', 'extcron': False, 'runcron': False, 'run_system_tests': False, 'test': None, 'folder': '/Users/zamechek/Downloads/web2py/web2py.app/Contents/Resources', 'config': '', 'import_models': False, 'winservice': '', 'shell': None, 'run': '', 'log_filename': 'httpserver.log', 'debuglevel': 30, 'args': [''], 'socket_timeout': 5, 'ssl_ca_certificate': None, 'scheduler': None, 'profiler_filename': None, 'ssl_private_key': '', 'scheduler_groups': None, 'password': '<ask>', 'request_queue_size': 5, 'ssl_certificate': '', 'cronjob': False, 'numthreads': None, 'quiet': False, 'interfaces': None, 'minthreads': None, 'timeout': 10, 'plain': False, 'nobanner': False}>"
p896
asbasbasbag61
(g77
g63
NtRp897
(dp898
g66
(dp899
sg75
g802
sg68
(lp900
g61
(g82
g63
NtRp901
(dp902
g66
(dp903
g86
g87
ssg75
g897
sg68
(lp904
S'content_length'
p905
asbag61
(g82
g63
NtRp906
(dp907
g66
(dp908
g93
g94
ssg75
g897
sg68
(lp909
S':'
asbag61
(g82
g63
NtRp910
(dp911
g66
(dp912
sg75
g897
sg68
(lp913
g61
(g62
g63
NtRp914
(dp915
g66
(dp916
g74
I4
ssg75
g910
sg68
(lp917
S'470'
p918
asbasbasbag61
(g77
g63
NtRp919
(dp920
g66
(dp921
sg75
g802
sg68
(lp922
g61
(g82
g63
NtRp923
(dp924
g66
(dp925
g86
g87
ssg75
g919
sg68
(lp926
S'content_type'
p927
asbag61
(g82
g63
NtRp928
(dp929
g66
(dp930
g93
g94
ssg75
g919
sg68
(lp931
S':'
asbag61
(g82
g63
NtRp932
(dp933
g66
(dp934
sg75
g919
sg68
(lp935
g61
(g62
g63
NtRp936
(dp937
g66
(dp938
g74
I4
ssg75
g932
sg68
(lp939
S'multipart/form-data; boundary=----WebKitFormBoundaryb66Va1FVTJwnUFGf'
p940
asbasbasbag61
(g77
g63
NtRp941
(dp942
g66
(dp943
sg75
g802
sg68
(lp944
g61
(g82
g63
NtRp945
(dp946
g66
(dp947
g86
g87
ssg75
g941
sg68
(lp948
S'db_sessions'
p949
asbag61
(g82
g63
NtRp950
(dp951
g66
(dp952
g93
g94
ssg75
g941
sg68
(lp953
S':'
asbag61
(g82
g63
NtRp954
(dp955
g66
(dp956
sg75
g941
sg68
(lp957
g61
(g62
g63
NtRp958
(dp959
g66
(dp960
g74
I4
ssg75
g954
sg68
(lp961
S'set([])'
p962
asbasbasbag61
(g77
g63
NtRp963
(dp964
g66
(dp965
sg75
g802
sg68
(lp966
g61
(g82
g63
NtRp967
(dp968
g66
(dp969
g86
g87
ssg75
g963
sg68
(lp970
S'debugging'
p971
asbag61
(g82
g63
NtRp972
(dp973
g66
(dp974
g93
g94
ssg75
g963
sg68
(lp975
S':'
asbag61
(g82
g63
NtRp976
(dp977
g66
(dp978
sg75
g963
sg68
(lp979
g61
(g62
g63
NtRp980
(dp981
g66
(dp982
g74
I4
ssg75
g976
sg68
(lp983
S'True'
p984
asbasbasbag61
(g77
g63
NtRp985
(dp986
g66
(dp987
sg75
g802
sg68
(lp988
g61
(g82
g63
NtRp989
(dp990
g66
(dp991
g86
g87
ssg75
g985
sg68
(lp992
S'gluon_parent'
p993
asbag61
(g82
g63
NtRp994
(dp995
g66
(dp996
g93
g94
ssg75
g985
sg68
(lp997
S':'
asbag61
(g82
g63
NtRp998
(dp999
g66
(dp1000
sg75
g985
sg68
(lp1001
g61
(g62
g63
NtRp1002
(dp1003
g66
(dp1004
g74
I4
ssg75
g998
sg68
(lp1005
S'/Users/zamechek/Downloads/web2py/web2py.app/Contents/Resources'
p1006
asbasbasbag61
(g77
g63
NtRp1007
(dp1008
g66
(dp1009
sg75
g802
sg68
(lp1010
g61
(g82
g63
NtRp1011
(dp1012
g66
(dp1013
g86
g87
ssg75
g1007
sg68
(lp1014
S'http_accept'
p1015
asbag61
(g82
g63
NtRp1016
(dp1017
g66
(dp1018
g93
g94
ssg75
g1007
sg68
(lp1019
S':'
asbag61
(g82
g63
NtRp1020
(dp1021
g66
(dp1022
sg75
g1007
sg68
(lp1023
g61
(g62
g63
NtRp1024
(dp1025
g66
(dp1026
g74
I4
ssg75
g1020
sg68
(lp1027
S'text/html,application/xhtml+xml,application/xml;q=0.9,*/*;q=0.8'
p1028
asbasbasbag61
(g77
g63
NtRp1029
(dp1030
g66
(dp1031
sg75
g802
sg68
(lp1032
g61
(g82
g63
NtRp1033
(dp1034
g66
(dp1035
g86
g87
ssg75
g1029
sg68
(lp1036
S'http_accept_charset'
p1037
asbag61
(g82
g63
NtRp1038
(dp1039
g66
(dp1040
g93
g94
ssg75
g1029
sg68
(lp1041
S':'
asbag61
(g82
g63
NtRp1042
(dp1043
g66
(dp1044
sg75
g1029
sg68
(lp1045
g61
(g62
g63
NtRp1046
(dp1047
g66
(dp1048
g74
I4
ssg75
g1042
sg68
(lp1049
S'ISO-8859-1,utf-8;q=0.7,*;q=0.3'
p1050
asbasbasbag61
(g77
g63
NtRp1051
(dp1052
g66
(dp1053
sg75
g802
sg68
(lp1054
g61
(g82
g63
NtRp1055
(dp1056
g66
(dp1057
g86
g87
ssg75
g1051
sg68
(lp1058
S'http_accept_encoding'
p1059
asbag61
(g82
g63
NtRp1060
(dp1061
g66
(dp1062
g93
g94
ssg75
g1051
sg68
(lp1063
S':'
asbag61
(g82
g63
NtRp1064
(dp1065
g66
(dp1066
sg75
g1051
sg68
(lp1067
g61
(g62
g63
NtRp1068
(dp1069
g66
(dp1070
g74
I4
ssg75
g1064
sg68
(lp1071
S'gzip,deflate,sdch'
p1072
asbasbasbag61
(g77
g63
NtRp1073
(dp1074
g66
(dp1075
sg75
g802
sg68
(lp1076
g61
(g82
g63
NtRp1077
(dp1078
g66
(dp1079
g86
g87
ssg75
g1073
sg68
(lp1080
S'http_accept_language'
p1081
asbag61
(g82
g63
NtRp1082
(dp1083
g66
(dp1084
g93
g94
ssg75
g1073
sg68
(lp1085
S':'
asbag61
(g82
g63
NtRp1086
(dp1087
g66
(dp1088
sg75
g1073
sg68
(lp1089
g61
(g62
g63
NtRp1090
(dp1091
g66
(dp1092
g74
I4
ssg75
g1086
sg68
(lp1093
S'en-US,en;q=0.8'
p1094
asbasbasbag61
(g77
g63
NtRp1095
(dp1096
g66
(dp1097
sg75
g802
sg68
(lp1098
g61
(g82
g63
NtRp1099
(dp1100
g66
(dp1101
g86
g87
ssg75
g1095
sg68
(lp1102
S'http_cache_control'
p1103
asbag61
(g82
g63
NtRp1104
(dp1105
g66
(dp1106
g93
g94
ssg75
g1095
sg68
(lp1107
S':'
asbag61
(g82
g63
NtRp1108
(dp1109
g66
(dp1110
sg75
g1095
sg68
(lp1111
g61
(g62
g63
NtRp1112
(dp1113
g66
(dp1114
g74
I4
ssg75
g1108
sg68
(lp1115
S'max-age=0'
p1116
asbasbasbag61
(g77
g63
NtRp1117
(dp1118
g66
(dp1119
sg75
g802
sg68
(lp1120
g61
(g82
g63
NtRp1121
(dp1122
g66
(dp1123
g86
g87
ssg75
g1117
sg68
(lp1124
S'http_connection'
p1125
asbag61
(g82
g63
NtRp1126
(dp1127
g66
(dp1128
g93
g94
ssg75
g1117
sg68
(lp1129
S':'
asbag61
(g82
g63
NtRp1130
(dp1131
g66
(dp1132
sg75
g1117
sg68
(lp1133
g61
(g62
g63
NtRp1134
(dp1135
g66
(dp1136
g74
I4
ssg75
g1130
sg68
(lp1137
S'keep-alive'
p1138
asbasbasbag61
(g77
g63
NtRp1139
(dp1140
g66
(dp1141
sg75
g802
sg68
(lp1142
g61
(g82
g63
NtRp1143
(dp1144
g66
(dp1145
g86
g87
ssg75
g1139
sg68
(lp1146
S'http_content_length'
p1147
asbag61
(g82
g63
NtRp1148
(dp1149
g66
(dp1150
g93
g94
ssg75
g1139
sg68
(lp1151
S':'
asbag61
(g82
g63
NtRp1152
(dp1153
g66
(dp1154
sg75
g1139
sg68
(lp1155
g61
(g62
g63
NtRp1156
(dp1157
g66
(dp1158
g74
I4
ssg75
g1152
sg68
(lp1159
g918
asbasbasbag61
(g77
g63
NtRp1160
(dp1161
g66
(dp1162
sg75
g802
sg68
(lp1163
g61
(g82
g63
NtRp1164
(dp1165
g66
(dp1166
g86
g87
ssg75
g1160
sg68
(lp1167
S'http_content_type'
p1168
asbag61
(g82
g63
NtRp1169
(dp1170
g66
(dp1171
g93
g94
ssg75
g1160
sg68
(lp1172
S':'
asbag61
(g82
g63
NtRp1173
(dp1174
g66
(dp1175
sg75
g1160
sg68
(lp1176
g61
(g62
g63
NtRp1177
(dp1178
g66
(dp1179
g74
I4
ssg75
g1173
sg68
(lp1180
g940
asbasbasbag61
(g77
g63
NtRp1181
(dp1182
g66
(dp1183
sg75
g802
sg68
(lp1184
g61
(g82
g63
NtRp1185
(dp1186
g66
(dp1187
g86
g87
ssg75
g1181
sg68
(lp1188
S'http_cookie'
p1189
asbag61
(g82
g63
NtRp1190
(dp1191
g66
(dp1192
g93
g94
ssg75
g1181
sg68
(lp1193
S':'
asbag61
(g82
g63
NtRp1194
(dp1195
g66
(dp1196
sg75
g1181
sg68
(lp1197
g61
(g62
g63
NtRp1198
(dp1199
g66
(dp1200
g74
I4
ssg75
g1194
sg68
(lp1201
S'_define_session=BAh7CEkiD3Nlc3Npb25faWQGOgZFRkkiJTVmM2YzOTE4ZmYyNzY4ZDRjYjY5YjcyOGNkZTAxODEwBjsAVEkiEF9jc3JmX3Rva2VuBjsARkkiMVY4MTBXWE1hdGNGUGR0ZzhxeStGc3FiajlCNzB6UkpqcHZUalZJNjRFNms9BjsARkkiGXdhcmRlbi51c2VyLnVzZXIua2V5BjsAVFsISSIJVXNlcgY7AEZbBmkGSSIiJDJhJDEwJGxpeDBzN29QMk5ocFJWZUl4RXZ4WXUGOwBU--36fb82eb40ee1558fc8e56b5bce1c04bba1a6c00; _bs_session=BAh7B0kiD3Nlc3Npb25faWQGOgZFRkkiJWFhOTlmNjdkODEzYjIwNGMyNGUwMTZmNjlkMDBjMjlhBjsAVEkiEF9jc3JmX3Rva2VuBjsARkkiMUJjek16b0JSUDluYk5MekI0YlNTMklPb2Q3V3pNQzJXcHQ1enY1RDgrT3c9BjsARg%3D%3D--80cc0f5e6211d60923eda39a15903de5a280521a; _table_session=BAh7B0kiD3Nlc3Npb25faWQGOgZFRkkiJTdhZTA3MzFhMGMxM2Q4YTAxZGQ3ZTNlMDM2ODIwOWY3BjsAVEkiEF9jc3JmX3Rva2VuBjsARkkiMWxKWVRtT3hGU3dxT0tnbmJ1OG1iL3FXSW9jWVRJdnZhZHJmNTN2b1BqR2M9BjsARg%3D%3D--a8b8801fe97e379d91991be9a0d21a60f46bc09e; _usertable_session=BAh7CEkiD3Nlc3Npb25faWQGOgZFRkkiJTRmY2NiMWMyOTE1ZThhYzE1MzVlYmU3ODMxZjdhM2NmBjsAVEkiEF9jc3JmX3Rva2VuBjsARkkiMXlibkQxRk5wVVFFU05OcDVxMEQvUURSZWRJQVlRY1JwYTdoSkRucEtlYXc9BjsARkkiCmZsYXNoBjsARm86JUFjdGlvbkRpc3BhdGNoOjpGbGFzaDo6Rmxhc2hIYXNoCToKQHVzZWRvOghTZXQGOgpAaGFzaHsAOgxAY2xvc2VkRjoNQGZsYXNoZXN7BjoLbm90aWNlSSItRmllbGQgcmVsYXRpb24gd2FzIHN1Y2Nlc3NmdWxseSBjcmVhdGVkLgY7AEY6CUBub3cw--c455129d4f2ca1e085c6ad184fd200aecc0b7061; _tbls_session=BAh7B0kiD3Nlc3Npb25faWQGOgZFRkkiJWY5MmM2Mzk2ZWQ0M2ZlODZkN2E5YjMxYmViOTU4NTI2BjsAVEkiEF9jc3JmX3Rva2VuBjsARkkiMVZjemQ4UGhpZXhnaEhnOUE2alRCRmdGSXFBclViMFhwQlo5Ulg2VTRhdFk9BjsARg%3D%3D--53586c2b8499a2c56c427cd8b8e3de116331bd4d; _typel_session=BAh7CEkiD3Nlc3Npb25faWQGOgZFRkkiJWQzMjkxZGExNGY5ZTQzNzIzZTk5MWZmZTM0NDY2NTFiBjsAVEkiEF9jc3JmX3Rva2VuBjsARkkiMWM5cVg1c3pKalpQSjd3Yk5lanQ5alpjZW4zRmNOVXdQS29YNExGOXJIUWM9BjsARkkiGXdhcmRlbi51c2VyLnVzZXIua2V5BjsAVFsISSIJVXNlcgY7AEZbBmkGSSIiJDJhJDEwJEVybm5aY0RTdm9sRjRETENhdjRveGUGOwBU--df06a9ed1ab2763964f111c2534c9f2a3630c12c; _ampersand_factory_session=BAh7CUkiD3Nlc3Npb25faWQGOgZFRkkiJWI2NTFmMThjZDNkMWU4NTNhNmI4OWU1MjNhYjMyZmQ0BjsAVEkiDWluc3RhbmNlBjsARmkGSSIQX2NzcmZfdG9rZW4GOwBGSSIxTEtBZER3MFlQQUV6Nmh1NW95TG4vUTFGcFdXa1ozWTVJaUx5aXh4ZndTVT0GOwBGSSIbd2FyZGVuLnVzZXIud29ya2VyLmtleQY7AFRbCEkiC1dvcmtlcgY7AEZbBmkGSSIiJDJhJDEwJGlEdndMRmhzQXB5eE1tLnhjMFM2di4GOwBU--e6bc7e5d4e945842bb7862fd547d433b3c7bfdcb; _lang_session=BAh7B0kiD3Nlc3Npb25faWQGOgZFRkkiJTY2YzI4YTY5NDkzNzE1ZGIzYzUwNWM3ZDg2ZmY1MWNiBjsAVEkiEF9jc3JmX3Rva2VuBjsARkkiMVdVczNjYnUvY2tZaHFvMVlwLy9zemdCcFliUytKdTlUTGZ3M1RIUlI3aHc9BjsARg%3D%3D--52f16b665cb4cfc5b54cea21c7b082ab6b75b1bf; session_id_welcome=127.0.0.1-dfebfa33-25aa-4072-bce4-08f7e89e2d04; session_id_admin=127.0.0.1-bf448199-cadc-41e3-b1a7-bed302e89a3e; session_id_hellow=127.0.0.1-bbea59f2-333e-4593-a45c-2c44a5133d77'
p1202
asbasbasbag61
(g77
g63
NtRp1203
(dp1204
g66
(dp1205
sg75
g802
sg68
(lp1206
g61
(g82
g63
NtRp1207
(dp1208
g66
(dp1209
g86
g87
ssg75
g1203
sg68
(lp1210
S'http_host'
p1211
asbag61
(g82
g63
NtRp1212
(dp1213
g66
(dp1214
g93
g94
ssg75
g1203
sg68
(lp1215
S':'
asbag61
(g82
g63
NtRp1216
(dp1217
g66
(dp1218
sg75
g1203
sg68
(lp1219
g61
(g62
g63
NtRp1220
(dp1221
g66
(dp1222
g74
I4
ssg75
g1216
sg68
(lp1223
S'localhost:8887'
p1224
asbasbasbag61
(g77
g63
NtRp1225
(dp1226
g66
(dp1227
sg75
g802
sg68
(lp1228
g61
(g82
g63
NtRp1229
(dp1230
g66
(dp1231
g86
g87
ssg75
g1225
sg68
(lp1232
S'http_origin'
p1233
asbag61
(g82
g63
NtRp1234
(dp1235
g66
(dp1236
g93
g94
ssg75
g1225
sg68
(lp1237
S':'
asbag61
(g82
g63
NtRp1238
(dp1239
g66
(dp1240
sg75
g1225
sg68
(lp1241
g61
(g62
g63
NtRp1242
(dp1243
g66
(dp1244
g74
I4
ssg75
g1238
sg68
(lp1245
S'http://localhost:8887'
p1246
asbasbasbag61
(g77
g63
NtRp1247
(dp1248
g66
(dp1249
sg75
g802
sg68
(lp1250
g61
(g82
g63
NtRp1251
(dp1252
g66
(dp1253
g86
g87
ssg75
g1247
sg68
(lp1254
S'http_referer'
p1255
asbag61
(g82
g63
NtRp1256
(dp1257
g66
(dp1258
g93
g94
ssg75
g1247
sg68
(lp1259
S':'
asbag61
(g82
g63
NtRp1260
(dp1261
g66
(dp1262
sg75
g1247
sg68
(lp1263
g61
(g62
g63
NtRp1264
(dp1265
g66
(dp1266
g74
I4
ssg75
g1260
sg68
(lp1267
S'http://localhost:8887/hellow/game/show/1'
p1268
asbasbasbag61
(g77
g63
NtRp1269
(dp1270
g66
(dp1271
sg75
g802
sg68
(lp1272
g61
(g82
g63
NtRp1273
(dp1274
g66
(dp1275
g86
g87
ssg75
g1269
sg68
(lp1276
S'http_user_agent'
p1277
asbag61
(g82
g63
NtRp1278
(dp1279
g66
(dp1280
g93
g94
ssg75
g1269
sg68
(lp1281
S':'
asbag61
(g82
g63
NtRp1282
(dp1283
g66
(dp1284
sg75
g1269
sg68
(lp1285
g61
(g62
g63
NtRp1286
(dp1287
g66
(dp1288
g74
I4
ssg75
g1282
sg68
(lp1289
S'Mozilla/5.0 (Macintosh; Intel Mac OS X 10_8_3) AppleWebKit/537.22 (KHTML, like Gecko) Chrome/25.0.1364.172 Safari/537.22'
p1290
asbasbasbag61
(g77
g63
NtRp1291
(dp1292
g66
(dp1293
sg75
g802
sg68
(lp1294
g61
(g82
g63
NtRp1295
(dp1296
g66
(dp1297
g86
g87
ssg75
g1291
sg68
(lp1298
S'is_jython'
p1299
asbag61
(g82
g63
NtRp1300
(dp1301
g66
(dp1302
g93
g94
ssg75
g1291
sg68
(lp1303
S':'
asbag61
(g82
g63
NtRp1304
(dp1305
g66
(dp1306
sg75
g1291
sg68
(lp1307
g61
(g62
g63
NtRp1308
(dp1309
g66
(dp1310
g74
I4
ssg75
g1304
sg68
(lp1311
g104
asbasbasbag61
(g77
g63
NtRp1312
(dp1313
g66
(dp1314
sg75
g802
sg68
(lp1315
g61
(g82
g63
NtRp1316
(dp1317
g66
(dp1318
g86
g87
ssg75
g1312
sg68
(lp1319
S'is_pypy'
p1320
asbag61
(g82
g63
NtRp1321
(dp1322
g66
(dp1323
g93
g94
ssg75
g1312
sg68
(lp1324
S':'
asbag61
(g82
g63
NtRp1325
(dp1326
g66
(dp1327
sg75
g1312
sg68
(lp1328
g61
(g62
g63
NtRp1329
(dp1330
g66
(dp1331
g74
I4
ssg75
g1325
sg68
(lp1332
g104
asbasbasbag61
(g77
g63
NtRp1333
(dp1334
g66
(dp1335
sg75
g802
sg68
(lp1336
g61
(g82
g63
NtRp1337
(dp1338
g66
(dp1339
g86
g87
ssg75
g1333
sg68
(lp1340
S'local_hosts'
p1341
asbag61
(g82
g63
NtRp1342
(dp1343
g66
(dp1344
g93
g94
ssg75
g1333
sg68
(lp1345
S':'
asbag61
(g82
g63
NtRp1346
(dp1347
g66
(dp1348
sg75
g1333
sg68
(lp1349
g61
(g62
g63
NtRp1350
(dp1351
g66
(dp1352
g74
I4
ssg75
g1346
sg68
(lp1353
g61
(g70
g63
NtRp1354
(dp1355
g66
(dp1356
g74
I3
ssg75
Nsg68
(lp1357
g61
(g77
g63
NtRp1358
(dp1359
g66
(dp1360
sg75
g1354
sg68
(lp1361
g61
(g82
g63
NtRp1362
(dp1363
g66
(dp1364
sg75
g1358
sg68
(lp1365
g61
(g62
g63
NtRp1366
(dp1367
g66
(dp1368
g74
I3
ssg75
g1362
sg68
(lp1369
S'::1'
p1370
asbasbasbag61
(g77
g63
NtRp1371
(dp1372
g66
(dp1373
sg75
g1354
sg68
(lp1374
g61
(g82
g63
NtRp1375
(dp1376
g66
(dp1377
sg75
g1371
sg68
(lp1378
g61
(g62
g63
NtRp1379
(dp1380
g66
(dp1381
g74
I3
ssg75
g1375
sg68
(lp1382
S'130.91.149.119'
p1383
asbasbasbag61
(g77
g63
NtRp1384
(dp1385
g66
(dp1386
sg75
g1354
sg68
(lp1387
g61
(g82
g63
NtRp1388
(dp1389
g66
(dp1390
sg75
g1384
sg68
(lp1391
g61
(g62
g63
NtRp1392
(dp1393
g66
(dp1394
g74
I3
ssg75
g1388
sg68
(lp1395
S'::ffff:127.0.0.1'
p1396
asbasbasbag61
(g77
g63
NtRp1397
(dp1398
g66
(dp1399
sg75
g1354
sg68
(lp1400
g61
(g82
g63
NtRp1401
(dp1402
g66
(dp1403
sg75
g1397
sg68
(lp1404
g61
(g62
g63
NtRp1405
(dp1406
g66
(dp1407
g74
I3
ssg75
g1401
sg68
(lp1408
S'127.0.0.1'
p1409
asbasbasbag61
(g77
g63
NtRp1410
(dp1411
g66
(dp1412
sg75
g1354
sg68
(lp1413
g61
(g82
g63
NtRp1414
(dp1415
g66
(dp1416
sg75
g1410
sg68
(lp1417
g61
(g62
g63
NtRp1418
(dp1419
g66
(dp1420
g74
I3
ssg75
g1414
sg68
(lp1421
S'hntvlan5310374.wlan.sas.upenn.edu'
p1422
asbasbasbasbasbasbasbag61
(g77
g63
NtRp1423
(dp1424
g66
(dp1425
sg75
g802
sg68
(lp1426
g61
(g82
g63
NtRp1427
(dp1428
g66
(dp1429
g86
g87
ssg75
g1423
sg68
(lp1430
S'path_info'
p1431
asbag61
(g82
g63
NtRp1432
(dp1433
g66
(dp1434
g93
g94
ssg75
g1423
sg68
(lp1435
S':'
asbag61
(g82
g63
NtRp1436
(dp1437
g66
(dp1438
sg75
g1423
sg68
(lp1439
g61
(g62
g63
NtRp1440
(dp1441
g66
(dp1442
g74
I4
ssg75
g1436
sg68
(lp1443
S'/hellow/game/show/1'
p1444
asbasbasbag61
(g77
g63
NtRp1445
(dp1446
g66
(dp1447
sg75
g802
sg68
(lp1448
g61
(g82
g63
NtRp1449
(dp1450
g66
(dp1451
g86
g87
ssg75
g1445
sg68
(lp1452
S'query_string'
p1453
asbag61
(g82
g63
NtRp1454
(dp1455
g66
(dp1456
g93
g94
ssg75
g1445
sg68
(lp1457
S':'
asbag61
(g82
g63
NtRp1458
(dp1459
g66
(dp1460
sg75
g1445
sg68
(lp1461
g61
(g62
g63
NtRp1462
(dp1463
g66
(dp1464
g74
I4
ssg75
g1458
sg68
(lp1465
S''
asbasbasbag61
(g77
g63
NtRp1466
(dp1467
g66
(dp1468
sg75
g802
sg68
(lp1469
g61
(g82
g63
NtRp1470
(dp1471
g66
(dp1472
g86
g87
ssg75
g1466
sg68
(lp1473
S'remote_addr'
p1474
asbag61
(g82
g63
NtRp1475
(dp1476
g66
(dp1477
g93
g94
ssg75
g1466
sg68
(lp1478
S':'
asbag61
(g82
g63
NtRp1479
(dp1480
g66
(dp1481
sg75
g1466
sg68
(lp1482
g61
(g62
g63
NtRp1483
(dp1484
g66
(dp1485
g74
I4
ssg75
g1479
sg68
(lp1486
g228
asbasbasbag61
(g77
g63
NtRp1487
(dp1488
g66
(dp1489
sg75
g802
sg68
(lp1490
g61
(g82
g63
NtRp1491
(dp1492
g66
(dp1493
g86
g87
ssg75
g1487
sg68
(lp1494
S'remote_port'
p1495
asbag61
(g82
g63
NtRp1496
(dp1497
g66
(dp1498
g93
g94
ssg75
g1487
sg68
(lp1499
S':'
asbag61
(g82
g63
NtRp1500
(dp1501
g66
(dp1502
sg75
g1487
sg68
(lp1503
g61
(g62
g63
NtRp1504
(dp1505
g66
(dp1506
g74
I4
ssg75
g1500
sg68
(lp1507
S'60505'
p1508
asbasbasbag61
(g77
g63
NtRp1509
(dp1510
g66
(dp1511
sg75
g802
sg68
(lp1512
g61
(g82
g63
NtRp1513
(dp1514
g66
(dp1515
g86
g87
ssg75
g1509
sg68
(lp1516
S'request_method'
p1517
asbag61
(g82
g63
NtRp1518
(dp1519
g66
(dp1520
g93
g94
ssg75
g1509
sg68
(lp1521
S':'
asbag61
(g82
g63
NtRp1522
(dp1523
g66
(dp1524
sg75
g1509
sg68
(lp1525
g61
(g62
g63
NtRp1526
(dp1527
g66
(dp1528
g74
I4
ssg75
g1522
sg68
(lp1529
S'POST'
p1530
asbasbasbag61
(g77
g63
NtRp1531
(dp1532
g66
(dp1533
sg75
g802
sg68
(lp1534
g61
(g82
g63
NtRp1535
(dp1536
g66
(dp1537
g86
g87
ssg75
g1531
sg68
(lp1538
S'request_uri'
p1539
asbag61
(g82
g63
NtRp1540
(dp1541
g66
(dp1542
g93
g94
ssg75
g1531
sg68
(lp1543
S':'
asbag61
(g82
g63
NtRp1544
(dp1545
g66
(dp1546
sg75
g1531
sg68
(lp1547
g61
(g62
g63
NtRp1548
(dp1549
g66
(dp1550
g74
I4
ssg75
g1544
sg68
(lp1551
g1444
asbasbasbag61
(g77
g63
NtRp1552
(dp1553
g66
(dp1554
sg75
g802
sg68
(lp1555
g61
(g82
g63
NtRp1556
(dp1557
g66
(dp1558
g86
g87
ssg75
g1552
sg68
(lp1559
S'script_name'
p1560
asbag61
(g82
g63
NtRp1561
(dp1562
g66
(dp1563
g93
g94
ssg75
g1552
sg68
(lp1564
S':'
asbag61
(g82
g63
NtRp1565
(dp1566
g66
(dp1567
sg75
g1552
sg68
(lp1568
g61
(g62
g63
NtRp1569
(dp1570
g66
(dp1571
g74
I4
ssg75
g1565
sg68
(lp1572
S''
asbasbasbag61
(g77
g63
NtRp1573
(dp1574
g66
(dp1575
sg75
g802
sg68
(lp1576
g61
(g82
g63
NtRp1577
(dp1578
g66
(dp1579
g86
g87
ssg75
g1573
sg68
(lp1580
S'server_name'
p1581
asbag61
(g82
g63
NtRp1582
(dp1583
g66
(dp1584
g93
g94
ssg75
g1573
sg68
(lp1585
S':'
asbag61
(g82
g63
NtRp1586
(dp1587
g66
(dp1588
sg75
g1573
sg68
(lp1589
g61
(g62
g63
NtRp1590
(dp1591
g66
(dp1592
g74
I4
ssg75
g1586
sg68
(lp1593
S'hntvlan5310374.wlan.sas.upenn.edu'
p1594
asbasbasbag61
(g77
g63
NtRp1595
(dp1596
g66
(dp1597
sg75
g802
sg68
(lp1598
g61
(g82
g63
NtRp1599
(dp1600
g66
(dp1601
g86
g87
ssg75
g1595
sg68
(lp1602
S'server_port'
p1603
asbag61
(g82
g63
NtRp1604
(dp1605
g66
(dp1606
g93
g94
ssg75
g1595
sg68
(lp1607
S':'
asbag61
(g82
g63
NtRp1608
(dp1609
g66
(dp1610
sg75
g1595
sg68
(lp1611
g61
(g62
g63
NtRp1612
(dp1613
g66
(dp1614
g74
I4
ssg75
g1608
sg68
(lp1615
S'8887'
p1616
asbasbasbag61
(g77
g63
NtRp1617
(dp1618
g66
(dp1619
sg75
g802
sg68
(lp1620
g61
(g82
g63
NtRp1621
(dp1622
g66
(dp1623
g86
g87
ssg75
g1617
sg68
(lp1624
S'server_protocol'
p1625
asbag61
(g82
g63
NtRp1626
(dp1627
g66
(dp1628
g93
g94
ssg75
g1617
sg68
(lp1629
S':'
asbag61
(g82
g63
NtRp1630
(dp1631
g66
(dp1632
sg75
g1617
sg68
(lp1633
g61
(g62
g63
NtRp1634
(dp1635
g66
(dp1636
g74
I4
ssg75
g1630
sg68
(lp1637
S'HTTP/1.1'
p1638
asbasbasbag61
(g77
g63
NtRp1639
(dp1640
g66
(dp1641
sg75
g802
sg68
(lp1642
g61
(g82
g63
NtRp1643
(dp1644
g66
(dp1645
g86
g87
ssg75
g1639
sg68
(lp1646
S'server_software'
p1647
asbag61
(g82
g63
NtRp1648
(dp1649
g66
(dp1650
g93
g94
ssg75
g1639
sg68
(lp1651
S':'
asbag61
(g82
g63
NtRp1652
(dp1653
g66
(dp1654
sg75
g1639
sg68
(lp1655
g61
(g62
g63
NtRp1656
(dp1657
g66
(dp1658
g74
I4
ssg75
g1652
sg68
(lp1659
S'Rocket 1.2.6'
p1660
asbasbasbag61
(g77
g63
NtRp1661
(dp1662
g66
(dp1663
sg75
g802
sg68
(lp1664
g61
(g82
g63
NtRp1665
(dp1666
g66
(dp1667
g86
g87
ssg75
g1661
sg68
(lp1668
S'web2py_path'
p1669
asbag61
(g82
g63
NtRp1670
(dp1671
g66
(dp1672
g93
g94
ssg75
g1661
sg68
(lp1673
S':'
asbag61
(g82
g63
NtRp1674
(dp1675
g66
(dp1676
sg75
g1661
sg68
(lp1677
g61
(g62
g63
NtRp1678
(dp1679
g66
(dp1680
g74
I4
ssg75
g1674
sg68
(lp1681
g849
asbasbasbag61
(g77
g63
NtRp1682
(dp1683
g66
(dp1684
sg75
g802
sg68
(lp1685
g61
(g82
g63
NtRp1686
(dp1687
g66
(dp1688
g86
g87
ssg75
g1682
sg68
(lp1689
S'web2py_version'
p1690
asbag61
(g82
g63
NtRp1691
(dp1692
g66
(dp1693
g93
g94
ssg75
g1682
sg68
(lp1694
S':'
asbag61
(g82
g63
NtRp1695
(dp1696
g66
(dp1697
sg75
g1682
sg68
(lp1698
g61
(g62
g63
NtRp1699
(dp1700
g66
(dp1701
g74
I4
ssg75
g1695
sg68
(lp1702
g61
(g70
g63
NtRp1703
(dp1704
g66
(dp1705
g74
I3
ssg75
Nsg68
(lp1706
g61
(g77
g63
NtRp1707
(dp1708
g66
(dp1709
sg75
g1703
sg68
(lp1710
g61
(g82
g63
NtRp1711
(dp1712
g66
(dp1713
sg75
g1707
sg68
(lp1714
g61
(g62
g63
NtRp1715
(dp1716
g66
(dp1717
g74
I3
ssg75
g1711
sg68
(lp1718
S'2'
asbasbasbag61
(g77
g63
NtRp1719
(dp1720
g66
(dp1721
sg75
g1703
sg68
(lp1722
g61
(g82
g63
NtRp1723
(dp1724
g66
(dp1725
sg75
g1719
sg68
(lp1726
g61
(g62
g63
NtRp1727
(dp1728
g66
(dp1729
g74
I3
ssg75
g1723
sg68
(lp1730
S'4'
asbasbasbag61
(g77
g63
NtRp1731
(dp1732
g66
(dp1733
sg75
g1703
sg68
(lp1734
g61
(g82
g63
NtRp1735
(dp1736
g66
(dp1737
sg75
g1731
sg68
(lp1738
g61
(g62
g63
NtRp1739
(dp1740
g66
(dp1741
g74
I3
ssg75
g1735
sg68
(lp1742
S'5'
asbasbasbag61
(g77
g63
NtRp1743
(dp1744
g66
(dp1745
sg75
g1703
sg68
(lp1746
g61
(g82
g63
NtRp1747
(dp1748
g66
(dp1749
sg75
g1743
sg68
(lp1750
g61
(g62
g63
NtRp1751
(dp1752
g66
(dp1753
g74
I3
ssg75
g1747
sg68
(lp1754
S'stable'
p1755
asbasbasbag61
(g77
g63
NtRp1756
(dp1757
g66
(dp1758
sg75
g1703
sg68
(lp1759
g61
(g82
g63
NtRp1760
(dp1761
g66
(dp1762
sg75
g1756
sg68
(lp1763
g61
(g62
g63
NtRp1764
(dp1765
g66
(dp1766
g74
I3
ssg75
g1760
sg68
(lp1767
S'datetime.datetime(2013, 3, 18, 22, 46, 22)'
p1768
asbasbasbasbasbasbasbag61
(g77
g63
NtRp1769
(dp1770
g66
(dp1771
sg75
g802
sg68
(lp1772
g61
(g82
g63
NtRp1773
(dp1774
g66
(dp1775
g86
g87
ssg75
g1769
sg68
(lp1776
S'wsgi_errors'
p1777
asbag61
(g82
g63
NtRp1778
(dp1779
g66
(dp1780
g93
g94
ssg75
g1769
sg68
(lp1781
S':'
asbag61
(g82
g63
NtRp1782
(dp1783
g66
(dp1784
sg75
g1769
sg68
(lp1785
g61
(g62
g63
NtRp1786
(dp1787
g66
(dp1788
g74
I4
ssg75
g1782
sg68
(lp1789
S"<open file '<stderr>', mode 'w' at 0x540b0>"
p1790
asbasbasbag61
(g77
g63
NtRp1791
(dp1792
g66
(dp1793
sg75
g802
sg68
(lp1794
g61
(g82
g63
NtRp1795
(dp1796
g66
(dp1797
g86
g87
ssg75
g1791
sg68
(lp1798
S'wsgi_file_wrapper'
p1799
asbag61
(g82
g63
NtRp1800
(dp1801
g66
(dp1802
g93
g94
ssg75
g1791
sg68
(lp1803
S':'
asbag61
(g82
g63
NtRp1804
(dp1805
g66
(dp1806
sg75
g1791
sg68
(lp1807
g61
(g62
g63
NtRp1808
(dp1809
g66
(dp1810
g74
I4
ssg75
g1804
sg68
(lp1811
S'<class wsgiref.util.FileWrapper at 0x4761060>'
p1812
asbasbasbag61
(g77
g63
NtRp1813
(dp1814
g66
(dp1815
sg75
g802
sg68
(lp1816
g61
(g82
g63
NtRp1817
(dp1818
g66
(dp1819
g86
g87
ssg75
g1813
sg68
(lp1820
S'wsgi_input'
p1821
asbag61
(g82
g63
NtRp1822
(dp1823
g66
(dp1824
g93
g94
ssg75
g1813
sg68
(lp1825
S':'
asbag61
(g82
g63
NtRp1826
(dp1827
g66
(dp1828
sg75
g1813
sg68
(lp1829
g61
(g62
g63
NtRp1830
(dp1831
g66
(dp1832
g74
I4
ssg75
g1826
sg68
(lp1833
S'<socket._fileobject object at 0x6e86b30>'
p1834
asbasbasbag61
(g77
g63
NtRp1835
(dp1836
g66
(dp1837
sg75
g802
sg68
(lp1838
g61
(g82
g63
NtRp1839
(dp1840
g66
(dp1841
g86
g87
ssg75
g1835
sg68
(lp1842
S'wsgi_multiprocess'
p1843
asbag61
(g82
g63
NtRp1844
(dp1845
g66
(dp1846
g93
g94
ssg75
g1835
sg68
(lp1847
S':'
asbag61
(g82
g63
NtRp1848
(dp1849
g66
(dp1850
sg75
g1835
sg68
(lp1851
g61
(g62
g63
NtRp1852
(dp1853
g66
(dp1854
g74
I4
ssg75
g1848
sg68
(lp1855
g104
asbasbasbag61
(g77
g63
NtRp1856
(dp1857
g66
(dp1858
sg75
g802
sg68
(lp1859
g61
(g82
g63
NtRp1860
(dp1861
g66
(dp1862
g86
g87
ssg75
g1856
sg68
(lp1863
S'wsgi_multithread'
p1864
asbag61
(g82
g63
NtRp1865
(dp1866
g66
(dp1867
g93
g94
ssg75
g1856
sg68
(lp1868
S':'
asbag61
(g82
g63
NtRp1869
(dp1870
g66
(dp1871
sg75
g1856
sg68
(lp1872
g61
(g62
g63
NtRp1873
(dp1874
g66
(dp1875
g74
I4
ssg75
g1869
sg68
(lp1876
g984
asbasbasbag61
(g77
g63
NtRp1877
(dp1878
g66
(dp1879
sg75
g802
sg68
(lp1880
g61
(g82
g63
NtRp1881
(dp1882
g66
(dp1883
g86
g87
ssg75
g1877
sg68
(lp1884
S'wsgi_run_once'
p1885
asbag61
(g82
g63
NtRp1886
(dp1887
g66
(dp1888
g93
g94
ssg75
g1877
sg68
(lp1889
S':'
asbag61
(g82
g63
NtRp1890
(dp1891
g66
(dp1892
sg75
g1877
sg68
(lp1893
g61
(g62
g63
NtRp1894
(dp1895
g66
(dp1896
g74
I4
ssg75
g1890
sg68
(lp1897
g104
asbasbasbag61
(g77
g63
NtRp1898
(dp1899
g66
(dp1900
sg75
g802
sg68
(lp1901
g61
(g82
g63
NtRp1902
(dp1903
g66
(dp1904
g86
g87
ssg75
g1898
sg68
(lp1905
S'wsgi_url_scheme'
p1906
asbag61
(g82
g63
NtRp1907
(dp1908
g66
(dp1909
g93
g94
ssg75
g1898
sg68
(lp1910
S':'
asbag61
(g82
g63
NtRp1911
(dp1912
g66
(dp1913
sg75
g1898
sg68
(lp1914
g61
(g62
g63
NtRp1915
(dp1916
g66
(dp1917
g74
I4
ssg75
g1911
sg68
(lp1918
S'http'
p1919
asbasbasbag61
(g77
g63
NtRp1920
(dp1921
g66
(dp1922
sg75
g802
sg68
(lp1923
g61
(g82
g63
NtRp1924
(dp1925
g66
(dp1926
g86
g87
ssg75
g1920
sg68
(lp1927
S'wsgi_version'
p1928
asbag61
(g82
g63
NtRp1929
(dp1930
g66
(dp1931
g93
g94
ssg75
g1920
sg68
(lp1932
S':'
asbag61
(g82
g63
NtRp1933
(dp1934
g66
(dp1935
sg75
g1920
sg68
(lp1936
g61
(g62
g63
NtRp1937
(dp1938
g66
(dp1939
g74
I4
ssg75
g1933
sg68
(lp1940
g61
(g70
g63
NtRp1941
(dp1942
g66
(dp1943
g74
I3
ssg75
Nsg68
(lp1944
g61
(g77
g63
NtRp1945
(dp1946
g66
(dp1947
sg75
g1941
sg68
(lp1948
g61
(g82
g63
NtRp1949
(dp1950
g66
(dp1951
sg75
g1945
sg68
(lp1952
g61
(g62
g63
NtRp1953
(dp1954
g66
(dp1955
g74
I3
ssg75
g1949
sg68
(lp1956
S'1'
asbasbasbag61
(g77
g63
NtRp1957
(dp1958
g66
(dp1959
sg75
g1941
sg68
(lp1960
g61
(g82
g63
NtRp1961
(dp1962
g66
(dp1963
sg75
g1957
sg68
(lp1964
g61
(g62
g63
NtRp1965
(dp1966
g66
(dp1967
g74
I3
ssg75
g1961
sg68
(lp1968
S'0'
asbasbasbasbasbasbasbasbasbasbasbag61
(g77
g63
NtRp1969
(dp1970
g66
(dp1971
sg75
g71
sg68
(lp1972
g61
(g82
g63
NtRp1973
(dp1974
g66
(dp1975
g86
g87
ssg75
g1969
sg68
(lp1976
S'extension'
p1977
asbag61
(g82
g63
NtRp1978
(dp1979
g66
(dp1980
g93
g94
ssg75
g1969
sg68
(lp1981
S':'
asbag61
(g82
g63
NtRp1982
(dp1983
g66
(dp1984
sg75
g1969
sg68
(lp1985
g61
(g62
g63
NtRp1986
(dp1987
g66
(dp1988
g74
I5
ssg75
g1982
sg68
(lp1989
S'html'
p1990
asbasbasbag61
(g77
g63
NtRp1991
(dp1992
g66
(dp1993
sg75
g71
sg68
(lp1994
g61
(g82
g63
NtRp1995
(dp1996
g66
(dp1997
g86
g87
ssg75
g1991
sg68
(lp1998
S'folder'
p1999
asbag61
(g82
g63
NtRp2000
(dp2001
g66
(dp2002
g93
g94
ssg75
g1991
sg68
(lp2003
S':'
asbag61
(g82
g63
NtRp2004
(dp2005
g66
(dp2006
sg75
g1991
sg68
(lp2007
g61
(g62
g63
NtRp2008
(dp2009
g66
(dp2010
g74
I5
ssg75
g2004
sg68
(lp2011
S'/Users/zamechek/Downloads/web2py/web2py.app/Contents/Resources/applications/hellow/'
p2012
asbasbasbag61
(g77
g63
NtRp2013
(dp2014
g66
(dp2015
sg75
g71
sg68
(lp2016
g61
(g82
g63
NtRp2017
(dp2018
g66
(dp2019
g86
g87
ssg75
g2013
sg68
(lp2020
S'function'
p2021
asbag61
(g82
g63
NtRp2022
(dp2023
g66
(dp2024
g93
g94
ssg75
g2013
sg68
(lp2025
S':'
asbag61
(g82
g63
NtRp2026
(dp2027
g66
(dp2028
sg75
g2013
sg68
(lp2029
g61
(g62
g63
NtRp2030
(dp2031
g66
(dp2032
g74
I5
ssg75
g2026
sg68
(lp2033
S'show'
p2034
asbasbasbag61
(g77
g63
NtRp2035
(dp2036
g66
(dp2037
sg75
g71
sg68
(lp2038
g61
(g82
g63
NtRp2039
(dp2040
g66
(dp2041
g86
g87
ssg75
g2035
sg68
(lp2042
S'get_vars'
p2043
asbag61
(g82
g63
NtRp2044
(dp2045
g66
(dp2046
g93
g94
ssg75
g2035
sg68
(lp2047
S':'
asbag61
(g82
g63
NtRp2048
(dp2049
g66
(dp2050
sg75
g2035
sg68
(lp2051
g61
(g62
g63
NtRp2052
(dp2053
g66
(dp2054
g74
I5
ssg75
g2048
sg68
(lp2055
g61
(g70
g63
NtRp2056
(dp2057
g66
(dp2058
g74
I4
ssg75
Nsg68
(lp2059
sbasbasbasbag61
(g77
g63
NtRp2060
(dp2061
g66
(dp2062
sg75
g71
sg68
(lp2063
g61
(g82
g63
NtRp2064
(dp2065
g66
(dp2066
g86
g87
ssg75
g2060
sg68
(lp2067
S'global_settings'
p2068
asbag61
(g82
g63
NtRp2069
(dp2070
g66
(dp2071
g93
g94
ssg75
g2060
sg68
(lp2072
S':'
asbag61
(g82
g63
NtRp2073
(dp2074
g66
(dp2075
sg75
g2060
sg68
(lp2076
g61
(g62
g63
NtRp2077
(dp2078
g66
(dp2079
g74
I5
ssg75
g2073
sg68
(lp2080
g61
(g70
g63
NtRp2081
(dp2082
g66
(dp2083
g74
I4
ssg75
Nsg68
(lp2084
g61
(g77
g63
NtRp2085
(dp2086
g66
(dp2087
sg75
g2081
sg68
(lp2088
g61
(g82
g63
NtRp2089
(dp2090
g66
(dp2091
g86
g87
ssg75
g2085
sg68
(lp2092
g814
asbag61
(g82
g63
NtRp2093
(dp2094
g66
(dp2095
g93
g94
ssg75
g2085
sg68
(lp2096
S':'
asbag61
(g82
g63
NtRp2097
(dp2098
g66
(dp2099
sg75
g2085
sg68
(lp2100
g61
(g62
g63
NtRp2101
(dp2102
g66
(dp2103
g74
I4
ssg75
g2097
sg68
(lp2104
S"set(['/Users/zamechek/Downloads/web2py/web2py.app/Contents/Resources/applications/hellow/', '/Users/zamechek/Downloads/web2py/web2py.app/Contents/Resources/applications/admin/', '/Users/zamechek/Downloads/web2py/web2py.app/Contents/Resources/applications/welcome/'])"
p2105
asbasbasbag61
(g77
g63
NtRp2106
(dp2107
g66
(dp2108
sg75
g2081
sg68
(lp2109
g61
(g82
g63
NtRp2110
(dp2111
g66
(dp2112
g86
g87
ssg75
g2106
sg68
(lp2113
g836
asbag61
(g82
g63
NtRp2114
(dp2115
g66
(dp2116
g93
g94
ssg75
g2106
sg68
(lp2117
S':'
asbag61
(g82
g63
NtRp2118
(dp2119
g66
(dp2120
sg75
g2106
sg68
(lp2121
g61
(g62
g63
NtRp2122
(dp2123
g66
(dp2124
g74
I4
ssg75
g2118
sg68
(lp2125
g849
asbasbasbag61
(g77
g63
NtRp2126
(dp2127
g66
(dp2128
sg75
g2081
sg68
(lp2129
g61
(g82
g63
NtRp2130
(dp2131
g66
(dp2132
g86
g87
ssg75
g2126
sg68
(lp2133
g858
asbag61
(g82
g63
NtRp2134
(dp2135
g66
(dp2136
g93
g94
ssg75
g2126
sg68
(lp2137
S':'
asbag61
(g82
g63
NtRp2138
(dp2139
g66
(dp2140
sg75
g2126
sg68
(lp2141
g61
(g62
g63
NtRp2142
(dp2143
g66
(dp2144
g74
I4
ssg75
g2138
sg68
(lp2145
g61
(g70
g63
NtRp2146
(dp2147
g66
(dp2148
g74
I3
ssg75
Nsg68
(lp2149
sbasbasbasbag61
(g77
g63
NtRp2150
(dp2151
g66
(dp2152
sg75
g2081
sg68
(lp2153
g61
(g82
g63
NtRp2154
(dp2155
g66
(dp2156
g86
g87
ssg75
g2150
sg68
(lp2157
g883
asbag61
(g82
g63
NtRp2158
(dp2159
g66
(dp2160
g93
g94
ssg75
g2150
sg68
(lp2161
S':'
asbag61
(g82
g63
NtRp2162
(dp2163
g66
(dp2164
sg75
g2150
sg68
(lp2165
g61
(g62
g63
NtRp2166
(dp2167
g66
(dp2168
g74
I4
ssg75
g2162
sg68
(lp2169
S"<Values at 0x478bf58: {'verbose': False, 'ip': '127.0.0.1', 'with_scheduler': False, 'ips': ['130.91.149.119'], 'shutdown_timeout': 5, 'taskbar': False, 'port': 8000, 'maxthreads': None, 'softcron': False, 'server_name': 'hntvlan5310374.wlan.sas.upenn.edu', 'bpython': False, 'nogui': False, 'pid_filename': 'httpserver.pid', 'extcron': False, 'runcron': False, 'run_system_tests': False, 'test': None, 'folder': '/Users/zamechek/Downloads/web2py/web2py.app/Contents/Resources', 'config': '', 'import_models': False, 'winservice': '', 'shell': None, 'run': '', 'log_filename': 'httpserver.log', 'debuglevel': 30, 'args': [''], 'socket_timeout': 5, 'ssl_ca_certificate': None, 'scheduler': None, 'profiler_filename': None, 'ssl_private_key': '', 'scheduler_groups': None, 'password': '<ask>', 'request_queue_size': 5, 'ssl_certificate': '', 'cronjob': False, 'numthreads': None, 'quiet': False, 'interfaces': None, 'minthreads': None, 'timeout': 10, 'plain': False, 'nobanner': False}>"
p2170
asbasbasbag61
(g77
g63
NtRp2171
(dp2172
g66
(dp2173
sg75
g2081
sg68
(lp2174
g61
(g82
g63
NtRp2175
(dp2176
g66
(dp2177
g86
g87
ssg75
g2171
sg68
(lp2178
g949
asbag61
(g82
g63
NtRp2179
(dp2180
g66
(dp2181
g93
g94
ssg75
g2171
sg68
(lp2182
S':'
asbag61
(g82
g63
NtRp2183
(dp2184
g66
(dp2185
sg75
g2171
sg68
(lp2186
g61
(g62
g63
NtRp2187
(dp2188
g66
(dp2189
g74
I4
ssg75
g2183
sg68
(lp2190
S'set([])'
p2191
asbasbasbag61
(g77
g63
NtRp2192
(dp2193
g66
(dp2194
sg75
g2081
sg68
(lp2195
g61
(g82
g63
NtRp2196
(dp2197
g66
(dp2198
g86
g87
ssg75
g2192
sg68
(lp2199
g971
asbag61
(g82
g63
NtRp2200
(dp2201
g66
(dp2202
g93
g94
ssg75
g2192
sg68
(lp2203
S':'
asbag61
(g82
g63
NtRp2204
(dp2205
g66
(dp2206
sg75
g2192
sg68
(lp2207
g61
(g62
g63
NtRp2208
(dp2209
g66
(dp2210
g74
I4
ssg75
g2204
sg68
(lp2211
g984
asbasbasbag61
(g77
g63
NtRp2212
(dp2213
g66
(dp2214
sg75
g2081
sg68
(lp2215
g61
(g82
g63
NtRp2216
(dp2217
g66
(dp2218
g86
g87
ssg75
g2212
sg68
(lp2219
g993
asbag61
(g82
g63
NtRp2220
(dp2221
g66
(dp2222
g93
g94
ssg75
g2212
sg68
(lp2223
S':'
asbag61
(g82
g63
NtRp2224
(dp2225
g66
(dp2226
sg75
g2212
sg68
(lp2227
g61
(g62
g63
NtRp2228
(dp2229
g66
(dp2230
g74
I4
ssg75
g2224
sg68
(lp2231
g1006
asbasbasbag61
(g77
g63
NtRp2232
(dp2233
g66
(dp2234
sg75
g2081
sg68
(lp2235
g61
(g82
g63
NtRp2236
(dp2237
g66
(dp2238
g86
g87
ssg75
g2232
sg68
(lp2239
g1299
asbag61
(g82
g63
NtRp2240
(dp2241
g66
(dp2242
g93
g94
ssg75
g2232
sg68
(lp2243
S':'
asbag61
(g82
g63
NtRp2244
(dp2245
g66
(dp2246
sg75
g2232
sg68
(lp2247
g61
(g62
g63
NtRp2248
(dp2249
g66
(dp2250
g74
I4
ssg75
g2244
sg68
(lp2251
g104
asbasbasbag61
(g77
g63
NtRp2252
(dp2253
g66
(dp2254
sg75
g2081
sg68
(lp2255
g61
(g82
g63
NtRp2256
(dp2257
g66
(dp2258
g86
g87
ssg75
g2252
sg68
(lp2259
g1320
asbag61
(g82
g63
NtRp2260
(dp2261
g66
(dp2262
g93
g94
ssg75
g2252
sg68
(lp2263
S':'
asbag61
(g82
g63
NtRp2264
(dp2265
g66
(dp2266
sg75
g2252
sg68
(lp2267
g61
(g62
g63
NtRp2268
(dp2269
g66
(dp2270
g74
I4
ssg75
g2264
sg68
(lp2271
g104
asbasbasbag61
(g77
g63
NtRp2272
(dp2273
g66
(dp2274
sg75
g2081
sg68
(lp2275
g61
(g82
g63
NtRp2276
(dp2277
g66
(dp2278
g86
g87
ssg75
g2272
sg68
(lp2279
g1341
asbag61
(g82
g63
NtRp2280
(dp2281
g66
(dp2282
g93
g94
ssg75
g2272
sg68
(lp2283
S':'
asbag61
(g82
g63
NtRp2284
(dp2285
g66
(dp2286
sg75
g2272
sg68
(lp2287
g61
(g62
g63
NtRp2288
(dp2289
g66
(dp2290
g74
I4
ssg75
g2284
sg68
(lp2291
g61
(g70
g63
NtRp2292
(dp2293
g66
(dp2294
g74
I3
ssg75
Nsg68
(lp2295
g61
(g77
g63
NtRp2296
(dp2297
g66
(dp2298
sg75
g2292
sg68
(lp2299
g61
(g82
g63
NtRp2300
(dp2301
g66
(dp2302
sg75
g2296
sg68
(lp2303
g61
(g62
g63
NtRp2304
(dp2305
g66
(dp2306
g74
I3
ssg75
g2300
sg68
(lp2307
g1370
asbasbasbag61
(g77
g63
NtRp2308
(dp2309
g66
(dp2310
sg75
g2292
sg68
(lp2311
g61
(g82
g63
NtRp2312
(dp2313
g66
(dp2314
sg75
g2308
sg68
(lp2315
g61
(g62
g63
NtRp2316
(dp2317
g66
(dp2318
g74
I3
ssg75
g2312
sg68
(lp2319
g1383
asbasbasbag61
(g77
g63
NtRp2320
(dp2321
g66
(dp2322
sg75
g2292
sg68
(lp2323
g61
(g82
g63
NtRp2324
(dp2325
g66
(dp2326
sg75
g2320
sg68
(lp2327
g61
(g62
g63
NtRp2328
(dp2329
g66
(dp2330
g74
I3
ssg75
g2324
sg68
(lp2331
g1396
asbasbasbag61
(g77
g63
NtRp2332
(dp2333
g66
(dp2334
sg75
g2292
sg68
(lp2335
g61
(g82
g63
NtRp2336
(dp2337
g66
(dp2338
sg75
g2332
sg68
(lp2339
g61
(g62
g63
NtRp2340
(dp2341
g66
(dp2342
g74
I3
ssg75
g2336
sg68
(lp2343
g1409
asbasbasbag61
(g77
g63
NtRp2344
(dp2345
g66
(dp2346
sg75
g2292
sg68
(lp2347
g61
(g82
g63
NtRp2348
(dp2349
g66
(dp2350
sg75
g2344
sg68
(lp2351
g61
(g62
g63
NtRp2352
(dp2353
g66
(dp2354
g74
I3
ssg75
g2348
sg68
(lp2355
g1422
asbasbasbasbasbasbasbag61
(g77
g63
NtRp2356
(dp2357
g66
(dp2358
sg75
g2081
sg68
(lp2359
g61
(g82
g63
NtRp2360
(dp2361
g66
(dp2362
g86
g87
ssg75
g2356
sg68
(lp2363
g1690
asbag61
(g82
g63
NtRp2364
(dp2365
g66
(dp2366
g93
g94
ssg75
g2356
sg68
(lp2367
S':'
asbag61
(g82
g63
NtRp2368
(dp2369
g66
(dp2370
sg75
g2356
sg68
(lp2371
g61
(g62
g63
NtRp2372
(dp2373
g66
(dp2374
g74
I4
ssg75
g2368
sg68
(lp2375
g61
(g70
g63
NtRp2376
(dp2377
g66
(dp2378
g74
I3
ssg75
Nsg68
(lp2379
g61
(g77
g63
NtRp2380
(dp2381
g66
(dp2382
sg75
g2376
sg68
(lp2383
g61
(g82
g63
NtRp2384
(dp2385
g66
(dp2386
sg75
g2380
sg68
(lp2387
g61
(g62
g63
NtRp2388
(dp2389
g66
(dp2390
g74
I3
ssg75
g2384
sg68
(lp2391
S'2'
asbasbasbag61
(g77
g63
NtRp2392
(dp2393
g66
(dp2394
sg75
g2376
sg68
(lp2395
g61
(g82
g63
NtRp2396
(dp2397
g66
(dp2398
sg75
g2392
sg68
(lp2399
g61
(g62
g63
NtRp2400
(dp2401
g66
(dp2402
g74
I3
ssg75
g2396
sg68
(lp2403
S'4'
asbasbasbag61
(g77
g63
NtRp2404
(dp2405
g66
(dp2406
sg75
g2376
sg68
(lp2407
g61
(g82
g63
NtRp2408
(dp2409
g66
(dp2410
sg75
g2404
sg68
(lp2411
g61
(g62
g63
NtRp2412
(dp2413
g66
(dp2414
g74
I3
ssg75
g2408
sg68
(lp2415
S'5'
asbasbasbag61
(g77
g63
NtRp2416
(dp2417
g66
(dp2418
sg75
g2376
sg68
(lp2419
g61
(g82
g63
NtRp2420
(dp2421
g66
(dp2422
sg75
g2416
sg68
(lp2423
g61
(g62
g63
NtRp2424
(dp2425
g66
(dp2426
g74
I3
ssg75
g2420
sg68
(lp2427
g1755
asbasbasbag61
(g77
g63
NtRp2428
(dp2429
g66
(dp2430
sg75
g2376
sg68
(lp2431
g61
(g82
g63
NtRp2432
(dp2433
g66
(dp2434
sg75
g2428
sg68
(lp2435
g61
(g62
g63
NtRp2436
(dp2437
g66
(dp2438
g74
I3
ssg75
g2432
sg68
(lp2439
S'datetime.datetime(2013, 3, 18, 22, 46, 22)'
p2440
asbasbasbasbasbasbasbasbasbasbasbag61
(g77
g63
NtRp2441
(dp2442
g66
(dp2443
sg75
g71
sg68
(lp2444
g61
(g82
g63
NtRp2445
(dp2446
g66
(dp2447
g86
g87
ssg75
g2441
sg68
(lp2448
S'is_https'
p2449
asbag61
(g82
g63
NtRp2450
(dp2451
g66
(dp2452
g93
g94
ssg75
g2441
sg68
(lp2453
S':'
asbag61
(g82
g63
NtRp2454
(dp2455
g66
(dp2456
sg75
g2441
sg68
(lp2457
g61
(g62
g63
NtRp2458
(dp2459
g66
(dp2460
g74
I5
ssg75
g2454
sg68
(lp2461
g104
asbasbasbag61
(g77
g63
NtRp2462
(dp2463
g66
(dp2464
sg75
g71
sg68
(lp2465
g61
(g82
g63
NtRp2466
(dp2467
g66
(dp2468
g86
g87
ssg75
g2462
sg68
(lp2469
S'is_local'
p2470
asbag61
(g82
g63
NtRp2471
(dp2472
g66
(dp2473
g93
g94
ssg75
g2462
sg68
(lp2474
S':'
asbag61
(g82
g63
NtRp2475
(dp2476
g66
(dp2477
sg75
g2462
sg68
(lp2478
g61
(g62
g63
NtRp2479
(dp2480
g66
(dp2481
g74
I5
ssg75
g2475
sg68
(lp2482
g984
asbasbasbag61
(g77
g63
NtRp2483
(dp2484
g66
(dp2485
sg75
g71
sg68
(lp2486
g61
(g82
g63
NtRp2487
(dp2488
g66
(dp2489
g86
g87
ssg75
g2483
sg68
(lp2490
S'is_restful'
p2491
asbag61
(g82
g63
NtRp2492
(dp2493
g66
(dp2494
g93
g94
ssg75
g2483
sg68
(lp2495
S':'
asbag61
(g82
g63
NtRp2496
(dp2497
g66
(dp2498
sg75
g2483
sg68
(lp2499
g61
(g62
g63
NtRp2500
(dp2501
g66
(dp2502
g74
I5
ssg75
g2496
sg68
(lp2503
g104
asbasbasbag61
(g77
g63
NtRp2504
(dp2505
g66
(dp2506
sg75
g71
sg68
(lp2507
g61
(g82
g63
NtRp2508
(dp2509
g66
(dp2510
g86
g87
ssg75
g2504
sg68
(lp2511
S'now'
p2512
asbag61
(g82
g63
NtRp2513
(dp2514
g66
(dp2515
g93
g94
ssg75
g2504
sg68
(lp2516
S':'
asbag61
(g82
g63
NtRp2517
(dp2518
g66
(dp2519
sg75
g2504
sg68
(lp2520
g61
(g62
g63
NtRp2521
(dp2522
g66
(dp2523
g74
I5
ssg75
g2517
sg68
(lp2524
S'datetime.datetime(2013, 3, 28, 14, 35, 24, 542568)'
p2525
asbasbasbag61
(g77
g63
NtRp2526
(dp2527
g66
(dp2528
sg75
g71
sg68
(lp2529
g61
(g82
g63
NtRp2530
(dp2531
g66
(dp2532
g86
g87
ssg75
g2526
sg68
(lp2533
S'post_vars'
p2534
asbag61
(g82
g63
NtRp2535
(dp2536
g66
(dp2537
g93
g94
ssg75
g2526
sg68
(lp2538
S':'
asbag61
(g82
g63
NtRp2539
(dp2540
g66
(dp2541
sg75
g2526
sg68
(lp2542
g61
(g62
g63
NtRp2543
(dp2544
g66
(dp2545
g74
I5
ssg75
g2539
sg68
(lp2546
g61
(g70
g63
NtRp2547
(dp2548
g66
(dp2549
g74
I4
ssg75
Nsg68
(lp2550
g61
(g77
g63
NtRp2551
(dp2552
g66
(dp2553
sg75
g2547
sg68
(lp2554
g61
(g82
g63
NtRp2555
(dp2556
g66
(dp2557
g86
g87
ssg75
g2551
sg68
(lp2558
S'bet'
p2559
asbag61
(g82
g63
NtRp2560
(dp2561
g66
(dp2562
g93
g94
ssg75
g2551
sg68
(lp2563
S':'
asbag61
(g82
g63
NtRp2564
(dp2565
g66
(dp2566
sg75
g2551
sg68
(lp2567
g61
(g62
g63
NtRp2568
(dp2569
g66
(dp2570
g74
I4
ssg75
g2564
sg68
(lp2571
S'18'
p2572
asbasbasbag61
(g77
g63
NtRp2573
(dp2574
g66
(dp2575
sg75
g2547
sg68
(lp2576
g61
(g82
g63
NtRp2577
(dp2578
g66
(dp2579
g86
g87
ssg75
g2573
sg68
(lp2580
S'slot'
p2581
asbag61
(g82
g63
NtRp2582
(dp2583
g66
(dp2584
g93
g94
ssg75
g2573
sg68
(lp2585
S':'
asbag61
(g82
g63
NtRp2586
(dp2587
g66
(dp2588
sg75
g2573
sg68
(lp2589
g61
(g62
g63
NtRp2590
(dp2591
g66
(dp2592
g74
I4
ssg75
g2586
sg68
(lp2593
S'1'
asbasbasbasbasbasbasbag61
(g77
g63
NtRp2594
(dp2595
g66
(dp2596
sg75
g71
sg68
(lp2597
g61
(g82
g63
NtRp2598
(dp2599
g66
(dp2600
g86
g87
ssg75
g2594
sg68
(lp2601
S'raw_args'
p2602
asbag61
(g82
g63
NtRp2603
(dp2604
g66
(dp2605
g93
g94
ssg75
g2594
sg68
(lp2606
S':'
asbag61
(g82
g63
NtRp2607
(dp2608
g66
(dp2609
sg75
g2594
sg68
(lp2610
g61
(g62
g63
NtRp2611
(dp2612
g66
(dp2613
g74
I5
ssg75
g2607
sg68
(lp2614
S'1'
asbasbasbag61
(g77
g63
NtRp2615
(dp2616
g66
(dp2617
sg75
g71
sg68
(lp2618
g61
(g82
g63
NtRp2619
(dp2620
g66
(dp2621
g86
g87
ssg75
g2615
sg68
(lp2622
S'raw_extension'
p2623
asbag61
(g82
g63
NtRp2624
(dp2625
g66
(dp2626
g93
g94
ssg75
g2615
sg68
(lp2627
S':'
asbag61
(g82
g63
NtRp2628
(dp2629
g66
(dp2630
sg75
g2615
sg68
(lp2631
g61
(g62
g63
NtRp2632
(dp2633
g66
(dp2634
g74
I5
ssg75
g2628
sg68
(lp2635
S'None'
p2636
asbasbasbag61
(g77
g63
NtRp2637
(dp2638
g66
(dp2639
sg75
g71
sg68
(lp2640
g61
(g82
g63
NtRp2641
(dp2642
g66
(dp2643
g86
g87
ssg75
g2637
sg68
(lp2644
S'url'
p2645
asbag61
(g82
g63
NtRp2646
(dp2647
g66
(dp2648
g93
g94
ssg75
g2637
sg68
(lp2649
S':'
asbag61
(g82
g63
NtRp2650
(dp2651
g66
(dp2652
sg75
g2637
sg68
(lp2653
g61
(g62
g63
NtRp2654
(dp2655
g66
(dp2656
g74
I5
ssg75
g2650
sg68
(lp2657
g1444
asbasbasbag61
(g77
g63
NtRp2658
(dp2659
g66
(dp2660
sg75
g71
sg68
(lp2661
g61
(g82
g63
NtRp2662
(dp2663
g66
(dp2664
g86
g87
ssg75
g2658
sg68
(lp2665
S'utcnow'
p2666
asbag61
(g82
g63
NtRp2667
(dp2668
g66
(dp2669
g93
g94
ssg75
g2658
sg68
(lp2670
S':'
asbag61
(g82
g63
NtRp2671
(dp2672
g66
(dp2673
sg75
g2658
sg68
(lp2674
g61
(g62
g63
NtRp2675
(dp2676
g66
(dp2677
g74
I5
ssg75
g2671
sg68
(lp2678
S'datetime.datetime(2013, 3, 28, 18, 35, 24, 542580)'
p2679
asbasbasbag61
(g77
g63
NtRp2680
(dp2681
g66
(dp2682
sg75
g71
sg68
(lp2683
g61
(g82
g63
NtRp2684
(dp2685
g66
(dp2686
g86
g87
ssg75
g2680
sg68
(lp2687
S'uuid'
p2688
asbag61
(g82
g63
NtRp2689
(dp2690
g66
(dp2691
g93
g94
ssg75
g2680
sg68
(lp2692
S':'
asbag61
(g82
g63
NtRp2693
(dp2694
g66
(dp2695
sg75
g2680
sg68
(lp2696
g61
(g62
g63
NtRp2697
(dp2698
g66
(dp2699
g74
I5
ssg75
g2693
sg68
(lp2700
S'hellow/127.0.0.1.2013-03-28.14-35-24.d9ade6a0-7e79-4e24-8c6c-39a0198468e2'
p2701
asbasbasbag61
(g77
g63
NtRp2702
(dp2703
g66
(dp2704
sg75
g71
sg68
(lp2705
g61
(g82
g63
NtRp2706
(dp2707
g66
(dp2708
g86
g87
ssg75
g2702
sg68
(lp2709
S'vars'
p2710
asbag61
(g82
g63
NtRp2711
(dp2712
g66
(dp2713
g93
g94
ssg75
g2702
sg68
(lp2714
S':'
asbag61
(g82
g63
NtRp2715
(dp2716
g66
(dp2717
sg75
g2702
sg68
(lp2718
g61
(g62
g63
NtRp2719
(dp2720
g66
(dp2721
g74
I5
ssg75
g2715
sg68
(lp2722
g61
(g70
g63
NtRp2723
(dp2724
g66
(dp2725
g74
I4
ssg75
Nsg68
(lp2726
g61
(g77
g63
NtRp2727
(dp2728
g66
(dp2729
sg75
g2723
sg68
(lp2730
g61
(g82
g63
NtRp2731
(dp2732
g66
(dp2733
g86
g87
ssg75
g2727
sg68
(lp2734
g2559
asbag61
(g82
g63
NtRp2735
(dp2736
g66
(dp2737
g93
g94
ssg75
g2727
sg68
(lp2738
S':'
asbag61
(g82
g63
NtRp2739
(dp2740
g66
(dp2741
sg75
g2727
sg68
(lp2742
g61
(g62
g63
NtRp2743
(dp2744
g66
(dp2745
g74
I4
ssg75
g2739
sg68
(lp2746
g2572
asbasbasbag61
(g77
g63
NtRp2747
(dp2748
g66
(dp2749
sg75
g2723
sg68
(lp2750
g61
(g82
g63
NtRp2751
(dp2752
g66
(dp2753
g86
g87
ssg75
g2747
sg68
(lp2754
g2581
asbag61
(g82
g63
NtRp2755
(dp2756
g66
(dp2757
g93
g94
ssg75
g2747
sg68
(lp2758
S':'
asbag61
(g82
g63
NtRp2759
(dp2760
g66
(dp2761
sg75
g2747
sg68
(lp2762
g61
(g62
g63
NtRp2763
(dp2764
g66
(dp2765
g74
I4
ssg75
g2759
sg68
(lp2766
S'1'
asbasbasbasbasbasbasbag61
(g77
g63
NtRp2767
(dp2768
g66
(dp2769
sg75
g71
sg68
(lp2770
g61
(g82
g63
NtRp2771
(dp2772
g66
(dp2773
g86
g87
ssg75
g2767
sg68
(lp2774
S'wsgi'
p2775
asbag61
(g82
g63
NtRp2776
(dp2777
g66
(dp2778
g93
g94
ssg75
g2767
sg68
(lp2779
S':'
asbag61
(g82
g63
NtRp2780
(dp2781
g66
(dp2782
sg75
g2767
sg68
(lp2783
g61
(g62
g63
NtRp2784
(dp2785
g66
(dp2786
g74
I5
ssg75
g2780
sg68
(lp2787
g61
(g70
g63
NtRp2788
(dp2789
g66
(dp2790
g74
I4
ssg75
Nsg68
(lp2791
g61
(g77
g63
NtRp2792
(dp2793
g66
(dp2794
sg75
g2788
sg68
(lp2795
g61
(g82
g63
NtRp2796
(dp2797
g66
(dp2798
g86
g87
ssg75
g2792
sg68
(lp2799
S'environ'
p2800
asbag61
(g82
g63
NtRp2801
(dp2802
g66
(dp2803
g93
g94
ssg75
g2792
sg68
(lp2804
S':'
asbag61
(g82
g63
NtRp2805
(dp2806
g66
(dp2807
sg75
g2792
sg68
(lp2808
g61
(g62
g63
NtRp2809
(dp2810
g66
(dp2811
g74
I4
ssg75
g2805
sg68
(lp2812
g61
(g70
g63
NtRp2813
(dp2814
g66
(dp2815
g74
I3
ssg75
Nsg68
(lp2816
g61
(g77
g63
NtRp2817
(dp2818
g66
(dp2819
sg75
g2813
sg68
(lp2820
g61
(g82
g63
NtRp2821
(dp2822
g66
(dp2823
g86
g87
ssg75
g2817
sg68
(lp2824
S'CONTENT_LENGTH'
p2825
asbag61
(g82
g63
NtRp2826
(dp2827
g66
(dp2828
g93
g94
ssg75
g2817
sg68
(lp2829
S':'
asbag61
(g82
g63
NtRp2830
(dp2831
g66
(dp2832
sg75
g2817
sg68
(lp2833
g61
(g62
g63
NtRp2834
(dp2835
g66
(dp2836
g74
I3
ssg75
g2830
sg68
(lp2837
g918
asbasbasbag61
(g77
g63
NtRp2838
(dp2839
g66
(dp2840
sg75
g2813
sg68
(lp2841
g61
(g82
g63
NtRp2842
(dp2843
g66
(dp2844
g86
g87
ssg75
g2838
sg68
(lp2845
S'CONTENT_TYPE'
p2846
asbag61
(g82
g63
NtRp2847
(dp2848
g66
(dp2849
g93
g94
ssg75
g2838
sg68
(lp2850
S':'
asbag61
(g82
g63
NtRp2851
(dp2852
g66
(dp2853
sg75
g2838
sg68
(lp2854
g61
(g62
g63
NtRp2855
(dp2856
g66
(dp2857
g74
I3
ssg75
g2851
sg68
(lp2858
g940
asbasbasbag61
(g77
g63
NtRp2859
(dp2860
g66
(dp2861
sg75
g2813
sg68
(lp2862
g61
(g82
g63
NtRp2863
(dp2864
g66
(dp2865
g86
g87
ssg75
g2859
sg68
(lp2866
S'HTTP_ACCEPT'
p2867
asbag61
(g82
g63
NtRp2868
(dp2869
g66
(dp2870
g93
g94
ssg75
g2859
sg68
(lp2871
S':'
asbag61
(g82
g63
NtRp2872
(dp2873
g66
(dp2874
sg75
g2859
sg68
(lp2875
g61
(g62
g63
NtRp2876
(dp2877
g66
(dp2878
g74
I3
ssg75
g2872
sg68
(lp2879
g1028
asbasbasbag61
(g77
g63
NtRp2880
(dp2881
g66
(dp2882
sg75
g2813
sg68
(lp2883
g61
(g82
g63
NtRp2884
(dp2885
g66
(dp2886
g86
g87
ssg75
g2880
sg68
(lp2887
S'HTTP_ACCEPT_CHARSET'
p2888
asbag61
(g82
g63
NtRp2889
(dp2890
g66
(dp2891
g93
g94
ssg75
g2880
sg68
(lp2892
S':'
asbag61
(g82
g63
NtRp2893
(dp2894
g66
(dp2895
sg75
g2880
sg68
(lp2896
g61
(g62
g63
NtRp2897
(dp2898
g66
(dp2899
g74
I3
ssg75
g2893
sg68
(lp2900
g1050
asbasbasbag61
(g77
g63
NtRp2901
(dp2902
g66
(dp2903
sg75
g2813
sg68
(lp2904
g61
(g82
g63
NtRp2905
(dp2906
g66
(dp2907
g86
g87
ssg75
g2901
sg68
(lp2908
S'HTTP_ACCEPT_ENCODING'
p2909
asbag61
(g82
g63
NtRp2910
(dp2911
g66
(dp2912
g93
g94
ssg75
g2901
sg68
(lp2913
S':'
asbag61
(g82
g63
NtRp2914
(dp2915
g66
(dp2916
sg75
g2901
sg68
(lp2917
g61
(g62
g63
NtRp2918
(dp2919
g66
(dp2920
g74
I3
ssg75
g2914
sg68
(lp2921
g1072
asbasbasbag61
(g77
g63
NtRp2922
(dp2923
g66
(dp2924
sg75
g2813
sg68
(lp2925
g61
(g82
g63
NtRp2926
(dp2927
g66
(dp2928
g86
g87
ssg75
g2922
sg68
(lp2929
S'HTTP_ACCEPT_LANGUAGE'
p2930
asbag61
(g82
g63
NtRp2931
(dp2932
g66
(dp2933
g93
g94
ssg75
g2922
sg68
(lp2934
S':'
asbag61
(g82
g63
NtRp2935
(dp2936
g66
(dp2937
sg75
g2922
sg68
(lp2938
g61
(g62
g63
NtRp2939
(dp2940
g66
(dp2941
g74
I3
ssg75
g2935
sg68
(lp2942
g1094
asbasbasbag61
(g77
g63
NtRp2943
(dp2944
g66
(dp2945
sg75
g2813
sg68
(lp2946
g61
(g82
g63
NtRp2947
(dp2948
g66
(dp2949
g86
g87
ssg75
g2943
sg68
(lp2950
S'HTTP_CACHE_CONTROL'
p2951
asbag61
(g82
g63
NtRp2952
(dp2953
g66
(dp2954
g93
g94
ssg75
g2943
sg68
(lp2955
S':'
asbag61
(g82
g63
NtRp2956
(dp2957
g66
(dp2958
sg75
g2943
sg68
(lp2959
g61
(g62
g63
NtRp2960
(dp2961
g66
(dp2962
g74
I3
ssg75
g2956
sg68
(lp2963
g1116
asbasbasbag61
(g77
g63
NtRp2964
(dp2965
g66
(dp2966
sg75
g2813
sg68
(lp2967
g61
(g82
g63
NtRp2968
(dp2969
g66
(dp2970
g86
g87
ssg75
g2964
sg68
(lp2971
S'HTTP_CONNECTION'
p2972
asbag61
(g82
g63
NtRp2973
(dp2974
g66
(dp2975
g93
g94
ssg75
g2964
sg68
(lp2976
S':'
asbag61
(g82
g63
NtRp2977
(dp2978
g66
(dp2979
sg75
g2964
sg68
(lp2980
g61
(g62
g63
NtRp2981
(dp2982
g66
(dp2983
g74
I3
ssg75
g2977
sg68
(lp2984
g1138
asbasbasbag61
(g77
g63
NtRp2985
(dp2986
g66
(dp2987
sg75
g2813
sg68
(lp2988
g61
(g82
g63
NtRp2989
(dp2990
g66
(dp2991
g86
g87
ssg75
g2985
sg68
(lp2992
S'HTTP_CONTENT_LENGTH'
p2993
asbag61
(g82
g63
NtRp2994
(dp2995
g66
(dp2996
g93
g94
ssg75
g2985
sg68
(lp2997
S':'
asbag61
(g82
g63
NtRp2998
(dp2999
g66
(dp3000
sg75
g2985
sg68
(lp3001
g61
(g62
g63
NtRp3002
(dp3003
g66
(dp3004
g74
I3
ssg75
g2998
sg68
(lp3005
g918
asbasbasbag61
(g77
g63
NtRp3006
(dp3007
g66
(dp3008
sg75
g2813
sg68
(lp3009
g61
(g82
g63
NtRp3010
(dp3011
g66
(dp3012
g86
g87
ssg75
g3006
sg68
(lp3013
S'HTTP_CONTENT_TYPE'
p3014
asbag61
(g82
g63
NtRp3015
(dp3016
g66
(dp3017
g93
g94
ssg75
g3006
sg68
(lp3018
S':'
asbag61
(g82
g63
NtRp3019
(dp3020
g66
(dp3021
sg75
g3006
sg68
(lp3022
g61
(g62
g63
NtRp3023
(dp3024
g66
(dp3025
g74
I3
ssg75
g3019
sg68
(lp3026
g940
asbasbasbag61
(g77
g63
NtRp3027
(dp3028
g66
(dp3029
sg75
g2813
sg68
(lp3030
g61
(g82
g63
NtRp3031
(dp3032
g66
(dp3033
g86
g87
ssg75
g3027
sg68
(lp3034
S'HTTP_COOKIE'
p3035
asbag61
(g82
g63
NtRp3036
(dp3037
g66
(dp3038
g93
g94
ssg75
g3027
sg68
(lp3039
S':'
asbag61
(g82
g63
NtRp3040
(dp3041
g66
(dp3042
sg75
g3027
sg68
(lp3043
g61
(g62
g63
NtRp3044
(dp3045
g66
(dp3046
g74
I3
ssg75
g3040
sg68
(lp3047
g1202
asbasbasbag61
(g77
g63
NtRp3048
(dp3049
g66
(dp3050
sg75
g2813
sg68
(lp3051
g61
(g82
g63
NtRp3052
(dp3053
g66
(dp3054
g86
g87
ssg75
g3048
sg68
(lp3055
S'HTTP_HOST'
p3056
asbag61
(g82
g63
NtRp3057
(dp3058
g66
(dp3059
g93
g94
ssg75
g3048
sg68
(lp3060
S':'
asbag61
(g82
g63
NtRp3061
(dp3062
g66
(dp3063
sg75
g3048
sg68
(lp3064
g61
(g62
g63
NtRp3065
(dp3066
g66
(dp3067
g74
I3
ssg75
g3061
sg68
(lp3068
g1224
asbasbasbag61
(g77
g63
NtRp3069
(dp3070
g66
(dp3071
sg75
g2813
sg68
(lp3072
g61
(g82
g63
NtRp3073
(dp3074
g66
(dp3075
g86
g87
ssg75
g3069
sg68
(lp3076
S'HTTP_ORIGIN'
p3077
asbag61
(g82
g63
NtRp3078
(dp3079
g66
(dp3080
g93
g94
ssg75
g3069
sg68
(lp3081
S':'
asbag61
(g82
g63
NtRp3082
(dp3083
g66
(dp3084
sg75
g3069
sg68
(lp3085
g61
(g62
g63
NtRp3086
(dp3087
g66
(dp3088
g74
I3
ssg75
g3082
sg68
(lp3089
g1246
asbasbasbag61
(g77
g63
NtRp3090
(dp3091
g66
(dp3092
sg75
g2813
sg68
(lp3093
g61
(g82
g63
NtRp3094
(dp3095
g66
(dp3096
g86
g87
ssg75
g3090
sg68
(lp3097
S'HTTP_REFERER'
p3098
asbag61
(g82
g63
NtRp3099
(dp3100
g66
(dp3101
g93
g94
ssg75
g3090
sg68
(lp3102
S':'
asbag61
(g82
g63
NtRp3103
(dp3104
g66
(dp3105
sg75
g3090
sg68
(lp3106
g61
(g62
g63
NtRp3107
(dp3108
g66
(dp3109
g74
I3
ssg75
g3103
sg68
(lp3110
g1268
asbasbasbag61
(g77
g63
NtRp3111
(dp3112
g66
(dp3113
sg75
g2813
sg68
(lp3114
g61
(g82
g63
NtRp3115
(dp3116
g66
(dp3117
g86
g87
ssg75
g3111
sg68
(lp3118
S'HTTP_USER_AGENT'
p3119
asbag61
(g82
g63
NtRp3120
(dp3121
g66
(dp3122
g93
g94
ssg75
g3111
sg68
(lp3123
S':'
asbag61
(g82
g63
NtRp3124
(dp3125
g66
(dp3126
sg75
g3111
sg68
(lp3127
g61
(g62
g63
NtRp3128
(dp3129
g66
(dp3130
g74
I3
ssg75
g3124
sg68
(lp3131
g1290
asbasbasbag61
(g77
g63
NtRp3132
(dp3133
g66
(dp3134
sg75
g2813
sg68
(lp3135
g61
(g82
g63
NtRp3136
(dp3137
g66
(dp3138
g86
g87
ssg75
g3132
sg68
(lp3139
S'PATH_INFO'
p3140
asbag61
(g82
g63
NtRp3141
(dp3142
g66
(dp3143
g93
g94
ssg75
g3132
sg68
(lp3144
S':'
asbag61
(g82
g63
NtRp3145
(dp3146
g66
(dp3147
sg75
g3132
sg68
(lp3148
g61
(g62
g63
NtRp3149
(dp3150
g66
(dp3151
g74
I3
ssg75
g3145
sg68
(lp3152
g1444
asbasbasbag61
(g77
g63
NtRp3153
(dp3154
g66
(dp3155
sg75
g2813
sg68
(lp3156
g61
(g82
g63
NtRp3157
(dp3158
g66
(dp3159
g86
g87
ssg75
g3153
sg68
(lp3160
S'QUERY_STRING'
p3161
asbag61
(g82
g63
NtRp3162
(dp3163
g66
(dp3164
g93
g94
ssg75
g3153
sg68
(lp3165
S':'
asbag61
(g82
g63
NtRp3166
(dp3167
g66
(dp3168
sg75
g3153
sg68
(lp3169
g61
(g62
g63
NtRp3170
(dp3171
g66
(dp3172
g74
I3
ssg75
g3166
sg68
(lp3173
S''
asbasbasbag61
(g77
g63
NtRp3174
(dp3175
g66
(dp3176
sg75
g2813
sg68
(lp3177
g61
(g82
g63
NtRp3178
(dp3179
g66
(dp3180
g86
g87
ssg75
g3174
sg68
(lp3181
S'REMOTE_ADDR'
p3182
asbag61
(g82
g63
NtRp3183
(dp3184
g66
(dp3185
g93
g94
ssg75
g3174
sg68
(lp3186
S':'
asbag61
(g82
g63
NtRp3187
(dp3188
g66
(dp3189
sg75
g3174
sg68
(lp3190
g61
(g62
g63
NtRp3191
(dp3192
g66
(dp3193
g74
I3
ssg75
g3187
sg68
(lp3194
g228
asbasbasbag61
(g77
g63
NtRp3195
(dp3196
g66
(dp3197
sg75
g2813
sg68
(lp3198
g61
(g82
g63
NtRp3199
(dp3200
g66
(dp3201
g86
g87
ssg75
g3195
sg68
(lp3202
S'REMOTE_PORT'
p3203
asbag61
(g82
g63
NtRp3204
(dp3205
g66
(dp3206
g93
g94
ssg75
g3195
sg68
(lp3207
S':'
asbag61
(g82
g63
NtRp3208
(dp3209
g66
(dp3210
sg75
g3195
sg68
(lp3211
g61
(g62
g63
NtRp3212
(dp3213
g66
(dp3214
g74
I3
ssg75
g3208
sg68
(lp3215
g1508
asbasbasbag61
(g77
g63
NtRp3216
(dp3217
g66
(dp3218
sg75
g2813
sg68
(lp3219
g61
(g82
g63
NtRp3220
(dp3221
g66
(dp3222
g86
g87
ssg75
g3216
sg68
(lp3223
S'REQUEST_METHOD'
p3224
asbag61
(g82
g63
NtRp3225
(dp3226
g66
(dp3227
g93
g94
ssg75
g3216
sg68
(lp3228
S':'
asbag61
(g82
g63
NtRp3229
(dp3230
g66
(dp3231
sg75
g3216
sg68
(lp3232
g61
(g62
g63
NtRp3233
(dp3234
g66
(dp3235
g74
I3
ssg75
g3229
sg68
(lp3236
g1530
asbasbasbag61
(g77
g63
NtRp3237
(dp3238
g66
(dp3239
sg75
g2813
sg68
(lp3240
g61
(g82
g63
NtRp3241
(dp3242
g66
(dp3243
g86
g87
ssg75
g3237
sg68
(lp3244
S'REQUEST_URI'
p3245
asbag61
(g82
g63
NtRp3246
(dp3247
g66
(dp3248
g93
g94
ssg75
g3237
sg68
(lp3249
S':'
asbag61
(g82
g63
NtRp3250
(dp3251
g66
(dp3252
sg75
g3237
sg68
(lp3253
g61
(g62
g63
NtRp3254
(dp3255
g66
(dp3256
g74
I3
ssg75
g3250
sg68
(lp3257
g1444
asbasbasbag61
(g77
g63
NtRp3258
(dp3259
g66
(dp3260
sg75
g2813
sg68
(lp3261
g61
(g82
g63
NtRp3262
(dp3263
g66
(dp3264
g86
g87
ssg75
g3258
sg68
(lp3265
S'SCRIPT_NAME'
p3266
asbag61
(g82
g63
NtRp3267
(dp3268
g66
(dp3269
g93
g94
ssg75
g3258
sg68
(lp3270
S':'
asbag61
(g82
g63
NtRp3271
(dp3272
g66
(dp3273
sg75
g3258
sg68
(lp3274
g61
(g62
g63
NtRp3275
(dp3276
g66
(dp3277
g74
I3
ssg75
g3271
sg68
(lp3278
S''
asbasbasbag61
(g77
g63
NtRp3279
(dp3280
g66
(dp3281
sg75
g2813
sg68
(lp3282
g61
(g82
g63
NtRp3283
(dp3284
g66
(dp3285
g86
g87
ssg75
g3279
sg68
(lp3286
S'SERVER_NAME'
p3287
asbag61
(g82
g63
NtRp3288
(dp3289
g66
(dp3290
g93
g94
ssg75
g3279
sg68
(lp3291
S':'
asbag61
(g82
g63
NtRp3292
(dp3293
g66
(dp3294
sg75
g3279
sg68
(lp3295
g61
(g62
g63
NtRp3296
(dp3297
g66
(dp3298
g74
I3
ssg75
g3292
sg68
(lp3299
g1594
asbasbasbag61
(g77
g63
NtRp3300
(dp3301
g66
(dp3302
sg75
g2813
sg68
(lp3303
g61
(g82
g63
NtRp3304
(dp3305
g66
(dp3306
g86
g87
ssg75
g3300
sg68
(lp3307
S'SERVER_PORT'
p3308
asbag61
(g82
g63
NtRp3309
(dp3310
g66
(dp3311
g93
g94
ssg75
g3300
sg68
(lp3312
S':'
asbag61
(g82
g63
NtRp3313
(dp3314
g66
(dp3315
sg75
g3300
sg68
(lp3316
g61
(g62
g63
NtRp3317
(dp3318
g66
(dp3319
g74
I3
ssg75
g3313
sg68
(lp3320
g1616
asbasbasbag61
(g77
g63
NtRp3321
(dp3322
g66
(dp3323
sg75
g2813
sg68
(lp3324
g61
(g82
g63
NtRp3325
(dp3326
g66
(dp3327
g86
g87
ssg75
g3321
sg68
(lp3328
S'SERVER_PROTOCOL'
p3329
asbag61
(g82
g63
NtRp3330
(dp3331
g66
(dp3332
g93
g94
ssg75
g3321
sg68
(lp3333
S':'
asbag61
(g82
g63
NtRp3334
(dp3335
g66
(dp3336
sg75
g3321
sg68
(lp3337
g61
(g62
g63
NtRp3338
(dp3339
g66
(dp3340
g74
I3
ssg75
g3334
sg68
(lp3341
g1638
asbasbasbag61
(g77
g63
NtRp3342
(dp3343
g66
(dp3344
sg75
g2813
sg68
(lp3345
g61
(g82
g63
NtRp3346
(dp3347
g66
(dp3348
g86
g87
ssg75
g3342
sg68
(lp3349
S'SERVER_SOFTWARE'
p3350
asbag61
(g82
g63
NtRp3351
(dp3352
g66
(dp3353
g93
g94
ssg75
g3342
sg68
(lp3354
S':'
asbag61
(g82
g63
NtRp3355
(dp3356
g66
(dp3357
sg75
g3342
sg68
(lp3358
g61
(g62
g63
NtRp3359
(dp3360
g66
(dp3361
g74
I3
ssg75
g3355
sg68
(lp3362
g1660
asbasbasbag61
(g77
g63
NtRp3363
(dp3364
g66
(dp3365
sg75
g2813
sg68
(lp3366
g61
(g82
g63
NtRp3367
(dp3368
g66
(dp3369
g86
g87
ssg75
g3363
sg68
(lp3370
S'wsgi.errors'
p3371
asbag61
(g82
g63
NtRp3372
(dp3373
g66
(dp3374
g93
g94
ssg75
g3363
sg68
(lp3375
S':'
asbag61
(g82
g63
NtRp3376
(dp3377
g66
(dp3378
sg75
g3363
sg68
(lp3379
g61
(g62
g63
NtRp3380
(dp3381
g66
(dp3382
g74
I3
ssg75
g3376
sg68
(lp3383
S"<open file '<stderr>', mode 'w' at 0x540b0>"
p3384
asbasbasbag61
(g77
g63
NtRp3385
(dp3386
g66
(dp3387
sg75
g2813
sg68
(lp3388
g61
(g82
g63
NtRp3389
(dp3390
g66
(dp3391
g86
g87
ssg75
g3385
sg68
(lp3392
S'wsgi.file_wrapper'
p3393
asbag61
(g82
g63
NtRp3394
(dp3395
g66
(dp3396
g93
g94
ssg75
g3385
sg68
(lp3397
S':'
asbag61
(g82
g63
NtRp3398
(dp3399
g66
(dp3400
sg75
g3385
sg68
(lp3401
g61
(g62
g63
NtRp3402
(dp3403
g66
(dp3404
g74
I3
ssg75
g3398
sg68
(lp3405
S'<class wsgiref.util.FileWrapper at 0x4761060>'
p3406
asbasbasbag61
(g77
g63
NtRp3407
(dp3408
g66
(dp3409
sg75
g2813
sg68
(lp3410
g61
(g82
g63
NtRp3411
(dp3412
g66
(dp3413
g86
g87
ssg75
g3407
sg68
(lp3414
S'wsgi.input'
p3415
asbag61
(g82
g63
NtRp3416
(dp3417
g66
(dp3418
g93
g94
ssg75
g3407
sg68
(lp3419
S':'
asbag61
(g82
g63
NtRp3420
(dp3421
g66
(dp3422
sg75
g3407
sg68
(lp3423
g61
(g62
g63
NtRp3424
(dp3425
g66
(dp3426
g74
I3
ssg75
g3420
sg68
(lp3427
S"<open file '<fdopen>', mode 'w+b' at 0x92b6a88>"
p3428
asbasbasbag61
(g77
g63
NtRp3429
(dp3430
g66
(dp3431
sg75
g2813
sg68
(lp3432
g61
(g82
g63
NtRp3433
(dp3434
g66
(dp3435
g86
g87
ssg75
g3429
sg68
(lp3436
S'wsgi.multiprocess'
p3437
asbag61
(g82
g63
NtRp3438
(dp3439
g66
(dp3440
g93
g94
ssg75
g3429
sg68
(lp3441
S':'
asbag61
(g82
g63
NtRp3442
(dp3443
g66
(dp3444
sg75
g3429
sg68
(lp3445
g61
(g62
g63
NtRp3446
(dp3447
g66
(dp3448
g74
I3
ssg75
g3442
sg68
(lp3449
g104
asbasbasbag61
(g77
g63
NtRp3450
(dp3451
g66
(dp3452
sg75
g2813
sg68
(lp3453
g61
(g82
g63
NtRp3454
(dp3455
g66
(dp3456
g86
g87
ssg75
g3450
sg68
(lp3457
S'wsgi.multithread'
p3458
asbag61
(g82
g63
NtRp3459
(dp3460
g66
(dp3461
g93
g94
ssg75
g3450
sg68
(lp3462
S':'
asbag61
(g82
g63
NtRp3463
(dp3464
g66
(dp3465
sg75
g3450
sg68
(lp3466
g61
(g62
g63
NtRp3467
(dp3468
g66
(dp3469
g74
I3
ssg75
g3463
sg68
(lp3470
g984
asbasbasbag61
(g77
g63
NtRp3471
(dp3472
g66
(dp3473
sg75
g2813
sg68
(lp3474
g61
(g82
g63
NtRp3475
(dp3476
g66
(dp3477
g86
g87
ssg75
g3471
sg68
(lp3478
S'wsgi.run_once'
p3479
asbag61
(g82
g63
NtRp3480
(dp3481
g66
(dp3482
g93
g94
ssg75
g3471
sg68
(lp3483
S':'
asbag61
(g82
g63
NtRp3484
(dp3485
g66
(dp3486
sg75
g3471
sg68
(lp3487
g61
(g62
g63
NtRp3488
(dp3489
g66
(dp3490
g74
I3
ssg75
g3484
sg68
(lp3491
g104
asbasbasbag61
(g77
g63
NtRp3492
(dp3493
g66
(dp3494
sg75
g2813
sg68
(lp3495
g61
(g82
g63
NtRp3496
(dp3497
g66
(dp3498
g86
g87
ssg75
g3492
sg68
(lp3499
S'wsgi.url_scheme'
p3500
asbag61
(g82
g63
NtRp3501
(dp3502
g66
(dp3503
g93
g94
ssg75
g3492
sg68
(lp3504
S':'
asbag61
(g82
g63
NtRp3505
(dp3506
g66
(dp3507
sg75
g3492
sg68
(lp3508
g61
(g62
g63
NtRp3509
(dp3510
g66
(dp3511
g74
I3
ssg75
g3505
sg68
(lp3512
g1919
asbasbasbag61
(g77
g63
NtRp3513
(dp3514
g66
(dp3515
sg75
g2813
sg68
(lp3516
g61
(g82
g63
NtRp3517
(dp3518
g66
(dp3519
g86
g87
ssg75
g3513
sg68
(lp3520
S'wsgi.version'
p3521
asbag61
(g82
g63
NtRp3522
(dp3523
g66
(dp3524
g93
g94
ssg75
g3513
sg68
(lp3525
S':'
asbag61
(g82
g63
NtRp3526
(dp3527
g66
(dp3528
sg75
g3513
sg68
(lp3529
g61
(g62
g63
NtRp3530
(dp3531
g66
(dp3532
g74
I3
ssg75
g3526
sg68
(lp3533
S'1'
asbasbasbasbasbasbasbasbasbasbasbasbasbsS'frames'
p3534
(lp3535
(dp3536
S'file'
p3537
S'/home/mdipierro/web2py/gluon/restricted.py'
p3538
sS'dump'
p3539
(dp3540
sS'lnum'
p3541
I212
sS'lines'
p3542
(dp3543
sS'call'
p3544
S"(code='# coding: utf8\\n# try something like\\nimport rando...nce - bet\\n\\nresponse._vars=response._caller(show)\\n', environment={'A': <class 'gluon.html.A'>, 'Auth': <class 'gluon.tools.Auth'>, 'B': <class 'gluon.html.B'>, 'BEAUTIFY': <class 'gluon.html.BEAUTIFY'>, 'BODY': <class 'gluon.html.BODY'>, 'BR': <class 'gluon.html.BR'>, 'BUTTON': <class 'gluon.html.BUTTON'>, 'CAT': <class 'gluon.html.CAT'>, 'CENTER': <class 'gluon.html.CENTER'>, 'CLEANUP': <class 'gluon.validators.CLEANUP'>, ...}, layer='/Users/zamechek/Downloads/web2py/web2py.app/Cont...Resources/applications/hellow/controllers/game.py')"
p3545
sS'func'
p3546
S'restricted'
p3547
sa(dp3548
g3537
S'/Users/zamechek/Downloads/web2py/web2py.app/Contents/Resources/applications/hellow/controllers/game.py'
p3549
sg3539
(dp3550
sg3541
I42
sg3542
(dp3551
I32
S'    return otherForm'
p3552
sI33
S''
sI34
S'def isWinner(odds, bet, balance):'
p3553
sI35
S'    if(random.randint(1, 10) > odds):'
p3554
sI36
S"        response.flash = 'You won'"
p3555
sI37
S'        return bet + balance'
p3556
sI38
S'    else:'
p3557
sI39
S"        response.flash = 'You lost'"
p3558
sI40
S'        return balance - bet'
p3559
sI31
S"        response.flash = 'form has errors'"
p3560
ssg3544
S'()'
p3561
sg3546
S'<module>'
p3562
sa(dp3563
g3537
S'/home/mdipierro/web2py/gluon/globals.py'
p3564
sg3539
(dp3565
sg3541
I193
sg3542
(dp3566
sg3544
S'(f=<function show at 0x6d4b7f0>)'
p3567
sg3546
S'<lambda>'
p3568
sa(dp3569
g3537
S'/Users/zamechek/Downloads/web2py/web2py.app/Contents/Resources/applications/hellow/controllers/game.py'
p3570
sg3539
(dp3571
sg3541
I14
sg3542
(dp3572
I9
S''
sI10
S'    query=((db.game.id==db.game_slots.game)&(db.slot.id==db.game_slots.slot))'
p3573
sI11
S'    #game_and_slots=(db.game.id==db.game_slots.game)&(db.slot.id==db.game_slots.slot)'
p3574
sI12
S'    rows = db(query).select(db.slot.id, db.slot.odds)'
p3575
sI13
S''
sI14
S'    otherForm = form_from_factory(rows, game, id)'
p3576
sI15
S'    return dict(name=auth_user.first_name.capitalize() + " " + auth_user.last_name.capitalize(), balance = game.balance, slots = rows, gameid = id, otherForm=otherForm)'
p3577
sI16
S''
sI17
S'def form_from_factory(rows , game, id):'
p3578
sI18
S'    game_and_slots=db((db.game.id==db.game_slots.game)&(db.slot.id==db.game_slots.slot))'
p3579
ssg3544
S'()'
p3580
sg3546
S'show'
p3581
sa(dp3582
g3537
S'/Users/zamechek/Downloads/web2py/web2py.app/Contents/Resources/applications/hellow/controllers/game.py'
p3583
sg3539
(dp3584
sg3541
I27
sg3542
(dp3585
I22
S'    if otherForm.process().accepted:'
p3586
sI23
S'        mybet = int(otherForm.vars.bet)'
p3587
sI24
S'        currentBalance =  int(game.balance)'
p3588
sI25
S'        remainingBalance = isWinner(int(otherForm.vars.slot), mybet, currentBalance)'
p3589
sI26
S'        game.update_record(balance=str(remainingBalance))'
p3590
sI27
S'        db.user_action.insert(game = game, auth_user = game.auth_user, slot = otherForm.vars.slot, bet = mybet, winning = currentBalance, odds = otherForm.vars.slot, date_time = datetime.datetime.now())'
p3591
sI28
S''
sI29
S''
sI30
S'    elif otherForm.errors:'
p3592
sI31
S"        response.flash = 'form has errors'"
p3593
ssg3544
S"(rows=<Rows (3)>, game=<Row {'auth_user': 1, 'balance': '100', 'id': 1}>, id='1')"
p3594
sg3546
S'form_from_factory'
p3595
sa(dp3596
g3537
S'/home/mdipierro/web2py/gluon/dal.py'
p3597
sg3539
(dp3598
sg3541
I8095
sg3542
(dp3599
sg3544
S"(self=<Table user_action (id,game,auth_user,slot,bet,winning,odds,date_timedatetime)>, **fields={'auth_user': 1L, 'bet': 18, 'date_time': datetime.datetime(2013, 3, 28, 14, 35, 24, 665400), 'game': <Row {'auth_user': 1, 'balance': '100', 'id': 1}>, 'odds': '1', 'slot': '1', 'winning': 82})"
p3600
sg3546
S'insert'
p3601
sa(dp3602
g3537
S'/home/mdipierro/web2py/gluon/dal.py'
p3603
sg3539
(dp3604
sg3541
I8022
sg3542
(dp3605
sg3544
S"(self=<Table user_action (id,game,auth_user,slot,bet,winning,odds,date_timedatetime)>, fields={'auth_user': 1L, 'bet': 18, 'date_time': datetime.datetime(2013, 3, 28, 14, 35, 24, 665400), 'game': <Row {'auth_user': 1, 'balance': '100', 'id': 1}>, 'odds': '1', 'slot': '1', 'winning': 82}, update=False)"
p3606
sg3546
S'_listify'
p3607
sasS'pyver'
p3608
S'Python 2.5.1: /Users/zamechek/Downloads/web2py/web2py.app/Contents/MacOS/python'
p3609
sS'session'
p3610
g61
(g62
g63
NtRp3611
(dp3612
g66
(dp3613
sg68
(lp3614
g61
(g70
g63
NtRp3615
(dp3616
g66
(dp3617
g74
I5
ssg75
Nsg68
(lp3618
g61
(g77
g63
NtRp3619
(dp3620
g66
(dp3621
sg75
g3615
sg68
(lp3622
g61
(g82
g63
NtRp3623
(dp3624
g66
(dp3625
g86
g87
ssg75
g3619
sg68
(lp3626
S'auth'
p3627
asbag61
(g82
g63
NtRp3628
(dp3629
g66
(dp3630
g93
g94
ssg75
g3619
sg68
(lp3631
S':'
asbag61
(g82
g63
NtRp3632
(dp3633
g66
(dp3634
sg75
g3619
sg68
(lp3635
g61
(g62
g63
NtRp3636
(dp3637
g66
(dp3638
g74
I5
ssg75
g3632
sg68
(lp3639
g61
(g70
g63
NtRp3640
(dp3641
g66
(dp3642
g74
I4
ssg75
Nsg68
(lp3643
g61
(g77
g63
NtRp3644
(dp3645
g66
(dp3646
sg75
g3640
sg68
(lp3647
g61
(g82
g63
NtRp3648
(dp3649
g66
(dp3650
g86
g87
ssg75
g3644
sg68
(lp3651
S'expiration'
p3652
asbag61
(g82
g63
NtRp3653
(dp3654
g66
(dp3655
g93
g94
ssg75
g3644
sg68
(lp3656
S':'
asbag61
(g82
g63
NtRp3657
(dp3658
g66
(dp3659
sg75
g3644
sg68
(lp3660
g61
(g62
g63
NtRp3661
(dp3662
g66
(dp3663
g74
I4
ssg75
g3657
sg68
(lp3664
S'3600'
p3665
asbasbasbag61
(g77
g63
NtRp3666
(dp3667
g66
(dp3668
sg75
g3640
sg68
(lp3669
g61
(g82
g63
NtRp3670
(dp3671
g66
(dp3672
g86
g87
ssg75
g3666
sg68
(lp3673
S'hmac_key'
p3674
asbag61
(g82
g63
NtRp3675
(dp3676
g66
(dp3677
g93
g94
ssg75
g3666
sg68
(lp3678
S':'
asbag61
(g82
g63
NtRp3679
(dp3680
g66
(dp3681
sg75
g3666
sg68
(lp3682
g61
(g62
g63
NtRp3683
(dp3684
g66
(dp3685
g74
I4
ssg75
g3679
sg68
(lp3686
S'dfce88b4-e79e-4475-bdab-968fb69963d5'
p3687
asbasbasbag61
(g77
g63
NtRp3688
(dp3689
g66
(dp3690
sg75
g3640
sg68
(lp3691
g61
(g82
g63
NtRp3692
(dp3693
g66
(dp3694
g86
g87
ssg75
g3688
sg68
(lp3695
S'last_visit'
p3696
asbag61
(g82
g63
NtRp3697
(dp3698
g66
(dp3699
g93
g94
ssg75
g3688
sg68
(lp3700
S':'
asbag61
(g82
g63
NtRp3701
(dp3702
g66
(dp3703
sg75
g3688
sg68
(lp3704
g61
(g62
g63
NtRp3705
(dp3706
g66
(dp3707
g74
I4
ssg75
g3701
sg68
(lp3708
S'datetime.datetime(2013, 3, 28, 14, 35, 22, 540332)'
p3709
asbasbasbag61
(g77
g63
NtRp3710
(dp3711
g66
(dp3712
sg75
g3640
sg68
(lp3713
g61
(g82
g63
NtRp3714
(dp3715
g66
(dp3716
g86
g87
ssg75
g3710
sg68
(lp3717
S'remember'
p3718
asbag61
(g82
g63
NtRp3719
(dp3720
g66
(dp3721
g93
g94
ssg75
g3710
sg68
(lp3722
S':'
asbag61
(g82
g63
NtRp3723
(dp3724
g66
(dp3725
sg75
g3710
sg68
(lp3726
g61
(g62
g63
NtRp3727
(dp3728
g66
(dp3729
g74
I4
ssg75
g3723
sg68
(lp3730
g104
asbasbasbag61
(g77
g63
NtRp3731
(dp3732
g66
(dp3733
sg75
g3640
sg68
(lp3734
g61
(g82
g63
NtRp3735
(dp3736
g66
(dp3737
g86
g87
ssg75
g3731
sg68
(lp3738
S'user'
p3739
asbag61
(g82
g63
NtRp3740
(dp3741
g66
(dp3742
g93
g94
ssg75
g3731
sg68
(lp3743
S':'
asbag61
(g82
g63
NtRp3744
(dp3745
g66
(dp3746
sg75
g3731
sg68
(lp3747
g61
(g62
g63
NtRp3748
(dp3749
g66
(dp3750
g74
I4
ssg75
g3744
sg68
(lp3751
g61
(g70
g63
NtRp3752
(dp3753
g66
(dp3754
g74
I3
ssg75
Nsg68
(lp3755
g61
(g77
g63
NtRp3756
(dp3757
g66
(dp3758
sg75
g3752
sg68
(lp3759
g61
(g82
g63
NtRp3760
(dp3761
g66
(dp3762
g86
g87
ssg75
g3756
sg68
(lp3763
S'email'
p3764
asbag61
(g82
g63
NtRp3765
(dp3766
g66
(dp3767
g93
g94
ssg75
g3756
sg68
(lp3768
S':'
asbag61
(g82
g63
NtRp3769
(dp3770
g66
(dp3771
sg75
g3756
sg68
(lp3772
g61
(g62
g63
NtRp3773
(dp3774
g66
(dp3775
g74
I3
ssg75
g3769
sg68
(lp3776
S'shawnzam@gmail.com'
p3777
asbasbasbag61
(g77
g63
NtRp3778
(dp3779
g66
(dp3780
sg75
g3752
sg68
(lp3781
g61
(g82
g63
NtRp3782
(dp3783
g66
(dp3784
g86
g87
ssg75
g3778
sg68
(lp3785
S'first_name'
p3786
asbag61
(g82
g63
NtRp3787
(dp3788
g66
(dp3789
g93
g94
ssg75
g3778
sg68
(lp3790
S':'
asbag61
(g82
g63
NtRp3791
(dp3792
g66
(dp3793
sg75
g3778
sg68
(lp3794
g61
(g62
g63
NtRp3795
(dp3796
g66
(dp3797
g74
I3
ssg75
g3791
sg68
(lp3798
S'alt'
p3799
asbasbasbag61
(g77
g63
NtRp3800
(dp3801
g66
(dp3802
sg75
g3752
sg68
(lp3803
g61
(g82
g63
NtRp3804
(dp3805
g66
(dp3806
g86
g87
ssg75
g3800
sg68
(lp3807
S'id'
p3808
asbag61
(g82
g63
NtRp3809
(dp3810
g66
(dp3811
g93
g94
ssg75
g3800
sg68
(lp3812
S':'
asbag61
(g82
g63
NtRp3813
(dp3814
g66
(dp3815
sg75
g3800
sg68
(lp3816
g61
(g62
g63
NtRp3817
(dp3818
g66
(dp3819
g74
I3
ssg75
g3813
sg68
(lp3820
S'1'
asbasbasbag61
(g77
g63
NtRp3821
(dp3822
g66
(dp3823
sg75
g3752
sg68
(lp3824
g61
(g82
g63
NtRp3825
(dp3826
g66
(dp3827
g86
g87
ssg75
g3821
sg68
(lp3828
S'last_name'
p3829
asbag61
(g82
g63
NtRp3830
(dp3831
g66
(dp3832
g93
g94
ssg75
g3821
sg68
(lp3833
S':'
asbag61
(g82
g63
NtRp3834
(dp3835
g66
(dp3836
sg75
g3821
sg68
(lp3837
g61
(g62
g63
NtRp3838
(dp3839
g66
(dp3840
g74
I3
ssg75
g3834
sg68
(lp3841
S'Zamechek'
p3842
asbasbasbag61
(g77
g63
NtRp3843
(dp3844
g66
(dp3845
sg75
g3752
sg68
(lp3846
g61
(g82
g63
NtRp3847
(dp3848
g66
(dp3849
g86
g87
ssg75
g3843
sg68
(lp3850
S'registration_id'
p3851
asbag61
(g82
g63
NtRp3852
(dp3853
g66
(dp3854
g93
g94
ssg75
g3843
sg68
(lp3855
S':'
asbag61
(g82
g63
NtRp3856
(dp3857
g66
(dp3858
sg75
g3843
sg68
(lp3859
g61
(g62
g63
NtRp3860
(dp3861
g66
(dp3862
g74
I3
ssg75
g3856
sg68
(lp3863
S''
asbasbasbag61
(g77
g63
NtRp3864
(dp3865
g66
(dp3866
sg75
g3752
sg68
(lp3867
g61
(g82
g63
NtRp3868
(dp3869
g66
(dp3870
g86
g87
ssg75
g3864
sg68
(lp3871
S'registration_key'
p3872
asbag61
(g82
g63
NtRp3873
(dp3874
g66
(dp3875
g93
g94
ssg75
g3864
sg68
(lp3876
S':'
asbag61
(g82
g63
NtRp3877
(dp3878
g66
(dp3879
sg75
g3864
sg68
(lp3880
g61
(g62
g63
NtRp3881
(dp3882
g66
(dp3883
g74
I3
ssg75
g3877
sg68
(lp3884
S''
asbasbasbag61
(g77
g63
NtRp3885
(dp3886
g66
(dp3887
sg75
g3752
sg68
(lp3888
g61
(g82
g63
NtRp3889
(dp3890
g66
(dp3891
g86
g87
ssg75
g3885
sg68
(lp3892
S'reset_password_key'
p3893
asbag61
(g82
g63
NtRp3894
(dp3895
g66
(dp3896
g93
g94
ssg75
g3885
sg68
(lp3897
S':'
asbag61
(g82
g63
NtRp3898
(dp3899
g66
(dp3900
sg75
g3885
sg68
(lp3901
g61
(g62
g63
NtRp3902
(dp3903
g66
(dp3904
g74
I3
ssg75
g3898
sg68
(lp3905
S''
asbasbasbasbasbasbasbag61
(g77
g63
NtRp3906
(dp3907
g66
(dp3908
sg75
g3640
sg68
(lp3909
g61
(g82
g63
NtRp3910
(dp3911
g66
(dp3912
g86
g87
ssg75
g3906
sg68
(lp3913
S'user_groups'
p3914
asbag61
(g82
g63
NtRp3915
(dp3916
g66
(dp3917
g93
g94
ssg75
g3906
sg68
(lp3918
S':'
asbag61
(g82
g63
NtRp3919
(dp3920
g66
(dp3921
sg75
g3906
sg68
(lp3922
g61
(g62
g63
NtRp3923
(dp3924
g66
(dp3925
g74
I4
ssg75
g3919
sg68
(lp3926
g61
(g70
g63
NtRp3927
(dp3928
g66
(dp3929
g74
I3
ssg75
Nsg68
(lp3930
g61
(g77
g63
NtRp3931
(dp3932
g66
(dp3933
sg75
g3927
sg68
(lp3934
g61
(g82
g63
NtRp3935
(dp3936
g66
(dp3937
g86
g87
ssg75
g3931
sg68
(lp3938
S'1'
asbag61
(g82
g63
NtRp3939
(dp3940
g66
(dp3941
g93
g94
ssg75
g3931
sg68
(lp3942
S':'
asbag61
(g82
g63
NtRp3943
(dp3944
g66
(dp3945
sg75
g3931
sg68
(lp3946
g61
(g62
g63
NtRp3947
(dp3948
g66
(dp3949
g74
I3
ssg75
g3943
sg68
(lp3950
S'admin'
p3951
asbasbasbasbasbasbasbasbasbasbasbag61
(g77
g63
NtRp3952
(dp3953
g66
(dp3954
sg75
g3615
sg68
(lp3955
g61
(g82
g63
NtRp3956
(dp3957
g66
(dp3958
g86
g87
ssg75
g3952
sg68
(lp3959
S'flash'
p3960
asbag61
(g82
g63
NtRp3961
(dp3962
g66
(dp3963
g93
g94
ssg75
g3952
sg68
(lp3964
S':'
asbag61
(g82
g63
NtRp3965
(dp3966
g66
(dp3967
sg75
g3952
sg68
(lp3968
g61
(g62
g63
NtRp3969
(dp3970
g66
(dp3971
g74
I5
ssg75
g3965
sg68
(lp3972
S'None'
p3973
asbasbasbag61
(g77
g63
NtRp3974
(dp3975
g66
(dp3976
sg75
g3615
sg68
(lp3977
g61
(g82
g63
NtRp3978
(dp3979
g66
(dp3980
g86
g87
ssg75
g3974
sg68
(lp3981
S'last_orderby'
p3982
asbag61
(g82
g63
NtRp3983
(dp3984
g66
(dp3985
g93
g94
ssg75
g3974
sg68
(lp3986
S':'
asbag61
(g82
g63
NtRp3987
(dp3988
g66
(dp3989
sg75
g3974
sg68
(lp3990
g61
(g62
g63
NtRp3991
(dp3992
g66
(dp3993
g74
I5
ssg75
g3987
sg68
(lp3994
S'None'
p3995
asbasbasbag61
(g77
g63
NtRp3996
(dp3997
g66
(dp3998
sg75
g3615
sg68
(lp3999
g61
(g82
g63
NtRp4000
(dp4001
g66
(dp4002
g86
g87
ssg75
g3996
sg68
(lp4003
S'last_query'
p4004
asbag61
(g82
g63
NtRp4005
(dp4006
g66
(dp4007
g93
g94
ssg75
g3996
sg68
(lp4008
S':'
asbag61
(g82
g63
NtRp4009
(dp4010
g66
(dp4011
sg75
g3996
sg68
(lp4012
g61
(g62
g63
NtRp4013
(dp4014
g66
(dp4015
g74
I5
ssg75
g4009
sg68
(lp4016
S'db.user_action.id>0'
p4017
asbasbasbasbasbsS'etype'
p4018
S"<type 'exceptions.SyntaxError'>"
p4019
sS'date'
p4020
S'Thu Mar 28 14:35:24 2013'
p4021
sS'response'
p4022
g61
(g62
g63
NtRp4023
(dp4024
g66
(dp4025
sg68
(lp4026
g61
(g70
g63
NtRp4027
(dp4028
g66
(dp4029
g74
I5
ssg75
Nsg68
(lp4030
g61
(g77
g63
NtRp4031
(dp4032
g66
(dp4033
sg75
g4027
sg68
(lp4034
g61
(g82
g63
NtRp4035
(dp4036
g66
(dp4037
g86
g87
ssg75
g4031
sg68
(lp4038
g171
asbag61
(g82
g63
NtRp4039
(dp4040
g66
(dp4041
g93
g94
ssg75
g4031
sg68
(lp4042
S':'
asbag61
(g82
g63
NtRp4043
(dp4044
g66
(dp4045
sg75
g4031
sg68
(lp4046
g61
(g62
g63
NtRp4047
(dp4048
g66
(dp4049
g74
I5
ssg75
g4043
sg68
(lp4050
S'<cStringIO.StringO object at 0x95149e0>'
p4051
asbasbasbag61
(g77
g63
NtRp4052
(dp4053
g66
(dp4054
sg75
g4027
sg68
(lp4055
g61
(g82
g63
NtRp4056
(dp4057
g66
(dp4058
g86
g87
ssg75
g4052
sg68
(lp4059
g259
asbag61
(g82
g63
NtRp4060
(dp4061
g66
(dp4062
g93
g94
ssg75
g4052
sg68
(lp4063
S':'
asbag61
(g82
g63
NtRp4064
(dp4065
g66
(dp4066
sg75
g4052
sg68
(lp4067
g61
(g62
g63
NtRp4068
(dp4069
g66
(dp4070
g74
I5
ssg75
g4064
sg68
(lp4071
g61
(g70
g63
NtRp4072
(dp4073
g66
(dp4074
g74
I4
ssg75
Nsg68
(lp4075
g61
(g77
g63
NtRp4076
(dp4077
g66
(dp4078
sg75
g4072
sg68
(lp4079
g61
(g82
g63
NtRp4080
(dp4081
g66
(dp4082
g86
g87
ssg75
g4076
sg68
(lp4083
S'session_id_hellow'
p4084
asbag61
(g82
g63
NtRp4085
(dp4086
g66
(dp4087
g93
g94
ssg75
g4076
sg68
(lp4088
S':'
asbag61
(g82
g63
NtRp4089
(dp4090
g66
(dp4091
sg75
g4076
sg68
(lp4092
g61
(g62
g63
NtRp4093
(dp4094
g66
(dp4095
g74
I4
ssg75
g4089
sg68
(lp4096
g470
ag61
(g70
g63
NtRp4097
(dp4098
g66
(dp4099
g74
I3
ssg75
Nsg68
(lp4100
g61
(g77
g63
NtRp4101
(dp4102
g66
(dp4103
sg75
g4097
sg68
(lp4104
g61
(g82
g63
NtRp4105
(dp4106
g66
(dp4107
g86
g87
ssg75
g4101
sg68
(lp4108
g310
asbag61
(g82
g63
NtRp4109
(dp4110
g66
(dp4111
g93
g94
ssg75
g4101
sg68
(lp4112
S':'
asbag61
(g82
g63
NtRp4113
(dp4114
g66
(dp4115
sg75
g4101
sg68
(lp4116
g61
(g62
g63
NtRp4117
(dp4118
g66
(dp4119
g74
I3
ssg75
g4113
sg68
(lp4120
S''
asbasbasbag61
(g77
g63
NtRp4121
(dp4122
g66
(dp4123
sg75
g4097
sg68
(lp4124
g61
(g82
g63
NtRp4125
(dp4126
g66
(dp4127
g86
g87
ssg75
g4121
sg68
(lp4128
g331
asbag61
(g82
g63
NtRp4129
(dp4130
g66
(dp4131
g93
g94
ssg75
g4121
sg68
(lp4132
S':'
asbag61
(g82
g63
NtRp4133
(dp4134
g66
(dp4135
sg75
g4121
sg68
(lp4136
g61
(g62
g63
NtRp4137
(dp4138
g66
(dp4139
g74
I3
ssg75
g4133
sg68
(lp4140
S''
asbasbasbag61
(g77
g63
NtRp4141
(dp4142
g66
(dp4143
sg75
g4097
sg68
(lp4144
g61
(g82
g63
NtRp4145
(dp4146
g66
(dp4147
g86
g87
ssg75
g4141
sg68
(lp4148
g352
asbag61
(g82
g63
NtRp4149
(dp4150
g66
(dp4151
g93
g94
ssg75
g4141
sg68
(lp4152
S':'
asbag61
(g82
g63
NtRp4153
(dp4154
g66
(dp4155
sg75
g4141
sg68
(lp4156
g61
(g62
g63
NtRp4157
(dp4158
g66
(dp4159
g74
I3
ssg75
g4153
sg68
(lp4160
S''
asbasbasbag61
(g77
g63
NtRp4161
(dp4162
g66
(dp4163
sg75
g4097
sg68
(lp4164
g61
(g82
g63
NtRp4165
(dp4166
g66
(dp4167
g86
g87
ssg75
g4161
sg68
(lp4168
g373
asbag61
(g82
g63
NtRp4169
(dp4170
g66
(dp4171
g93
g94
ssg75
g4161
sg68
(lp4172
S':'
asbag61
(g82
g63
NtRp4173
(dp4174
g66
(dp4175
sg75
g4161
sg68
(lp4176
g61
(g62
g63
NtRp4177
(dp4178
g66
(dp4179
g74
I3
ssg75
g4173
sg68
(lp4180
S''
asbasbasbag61
(g77
g63
NtRp4181
(dp4182
g66
(dp4183
sg75
g4097
sg68
(lp4184
g61
(g82
g63
NtRp4185
(dp4186
g66
(dp4187
g86
g87
ssg75
g4181
sg68
(lp4188
g394
asbag61
(g82
g63
NtRp4189
(dp4190
g66
(dp4191
g93
g94
ssg75
g4181
sg68
(lp4192
S':'
asbag61
(g82
g63
NtRp4193
(dp4194
g66
(dp4195
sg75
g4181
sg68
(lp4196
g61
(g62
g63
NtRp4197
(dp4198
g66
(dp4199
g74
I3
ssg75
g4193
sg68
(lp4200
S'/'
asbasbasbag61
(g77
g63
NtRp4201
(dp4202
g66
(dp4203
sg75
g4097
sg68
(lp4204
g61
(g82
g63
NtRp4205
(dp4206
g66
(dp4207
g86
g87
ssg75
g4201
sg68
(lp4208
g415
asbag61
(g82
g63
NtRp4209
(dp4210
g66
(dp4211
g93
g94
ssg75
g4201
sg68
(lp4212
S':'
asbag61
(g82
g63
NtRp4213
(dp4214
g66
(dp4215
sg75
g4201
sg68
(lp4216
g61
(g62
g63
NtRp4217
(dp4218
g66
(dp4219
g74
I3
ssg75
g4213
sg68
(lp4220
S''
asbasbasbag61
(g77
g63
NtRp4221
(dp4222
g66
(dp4223
sg75
g4097
sg68
(lp4224
g61
(g82
g63
NtRp4225
(dp4226
g66
(dp4227
g86
g87
ssg75
g4221
sg68
(lp4228
g436
asbag61
(g82
g63
NtRp4229
(dp4230
g66
(dp4231
g93
g94
ssg75
g4221
sg68
(lp4232
S':'
asbag61
(g82
g63
NtRp4233
(dp4234
g66
(dp4235
sg75
g4221
sg68
(lp4236
g61
(g62
g63
NtRp4237
(dp4238
g66
(dp4239
g74
I3
ssg75
g4233
sg68
(lp4240
S''
asbasbasbasbasbasbasbasbasbasbasbag61
(g77
g63
NtRp4241
(dp4242
g66
(dp4243
sg75
g4027
sg68
(lp4244
g61
(g82
g63
NtRp4245
(dp4246
g66
(dp4247
g86
g87
ssg75
g4241
sg68
(lp4248
S'delimiters'
p4249
asbag61
(g82
g63
NtRp4250
(dp4251
g66
(dp4252
g93
g94
ssg75
g4241
sg68
(lp4253
S':'
asbag61
(g82
g63
NtRp4254
(dp4255
g66
(dp4256
sg75
g4241
sg68
(lp4257
g61
(g62
g63
NtRp4258
(dp4259
g66
(dp4260
g74
I5
ssg75
g4254
sg68
(lp4261
g61
(g70
g63
NtRp4262
(dp4263
g66
(dp4264
g74
I4
ssg75
Nsg68
(lp4265
g61
(g77
g63
NtRp4266
(dp4267
g66
(dp4268
sg75
g4262
sg68
(lp4269
g61
(g82
g63
NtRp4270
(dp4271
g66
(dp4272
sg75
g4266
sg68
(lp4273
g61
(g62
g63
NtRp4274
(dp4275
g66
(dp4276
g74
I4
ssg75
g4270
sg68
(lp4277
S'{{'
p4278
asbasbasbag61
(g77
g63
NtRp4279
(dp4280
g66
(dp4281
sg75
g4262
sg68
(lp4282
g61
(g82
g63
NtRp4283
(dp4284
g66
(dp4285
sg75
g4279
sg68
(lp4286
g61
(g62
g63
NtRp4287
(dp4288
g66
(dp4289
g74
I4
ssg75
g4283
sg68
(lp4290
S'}}'
p4291
asbasbasbasbasbasbasbag61
(g77
g63
NtRp4292
(dp4293
g66
(dp4294
sg75
g4027
sg68
(lp4295
g61
(g82
g63
NtRp4296
(dp4297
g66
(dp4298
g86
g87
ssg75
g4292
sg68
(lp4299
S'files'
p4300
asbag61
(g82
g63
NtRp4301
(dp4302
g66
(dp4303
g93
g94
ssg75
g4292
sg68
(lp4304
S':'
asbag61
(g82
g63
NtRp4305
(dp4306
g66
(dp4307
sg75
g4292
sg68
(lp4308
g61
(g62
g63
NtRp4309
(dp4310
g66
(dp4311
g74
I5
ssg75
g4305
sg68
(lp4312
g61
(g70
g63
NtRp4313
(dp4314
g66
(dp4315
g74
I4
ssg75
Nsg68
(lp4316
sbasbasbasbag61
(g77
g63
NtRp4317
(dp4318
g66
(dp4319
sg75
g4027
sg68
(lp4320
g61
(g82
g63
NtRp4321
(dp4322
g66
(dp4323
g86
g87
ssg75
g4317
sg68
(lp4324
S'flash'
p4325
asbag61
(g82
g63
NtRp4326
(dp4327
g66
(dp4328
g93
g94
ssg75
g4317
sg68
(lp4329
S':'
asbag61
(g82
g63
NtRp4330
(dp4331
g66
(dp4332
sg75
g4317
sg68
(lp4333
g61
(g62
g63
NtRp4334
(dp4335
g66
(dp4336
g74
I5
ssg75
g4330
sg68
(lp4337
S'You won'
p4338
asbasbasbag61
(g77
g63
NtRp4339
(dp4340
g66
(dp4341
sg75
g4027
sg68
(lp4342
g61
(g82
g63
NtRp4343
(dp4344
g66
(dp4345
g86
g87
ssg75
g4339
sg68
(lp4346
S'generic_patterns'
p4347
asbag61
(g82
g63
NtRp4348
(dp4349
g66
(dp4350
g93
g94
ssg75
g4339
sg68
(lp4351
S':'
asbag61
(g82
g63
NtRp4352
(dp4353
g66
(dp4354
sg75
g4339
sg68
(lp4355
g61
(g62
g63
NtRp4356
(dp4357
g66
(dp4358
g74
I5
ssg75
g4352
sg68
(lp4359
g61
(g70
g63
NtRp4360
(dp4361
g66
(dp4362
g74
I4
ssg75
Nsg68
(lp4363
g61
(g77
g63
NtRp4364
(dp4365
g66
(dp4366
sg75
g4360
sg68
(lp4367
g61
(g82
g63
NtRp4368
(dp4369
g66
(dp4370
sg75
g4364
sg68
(lp4371
g61
(g62
g63
NtRp4372
(dp4373
g66
(dp4374
g74
I4
ssg75
g4368
sg68
(lp4375
S'*'
asbasbasbasbasbasbasbag61
(g77
g63
NtRp4376
(dp4377
g66
(dp4378
sg75
g4027
sg68
(lp4379
g61
(g82
g63
NtRp4380
(dp4381
g66
(dp4382
g86
g87
ssg75
g4376
sg68
(lp4383
S'google_analytics_id'
p4384
asbag61
(g82
g63
NtRp4385
(dp4386
g66
(dp4387
g93
g94
ssg75
g4376
sg68
(lp4388
S':'
asbag61
(g82
g63
NtRp4389
(dp4390
g66
(dp4391
sg75
g4376
sg68
(lp4392
g61
(g62
g63
NtRp4393
(dp4394
g66
(dp4395
g74
I5
ssg75
g4389
sg68
(lp4396
S'None'
p4397
asbasbasbag61
(g77
g63
NtRp4398
(dp4399
g66
(dp4400
sg75
g4027
sg68
(lp4401
g61
(g82
g63
NtRp4402
(dp4403
g66
(dp4404
g86
g87
ssg75
g4398
sg68
(lp4405
S'headers'
p4406
asbag61
(g82
g63
NtRp4407
(dp4408
g66
(dp4409
g93
g94
ssg75
g4398
sg68
(lp4410
S':'
asbag61
(g82
g63
NtRp4411
(dp4412
g66
(dp4413
sg75
g4398
sg68
(lp4414
g61
(g62
g63
NtRp4415
(dp4416
g66
(dp4417
g74
I5
ssg75
g4411
sg68
(lp4418
g61
(g70
g63
NtRp4419
(dp4420
g66
(dp4421
g74
I4
ssg75
Nsg68
(lp4422
g61
(g77
g63
NtRp4423
(dp4424
g66
(dp4425
sg75
g4419
sg68
(lp4426
g61
(g82
g63
NtRp4427
(dp4428
g66
(dp4429
g86
g87
ssg75
g4423
sg68
(lp4430
S'X-Powered-By'
p4431
asbag61
(g82
g63
NtRp4432
(dp4433
g66
(dp4434
g93
g94
ssg75
g4423
sg68
(lp4435
S':'
asbag61
(g82
g63
NtRp4436
(dp4437
g66
(dp4438
sg75
g4423
sg68
(lp4439
g61
(g62
g63
NtRp4440
(dp4441
g66
(dp4442
g74
I4
ssg75
g4436
sg68
(lp4443
S'web2py'
p4444
asbasbasbasbasbasbasbag61
(g77
g63
NtRp4445
(dp4446
g66
(dp4447
sg75
g4027
sg68
(lp4448
g61
(g82
g63
NtRp4449
(dp4450
g66
(dp4451
g86
g87
ssg75
g4445
sg68
(lp4452
S'logo'
p4453
asbag61
(g82
g63
NtRp4454
(dp4455
g66
(dp4456
g93
g94
ssg75
g4445
sg68
(lp4457
S':'
asbag61
(g82
g63
NtRp4458
(dp4459
g66
(dp4460
sg75
g4445
sg68
(lp4461
g61
(g62
g63
NtRp4462
(dp4463
g66
(dp4464
g74
I5
ssg75
g4458
sg68
(lp4465
g61
(cgluon.html
A
p4466
g63
NtRp4467
(dp4468
g66
(dp4469
S'_class'
p4470
S'brand'
p4471
sS'_href'
p4472
S'http://www.web2py.com/'
p4473
ssg75
Nsg68
(lp4474
g61
(cgluon.html
B
p4475
g63
NtRp4476
(dp4477
g66
(dp4478
sg75
g4467
sg68
(lp4479
S'web'
p4480
ag61
(cgluon.html
SPAN
p4481
g63
NtRp4482
(dp4483
g66
(dp4484
sg75
g4476
sg68
(lp4485
I2
asbaS'py'
p4486
asbacgluon.html
XML_unpickle
p4487
(S's\r\x00\x00\x00&trade;&nbsp;'
tRp4488
asbasbasbasbag61
(g77
g63
NtRp4489
(dp4490
g66
(dp4491
sg75
g4027
sg68
(lp4492
g61
(g82
g63
NtRp4493
(dp4494
g66
(dp4495
g86
g87
ssg75
g4489
sg68
(lp4496
S'menu'
p4497
asbag61
(g82
g63
NtRp4498
(dp4499
g66
(dp4500
g93
g94
ssg75
g4489
sg68
(lp4501
S':'
asbag61
(g82
g63
NtRp4502
(dp4503
g66
(dp4504
sg75
g4489
sg68
(lp4505
g61
(g62
g63
NtRp4506
(dp4507
g66
(dp4508
g74
I5
ssg75
g4502
sg68
(lp4509
g61
(g70
g63
NtRp4510
(dp4511
g66
(dp4512
g74
I4
ssg75
Nsg68
(lp4513
g61
(g77
g63
NtRp4514
(dp4515
g66
(dp4516
sg75
g4510
sg68
(lp4517
g61
(g82
g63
NtRp4518
(dp4519
g66
(dp4520
sg75
g4514
sg68
(lp4521
g61
(g62
g63
NtRp4522
(dp4523
g66
(dp4524
g74
I4
ssg75
g4518
sg68
(lp4525
g61
(g70
g63
NtRp4526
(dp4527
g66
(dp4528
g74
I3
ssg75
Nsg68
(lp4529
g61
(g77
g63
NtRp4530
(dp4531
g66
(dp4532
sg75
g4526
sg68
(lp4533
g61
(g82
g63
NtRp4534
(dp4535
g66
(dp4536
sg75
g4530
sg68
(lp4537
g61
(g62
g63
NtRp4538
(dp4539
g66
(dp4540
g74
I3
ssg75
g4534
sg68
(lp4541
cgluon.languages
lazyT_unpickle
p4542
(S't\x04\x00\x00\x00Home'
tRp4543
asbasbasbag61
(g77
g63
NtRp4544
(dp4545
g66
(dp4546
sg75
g4526
sg68
(lp4547
g61
(g82
g63
NtRp4548
(dp4549
g66
(dp4550
sg75
g4544
sg68
(lp4551
g61
(g62
g63
NtRp4552
(dp4553
g66
(dp4554
g74
I3
ssg75
g4548
sg68
(lp4555
g104
asbasbasbag61
(g77
g63
NtRp4556
(dp4557
g66
(dp4558
sg75
g4526
sg68
(lp4559
g61
(g82
g63
NtRp4560
(dp4561
g66
(dp4562
sg75
g4556
sg68
(lp4563
g61
(g62
g63
NtRp4564
(dp4565
g66
(dp4566
g74
I3
ssg75
g4560
sg68
(lp4567
S'/hellow/default/index'
p4568
asbasbasbag61
(g77
g63
NtRp4569
(dp4570
g66
(dp4571
sg75
g4526
sg68
(lp4572
g61
(g82
g63
NtRp4573
(dp4574
g66
(dp4575
sg75
g4569
sg68
(lp4576
g61
(g62
g63
NtRp4577
(dp4578
g66
(dp4579
g74
I3
ssg75
g4573
sg68
(lp4580
g61
(g70
g63
NtRp4581
(dp4582
g66
(dp4583
g74
I2
ssg75
Nsg68
(lp4584
sbasbasbasbasbasbasbasbag61
(g77
g63
NtRp4585
(dp4586
g66
(dp4587
sg75
g4510
sg68
(lp4588
g61
(g82
g63
NtRp4589
(dp4590
g66
(dp4591
sg75
g4585
sg68
(lp4592
g61
(g62
g63
NtRp4593
(dp4594
g66
(dp4595
g74
I4
ssg75
g4589
sg68
(lp4596
g61
(g70
g63
NtRp4597
(dp4598
g66
(dp4599
g74
I3
ssg75
Nsg68
(lp4600
g61
(g77
g63
NtRp4601
(dp4602
g66
(dp4603
sg75
g4597
sg68
(lp4604
g61
(g82
g63
NtRp4605
(dp4606
g66
(dp4607
sg75
g4601
sg68
(lp4608
g61
(g62
g63
NtRp4609
(dp4610
g66
(dp4611
g74
I3
ssg75
g4605
sg68
(lp4612
g61
(g4481
g63
NtRp4613
(dp4614
g66
(dp4615
g4470
S'highlighted'
p4616
ssg75
Nsg68
(lp4617
g4444
asbasbasbasbag61
(g77
g63
NtRp4618
(dp4619
g66
(dp4620
sg75
g4597
sg68
(lp4621
g61
(g82
g63
NtRp4622
(dp4623
g66
(dp4624
sg75
g4618
sg68
(lp4625
g61
(g62
g63
NtRp4626
(dp4627
g66
(dp4628
g74
I3
ssg75
g4622
sg68
(lp4629
g104
asbasbasbag61
(g77
g63
NtRp4630
(dp4631
g66
(dp4632
sg75
g4597
sg68
(lp4633
g61
(g82
g63
NtRp4634
(dp4635
g66
(dp4636
sg75
g4630
sg68
(lp4637
g61
(g62
g63
NtRp4638
(dp4639
g66
(dp4640
g74
I3
ssg75
g4634
sg68
(lp4641
S'http://web2py.com'
p4642
asbasbasbag61
(g77
g63
NtRp4643
(dp4644
g66
(dp4645
sg75
g4597
sg68
(lp4646
g61
(g82
g63
NtRp4647
(dp4648
g66
(dp4649
sg75
g4643
sg68
(lp4650
g61
(g62
g63
NtRp4651
(dp4652
g66
(dp4653
g74
I3
ssg75
g4647
sg68
(lp4654
g61
(g70
g63
NtRp4655
(dp4656
g66
(dp4657
g74
I2
ssg75
Nsg68
(lp4658
g61
(g77
g63
NtRp4659
(dp4660
g66
(dp4661
sg75
g4655
sg68
(lp4662
g61
(g82
g63
NtRp4663
(dp4664
g66
(dp4665
sg75
g4659
sg68
(lp4666
g61
(g62
g63
NtRp4667
(dp4668
g66
(dp4669
g74
I2
ssg75
g4663
sg68
(lp4670
g61
(g70
g63
NtRp4671
(dp4672
g66
(dp4673
g74
I1
ssg75
Nsg68
(lp4674
g61
(g77
g63
NtRp4675
(dp4676
g66
(dp4677
sg75
g4671
sg68
(lp4678
g61
(g82
g63
NtRp4679
(dp4680
g66
(dp4681
sg75
g4675
sg68
(lp4682
g61
(g62
g63
NtRp4683
(dp4684
g66
(dp4685
g74
I1
ssg75
g4679
sg68
(lp4686
g4542
(S's\x08\x00\x00\x00My Sites'
tRp4687
asbasbasbag61
(g77
g63
NtRp4688
(dp4689
g66
(dp4690
sg75
g4671
sg68
(lp4691
g61
(g82
g63
NtRp4692
(dp4693
g66
(dp4694
sg75
g4688
sg68
(lp4695
g61
(g62
g63
NtRp4696
(dp4697
g66
(dp4698
g74
I1
ssg75
g4692
sg68
(lp4699
I00
asbasbasbag61
(g77
g63
NtRp4700
(dp4701
g66
(dp4702
sg75
g4671
sg68
(lp4703
g61
(g82
g63
NtRp4704
(dp4705
g66
(dp4706
sg75
g4700
sg68
(lp4707
g61
(g62
g63
NtRp4708
(dp4709
g66
(dp4710
g74
I1
ssg75
g4704
sg68
(lp4711
S'/admin/default/site'
p4712
asbasbasbasbasbasbasbag61
(g77
g63
NtRp4713
(dp4714
g66
(dp4715
sg75
g4655
sg68
(lp4716
g61
(g82
g63
NtRp4717
(dp4718
g66
(dp4719
sg75
g4713
sg68
(lp4720
g61
(g62
g63
NtRp4721
(dp4722
g66
(dp4723
g74
I2
ssg75
g4717
sg68
(lp4724
g61
(g70
g63
NtRp4725
(dp4726
g66
(dp4727
g74
I1
ssg75
Nsg68
(lp4728
g61
(g77
g63
NtRp4729
(dp4730
g66
(dp4731
sg75
g4725
sg68
(lp4732
g61
(g82
g63
NtRp4733
(dp4734
g66
(dp4735
sg75
g4729
sg68
(lp4736
g61
(g62
g63
NtRp4737
(dp4738
g66
(dp4739
g74
I1
ssg75
g4733
sg68
(lp4740
g4542
(S's\x08\x00\x00\x00This App'
tRp4741
asbasbasbag61
(g77
g63
NtRp4742
(dp4743
g66
(dp4744
sg75
g4725
sg68
(lp4745
g61
(g82
g63
NtRp4746
(dp4747
g66
(dp4748
sg75
g4742
sg68
(lp4749
g61
(g62
g63
NtRp4750
(dp4751
g66
(dp4752
g74
I1
ssg75
g4746
sg68
(lp4753
I00
asbasbasbag61
(g77
g63
NtRp4754
(dp4755
g66
(dp4756
sg75
g4725
sg68
(lp4757
g61
(g82
g63
NtRp4758
(dp4759
g66
(dp4760
sg75
g4754
sg68
(lp4761
g61
(g62
g63
NtRp4762
(dp4763
g66
(dp4764
g74
I1
ssg75
g4758
sg68
(lp4765
S'/admin/default/design/hellow'
p4766
asbasbasbag61
(g77
g63
NtRp4767
(dp4768
g66
(dp4769
sg75
g4725
sg68
(lp4770
g61
(g82
g63
NtRp4771
(dp4772
g66
(dp4773
sg75
g4767
sg68
(lp4774
g61
(g62
g63
NtRp4775
(dp4776
g66
(dp4777
g74
I1
ssg75
g4771
sg68
(lp4778
(lp4779
(g4542
(S't\n\x00\x00\x00Controller'
tRp4780
I00
S'/admin/default/edit/hellow/controllers/game.py'
tp4781
a(g4542
(S't\x04\x00\x00\x00View'
tRp4782
I00
S'/admin/default/edit/hellow/views/game/show.html'
tp4783
a(g4542
(S't\x06\x00\x00\x00Layout'
tRp4784
I00
S'/admin/default/edit/hellow/views/layout.html'
tp4785
a(g4542
(S't\n\x00\x00\x00Stylesheet'
tRp4786
I00
S'/admin/default/edit/hellow/static/css/web2py.css'
tp4787
a(g4542
(S's\x08\x00\x00\x00DB Model'
tRp4788
I00
S'/admin/default/edit/hellow/models/db.py'
tp4789
a(g4542
(S's\n\x00\x00\x00Menu Model'
tRp4790
I00
S'/admin/default/edit/hellow/models/menu.py'
tp4791
a(g4542
(S't\x08\x00\x00\x00Database'
tRp4792
I00
S'/hellow/appadmin/index'
tp4793
a(g4542
(S't\x06\x00\x00\x00Errors'
tRp4794
I00
S'/admin/default/errors/hellow'
tp4795
a(g4542
(S't\x05\x00\x00\x00About'
tRp4796
I00
S'/admin/default/about/hellow'
tp4797
aasbasbasbasbasbasbasbag61
(g77
g63
NtRp4798
(dp4799
g66
(dp4800
sg75
g4655
sg68
(lp4801
g61
(g82
g63
NtRp4802
(dp4803
g66
(dp4804
sg75
g4798
sg68
(lp4805
g61
(g62
g63
NtRp4806
(dp4807
g66
(dp4808
g74
I2
ssg75
g4802
sg68
(lp4809
g61
(g70
g63
NtRp4810
(dp4811
g66
(dp4812
g74
I1
ssg75
Nsg68
(lp4813
g61
(g77
g63
NtRp4814
(dp4815
g66
(dp4816
sg75
g4810
sg68
(lp4817
g61
(g82
g63
NtRp4818
(dp4819
g66
(dp4820
sg75
g4814
sg68
(lp4821
g61
(g62
g63
NtRp4822
(dp4823
g66
(dp4824
g74
I1
ssg75
g4818
sg68
(lp4825
S'web2py.com'
p4826
asbasbasbag61
(g77
g63
NtRp4827
(dp4828
g66
(dp4829
sg75
g4810
sg68
(lp4830
g61
(g82
g63
NtRp4831
(dp4832
g66
(dp4833
sg75
g4827
sg68
(lp4834
g61
(g62
g63
NtRp4835
(dp4836
g66
(dp4837
g74
I1
ssg75
g4831
sg68
(lp4838
I00
asbasbasbag61
(g77
g63
NtRp4839
(dp4840
g66
(dp4841
sg75
g4810
sg68
(lp4842
g61
(g82
g63
NtRp4843
(dp4844
g66
(dp4845
sg75
g4839
sg68
(lp4846
g61
(g62
g63
NtRp4847
(dp4848
g66
(dp4849
g74
I1
ssg75
g4843
sg68
(lp4850
S'http://www.web2py.com'
p4851
asbasbasbag61
(g77
g63
NtRp4852
(dp4853
g66
(dp4854
sg75
g4810
sg68
(lp4855
g61
(g82
g63
NtRp4856
(dp4857
g66
(dp4858
sg75
g4852
sg68
(lp4859
g61
(g62
g63
NtRp4860
(dp4861
g66
(dp4862
g74
I1
ssg75
g4856
sg68
(lp4863
(lp4864
(g4542
(S't\x08\x00\x00\x00Download'
tRp4865
I00
S'http://www.web2py.com/examples/default/download'
p4866
tp4867
a(g4542
(S't\x07\x00\x00\x00Support'
tRp4868
I00
S'http://www.web2py.com/examples/default/support'
p4869
tp4870
a(g4542
(S't\x04\x00\x00\x00Demo'
tRp4871
I00
S'http://web2py.com/demo_admin'
p4872
tp4873
a(g4542
(S's\x0e\x00\x00\x00Quick Examples'
tRp4874
I00
S'http://web2py.com/examples/default/examples'
p4875
tp4876
a(g4542
(S't\x03\x00\x00\x00FAQ'
tRp4877
I00
S'http://web2py.com/AlterEgo'
p4878
tp4879
a(g4542
(S't\x06\x00\x00\x00Videos'
tRp4880
I00
S'http://www.web2py.com/examples/default/videos/'
p4881
tp4882
a(g4542
(S's\x11\x00\x00\x00Free Applications'
tRp4883
I00
S'http://web2py.com/appliances'
p4884
tp4885
a(g4542
(S't\x07\x00\x00\x00Plugins'
tRp4886
I00
S'http://web2py.com/plugins'
p4887
tp4888
a(g4542
(S't\x07\x00\x00\x00Layouts'
tRp4889
I00
S'http://web2py.com/layouts'
p4890
tp4891
a(g4542
(S't\x07\x00\x00\x00Recipes'
tRp4892
I00
S'http://web2pyslices.com/'
p4893
tp4894
a(g4542
(S't\x08\x00\x00\x00Semantic'
tRp4895
I00
S'http://web2py.com/semantic'
p4896
tp4897
aasbasbasbasbasbasbasbag61
(g77
g63
NtRp4898
(dp4899
g66
(dp4900
sg75
g4655
sg68
(lp4901
g61
(g82
g63
NtRp4902
(dp4903
g66
(dp4904
sg75
g4898
sg68
(lp4905
g61
(g62
g63
NtRp4906
(dp4907
g66
(dp4908
g74
I2
ssg75
g4902
sg68
(lp4909
g61
(g70
g63
NtRp4910
(dp4911
g66
(dp4912
g74
I1
ssg75
Nsg68
(lp4913
g61
(g77
g63
NtRp4914
(dp4915
g66
(dp4916
sg75
g4910
sg68
(lp4917
g61
(g82
g63
NtRp4918
(dp4919
g66
(dp4920
sg75
g4914
sg68
(lp4921
g61
(g62
g63
NtRp4922
(dp4923
g66
(dp4924
g74
I1
ssg75
g4918
sg68
(lp4925
g4542
(S't\r\x00\x00\x00Documentation'
tRp4926
asbasbasbag61
(g77
g63
NtRp4927
(dp4928
g66
(dp4929
sg75
g4910
sg68
(lp4930
g61
(g82
g63
NtRp4931
(dp4932
g66
(dp4933
sg75
g4927
sg68
(lp4934
g61
(g62
g63
NtRp4935
(dp4936
g66
(dp4937
g74
I1
ssg75
g4931
sg68
(lp4938
I00
asbasbasbag61
(g77
g63
NtRp4939
(dp4940
g66
(dp4941
sg75
g4910
sg68
(lp4942
g61
(g82
g63
NtRp4943
(dp4944
g66
(dp4945
sg75
g4939
sg68
(lp4946
g61
(g62
g63
NtRp4947
(dp4948
g66
(dp4949
g74
I1
ssg75
g4943
sg68
(lp4950
S'http://www.web2py.com/book'
p4951
asbasbasbag61
(g77
g63
NtRp4952
(dp4953
g66
(dp4954
sg75
g4910
sg68
(lp4955
g61
(g82
g63
NtRp4956
(dp4957
g66
(dp4958
sg75
g4952
sg68
(lp4959
g61
(g62
g63
NtRp4960
(dp4961
g66
(dp4962
g74
I1
ssg75
g4956
sg68
(lp4963
(lp4964
(g4542
(S't\x07\x00\x00\x00Preface'
tRp4965
I00
S'http://www.web2py.com/book/default/chapter/00'
p4966
tp4967
a(g4542
(S't\x0c\x00\x00\x00Introduction'
tRp4968
I00
S'http://www.web2py.com/book/default/chapter/01'
p4969
tp4970
a(g4542
(S't\x06\x00\x00\x00Python'
tRp4971
I00
S'http://www.web2py.com/book/default/chapter/02'
p4972
tp4973
a(g4542
(S't\x08\x00\x00\x00Overview'
tRp4974
I00
S'http://www.web2py.com/book/default/chapter/03'
p4975
tp4976
a(g4542
(S's\x08\x00\x00\x00The Core'
tRp4977
I00
S'http://www.web2py.com/book/default/chapter/04'
p4978
tp4979
a(g4542
(S's\t\x00\x00\x00The Views'
tRp4980
I00
S'http://www.web2py.com/book/default/chapter/05'
p4981
tp4982
a(g4542
(S't\x08\x00\x00\x00Database'
tRp4983
I00
S'http://www.web2py.com/book/default/chapter/06'
p4984
tp4985
a(g4542
(S's\x14\x00\x00\x00Forms and Validators'
tRp4986
I00
S'http://www.web2py.com/book/default/chapter/07'
p4987
tp4988
a(g4542
(S's\r\x00\x00\x00Email and SMS'
tRp4989
I00
S'http://www.web2py.com/book/default/chapter/08'
p4990
tp4991
a(g4542
(S's\x0e\x00\x00\x00Access Control'
tRp4992
I00
S'http://www.web2py.com/book/default/chapter/09'
p4993
tp4994
a(g4542
(S't\x08\x00\x00\x00Services'
tRp4995
I00
S'http://www.web2py.com/book/default/chapter/10'
p4996
tp4997
a(g4542
(S's\x0c\x00\x00\x00Ajax Recipes'
tRp4998
I00
S'http://www.web2py.com/book/default/chapter/11'
p4999
tp5000
a(g4542
(S's\x16\x00\x00\x00Components and Plugins'
tRp5001
I00
S'http://www.web2py.com/book/default/chapter/12'
p5002
tp5003
a(g4542
(S's\x12\x00\x00\x00Deployment Recipes'
tRp5004
I00
S'http://www.web2py.com/book/default/chapter/13'
p5005
tp5006
a(g4542
(S's\r\x00\x00\x00Other Recipes'
tRp5007
I00
S'http://www.web2py.com/book/default/chapter/14'
p5008
tp5009
a(g4542
(S's\r\x00\x00\x00Buy this book'
tRp5010
I00
S'http://stores.lulu.com/web2py'
p5011
tp5012
aasbasbasbasbasbasbasbag61
(g77
g63
NtRp5013
(dp5014
g66
(dp5015
sg75
g4655
sg68
(lp5016
g61
(g82
g63
NtRp5017
(dp5018
g66
(dp5019
sg75
g5013
sg68
(lp5020
g61
(g62
g63
NtRp5021
(dp5022
g66
(dp5023
g74
I2
ssg75
g5017
sg68
(lp5024
g61
(g70
g63
NtRp5025
(dp5026
g66
(dp5027
g74
I1
ssg75
Nsg68
(lp5028
g61
(g77
g63
NtRp5029
(dp5030
g66
(dp5031
sg75
g5025
sg68
(lp5032
g61
(g82
g63
NtRp5033
(dp5034
g66
(dp5035
sg75
g5029
sg68
(lp5036
g61
(g62
g63
NtRp5037
(dp5038
g66
(dp5039
g74
I1
ssg75
g5033
sg68
(lp5040
g4542
(S't\t\x00\x00\x00Community'
tRp5041
asbasbasbag61
(g77
g63
NtRp5042
(dp5043
g66
(dp5044
sg75
g5025
sg68
(lp5045
g61
(g82
g63
NtRp5046
(dp5047
g66
(dp5048
sg75
g5042
sg68
(lp5049
g61
(g62
g63
NtRp5050
(dp5051
g66
(dp5052
g74
I1
ssg75
g5046
sg68
(lp5053
I00
asbasbasbag61
(g77
g63
NtRp5054
(dp5055
g66
(dp5056
sg75
g5025
sg68
(lp5057
g61
(g82
g63
NtRp5058
(dp5059
g66
(dp5060
sg75
g5054
sg68
(lp5061
g61
(g62
g63
NtRp5062
(dp5063
g66
(dp5064
g74
I1
ssg75
g5058
sg68
(lp5065
Nasbasbasbag61
(g77
g63
NtRp5066
(dp5067
g66
(dp5068
sg75
g5025
sg68
(lp5069
g61
(g82
g63
NtRp5070
(dp5071
g66
(dp5072
sg75
g5066
sg68
(lp5073
g61
(g62
g63
NtRp5074
(dp5075
g66
(dp5076
g74
I1
ssg75
g5070
sg68
(lp5077
(lp5078
(g4542
(S't\x06\x00\x00\x00Groups'
tRp5079
I00
S'http://www.web2py.com/examples/default/usergroups'
p5080
tp5081
a(g4542
(S't\x07\x00\x00\x00Twitter'
tRp5082
I00
S'http://twitter.com/web2py'
p5083
tp5084
a(g4542
(S's\t\x00\x00\x00Live Chat'
tRp5085
I00
S'http://webchat.freenode.net/?channels=web2py'
p5086
tp5087
aasbasbasbasbasbasbasbag61
(g77
g63
NtRp5088
(dp5089
g66
(dp5090
sg75
g4655
sg68
(lp5091
g61
(g82
g63
NtRp5092
(dp5093
g66
(dp5094
sg75
g5088
sg68
(lp5095
g61
(g62
g63
NtRp5096
(dp5097
g66
(dp5098
g74
I2
ssg75
g5092
sg68
(lp5099
g61
(g70
g63
NtRp5100
(dp5101
g66
(dp5102
g74
I1
ssg75
Nsg68
(lp5103
g61
(g77
g63
NtRp5104
(dp5105
g66
(dp5106
sg75
g5100
sg68
(lp5107
g61
(g82
g63
NtRp5108
(dp5109
g66
(dp5110
sg75
g5104
sg68
(lp5111
g61
(g62
g63
NtRp5112
(dp5113
g66
(dp5114
g74
I1
ssg75
g5108
sg68
(lp5115
g4542
(S't\x07\x00\x00\x00Plugins'
tRp5116
asbasbasbag61
(g77
g63
NtRp5117
(dp5118
g66
(dp5119
sg75
g5100
sg68
(lp5120
g61
(g82
g63
NtRp5121
(dp5122
g66
(dp5123
sg75
g5117
sg68
(lp5124
g61
(g62
g63
NtRp5125
(dp5126
g66
(dp5127
g74
I1
ssg75
g5121
sg68
(lp5128
I00
asbasbasbag61
(g77
g63
NtRp5129
(dp5130
g66
(dp5131
sg75
g5100
sg68
(lp5132
g61
(g82
g63
NtRp5133
(dp5134
g66
(dp5135
sg75
g5129
sg68
(lp5136
g61
(g62
g63
NtRp5137
(dp5138
g66
(dp5139
g74
I1
ssg75
g5133
sg68
(lp5140
Nasbasbasbag61
(g77
g63
NtRp5141
(dp5142
g66
(dp5143
sg75
g5100
sg68
(lp5144
g61
(g82
g63
NtRp5145
(dp5146
g66
(dp5147
sg75
g5141
sg68
(lp5148
g61
(g62
g63
NtRp5149
(dp5150
g66
(dp5151
g74
I1
ssg75
g5145
sg68
(lp5152
(lp5153
(S'plugin_wiki'
p5154
I00
S'http://web2py.com/examples/default/download'
p5155
tp5156
a(g4542
(S's\r\x00\x00\x00Other Plugins'
tRp5157
I00
g4887
tp5158
a(g4542
(S's\x0e\x00\x00\x00Layout Plugins'
tRp5159
I00
g4890
tp5160
aasbasbasbasbasbasbasbasbasbasbasbasbasbasbasbasbasbasbasbag61
(g77
g63
NtRp5161
(dp5162
g66
(dp5163
sg75
g4027
sg68
(lp5164
g61
(g82
g63
NtRp5165
(dp5166
g66
(dp5167
g86
g87
ssg75
g5161
sg68
(lp5168
S'meta'
p5169
asbag61
(g82
g63
NtRp5170
(dp5171
g66
(dp5172
g93
g94
ssg75
g5161
sg68
(lp5173
S':'
asbag61
(g82
g63
NtRp5174
(dp5175
g66
(dp5176
sg75
g5161
sg68
(lp5177
g61
(g62
g63
NtRp5178
(dp5179
g66
(dp5180
g74
I5
ssg75
g5174
sg68
(lp5181
g61
(g70
g63
NtRp5182
(dp5183
g66
(dp5184
g74
I4
ssg75
Nsg68
(lp5185
g61
(g77
g63
NtRp5186
(dp5187
g66
(dp5188
sg75
g5182
sg68
(lp5189
g61
(g82
g63
NtRp5190
(dp5191
g66
(dp5192
g86
g87
ssg75
g5186
sg68
(lp5193
S'author'
p5194
asbag61
(g82
g63
NtRp5195
(dp5196
g66
(dp5197
g93
g94
ssg75
g5186
sg68
(lp5198
S':'
asbag61
(g82
g63
NtRp5199
(dp5200
g66
(dp5201
sg75
g5186
sg68
(lp5202
g61
(g62
g63
NtRp5203
(dp5204
g66
(dp5205
g74
I4
ssg75
g5199
sg68
(lp5206
S'Your Name <you@example.com>'
p5207
asbasbasbag61
(g77
g63
NtRp5208
(dp5209
g66
(dp5210
sg75
g5182
sg68
(lp5211
g61
(g82
g63
NtRp5212
(dp5213
g66
(dp5214
g86
g87
ssg75
g5208
sg68
(lp5215
S'description'
p5216
asbag61
(g82
g63
NtRp5217
(dp5218
g66
(dp5219
g93
g94
ssg75
g5208
sg68
(lp5220
S':'
asbag61
(g82
g63
NtRp5221
(dp5222
g66
(dp5223
sg75
g5208
sg68
(lp5224
g61
(g62
g63
NtRp5225
(dp5226
g66
(dp5227
g74
I4
ssg75
g5221
sg68
(lp5228
S'a cool new app'
p5229
asbasbasbag61
(g77
g63
NtRp5230
(dp5231
g66
(dp5232
sg75
g5182
sg68
(lp5233
g61
(g82
g63
NtRp5234
(dp5235
g66
(dp5236
g86
g87
ssg75
g5230
sg68
(lp5237
S'generator'
p5238
asbag61
(g82
g63
NtRp5239
(dp5240
g66
(dp5241
g93
g94
ssg75
g5230
sg68
(lp5242
S':'
asbag61
(g82
g63
NtRp5243
(dp5244
g66
(dp5245
sg75
g5230
sg68
(lp5246
g61
(g62
g63
NtRp5247
(dp5248
g66
(dp5249
g74
I4
ssg75
g5243
sg68
(lp5250
S'Web2py Web Framework'
p5251
asbasbasbag61
(g77
g63
NtRp5252
(dp5253
g66
(dp5254
sg75
g5182
sg68
(lp5255
g61
(g82
g63
NtRp5256
(dp5257
g66
(dp5258
g86
g87
ssg75
g5252
sg68
(lp5259
S'keywords'
p5260
asbag61
(g82
g63
NtRp5261
(dp5262
g66
(dp5263
g93
g94
ssg75
g5252
sg68
(lp5264
S':'
asbag61
(g82
g63
NtRp5265
(dp5266
g66
(dp5267
sg75
g5252
sg68
(lp5268
g61
(g62
g63
NtRp5269
(dp5270
g66
(dp5271
g74
I4
ssg75
g5265
sg68
(lp5272
S'web2py, python, framework'
p5273
asbasbasbasbasbasbasbag61
(g77
g63
NtRp5274
(dp5275
g66
(dp5276
sg75
g4027
sg68
(lp5277
g61
(g82
g63
NtRp5278
(dp5279
g66
(dp5280
g86
g87
ssg75
g5274
sg68
(lp5281
S'models_to_run'
p5282
asbag61
(g82
g63
NtRp5283
(dp5284
g66
(dp5285
g93
g94
ssg75
g5274
sg68
(lp5286
S':'
asbag61
(g82
g63
NtRp5287
(dp5288
g66
(dp5289
sg75
g5274
sg68
(lp5290
g61
(g62
g63
NtRp5291
(dp5292
g66
(dp5293
g74
I5
ssg75
g5287
sg68
(lp5294
g61
(g70
g63
NtRp5295
(dp5296
g66
(dp5297
g74
I4
ssg75
Nsg68
(lp5298
g61
(g77
g63
NtRp5299
(dp5300
g66
(dp5301
sg75
g5295
sg68
(lp5302
g61
(g82
g63
NtRp5303
(dp5304
g66
(dp5305
sg75
g5299
sg68
(lp5306
g61
(g62
g63
NtRp5307
(dp5308
g66
(dp5309
g74
I4
ssg75
g5303
sg68
(lp5310
S'^\\w+\\.py$'
p5311
asbasbasbag61
(g77
g63
NtRp5312
(dp5313
g66
(dp5314
sg75
g5295
sg68
(lp5315
g61
(g82
g63
NtRp5316
(dp5317
g66
(dp5318
sg75
g5312
sg68
(lp5319
g61
(g62
g63
NtRp5320
(dp5321
g66
(dp5322
g74
I4
ssg75
g5316
sg68
(lp5323
S'^game/\\w+\\.py$'
p5324
asbasbasbag61
(g77
g63
NtRp5325
(dp5326
g66
(dp5327
sg75
g5295
sg68
(lp5328
g61
(g82
g63
NtRp5329
(dp5330
g66
(dp5331
sg75
g5325
sg68
(lp5332
g61
(g62
g63
NtRp5333
(dp5334
g66
(dp5335
g74
I4
ssg75
g5329
sg68
(lp5336
S'^game/show/\\w+\\.py$'
p5337
asbasbasbasbasbasbasbag61
(g77
g63
NtRp5338
(dp5339
g66
(dp5340
sg75
g4027
sg68
(lp5341
g61
(g82
g63
NtRp5342
(dp5343
g66
(dp5344
g86
g87
ssg75
g5338
sg68
(lp5345
S'postprocessing'
p5346
asbag61
(g82
g63
NtRp5347
(dp5348
g66
(dp5349
g93
g94
ssg75
g5338
sg68
(lp5350
S':'
asbag61
(g82
g63
NtRp5351
(dp5352
g66
(dp5353
sg75
g5338
sg68
(lp5354
g61
(g62
g63
NtRp5355
(dp5356
g66
(dp5357
g74
I5
ssg75
g5351
sg68
(lp5358
g61
(g70
g63
NtRp5359
(dp5360
g66
(dp5361
g74
I4
ssg75
Nsg68
(lp5362
sbasbasbasbag61
(g77
g63
NtRp5363
(dp5364
g66
(dp5365
sg75
g4027
sg68
(lp5366
g61
(g82
g63
NtRp5367
(dp5368
g66
(dp5369
g86
g87
ssg75
g5363
sg68
(lp5370
S'session_cookie_expires'
p5371
asbag61
(g82
g63
NtRp5372
(dp5373
g66
(dp5374
g93
g94
ssg75
g5363
sg68
(lp5375
S':'
asbag61
(g82
g63
NtRp5376
(dp5377
g66
(dp5378
sg75
g5363
sg68
(lp5379
g61
(g62
g63
NtRp5380
(dp5381
g66
(dp5382
g74
I5
ssg75
g5376
sg68
(lp5383
S'None'
p5384
asbasbasbag61
(g77
g63
NtRp5385
(dp5386
g66
(dp5387
sg75
g4027
sg68
(lp5388
g61
(g82
g63
NtRp5389
(dp5390
g66
(dp5391
g86
g87
ssg75
g5385
sg68
(lp5392
S'session_data_name'
p5393
asbag61
(g82
g63
NtRp5394
(dp5395
g66
(dp5396
g93
g94
ssg75
g5385
sg68
(lp5397
S':'
asbag61
(g82
g63
NtRp5398
(dp5399
g66
(dp5400
sg75
g5385
sg68
(lp5401
g61
(g62
g63
NtRp5402
(dp5403
g66
(dp5404
g74
I5
ssg75
g5398
sg68
(lp5405
S'session_data_hellow'
p5406
asbasbasbag61
(g77
g63
NtRp5407
(dp5408
g66
(dp5409
sg75
g4027
sg68
(lp5410
g61
(g82
g63
NtRp5411
(dp5412
g66
(dp5413
g86
g87
ssg75
g5407
sg68
(lp5414
S'session_file'
p5415
asbag61
(g82
g63
NtRp5416
(dp5417
g66
(dp5418
g93
g94
ssg75
g5407
sg68
(lp5419
S':'
asbag61
(g82
g63
NtRp5420
(dp5421
g66
(dp5422
sg75
g5407
sg68
(lp5423
g61
(g62
g63
NtRp5424
(dp5425
g66
(dp5426
g74
I5
ssg75
g5420
sg68
(lp5427
S"<open file '/Users/zamechek/Downloads/web2py/web2py.app/Contents/Resources/applications/hellow/sessions/127.0.0.1-bbea59f2-333e-4593-a45c-2c44a5133d77', mode 'rb+' at 0x8c5a698>"
p5428
asbasbasbag61
(g77
g63
NtRp5429
(dp5430
g66
(dp5431
sg75
g4027
sg68
(lp5432
g61
(g82
g63
NtRp5433
(dp5434
g66
(dp5435
g86
g87
ssg75
g5429
sg68
(lp5436
S'session_filename'
p5437
asbag61
(g82
g63
NtRp5438
(dp5439
g66
(dp5440
g93
g94
ssg75
g5429
sg68
(lp5441
S':'
asbag61
(g82
g63
NtRp5442
(dp5443
g66
(dp5444
sg75
g5429
sg68
(lp5445
g61
(g62
g63
NtRp5446
(dp5447
g66
(dp5448
g74
I5
ssg75
g5442
sg68
(lp5449
S'/Users/zamechek/Downloads/web2py/web2py.app/Contents/Resources/applications/hellow/sessions/127.0.0.1-bbea59f2-333e-4593-a45c-2c44a5133d77'
p5450
asbasbasbag61
(g77
g63
NtRp5451
(dp5452
g66
(dp5453
sg75
g4027
sg68
(lp5454
g61
(g82
g63
NtRp5455
(dp5456
g66
(dp5457
g86
g87
ssg75
g5451
sg68
(lp5458
S'session_id'
p5459
asbag61
(g82
g63
NtRp5460
(dp5461
g66
(dp5462
g93
g94
ssg75
g5451
sg68
(lp5463
S':'
asbag61
(g82
g63
NtRp5464
(dp5465
g66
(dp5466
sg75
g5451
sg68
(lp5467
g61
(g62
g63
NtRp5468
(dp5469
g66
(dp5470
g74
I5
ssg75
g5464
sg68
(lp5471
g470
asbasbasbag61
(g77
g63
NtRp5472
(dp5473
g66
(dp5474
sg75
g4027
sg68
(lp5475
g61
(g82
g63
NtRp5476
(dp5477
g66
(dp5478
g86
g87
ssg75
g5472
sg68
(lp5479
S'session_id_name'
p5480
asbag61
(g82
g63
NtRp5481
(dp5482
g66
(dp5483
g93
g94
ssg75
g5472
sg68
(lp5484
S':'
asbag61
(g82
g63
NtRp5485
(dp5486
g66
(dp5487
sg75
g5472
sg68
(lp5488
g61
(g62
g63
NtRp5489
(dp5490
g66
(dp5491
g74
I5
ssg75
g5485
sg68
(lp5492
g4084
asbasbasbag61
(g77
g63
NtRp5493
(dp5494
g66
(dp5495
sg75
g4027
sg68
(lp5496
g61
(g82
g63
NtRp5497
(dp5498
g66
(dp5499
g86
g87
ssg75
g5493
sg68
(lp5500
S'session_locked'
p5501
asbag61
(g82
g63
NtRp5502
(dp5503
g66
(dp5504
g93
g94
ssg75
g5493
sg68
(lp5505
S':'
asbag61
(g82
g63
NtRp5506
(dp5507
g66
(dp5508
sg75
g5493
sg68
(lp5509
g61
(g62
g63
NtRp5510
(dp5511
g66
(dp5512
g74
I5
ssg75
g5506
sg68
(lp5513
g984
asbasbasbag61
(g77
g63
NtRp5514
(dp5515
g66
(dp5516
sg75
g4027
sg68
(lp5517
g61
(g82
g63
NtRp5518
(dp5519
g66
(dp5520
g86
g87
ssg75
g5514
sg68
(lp5521
S'session_new'
p5522
asbag61
(g82
g63
NtRp5523
(dp5524
g66
(dp5525
g93
g94
ssg75
g5514
sg68
(lp5526
S':'
asbag61
(g82
g63
NtRp5527
(dp5528
g66
(dp5529
sg75
g5514
sg68
(lp5530
g61
(g62
g63
NtRp5531
(dp5532
g66
(dp5533
g74
I5
ssg75
g5527
sg68
(lp5534
g104
asbasbasbag61
(g77
g63
NtRp5535
(dp5536
g66
(dp5537
sg75
g4027
sg68
(lp5538
g61
(g82
g63
NtRp5539
(dp5540
g66
(dp5541
g86
g87
ssg75
g5535
sg68
(lp5542
S'session_storage_type'
p5543
asbag61
(g82
g63
NtRp5544
(dp5545
g66
(dp5546
g93
g94
ssg75
g5535
sg68
(lp5547
S':'
asbag61
(g82
g63
NtRp5548
(dp5549
g66
(dp5550
sg75
g5535
sg68
(lp5551
g61
(g62
g63
NtRp5552
(dp5553
g66
(dp5554
g74
I5
ssg75
g5548
sg68
(lp5555
g3537
asbasbasbag61
(g77
g63
NtRp5556
(dp5557
g66
(dp5558
sg75
g4027
sg68
(lp5559
g61
(g82
g63
NtRp5560
(dp5561
g66
(dp5562
g86
g87
ssg75
g5556
sg68
(lp5563
S'status'
p5564
asbag61
(g82
g63
NtRp5565
(dp5566
g66
(dp5567
g93
g94
ssg75
g5556
sg68
(lp5568
S':'
asbag61
(g82
g63
NtRp5569
(dp5570
g66
(dp5571
sg75
g5556
sg68
(lp5572
g61
(g62
g63
NtRp5573
(dp5574
g66
(dp5575
g74
I5
ssg75
g5569
sg68
(lp5576
S'200'
p5577
asbasbasbag61
(g77
g63
NtRp5578
(dp5579
g66
(dp5580
sg75
g4027
sg68
(lp5581
g61
(g82
g63
NtRp5582
(dp5583
g66
(dp5584
g86
g87
ssg75
g5578
sg68
(lp5585
S'subtitle'
p5586
asbag61
(g82
g63
NtRp5587
(dp5588
g66
(dp5589
g93
g94
ssg75
g5578
sg68
(lp5590
S':'
asbag61
(g82
g63
NtRp5591
(dp5592
g66
(dp5593
sg75
g5578
sg68
(lp5594
g61
(g62
g63
NtRp5595
(dp5596
g66
(dp5597
g74
I5
ssg75
g5591
sg68
(lp5598
g4542
(S's\r\x00\x00\x00customize me!'
tRp5599
asbasbasbag61
(g77
g63
NtRp5600
(dp5601
g66
(dp5602
sg75
g4027
sg68
(lp5603
g61
(g82
g63
NtRp5604
(dp5605
g66
(dp5606
g86
g87
ssg75
g5600
sg68
(lp5607
S'title'
p5608
asbag61
(g82
g63
NtRp5609
(dp5610
g66
(dp5611
g93
g94
ssg75
g5600
sg68
(lp5612
S':'
asbag61
(g82
g63
NtRp5613
(dp5614
g66
(dp5615
sg75
g5600
sg68
(lp5616
g61
(g62
g63
NtRp5617
(dp5618
g66
(dp5619
g74
I5
ssg75
g5613
sg68
(lp5620
S'Hellow'
p5621
asbasbasbag61
(g77
g63
NtRp5622
(dp5623
g66
(dp5624
sg75
g4027
sg68
(lp5625
g61
(g82
g63
NtRp5626
(dp5627
g66
(dp5628
g86
g87
ssg75
g5622
sg68
(lp5629
S'view'
p5630
asbag61
(g82
g63
NtRp5631
(dp5632
g66
(dp5633
g93
g94
ssg75
g5622
sg68
(lp5634
S':'
asbag61
(g82
g63
NtRp5635
(dp5636
g66
(dp5637
sg75
g5622
sg68
(lp5638
g61
(g62
g63
NtRp5639
(dp5640
g66
(dp5641
g74
I5
ssg75
g5635
sg68
(lp5642
S'game/show.html'
p5643
asbasbasbasbasbsS'locals'
p5644
(dp5645
S'name'
p5646
S"'date_time'"
p5647
sS'fields'
p5648
S"{'auth_user': 1L, 'bet': 18, 'date_time': datetime.datetime(2013, 3, 28, 14, 35, 24, 665400), 'game': <Row {'auth_user': 1, 'balance': '100', 'id': 1}>, 'odds': '1', 'slot': '1', 'winning': 82}"
p5649
sS'self'
p5650
S'<Table user_action (id,game,auth_user,slot,bet,winning,odds,date_timedatetime)>'
p5651
sS'update'
p5652
g104
sS'value'
p5653
S"'1'"
p5654
sS'field'
p5655
S'<gluon.dal.Field object at 0x6d619f0>'
p5656
sS'new_fields'
p5657
S"{'slot': (<gluon.dal.Field object at 0x6d619f0>, '1')}"
p5658
sssS'traceback'
p5659
S'Traceback (most recent call last):\n  File "/home/mdipierro/web2py/gluon/restricted.py", line 212, in restricted\n  File "/Users/zamechek/Downloads/web2py/web2py.app/Contents/Resources/applications/hellow/controllers/game.py", line 42, in <module>\n  File "/home/mdipierro/web2py/gluon/globals.py", line 193, in <lambda>\n  File "/Users/zamechek/Downloads/web2py/web2py.app/Contents/Resources/applications/hellow/controllers/game.py", line 14, in show\n  File "/Users/zamechek/Downloads/web2py/web2py.app/Contents/Resources/applications/hellow/controllers/game.py", line 27, in form_from_factory\n  File "/home/mdipierro/web2py/gluon/dal.py", line 8095, in insert\n  File "/home/mdipierro/web2py/gluon/dal.py", line 8022, in _listify\nSyntaxError: Field date_time does not belong to the table\n'
p5660
s.