(dp1
S'output'
p2
S"<type 'exceptions.SyntaxError'> invalid syntax (show.html, line 85)"
p3
sS'layer'
p4
S'/Users/zamechek/Downloads/web2py/web2py.app/Contents/Resources/applications/hellow/views/game/show.html'
p5
sS'code'
p6
S'response.write(\'<!--[if HTML5]><![endif]-->\\n<!DOCTYPE html>\\n<!-- paulirish.com/2008/conditional-stylesheets-vs-css-hacks-answer-neither/ -->\\n<!--[if lt IE 7]><html class="ie ie6 ie-lte9 ie-lte8 ie-lte7 no-js" lang="\', escape=False)\nresponse.write(T.accepted_language or \'en\')\nresponse.write(\'"> <![endif]-->\\n<!--[if IE 7]><html class="ie ie7 ie-lte9 ie-lte8 ie-lte7 no-js" lang="\', escape=False)\nresponse.write(T.accepted_language or \'en\')\nresponse.write(\'"> <![endif]-->\\n<!--[if IE 8]><html class="ie ie8 ie-lte9 ie-lte8 no-js" lang="\', escape=False)\nresponse.write(T.accepted_language or \'en\')\nresponse.write(\'"> <![endif]-->\\n<!--[if IE 9]><html class="ie9 ie-lte9 no-js" lang="\', escape=False)\nresponse.write(T.accepted_language or \'en\')\nresponse.write(\'"> <![endif]-->\\n<!--[if (gt IE 9)|!(IE)]><!--> <html class="no-js" lang="\', escape=False)\nresponse.write(T.accepted_language or \'en\')\nresponse.write(\'"> <!--<![endif]-->\\n<head>\\n<title>\', escape=False)\nresponse.write(response.title or request.application)\nresponse.write(\'</title>\\n  <!--[if !HTML5]>\\n      <meta http-equiv="X-UA-Compatible" content="IE=edge\', escape=False)\nresponse.write(not request.is_local and \',chrome=1\' or \'\')\nresponse.write(\'">\\n  <![endif]-->\\n  <!-- www.phpied.com/conditional-comments-block-downloads/ -->\\n  <!-- Always force latest IE rendering engine\\n       (even in intranet) & Chrome Frame\\n       Remove this if you use the .htaccess -->\\n\\t   \\n  <meta charset="utf-8" />\\n\\n  <!-- http://dev.w3.org/html5/markup/meta.name.html -->\\n  <meta name="application-name" content="\', escape=False)\nresponse.write(request.application)\nresponse.write(\'" />\\n\\n  <!-- Speaking of Google, don\\\'t forget to set your site up:\\n       http://google.com/webmasters -->\\n  <meta name="google-site-verification" content="" />\\n\\n  <!--  Mobile Viewport Fix\\n        j.mp/mobileviewport & davidbcalhoun.com/2010/viewport-metatag\\n        device-width: Occupy full width of the screen in its current orientation\\n        initial-scale = 1.0 retains dimensions instead of zooming out if page height > device height\\n        user-scalable = yes allows the user to zoom in -->\\n  <meta name="viewport" content="width=device-width, initial-scale=1.0" />\\n\\n  <link rel="shortcut icon" href="\', escape=False)\nresponse.write(URL(\'static\',\'images/favicon.ico\'))\nresponse.write(\'" type="image/x-icon">\\n  <link rel="apple-touch-icon" href="\', escape=False)\nresponse.write(URL(\'static\',\'images/favicon.png\'))\nresponse.write(\'">\\n\\n  <!-- All JavaScript at the bottom, except for Modernizr which enables\\n       HTML5 elements & feature detects -->\\n  <script src="\', escape=False)\nresponse.write(URL(\'static\',\'js/modernizr.custom.js\'))\nresponse.write(\'"></script>\\n\\n  <!-- include stylesheets -->\\n  \', escape=False)\nresponse.files.append(URL(\'static\',\'css/web2py.css\'))\nresponse.files.append(URL(\'static\',\'css/bootstrap.min.css\'))\nresponse.files.append(URL(\'static\',\'css/bootstrap-responsive.min.css\'))\nresponse.files.append(URL(\'static\',\'css/web2py_bootstrap.css\'))\nresponse.write(\'\\n\\n  \', escape=False)\nresponse.write(\'<script type="text/javascript"><!--\\n    // These variables are used by the web2py_ajax_init function in web2py_ajax.js (which is loaded below).\\n    var w2p_ajax_confirm_message = "\', escape=False)\nresponse.write(T(\'Are you sure you want to delete this object?\'))\nresponse.write(\'";\\n    var w2p_ajax_date_format = "\', escape=False)\nresponse.write(T(\'%Y-%m-%d\'))\nresponse.write(\'";\\n    var w2p_ajax_datetime_format = "\', escape=False)\nresponse.write(T(\'%Y-%m-%d %H:%M:%S\'))\nresponse.write(\'";\\n    var ajax_error_500 = \\\'\', escape=False)\nresponse.write(XML(T(\'An error occured, please %s the page\') % A(T(\'reload\'), _href=URL(args=request.args, vars=request.vars))))\nresponse.write("\'\\n    //--></script>\\n", escape=False)\nresponse.files.insert(0,URL(\'static\',\'js/jquery.js\'))\nresponse.files.insert(1,URL(\'static\',\'css/calendar.css\'))\nresponse.files.insert(2,URL(\'static\',\'js/calendar.js\'))\nresponse.files.insert(3,URL(\'static\',\'js/web2py.js\'))\nresponse.include_meta()\nresponse.include_files()\nresponse.write(\'\\n\', escape=False)\nresponse.write(\'\\n\\n  \', escape=False)\n# using sidebars need to know what sidebar you want to use\nleft_sidebar_enabled = globals().get(\'left_sidebar_enabled\',False)\nright_sidebar_enabled = globals().get(\'right_sidebar_enabled\',False)\nmiddle_columns = {0:\'span12\',1:\'span9\',2:\'span6\'}[\n(left_sidebar_enabled and 1 or 0)+(right_sidebar_enabled and 1 or 0)]\nresponse.write(\'\\n\\n  <!-- uncomment here to load jquery-ui\\n       <link rel="stylesheet" href="http://ajax.googleapis.com/ajax/libs/jqueryui/1.8.16/themes/base/jquery-ui.css" type="text/css" media="all" />\\n       <script src="http://ajax.googleapis.com/ajax/libs/jqueryui/1.8.16/jquery-ui.min.js" type="text/javascript"></script>\\n       uncomment to load jquery-ui //-->\\n  <noscript><link href="\', escape=False)\nresponse.write(URL(\'static\', \'css/web2py_bootstrap_nojs.css\'))\nresponse.write(\'" rel="stylesheet" type="text/css" /></noscript>\\n  \', escape=False)\nresponse.write(\'\\n</head>\\n\\n<body>\\n  <!-- Navbar ================================================== -->\\n  <div class="navbar navbar-inverse navbar-fixed-top">\\n    <div class="flash">\', escape=False)\nresponse.write(response.flash or \'\')\nresponse.write(\'</div>\\n    <div class="navbar-inner">\\n      <div class="container">\\n        <!-- the next tag is necessary for bootstrap menus, do not remove -->\\n        <button type="button" class="btn btn-navbar" data-toggle="collapse" data-target=".nav-collapse">\\n          <span class="icon-bar"></span>\\n          <span class="icon-bar"></span>\\n          <span class="icon-bar"></span>\\n        </button>\\n\\t\', escape=False)\nresponse.write(response.logo or \'\')\nresponse.write(\'\\n        <ul id="navbar" class="nav pull-right">\', escape=False)\nresponse.write(\'auth\' in globals() and auth.navbar(mode="dropdown") or \'\')\nresponse.write(\'</ul>\\n        <div class="nav-collapse">\\n          \', escape=False)\nis_mobile=request.user_agent().is_mobile\nresponse.write(\'\\n          \', escape=False)\nif response.menu:\n    response.write(\'\\n          \', escape=False)\n    response.write(MENU(response.menu, _class=\'mobile-menu nav\' if is_mobile else \'nav\',mobile=is_mobile,li_class=\'dropdown\',ul_class=\'dropdown-menu\'))\n    response.write(\'\\n          \', escape=False)\n    pass\nresponse.write(\'\\n        </div><!--/.nav-collapse -->\\n      </div>\\n    </div>\\n  </div><!--/top navbar -->\\n\\n  <div class="container">\\n    <!-- Masthead ================================================== -->\\n    <header class="mastheader row" id="header">\\n        <div class="span12">\\n            <div class="page-header">\\n                <h1>\\n                    \', escape=False)\nresponse.write(response.title or request.application)\nresponse.write(\'\\n                    <small>\', escape=False)\nresponse.write(response.subtitle or \'\')\nresponse.write(\'</small>\\n                </h1>\\n            </div>\\n        </div>\\n    </header>\\n\\n    <section id="main" class="main row">\\n        \', escape=False)\nif left_sidebar_enabled:\n    response.write(\'\\n        <div class="span3 left-sidebar">\\n            \', escape=False)\n    response.write(\'\\n            <h3>Left Sidebar</h3>\\n            <p></p>\\n            \', escape=False)\n    response.write(\'\\n        </div>\\n        \', escape=False)\n    pass\nresponse.write(\'\\n\\n        <div class="\', escape=False)\nresponse.write(middle_columns)\nresponse.write(\'">\\n            \', escape=False)\nresponse.write(\'\\n            \', escape=False)\nresponse.write(\'\\n<h1>This is the game/show.html template</h1>\\n\', escape=False)\nresponse.write(BEAUTIFY(response._vars))\nresponse.write(\'\\n\\n\\n\', escape=False)\nfor gs in rows\nresponse.write(\'<li>\', escape=False)\nresponse.write(gs)\nresponse.write(\'</li>\', escape=False)\npass\nresponse.write(\'\\n\', escape=False)\nresponse.write(\'\\n            \', escape=False)\nresponse.write(\'\\n        </div>\\n\\n        \', escape=False)\nif right_sidebar_enabled:\n    response.write(\'\\n        <div class="span3">\\n            \', escape=False)\n    response.write(\'\\n            <h3>Right Sidebar</h3>\\n            <p></p>\\n            \', escape=False)\n    response.write(\'\\n        </div>\\n        \', escape=False)\n    pass\nresponse.write(\'\\n    </section><!--/main-->\\n\\n    <!-- Footer ================================================== -->\\n    <div class="row">\\n        <footer class="footer span12" id="footer">\\n            <div class="footer-content">\\n                \', escape=False)\nresponse.write(\' <!-- this is default footer -->\\n                <div class="copyright pull-left">\', escape=False)\nresponse.write(T(\'Copyright\'))\nresponse.write(\' &#169; \', escape=False)\nresponse.write(request.now.year)\nresponse.write(\'</div>\\n                <div id="poweredBy" class="pull-right">\\n                    \', escape=False)\nresponse.write(T(\'Powered by\'))\nresponse.write(\'\\n                    <a href="http://www.web2py.com/">web2py</a>\\n                </div>\\n                \', escape=False)\nresponse.write(\'\\n            </div>\\n        </footer>\\n    </div>\\n\\n  </div> <!-- /container -->\\n\\n  <!-- The javascript =============================================\\n       (Placed at the end of the document so the pages load faster) -->\\n  <script src="\', escape=False)\nresponse.write(URL(\'static\',\'js/bootstrap.min.js\'))\nresponse.write(\'"></script>\\n  <script src="\', escape=False)\nresponse.write(URL(\'static\',\'js/web2py_bootstrap.js\'))\nresponse.write(\'"></script>\\n  <!--[if lt IE 7 ]>\\n      <script src="\', escape=False)\nresponse.write(URL(\'static\',\'js/dd_belatedpng.js\'))\nresponse.write(\'"></script>\\n      <script> DD_belatedPNG.fix(\\\'img, .png_bg\\\'); //fix any <img> or .png_bg background-images </script>\\n      <![endif]-->\\n  \\n  \', escape=False)\nif response.google_analytics_id:\n    response.write(\'\\n  <script src="\', escape=False)\n    response.write(URL(\'static\',\'js/analytics.min.js\'))\n    response.write(\'"></script>\\n  <script type="text/javascript">\\n  analytics.initialize({\\n    \\\'Google Analytics\\\':{trackingId:\\\'\', escape=False)\n    response.write(response.google_analytics_id)\n    response.write("\'} \\n  });</script>\\n  ", escape=False)\n    pass\nresponse.write(\'\\n  <script src="\', escape=False)\nresponse.write(URL(\'static\',\'js/share.js\',vars=dict(static=URL(\'static\',\'images\'))))\nresponse.write(\'"></script>\\n</body>\\n</html>\\n\\n\', escape=False)'
p7
sS'snapshot'
p8
(dp9
S'exception'
p10
(dp11
S'__getslice__'
p12
S"<method-wrapper '__getslice__' of exceptions.SyntaxError object at 0xa80cb70>"
p13
sS'text'
p14
S"'for gs in rows\\n'"
p15
sS'__str__'
p16
S"<method-wrapper '__str__' of exceptions.SyntaxError object at 0xa80cb70>"
p17
sS'__reduce__'
p18
S'<built-in method __reduce__ of exceptions.SyntaxError object at 0xa80cb70>'
p19
sS'__dict__'
p20
S'{}'
p21
sS'__init__'
p22
S"<method-wrapper '__init__' of exceptions.SyntaxError object at 0xa80cb70>"
p23
sS'__setattr__'
p24
S"<method-wrapper '__setattr__' of exceptions.SyntaxError object at 0xa80cb70>"
p25
sS'__reduce_ex__'
p26
S'<built-in method __reduce_ex__ of exceptions.SyntaxError object at 0xa80cb70>'
p27
sS'__new__'
p28
S'<built-in method __new__ of type object at 0x5f9320>'
p29
sS'__class__'
p30
S"<type 'exceptions.SyntaxError'>"
p31
sS'filename'
p32
S"'/Users/zamechek/Downloads/web2py/web2py.app/Cont...esources/applications/hellow/views/game/show.html'"
p33
sS'lineno'
p34
S'85'
p35
sS'msg'
p36
S"'invalid syntax'"
p37
sS'__doc__'
p38
S"'Invalid syntax.'"
p39
sS'__getitem__'
p40
S"<method-wrapper '__getitem__' of exceptions.SyntaxError object at 0xa80cb70>"
p41
sS'__setstate__'
p42
S'<built-in method __setstate__ of exceptions.SyntaxError object at 0xa80cb70>'
p43
sS'__getattribute__'
p44
S"<method-wrapper '__getattribute__' of exceptions.SyntaxError object at 0xa80cb70>"
p45
sS'print_file_and_line'
p46
S'None'
p47
sS'args'
p48
S"('invalid syntax', ('/Users/zamechek/Downloads/web2py/web2py.app/Cont...esources/applications/hellow/views/game/show.html', 85, 15, 'for gs in rows\\n'))"
p49
sS'offset'
p50
S'15'
p51
sS'__delattr__'
p52
S"<method-wrapper '__delattr__' of exceptions.SyntaxError object at 0xa80cb70>"
p53
sS'__repr__'
p54
S"<method-wrapper '__repr__' of exceptions.SyntaxError object at 0xa80cb70>"
p55
sS'__hash__'
p56
S"<method-wrapper '__hash__' of exceptions.SyntaxError object at 0xa80cb70>"
p57
ssS'evalue'
p58
S'invalid syntax (show.html, line 85)'
p59
sS'request'
p60
ccopy_reg
_reconstructor
p61
(cgluon.html
BEAUTIFY
p62
c__builtin__
object
p63
NtRp64
(dp65
S'attributes'
p66
(dp67
sS'components'
p68
(lp69
g61
(cgluon.html
TABLE
p70
g63
NtRp71
(dp72
g66
(dp73
S'level'
p74
I5
ssS'parent'
p75
Nsg68
(lp76
g61
(cgluon.html
TR
p77
g63
NtRp78
(dp79
g66
(dp80
sg75
g71
sg68
(lp81
g61
(cgluon.html
TD
p82
g63
NtRp83
(dp84
g66
(dp85
S'_style'
p86
S'font-weight:bold;vertical-align:top'
p87
ssg75
g78
sg68
(lp88
S'ajax'
p89
asbag61
(g82
g63
NtRp90
(dp91
g66
(dp92
S'_valign'
p93
S'top'
p94
ssg75
g78
sg68
(lp95
S':'
asbag61
(g82
g63
NtRp96
(dp97
g66
(dp98
sg75
g78
sg68
(lp99
g61
(g62
g63
NtRp100
(dp101
g66
(dp102
g74
I5
ssg75
g96
sg68
(lp103
S'False'
p104
asbasbasbag61
(g77
g63
NtRp105
(dp106
g66
(dp107
sg75
g71
sg68
(lp108
g61
(g82
g63
NtRp109
(dp110
g66
(dp111
g86
g87
ssg75
g105
sg68
(lp112
S'application'
p113
asbag61
(g82
g63
NtRp114
(dp115
g66
(dp116
g93
g94
ssg75
g105
sg68
(lp117
S':'
asbag61
(g82
g63
NtRp118
(dp119
g66
(dp120
sg75
g105
sg68
(lp121
g61
(g62
g63
NtRp122
(dp123
g66
(dp124
g74
I5
ssg75
g118
sg68
(lp125
S'hellow'
p126
asbasbasbag61
(g77
g63
NtRp127
(dp128
g66
(dp129
sg75
g71
sg68
(lp130
g61
(g82
g63
NtRp131
(dp132
g66
(dp133
g86
g87
ssg75
g127
sg68
(lp134
g48
asbag61
(g82
g63
NtRp135
(dp136
g66
(dp137
g93
g94
ssg75
g127
sg68
(lp138
S':'
asbag61
(g82
g63
NtRp139
(dp140
g66
(dp141
sg75
g127
sg68
(lp142
g61
(g62
g63
NtRp143
(dp144
g66
(dp145
g74
I5
ssg75
g139
sg68
(lp146
g61
(g70
g63
NtRp147
(dp148
g66
(dp149
g74
I4
ssg75
Nsg68
(lp150
g61
(g77
g63
NtRp151
(dp152
g66
(dp153
sg75
g147
sg68
(lp154
g61
(g82
g63
NtRp155
(dp156
g66
(dp157
sg75
g151
sg68
(lp158
g61
(g62
g63
NtRp159
(dp160
g66
(dp161
g74
I4
ssg75
g155
sg68
(lp162
S'1'
asbasbasbasbasbasbasbag61
(g77
g63
NtRp163
(dp164
g66
(dp165
sg75
g71
sg68
(lp166
g61
(g82
g63
NtRp167
(dp168
g66
(dp169
g86
g87
ssg75
g163
sg68
(lp170
S'body'
p171
asbag61
(g82
g63
NtRp172
(dp173
g66
(dp174
g93
g94
ssg75
g163
sg68
(lp175
S':'
asbag61
(g82
g63
NtRp176
(dp177
g66
(dp178
sg75
g163
sg68
(lp179
g61
(g62
g63
NtRp180
(dp181
g66
(dp182
g74
I5
ssg75
g176
sg68
(lp183
S'<cStringIO.StringO object at 0xc328420>'
p184
asbasbasbag61
(g77
g63
NtRp185
(dp186
g66
(dp187
sg75
g71
sg68
(lp188
g61
(g82
g63
NtRp189
(dp190
g66
(dp191
g86
g87
ssg75
g185
sg68
(lp192
S'cid'
p193
asbag61
(g82
g63
NtRp194
(dp195
g66
(dp196
g93
g94
ssg75
g185
sg68
(lp197
S':'
asbag61
(g82
g63
NtRp198
(dp199
g66
(dp200
sg75
g185
sg68
(lp201
g61
(g62
g63
NtRp202
(dp203
g66
(dp204
g74
I5
ssg75
g198
sg68
(lp205
S'None'
p206
asbasbasbag61
(g77
g63
NtRp207
(dp208
g66
(dp209
sg75
g71
sg68
(lp210
g61
(g82
g63
NtRp211
(dp212
g66
(dp213
g86
g87
ssg75
g207
sg68
(lp214
S'client'
p215
asbag61
(g82
g63
NtRp216
(dp217
g66
(dp218
g93
g94
ssg75
g207
sg68
(lp219
S':'
asbag61
(g82
g63
NtRp220
(dp221
g66
(dp222
sg75
g207
sg68
(lp223
g61
(g62
g63
NtRp224
(dp225
g66
(dp226
g74
I5
ssg75
g220
sg68
(lp227
S'127.0.0.1'
p228
asbasbasbag61
(g77
g63
NtRp229
(dp230
g66
(dp231
sg75
g71
sg68
(lp232
g61
(g82
g63
NtRp233
(dp234
g66
(dp235
g86
g87
ssg75
g229
sg68
(lp236
S'controller'
p237
asbag61
(g82
g63
NtRp238
(dp239
g66
(dp240
g93
g94
ssg75
g229
sg68
(lp241
S':'
asbag61
(g82
g63
NtRp242
(dp243
g66
(dp244
sg75
g229
sg68
(lp245
g61
(g62
g63
NtRp246
(dp247
g66
(dp248
g74
I5
ssg75
g242
sg68
(lp249
S'game'
p250
asbasbasbag61
(g77
g63
NtRp251
(dp252
g66
(dp253
sg75
g71
sg68
(lp254
g61
(g82
g63
NtRp255
(dp256
g66
(dp257
g86
g87
ssg75
g251
sg68
(lp258
S'cookies'
p259
asbag61
(g82
g63
NtRp260
(dp261
g66
(dp262
g93
g94
ssg75
g251
sg68
(lp263
S':'
asbag61
(g82
g63
NtRp264
(dp265
g66
(dp266
sg75
g251
sg68
(lp267
g61
(g62
g63
NtRp268
(dp269
g66
(dp270
g74
I5
ssg75
g264
sg68
(lp271
g61
(g70
g63
NtRp272
(dp273
g66
(dp274
g74
I4
ssg75
Nsg68
(lp275
g61
(g77
g63
NtRp276
(dp277
g66
(dp278
sg75
g272
sg68
(lp279
g61
(g82
g63
NtRp280
(dp281
g66
(dp282
g86
g87
ssg75
g276
sg68
(lp283
S'session_id_admin'
p284
asbag61
(g82
g63
NtRp285
(dp286
g66
(dp287
g93
g94
ssg75
g276
sg68
(lp288
S':'
asbag61
(g82
g63
NtRp289
(dp290
g66
(dp291
sg75
g276
sg68
(lp292
g61
(g62
g63
NtRp293
(dp294
g66
(dp295
g74
I4
ssg75
g289
sg68
(lp296
S'127.0.0.1-bf448199-cadc-41e3-b1a7-bed302e89a3e'
p297
ag61
(g70
g63
NtRp298
(dp299
g66
(dp300
g74
I3
ssg75
Nsg68
(lp301
g61
(g77
g63
NtRp302
(dp303
g66
(dp304
sg75
g298
sg68
(lp305
g61
(g82
g63
NtRp306
(dp307
g66
(dp308
g86
g87
ssg75
g302
sg68
(lp309
S'comment'
p310
asbag61
(g82
g63
NtRp311
(dp312
g66
(dp313
g93
g94
ssg75
g302
sg68
(lp314
S':'
asbag61
(g82
g63
NtRp315
(dp316
g66
(dp317
sg75
g302
sg68
(lp318
g61
(g62
g63
NtRp319
(dp320
g66
(dp321
g74
I3
ssg75
g315
sg68
(lp322
S''
asbasbasbag61
(g77
g63
NtRp323
(dp324
g66
(dp325
sg75
g298
sg68
(lp326
g61
(g82
g63
NtRp327
(dp328
g66
(dp329
g86
g87
ssg75
g323
sg68
(lp330
S'domain'
p331
asbag61
(g82
g63
NtRp332
(dp333
g66
(dp334
g93
g94
ssg75
g323
sg68
(lp335
S':'
asbag61
(g82
g63
NtRp336
(dp337
g66
(dp338
sg75
g323
sg68
(lp339
g61
(g62
g63
NtRp340
(dp341
g66
(dp342
g74
I3
ssg75
g336
sg68
(lp343
S''
asbasbasbag61
(g77
g63
NtRp344
(dp345
g66
(dp346
sg75
g298
sg68
(lp347
g61
(g82
g63
NtRp348
(dp349
g66
(dp350
g86
g87
ssg75
g344
sg68
(lp351
S'expires'
p352
asbag61
(g82
g63
NtRp353
(dp354
g66
(dp355
g93
g94
ssg75
g344
sg68
(lp356
S':'
asbag61
(g82
g63
NtRp357
(dp358
g66
(dp359
sg75
g344
sg68
(lp360
g61
(g62
g63
NtRp361
(dp362
g66
(dp363
g74
I3
ssg75
g357
sg68
(lp364
S''
asbasbasbag61
(g77
g63
NtRp365
(dp366
g66
(dp367
sg75
g298
sg68
(lp368
g61
(g82
g63
NtRp369
(dp370
g66
(dp371
g86
g87
ssg75
g365
sg68
(lp372
S'max-age'
p373
asbag61
(g82
g63
NtRp374
(dp375
g66
(dp376
g93
g94
ssg75
g365
sg68
(lp377
S':'
asbag61
(g82
g63
NtRp378
(dp379
g66
(dp380
sg75
g365
sg68
(lp381
g61
(g62
g63
NtRp382
(dp383
g66
(dp384
g74
I3
ssg75
g378
sg68
(lp385
S''
asbasbasbag61
(g77
g63
NtRp386
(dp387
g66
(dp388
sg75
g298
sg68
(lp389
g61
(g82
g63
NtRp390
(dp391
g66
(dp392
g86
g87
ssg75
g386
sg68
(lp393
S'path'
p394
asbag61
(g82
g63
NtRp395
(dp396
g66
(dp397
g93
g94
ssg75
g386
sg68
(lp398
S':'
asbag61
(g82
g63
NtRp399
(dp400
g66
(dp401
sg75
g386
sg68
(lp402
g61
(g62
g63
NtRp403
(dp404
g66
(dp405
g74
I3
ssg75
g399
sg68
(lp406
S''
asbasbasbag61
(g77
g63
NtRp407
(dp408
g66
(dp409
sg75
g298
sg68
(lp410
g61
(g82
g63
NtRp411
(dp412
g66
(dp413
g86
g87
ssg75
g407
sg68
(lp414
S'secure'
p415
asbag61
(g82
g63
NtRp416
(dp417
g66
(dp418
g93
g94
ssg75
g407
sg68
(lp419
S':'
asbag61
(g82
g63
NtRp420
(dp421
g66
(dp422
sg75
g407
sg68
(lp423
g61
(g62
g63
NtRp424
(dp425
g66
(dp426
g74
I3
ssg75
g420
sg68
(lp427
S''
asbasbasbag61
(g77
g63
NtRp428
(dp429
g66
(dp430
sg75
g298
sg68
(lp431
g61
(g82
g63
NtRp432
(dp433
g66
(dp434
g86
g87
ssg75
g428
sg68
(lp435
S'version'
p436
asbag61
(g82
g63
NtRp437
(dp438
g66
(dp439
g93
g94
ssg75
g428
sg68
(lp440
S':'
asbag61
(g82
g63
NtRp441
(dp442
g66
(dp443
sg75
g428
sg68
(lp444
g61
(g62
g63
NtRp445
(dp446
g66
(dp447
g74
I3
ssg75
g441
sg68
(lp448
S''
asbasbasbasbasbasbasbag61
(g77
g63
NtRp449
(dp450
g66
(dp451
sg75
g272
sg68
(lp452
g61
(g82
g63
NtRp453
(dp454
g66
(dp455
g86
g87
ssg75
g449
sg68
(lp456
S'session_id_hellow'
p457
asbag61
(g82
g63
NtRp458
(dp459
g66
(dp460
g93
g94
ssg75
g449
sg68
(lp461
S':'
asbag61
(g82
g63
NtRp462
(dp463
g66
(dp464
sg75
g449
sg68
(lp465
g61
(g62
g63
NtRp466
(dp467
g66
(dp468
g74
I4
ssg75
g462
sg68
(lp469
S'127.0.0.1-bbea59f2-333e-4593-a45c-2c44a5133d77'
p470
ag61
(g70
g63
NtRp471
(dp472
g66
(dp473
g74
I3
ssg75
Nsg68
(lp474
g61
(g77
g63
NtRp475
(dp476
g66
(dp477
sg75
g471
sg68
(lp478
g61
(g82
g63
NtRp479
(dp480
g66
(dp481
g86
g87
ssg75
g475
sg68
(lp482
g310
asbag61
(g82
g63
NtRp483
(dp484
g66
(dp485
g93
g94
ssg75
g475
sg68
(lp486
S':'
asbag61
(g82
g63
NtRp487
(dp488
g66
(dp489
sg75
g475
sg68
(lp490
g61
(g62
g63
NtRp491
(dp492
g66
(dp493
g74
I3
ssg75
g487
sg68
(lp494
S''
asbasbasbag61
(g77
g63
NtRp495
(dp496
g66
(dp497
sg75
g471
sg68
(lp498
g61
(g82
g63
NtRp499
(dp500
g66
(dp501
g86
g87
ssg75
g495
sg68
(lp502
g331
asbag61
(g82
g63
NtRp503
(dp504
g66
(dp505
g93
g94
ssg75
g495
sg68
(lp506
S':'
asbag61
(g82
g63
NtRp507
(dp508
g66
(dp509
sg75
g495
sg68
(lp510
g61
(g62
g63
NtRp511
(dp512
g66
(dp513
g74
I3
ssg75
g507
sg68
(lp514
S''
asbasbasbag61
(g77
g63
NtRp515
(dp516
g66
(dp517
sg75
g471
sg68
(lp518
g61
(g82
g63
NtRp519
(dp520
g66
(dp521
g86
g87
ssg75
g515
sg68
(lp522
g352
asbag61
(g82
g63
NtRp523
(dp524
g66
(dp525
g93
g94
ssg75
g515
sg68
(lp526
S':'
asbag61
(g82
g63
NtRp527
(dp528
g66
(dp529
sg75
g515
sg68
(lp530
g61
(g62
g63
NtRp531
(dp532
g66
(dp533
g74
I3
ssg75
g527
sg68
(lp534
S''
asbasbasbag61
(g77
g63
NtRp535
(dp536
g66
(dp537
sg75
g471
sg68
(lp538
g61
(g82
g63
NtRp539
(dp540
g66
(dp541
g86
g87
ssg75
g535
sg68
(lp542
g373
asbag61
(g82
g63
NtRp543
(dp544
g66
(dp545
g93
g94
ssg75
g535
sg68
(lp546
S':'
asbag61
(g82
g63
NtRp547
(dp548
g66
(dp549
sg75
g535
sg68
(lp550
g61
(g62
g63
NtRp551
(dp552
g66
(dp553
g74
I3
ssg75
g547
sg68
(lp554
S''
asbasbasbag61
(g77
g63
NtRp555
(dp556
g66
(dp557
sg75
g471
sg68
(lp558
g61
(g82
g63
NtRp559
(dp560
g66
(dp561
g86
g87
ssg75
g555
sg68
(lp562
g394
asbag61
(g82
g63
NtRp563
(dp564
g66
(dp565
g93
g94
ssg75
g555
sg68
(lp566
S':'
asbag61
(g82
g63
NtRp567
(dp568
g66
(dp569
sg75
g555
sg68
(lp570
g61
(g62
g63
NtRp571
(dp572
g66
(dp573
g74
I3
ssg75
g567
sg68
(lp574
S''
asbasbasbag61
(g77
g63
NtRp575
(dp576
g66
(dp577
sg75
g471
sg68
(lp578
g61
(g82
g63
NtRp579
(dp580
g66
(dp581
g86
g87
ssg75
g575
sg68
(lp582
g415
asbag61
(g82
g63
NtRp583
(dp584
g66
(dp585
g93
g94
ssg75
g575
sg68
(lp586
S':'
asbag61
(g82
g63
NtRp587
(dp588
g66
(dp589
sg75
g575
sg68
(lp590
g61
(g62
g63
NtRp591
(dp592
g66
(dp593
g74
I3
ssg75
g587
sg68
(lp594
S''
asbasbasbag61
(g77
g63
NtRp595
(dp596
g66
(dp597
sg75
g471
sg68
(lp598
g61
(g82
g63
NtRp599
(dp600
g66
(dp601
g86
g87
ssg75
g595
sg68
(lp602
g436
asbag61
(g82
g63
NtRp603
(dp604
g66
(dp605
g93
g94
ssg75
g595
sg68
(lp606
S':'
asbag61
(g82
g63
NtRp607
(dp608
g66
(dp609
sg75
g595
sg68
(lp610
g61
(g62
g63
NtRp611
(dp612
g66
(dp613
g74
I3
ssg75
g607
sg68
(lp614
S''
asbasbasbasbasbasbasbag61
(g77
g63
NtRp615
(dp616
g66
(dp617
sg75
g272
sg68
(lp618
g61
(g82
g63
NtRp619
(dp620
g66
(dp621
g86
g87
ssg75
g615
sg68
(lp622
S'session_id_welcome'
p623
asbag61
(g82
g63
NtRp624
(dp625
g66
(dp626
g93
g94
ssg75
g615
sg68
(lp627
S':'
asbag61
(g82
g63
NtRp628
(dp629
g66
(dp630
sg75
g615
sg68
(lp631
g61
(g62
g63
NtRp632
(dp633
g66
(dp634
g74
I4
ssg75
g628
sg68
(lp635
S'127.0.0.1-dfebfa33-25aa-4072-bce4-08f7e89e2d04'
p636
ag61
(g70
g63
NtRp637
(dp638
g66
(dp639
g74
I3
ssg75
Nsg68
(lp640
g61
(g77
g63
NtRp641
(dp642
g66
(dp643
sg75
g637
sg68
(lp644
g61
(g82
g63
NtRp645
(dp646
g66
(dp647
g86
g87
ssg75
g641
sg68
(lp648
g310
asbag61
(g82
g63
NtRp649
(dp650
g66
(dp651
g93
g94
ssg75
g641
sg68
(lp652
S':'
asbag61
(g82
g63
NtRp653
(dp654
g66
(dp655
sg75
g641
sg68
(lp656
g61
(g62
g63
NtRp657
(dp658
g66
(dp659
g74
I3
ssg75
g653
sg68
(lp660
S''
asbasbasbag61
(g77
g63
NtRp661
(dp662
g66
(dp663
sg75
g637
sg68
(lp664
g61
(g82
g63
NtRp665
(dp666
g66
(dp667
g86
g87
ssg75
g661
sg68
(lp668
g331
asbag61
(g82
g63
NtRp669
(dp670
g66
(dp671
g93
g94
ssg75
g661
sg68
(lp672
S':'
asbag61
(g82
g63
NtRp673
(dp674
g66
(dp675
sg75
g661
sg68
(lp676
g61
(g62
g63
NtRp677
(dp678
g66
(dp679
g74
I3
ssg75
g673
sg68
(lp680
S''
asbasbasbag61
(g77
g63
NtRp681
(dp682
g66
(dp683
sg75
g637
sg68
(lp684
g61
(g82
g63
NtRp685
(dp686
g66
(dp687
g86
g87
ssg75
g681
sg68
(lp688
g352
asbag61
(g82
g63
NtRp689
(dp690
g66
(dp691
g93
g94
ssg75
g681
sg68
(lp692
S':'
asbag61
(g82
g63
NtRp693
(dp694
g66
(dp695
sg75
g681
sg68
(lp696
g61
(g62
g63
NtRp697
(dp698
g66
(dp699
g74
I3
ssg75
g693
sg68
(lp700
S''
asbasbasbag61
(g77
g63
NtRp701
(dp702
g66
(dp703
sg75
g637
sg68
(lp704
g61
(g82
g63
NtRp705
(dp706
g66
(dp707
g86
g87
ssg75
g701
sg68
(lp708
g373
asbag61
(g82
g63
NtRp709
(dp710
g66
(dp711
g93
g94
ssg75
g701
sg68
(lp712
S':'
asbag61
(g82
g63
NtRp713
(dp714
g66
(dp715
sg75
g701
sg68
(lp716
g61
(g62
g63
NtRp717
(dp718
g66
(dp719
g74
I3
ssg75
g713
sg68
(lp720
S''
asbasbasbag61
(g77
g63
NtRp721
(dp722
g66
(dp723
sg75
g637
sg68
(lp724
g61
(g82
g63
NtRp725
(dp726
g66
(dp727
g86
g87
ssg75
g721
sg68
(lp728
g394
asbag61
(g82
g63
NtRp729
(dp730
g66
(dp731
g93
g94
ssg75
g721
sg68
(lp732
S':'
asbag61
(g82
g63
NtRp733
(dp734
g66
(dp735
sg75
g721
sg68
(lp736
g61
(g62
g63
NtRp737
(dp738
g66
(dp739
g74
I3
ssg75
g733
sg68
(lp740
S''
asbasbasbag61
(g77
g63
NtRp741
(dp742
g66
(dp743
sg75
g637
sg68
(lp744
g61
(g82
g63
NtRp745
(dp746
g66
(dp747
g86
g87
ssg75
g741
sg68
(lp748
g415
asbag61
(g82
g63
NtRp749
(dp750
g66
(dp751
g93
g94
ssg75
g741
sg68
(lp752
S':'
asbag61
(g82
g63
NtRp753
(dp754
g66
(dp755
sg75
g741
sg68
(lp756
g61
(g62
g63
NtRp757
(dp758
g66
(dp759
g74
I3
ssg75
g753
sg68
(lp760
S''
asbasbasbag61
(g77
g63
NtRp761
(dp762
g66
(dp763
sg75
g637
sg68
(lp764
g61
(g82
g63
NtRp765
(dp766
g66
(dp767
g86
g87
ssg75
g761
sg68
(lp768
g436
asbag61
(g82
g63
NtRp769
(dp770
g66
(dp771
g93
g94
ssg75
g761
sg68
(lp772
S':'
asbag61
(g82
g63
NtRp773
(dp774
g66
(dp775
sg75
g761
sg68
(lp776
g61
(g62
g63
NtRp777
(dp778
g66
(dp779
g74
I3
ssg75
g773
sg68
(lp780
S''
asbasbasbasbasbasbasbasbasbasbasbag61
(g77
g63
NtRp781
(dp782
g66
(dp783
sg75
g71
sg68
(lp784
g61
(g82
g63
NtRp785
(dp786
g66
(dp787
g86
g87
ssg75
g781
sg68
(lp788
S'env'
p789
asbag61
(g82
g63
NtRp790
(dp791
g66
(dp792
g93
g94
ssg75
g781
sg68
(lp793
S':'
asbag61
(g82
g63
NtRp794
(dp795
g66
(dp796
sg75
g781
sg68
(lp797
g61
(g62
g63
NtRp798
(dp799
g66
(dp800
g74
I5
ssg75
g794
sg68
(lp801
g61
(g70
g63
NtRp802
(dp803
g66
(dp804
g74
I4
ssg75
Nsg68
(lp805
g61
(g77
g63
NtRp806
(dp807
g66
(dp808
sg75
g802
sg68
(lp809
g61
(g82
g63
NtRp810
(dp811
g66
(dp812
g86
g87
ssg75
g806
sg68
(lp813
S'app_folders'
p814
asbag61
(g82
g63
NtRp815
(dp816
g66
(dp817
g93
g94
ssg75
g806
sg68
(lp818
S':'
asbag61
(g82
g63
NtRp819
(dp820
g66
(dp821
sg75
g806
sg68
(lp822
g61
(g62
g63
NtRp823
(dp824
g66
(dp825
g74
I4
ssg75
g819
sg68
(lp826
S"set(['/Users/zamechek/Downloads/web2py/web2py.app/Contents/Resources/applications/examples/', '/Users/zamechek/Downloads/web2py/web2py.app/Contents/Resources/applications/hellow/', '/Users/zamechek/Downloads/web2py/web2py.app/Contents/Resources/applications/admin/', '/Users/zamechek/Downloads/web2py/web2py.app/Contents/Resources/applications/slots/', '/Users/zamechek/Downloads/web2py/web2py.app/Contents/Resources/applications/welcome/'])"
p827
asbasbasbag61
(g77
g63
NtRp828
(dp829
g66
(dp830
sg75
g802
sg68
(lp831
g61
(g82
g63
NtRp832
(dp833
g66
(dp834
g86
g87
ssg75
g828
sg68
(lp835
S'applications_parent'
p836
asbag61
(g82
g63
NtRp837
(dp838
g66
(dp839
g93
g94
ssg75
g828
sg68
(lp840
S':'
asbag61
(g82
g63
NtRp841
(dp842
g66
(dp843
sg75
g828
sg68
(lp844
g61
(g62
g63
NtRp845
(dp846
g66
(dp847
g74
I4
ssg75
g841
sg68
(lp848
S'/Users/zamechek/Downloads/web2py/web2py.app/Contents/Resources'
p849
asbasbasbag61
(g77
g63
NtRp850
(dp851
g66
(dp852
sg75
g802
sg68
(lp853
g61
(g82
g63
NtRp854
(dp855
g66
(dp856
g86
g87
ssg75
g850
sg68
(lp857
S'cmd_args'
p858
asbag61
(g82
g63
NtRp859
(dp860
g66
(dp861
g93
g94
ssg75
g850
sg68
(lp862
S':'
asbag61
(g82
g63
NtRp863
(dp864
g66
(dp865
sg75
g850
sg68
(lp866
g61
(g62
g63
NtRp867
(dp868
g66
(dp869
g74
I4
ssg75
g863
sg68
(lp870
g61
(g70
g63
NtRp871
(dp872
g66
(dp873
g74
I3
ssg75
Nsg68
(lp874
sbasbasbasbag61
(g77
g63
NtRp875
(dp876
g66
(dp877
sg75
g802
sg68
(lp878
g61
(g82
g63
NtRp879
(dp880
g66
(dp881
g86
g87
ssg75
g875
sg68
(lp882
S'cmd_options'
p883
asbag61
(g82
g63
NtRp884
(dp885
g66
(dp886
g93
g94
ssg75
g875
sg68
(lp887
S':'
asbag61
(g82
g63
NtRp888
(dp889
g66
(dp890
sg75
g875
sg68
(lp891
g61
(g62
g63
NtRp892
(dp893
g66
(dp894
g74
I4
ssg75
g888
sg68
(lp895
S"<Values at 0x32c8f58: {'verbose': False, 'ip': '127.0.0.1', 'with_scheduler': False, 'ips': ['130.91.151.157'], 'shutdown_timeout': 5, 'taskbar': False, 'port': 8000, 'maxthreads': None, 'softcron': False, 'server_name': 'hntvlan531.0924.wlan.wireless-pennnet.upenn.edu', 'bpython': False, 'nogui': False, 'pid_filename': 'httpserver.pid', 'extcron': False, 'runcron': False, 'run_system_tests': False, 'test': None, 'folder': '/Users/zamechek/Downloads/web2py/web2py.app/Contents/Resources', 'config': '', 'import_models': False, 'winservice': '', 'shell': None, 'run': '', 'log_filename': 'httpserver.log', 'debuglevel': 30, 'args': [''], 'socket_timeout': 5, 'ssl_ca_certificate': None, 'scheduler': None, 'profiler_filename': None, 'ssl_private_key': '', 'scheduler_groups': None, 'password': '<ask>', 'request_queue_size': 5, 'ssl_certificate': '', 'cronjob': False, 'numthreads': None, 'quiet': False, 'interfaces': None, 'minthreads': None, 'timeout': 10, 'plain': False, 'nobanner': False}>"
p896
asbasbasbag61
(g77
g63
NtRp897
(dp898
g66
(dp899
sg75
g802
sg68
(lp900
g61
(g82
g63
NtRp901
(dp902
g66
(dp903
g86
g87
ssg75
g897
sg68
(lp904
S'db_sessions'
p905
asbag61
(g82
g63
NtRp906
(dp907
g66
(dp908
g93
g94
ssg75
g897
sg68
(lp909
S':'
asbag61
(g82
g63
NtRp910
(dp911
g66
(dp912
sg75
g897
sg68
(lp913
g61
(g62
g63
NtRp914
(dp915
g66
(dp916
g74
I4
ssg75
g910
sg68
(lp917
S'set([])'
p918
asbasbasbag61
(g77
g63
NtRp919
(dp920
g66
(dp921
sg75
g802
sg68
(lp922
g61
(g82
g63
NtRp923
(dp924
g66
(dp925
g86
g87
ssg75
g919
sg68
(lp926
S'debugging'
p927
asbag61
(g82
g63
NtRp928
(dp929
g66
(dp930
g93
g94
ssg75
g919
sg68
(lp931
S':'
asbag61
(g82
g63
NtRp932
(dp933
g66
(dp934
sg75
g919
sg68
(lp935
g61
(g62
g63
NtRp936
(dp937
g66
(dp938
g74
I4
ssg75
g932
sg68
(lp939
S'True'
p940
asbasbasbag61
(g77
g63
NtRp941
(dp942
g66
(dp943
sg75
g802
sg68
(lp944
g61
(g82
g63
NtRp945
(dp946
g66
(dp947
g86
g87
ssg75
g941
sg68
(lp948
S'gluon_parent'
p949
asbag61
(g82
g63
NtRp950
(dp951
g66
(dp952
g93
g94
ssg75
g941
sg68
(lp953
S':'
asbag61
(g82
g63
NtRp954
(dp955
g66
(dp956
sg75
g941
sg68
(lp957
g61
(g62
g63
NtRp958
(dp959
g66
(dp960
g74
I4
ssg75
g954
sg68
(lp961
S'/Users/zamechek/Downloads/web2py/web2py.app/Contents/Resources'
p962
asbasbasbag61
(g77
g63
NtRp963
(dp964
g66
(dp965
sg75
g802
sg68
(lp966
g61
(g82
g63
NtRp967
(dp968
g66
(dp969
g86
g87
ssg75
g963
sg68
(lp970
S'http_accept'
p971
asbag61
(g82
g63
NtRp972
(dp973
g66
(dp974
g93
g94
ssg75
g963
sg68
(lp975
S':'
asbag61
(g82
g63
NtRp976
(dp977
g66
(dp978
sg75
g963
sg68
(lp979
g61
(g62
g63
NtRp980
(dp981
g66
(dp982
g74
I4
ssg75
g976
sg68
(lp983
S'text/html,application/xhtml+xml,application/xml;q=0.9,*/*;q=0.8'
p984
asbasbasbag61
(g77
g63
NtRp985
(dp986
g66
(dp987
sg75
g802
sg68
(lp988
g61
(g82
g63
NtRp989
(dp990
g66
(dp991
g86
g87
ssg75
g985
sg68
(lp992
S'http_accept_charset'
p993
asbag61
(g82
g63
NtRp994
(dp995
g66
(dp996
g93
g94
ssg75
g985
sg68
(lp997
S':'
asbag61
(g82
g63
NtRp998
(dp999
g66
(dp1000
sg75
g985
sg68
(lp1001
g61
(g62
g63
NtRp1002
(dp1003
g66
(dp1004
g74
I4
ssg75
g998
sg68
(lp1005
S'ISO-8859-1,utf-8;q=0.7,*;q=0.3'
p1006
asbasbasbag61
(g77
g63
NtRp1007
(dp1008
g66
(dp1009
sg75
g802
sg68
(lp1010
g61
(g82
g63
NtRp1011
(dp1012
g66
(dp1013
g86
g87
ssg75
g1007
sg68
(lp1014
S'http_accept_encoding'
p1015
asbag61
(g82
g63
NtRp1016
(dp1017
g66
(dp1018
g93
g94
ssg75
g1007
sg68
(lp1019
S':'
asbag61
(g82
g63
NtRp1020
(dp1021
g66
(dp1022
sg75
g1007
sg68
(lp1023
g61
(g62
g63
NtRp1024
(dp1025
g66
(dp1026
g74
I4
ssg75
g1020
sg68
(lp1027
S'gzip,deflate,sdch'
p1028
asbasbasbag61
(g77
g63
NtRp1029
(dp1030
g66
(dp1031
sg75
g802
sg68
(lp1032
g61
(g82
g63
NtRp1033
(dp1034
g66
(dp1035
g86
g87
ssg75
g1029
sg68
(lp1036
S'http_accept_language'
p1037
asbag61
(g82
g63
NtRp1038
(dp1039
g66
(dp1040
g93
g94
ssg75
g1029
sg68
(lp1041
S':'
asbag61
(g82
g63
NtRp1042
(dp1043
g66
(dp1044
sg75
g1029
sg68
(lp1045
g61
(g62
g63
NtRp1046
(dp1047
g66
(dp1048
g74
I4
ssg75
g1042
sg68
(lp1049
S'en-US,en;q=0.8'
p1050
asbasbasbag61
(g77
g63
NtRp1051
(dp1052
g66
(dp1053
sg75
g802
sg68
(lp1054
g61
(g82
g63
NtRp1055
(dp1056
g66
(dp1057
g86
g87
ssg75
g1051
sg68
(lp1058
S'http_cache_control'
p1059
asbag61
(g82
g63
NtRp1060
(dp1061
g66
(dp1062
g93
g94
ssg75
g1051
sg68
(lp1063
S':'
asbag61
(g82
g63
NtRp1064
(dp1065
g66
(dp1066
sg75
g1051
sg68
(lp1067
g61
(g62
g63
NtRp1068
(dp1069
g66
(dp1070
g74
I4
ssg75
g1064
sg68
(lp1071
S'max-age=0'
p1072
asbasbasbag61
(g77
g63
NtRp1073
(dp1074
g66
(dp1075
sg75
g802
sg68
(lp1076
g61
(g82
g63
NtRp1077
(dp1078
g66
(dp1079
g86
g87
ssg75
g1073
sg68
(lp1080
S'http_connection'
p1081
asbag61
(g82
g63
NtRp1082
(dp1083
g66
(dp1084
g93
g94
ssg75
g1073
sg68
(lp1085
S':'
asbag61
(g82
g63
NtRp1086
(dp1087
g66
(dp1088
sg75
g1073
sg68
(lp1089
g61
(g62
g63
NtRp1090
(dp1091
g66
(dp1092
g74
I4
ssg75
g1086
sg68
(lp1093
S'keep-alive'
p1094
asbasbasbag61
(g77
g63
NtRp1095
(dp1096
g66
(dp1097
sg75
g802
sg68
(lp1098
g61
(g82
g63
NtRp1099
(dp1100
g66
(dp1101
g86
g87
ssg75
g1095
sg68
(lp1102
S'http_cookie'
p1103
asbag61
(g82
g63
NtRp1104
(dp1105
g66
(dp1106
g93
g94
ssg75
g1095
sg68
(lp1107
S':'
asbag61
(g82
g63
NtRp1108
(dp1109
g66
(dp1110
sg75
g1095
sg68
(lp1111
g61
(g62
g63
NtRp1112
(dp1113
g66
(dp1114
g74
I4
ssg75
g1108
sg68
(lp1115
S'_define_session=BAh7CEkiD3Nlc3Npb25faWQGOgZFRkkiJTVmM2YzOTE4ZmYyNzY4ZDRjYjY5YjcyOGNkZTAxODEwBjsAVEkiEF9jc3JmX3Rva2VuBjsARkkiMVY4MTBXWE1hdGNGUGR0ZzhxeStGc3FiajlCNzB6UkpqcHZUalZJNjRFNms9BjsARkkiGXdhcmRlbi51c2VyLnVzZXIua2V5BjsAVFsISSIJVXNlcgY7AEZbBmkGSSIiJDJhJDEwJGxpeDBzN29QMk5ocFJWZUl4RXZ4WXUGOwBU--36fb82eb40ee1558fc8e56b5bce1c04bba1a6c00; _bs_session=BAh7B0kiD3Nlc3Npb25faWQGOgZFRkkiJWFhOTlmNjdkODEzYjIwNGMyNGUwMTZmNjlkMDBjMjlhBjsAVEkiEF9jc3JmX3Rva2VuBjsARkkiMUJjek16b0JSUDluYk5MekI0YlNTMklPb2Q3V3pNQzJXcHQ1enY1RDgrT3c9BjsARg%3D%3D--80cc0f5e6211d60923eda39a15903de5a280521a; _table_session=BAh7B0kiD3Nlc3Npb25faWQGOgZFRkkiJTdhZTA3MzFhMGMxM2Q4YTAxZGQ3ZTNlMDM2ODIwOWY3BjsAVEkiEF9jc3JmX3Rva2VuBjsARkkiMWxKWVRtT3hGU3dxT0tnbmJ1OG1iL3FXSW9jWVRJdnZhZHJmNTN2b1BqR2M9BjsARg%3D%3D--a8b8801fe97e379d91991be9a0d21a60f46bc09e; _usertable_session=BAh7CEkiD3Nlc3Npb25faWQGOgZFRkkiJTRmY2NiMWMyOTE1ZThhYzE1MzVlYmU3ODMxZjdhM2NmBjsAVEkiEF9jc3JmX3Rva2VuBjsARkkiMXlibkQxRk5wVVFFU05OcDVxMEQvUURSZWRJQVlRY1JwYTdoSkRucEtlYXc9BjsARkkiCmZsYXNoBjsARm86JUFjdGlvbkRpc3BhdGNoOjpGbGFzaDo6Rmxhc2hIYXNoCToKQHVzZWRvOghTZXQGOgpAaGFzaHsAOgxAY2xvc2VkRjoNQGZsYXNoZXN7BjoLbm90aWNlSSItRmllbGQgcmVsYXRpb24gd2FzIHN1Y2Nlc3NmdWxseSBjcmVhdGVkLgY7AEY6CUBub3cw--c455129d4f2ca1e085c6ad184fd200aecc0b7061; _tbls_session=BAh7B0kiD3Nlc3Npb25faWQGOgZFRkkiJWY5MmM2Mzk2ZWQ0M2ZlODZkN2E5YjMxYmViOTU4NTI2BjsAVEkiEF9jc3JmX3Rva2VuBjsARkkiMVZjemQ4UGhpZXhnaEhnOUE2alRCRmdGSXFBclViMFhwQlo5Ulg2VTRhdFk9BjsARg%3D%3D--53586c2b8499a2c56c427cd8b8e3de116331bd4d; _typel_session=BAh7CEkiD3Nlc3Npb25faWQGOgZFRkkiJWQzMjkxZGExNGY5ZTQzNzIzZTk5MWZmZTM0NDY2NTFiBjsAVEkiEF9jc3JmX3Rva2VuBjsARkkiMWM5cVg1c3pKalpQSjd3Yk5lanQ5alpjZW4zRmNOVXdQS29YNExGOXJIUWM9BjsARkkiGXdhcmRlbi51c2VyLnVzZXIua2V5BjsAVFsISSIJVXNlcgY7AEZbBmkGSSIiJDJhJDEwJEVybm5aY0RTdm9sRjRETENhdjRveGUGOwBU--df06a9ed1ab2763964f111c2534c9f2a3630c12c; _ampersand_factory_session=BAh7CUkiD3Nlc3Npb25faWQGOgZFRkkiJWI2NTFmMThjZDNkMWU4NTNhNmI4OWU1MjNhYjMyZmQ0BjsAVEkiDWluc3RhbmNlBjsARmkGSSIQX2NzcmZfdG9rZW4GOwBGSSIxTEtBZER3MFlQQUV6Nmh1NW95TG4vUTFGcFdXa1ozWTVJaUx5aXh4ZndTVT0GOwBGSSIbd2FyZGVuLnVzZXIud29ya2VyLmtleQY7AFRbCEkiC1dvcmtlcgY7AEZbBmkGSSIiJDJhJDEwJGlEdndMRmhzQXB5eE1tLnhjMFM2di4GOwBU--e6bc7e5d4e945842bb7862fd547d433b3c7bfdcb; _lang_session=BAh7B0kiD3Nlc3Npb25faWQGOgZFRkkiJTY2YzI4YTY5NDkzNzE1ZGIzYzUwNWM3ZDg2ZmY1MWNiBjsAVEkiEF9jc3JmX3Rva2VuBjsARkkiMVdVczNjYnUvY2tZaHFvMVlwLy9zemdCcFliUytKdTlUTGZ3M1RIUlI3aHc9BjsARg%3D%3D--52f16b665cb4cfc5b54cea21c7b082ab6b75b1bf; session_id_welcome=127.0.0.1-dfebfa33-25aa-4072-bce4-08f7e89e2d04; session_id_hellow=127.0.0.1-bbea59f2-333e-4593-a45c-2c44a5133d77; session_id_admin=127.0.0.1-bf448199-cadc-41e3-b1a7-bed302e89a3e'
p1116
asbasbasbag61
(g77
g63
NtRp1117
(dp1118
g66
(dp1119
sg75
g802
sg68
(lp1120
g61
(g82
g63
NtRp1121
(dp1122
g66
(dp1123
g86
g87
ssg75
g1117
sg68
(lp1124
S'http_host'
p1125
asbag61
(g82
g63
NtRp1126
(dp1127
g66
(dp1128
g93
g94
ssg75
g1117
sg68
(lp1129
S':'
asbag61
(g82
g63
NtRp1130
(dp1131
g66
(dp1132
sg75
g1117
sg68
(lp1133
g61
(g62
g63
NtRp1134
(dp1135
g66
(dp1136
g74
I4
ssg75
g1130
sg68
(lp1137
S'localhost:8887'
p1138
asbasbasbag61
(g77
g63
NtRp1139
(dp1140
g66
(dp1141
sg75
g802
sg68
(lp1142
g61
(g82
g63
NtRp1143
(dp1144
g66
(dp1145
g86
g87
ssg75
g1139
sg68
(lp1146
S'http_user_agent'
p1147
asbag61
(g82
g63
NtRp1148
(dp1149
g66
(dp1150
g93
g94
ssg75
g1139
sg68
(lp1151
S':'
asbag61
(g82
g63
NtRp1152
(dp1153
g66
(dp1154
sg75
g1139
sg68
(lp1155
g61
(g62
g63
NtRp1156
(dp1157
g66
(dp1158
g74
I4
ssg75
g1152
sg68
(lp1159
S'Mozilla/5.0 (Macintosh; Intel Mac OS X 10_8_3) AppleWebKit/537.22 (KHTML, like Gecko) Chrome/25.0.1364.172 Safari/537.22'
p1160
asbasbasbag61
(g77
g63
NtRp1161
(dp1162
g66
(dp1163
sg75
g802
sg68
(lp1164
g61
(g82
g63
NtRp1165
(dp1166
g66
(dp1167
g86
g87
ssg75
g1161
sg68
(lp1168
S'is_jython'
p1169
asbag61
(g82
g63
NtRp1170
(dp1171
g66
(dp1172
g93
g94
ssg75
g1161
sg68
(lp1173
S':'
asbag61
(g82
g63
NtRp1174
(dp1175
g66
(dp1176
sg75
g1161
sg68
(lp1177
g61
(g62
g63
NtRp1178
(dp1179
g66
(dp1180
g74
I4
ssg75
g1174
sg68
(lp1181
g104
asbasbasbag61
(g77
g63
NtRp1182
(dp1183
g66
(dp1184
sg75
g802
sg68
(lp1185
g61
(g82
g63
NtRp1186
(dp1187
g66
(dp1188
g86
g87
ssg75
g1182
sg68
(lp1189
S'is_pypy'
p1190
asbag61
(g82
g63
NtRp1191
(dp1192
g66
(dp1193
g93
g94
ssg75
g1182
sg68
(lp1194
S':'
asbag61
(g82
g63
NtRp1195
(dp1196
g66
(dp1197
sg75
g1182
sg68
(lp1198
g61
(g62
g63
NtRp1199
(dp1200
g66
(dp1201
g74
I4
ssg75
g1195
sg68
(lp1202
g104
asbasbasbag61
(g77
g63
NtRp1203
(dp1204
g66
(dp1205
sg75
g802
sg68
(lp1206
g61
(g82
g63
NtRp1207
(dp1208
g66
(dp1209
g86
g87
ssg75
g1203
sg68
(lp1210
S'local_hosts'
p1211
asbag61
(g82
g63
NtRp1212
(dp1213
g66
(dp1214
g93
g94
ssg75
g1203
sg68
(lp1215
S':'
asbag61
(g82
g63
NtRp1216
(dp1217
g66
(dp1218
sg75
g1203
sg68
(lp1219
g61
(g62
g63
NtRp1220
(dp1221
g66
(dp1222
g74
I4
ssg75
g1216
sg68
(lp1223
g61
(g70
g63
NtRp1224
(dp1225
g66
(dp1226
g74
I3
ssg75
Nsg68
(lp1227
g61
(g77
g63
NtRp1228
(dp1229
g66
(dp1230
sg75
g1224
sg68
(lp1231
g61
(g82
g63
NtRp1232
(dp1233
g66
(dp1234
sg75
g1228
sg68
(lp1235
g61
(g62
g63
NtRp1236
(dp1237
g66
(dp1238
g74
I3
ssg75
g1232
sg68
(lp1239
S'130.91.151.157'
p1240
asbasbasbag61
(g77
g63
NtRp1241
(dp1242
g66
(dp1243
sg75
g1224
sg68
(lp1244
g61
(g82
g63
NtRp1245
(dp1246
g66
(dp1247
sg75
g1241
sg68
(lp1248
g61
(g62
g63
NtRp1249
(dp1250
g66
(dp1251
g74
I3
ssg75
g1245
sg68
(lp1252
S'::1'
p1253
asbasbasbag61
(g77
g63
NtRp1254
(dp1255
g66
(dp1256
sg75
g1224
sg68
(lp1257
g61
(g82
g63
NtRp1258
(dp1259
g66
(dp1260
sg75
g1254
sg68
(lp1261
g61
(g62
g63
NtRp1262
(dp1263
g66
(dp1264
g74
I3
ssg75
g1258
sg68
(lp1265
S'::ffff:127.0.0.1'
p1266
asbasbasbag61
(g77
g63
NtRp1267
(dp1268
g66
(dp1269
sg75
g1224
sg68
(lp1270
g61
(g82
g63
NtRp1271
(dp1272
g66
(dp1273
sg75
g1267
sg68
(lp1274
g61
(g62
g63
NtRp1275
(dp1276
g66
(dp1277
g74
I3
ssg75
g1271
sg68
(lp1278
S'127.0.0.1'
p1279
asbasbasbag61
(g77
g63
NtRp1280
(dp1281
g66
(dp1282
sg75
g1224
sg68
(lp1283
g61
(g82
g63
NtRp1284
(dp1285
g66
(dp1286
sg75
g1280
sg68
(lp1287
g61
(g62
g63
NtRp1288
(dp1289
g66
(dp1290
g74
I3
ssg75
g1284
sg68
(lp1291
S'hntvlan531.0924.wlan.wireless-pennnet.upenn.edu'
p1292
asbasbasbasbasbasbasbag61
(g77
g63
NtRp1293
(dp1294
g66
(dp1295
sg75
g802
sg68
(lp1296
g61
(g82
g63
NtRp1297
(dp1298
g66
(dp1299
g86
g87
ssg75
g1293
sg68
(lp1300
S'path_info'
p1301
asbag61
(g82
g63
NtRp1302
(dp1303
g66
(dp1304
g93
g94
ssg75
g1293
sg68
(lp1305
S':'
asbag61
(g82
g63
NtRp1306
(dp1307
g66
(dp1308
sg75
g1293
sg68
(lp1309
g61
(g62
g63
NtRp1310
(dp1311
g66
(dp1312
g74
I4
ssg75
g1306
sg68
(lp1313
S'/hellow/game/show/1'
p1314
asbasbasbag61
(g77
g63
NtRp1315
(dp1316
g66
(dp1317
sg75
g802
sg68
(lp1318
g61
(g82
g63
NtRp1319
(dp1320
g66
(dp1321
g86
g87
ssg75
g1315
sg68
(lp1322
S'query_string'
p1323
asbag61
(g82
g63
NtRp1324
(dp1325
g66
(dp1326
g93
g94
ssg75
g1315
sg68
(lp1327
S':'
asbag61
(g82
g63
NtRp1328
(dp1329
g66
(dp1330
sg75
g1315
sg68
(lp1331
g61
(g62
g63
NtRp1332
(dp1333
g66
(dp1334
g74
I4
ssg75
g1328
sg68
(lp1335
S''
asbasbasbag61
(g77
g63
NtRp1336
(dp1337
g66
(dp1338
sg75
g802
sg68
(lp1339
g61
(g82
g63
NtRp1340
(dp1341
g66
(dp1342
g86
g87
ssg75
g1336
sg68
(lp1343
S'remote_addr'
p1344
asbag61
(g82
g63
NtRp1345
(dp1346
g66
(dp1347
g93
g94
ssg75
g1336
sg68
(lp1348
S':'
asbag61
(g82
g63
NtRp1349
(dp1350
g66
(dp1351
sg75
g1336
sg68
(lp1352
g61
(g62
g63
NtRp1353
(dp1354
g66
(dp1355
g74
I4
ssg75
g1349
sg68
(lp1356
g228
asbasbasbag61
(g77
g63
NtRp1357
(dp1358
g66
(dp1359
sg75
g802
sg68
(lp1360
g61
(g82
g63
NtRp1361
(dp1362
g66
(dp1363
g86
g87
ssg75
g1357
sg68
(lp1364
S'remote_port'
p1365
asbag61
(g82
g63
NtRp1366
(dp1367
g66
(dp1368
g93
g94
ssg75
g1357
sg68
(lp1369
S':'
asbag61
(g82
g63
NtRp1370
(dp1371
g66
(dp1372
sg75
g1357
sg68
(lp1373
g61
(g62
g63
NtRp1374
(dp1375
g66
(dp1376
g74
I4
ssg75
g1370
sg68
(lp1377
S'53107'
p1378
asbasbasbag61
(g77
g63
NtRp1379
(dp1380
g66
(dp1381
sg75
g802
sg68
(lp1382
g61
(g82
g63
NtRp1383
(dp1384
g66
(dp1385
g86
g87
ssg75
g1379
sg68
(lp1386
S'request_method'
p1387
asbag61
(g82
g63
NtRp1388
(dp1389
g66
(dp1390
g93
g94
ssg75
g1379
sg68
(lp1391
S':'
asbag61
(g82
g63
NtRp1392
(dp1393
g66
(dp1394
sg75
g1379
sg68
(lp1395
g61
(g62
g63
NtRp1396
(dp1397
g66
(dp1398
g74
I4
ssg75
g1392
sg68
(lp1399
S'GET'
p1400
asbasbasbag61
(g77
g63
NtRp1401
(dp1402
g66
(dp1403
sg75
g802
sg68
(lp1404
g61
(g82
g63
NtRp1405
(dp1406
g66
(dp1407
g86
g87
ssg75
g1401
sg68
(lp1408
S'request_uri'
p1409
asbag61
(g82
g63
NtRp1410
(dp1411
g66
(dp1412
g93
g94
ssg75
g1401
sg68
(lp1413
S':'
asbag61
(g82
g63
NtRp1414
(dp1415
g66
(dp1416
sg75
g1401
sg68
(lp1417
g61
(g62
g63
NtRp1418
(dp1419
g66
(dp1420
g74
I4
ssg75
g1414
sg68
(lp1421
g1314
asbasbasbag61
(g77
g63
NtRp1422
(dp1423
g66
(dp1424
sg75
g802
sg68
(lp1425
g61
(g82
g63
NtRp1426
(dp1427
g66
(dp1428
g86
g87
ssg75
g1422
sg68
(lp1429
S'script_name'
p1430
asbag61
(g82
g63
NtRp1431
(dp1432
g66
(dp1433
g93
g94
ssg75
g1422
sg68
(lp1434
S':'
asbag61
(g82
g63
NtRp1435
(dp1436
g66
(dp1437
sg75
g1422
sg68
(lp1438
g61
(g62
g63
NtRp1439
(dp1440
g66
(dp1441
g74
I4
ssg75
g1435
sg68
(lp1442
S''
asbasbasbag61
(g77
g63
NtRp1443
(dp1444
g66
(dp1445
sg75
g802
sg68
(lp1446
g61
(g82
g63
NtRp1447
(dp1448
g66
(dp1449
g86
g87
ssg75
g1443
sg68
(lp1450
S'server_name'
p1451
asbag61
(g82
g63
NtRp1452
(dp1453
g66
(dp1454
g93
g94
ssg75
g1443
sg68
(lp1455
S':'
asbag61
(g82
g63
NtRp1456
(dp1457
g66
(dp1458
sg75
g1443
sg68
(lp1459
g61
(g62
g63
NtRp1460
(dp1461
g66
(dp1462
g74
I4
ssg75
g1456
sg68
(lp1463
S'hntvlan531.0924.wlan.wireless-pennnet.upenn.edu'
p1464
asbasbasbag61
(g77
g63
NtRp1465
(dp1466
g66
(dp1467
sg75
g802
sg68
(lp1468
g61
(g82
g63
NtRp1469
(dp1470
g66
(dp1471
g86
g87
ssg75
g1465
sg68
(lp1472
S'server_port'
p1473
asbag61
(g82
g63
NtRp1474
(dp1475
g66
(dp1476
g93
g94
ssg75
g1465
sg68
(lp1477
S':'
asbag61
(g82
g63
NtRp1478
(dp1479
g66
(dp1480
sg75
g1465
sg68
(lp1481
g61
(g62
g63
NtRp1482
(dp1483
g66
(dp1484
g74
I4
ssg75
g1478
sg68
(lp1485
S'8887'
p1486
asbasbasbag61
(g77
g63
NtRp1487
(dp1488
g66
(dp1489
sg75
g802
sg68
(lp1490
g61
(g82
g63
NtRp1491
(dp1492
g66
(dp1493
g86
g87
ssg75
g1487
sg68
(lp1494
S'server_protocol'
p1495
asbag61
(g82
g63
NtRp1496
(dp1497
g66
(dp1498
g93
g94
ssg75
g1487
sg68
(lp1499
S':'
asbag61
(g82
g63
NtRp1500
(dp1501
g66
(dp1502
sg75
g1487
sg68
(lp1503
g61
(g62
g63
NtRp1504
(dp1505
g66
(dp1506
g74
I4
ssg75
g1500
sg68
(lp1507
S'HTTP/1.1'
p1508
asbasbasbag61
(g77
g63
NtRp1509
(dp1510
g66
(dp1511
sg75
g802
sg68
(lp1512
g61
(g82
g63
NtRp1513
(dp1514
g66
(dp1515
g86
g87
ssg75
g1509
sg68
(lp1516
S'server_software'
p1517
asbag61
(g82
g63
NtRp1518
(dp1519
g66
(dp1520
g93
g94
ssg75
g1509
sg68
(lp1521
S':'
asbag61
(g82
g63
NtRp1522
(dp1523
g66
(dp1524
sg75
g1509
sg68
(lp1525
g61
(g62
g63
NtRp1526
(dp1527
g66
(dp1528
g74
I4
ssg75
g1522
sg68
(lp1529
S'Rocket 1.2.6'
p1530
asbasbasbag61
(g77
g63
NtRp1531
(dp1532
g66
(dp1533
sg75
g802
sg68
(lp1534
g61
(g82
g63
NtRp1535
(dp1536
g66
(dp1537
g86
g87
ssg75
g1531
sg68
(lp1538
S'web2py_path'
p1539
asbag61
(g82
g63
NtRp1540
(dp1541
g66
(dp1542
g93
g94
ssg75
g1531
sg68
(lp1543
S':'
asbag61
(g82
g63
NtRp1544
(dp1545
g66
(dp1546
sg75
g1531
sg68
(lp1547
g61
(g62
g63
NtRp1548
(dp1549
g66
(dp1550
g74
I4
ssg75
g1544
sg68
(lp1551
g849
asbasbasbag61
(g77
g63
NtRp1552
(dp1553
g66
(dp1554
sg75
g802
sg68
(lp1555
g61
(g82
g63
NtRp1556
(dp1557
g66
(dp1558
g86
g87
ssg75
g1552
sg68
(lp1559
S'web2py_version'
p1560
asbag61
(g82
g63
NtRp1561
(dp1562
g66
(dp1563
g93
g94
ssg75
g1552
sg68
(lp1564
S':'
asbag61
(g82
g63
NtRp1565
(dp1566
g66
(dp1567
sg75
g1552
sg68
(lp1568
g61
(g62
g63
NtRp1569
(dp1570
g66
(dp1571
g74
I4
ssg75
g1565
sg68
(lp1572
g61
(g70
g63
NtRp1573
(dp1574
g66
(dp1575
g74
I3
ssg75
Nsg68
(lp1576
g61
(g77
g63
NtRp1577
(dp1578
g66
(dp1579
sg75
g1573
sg68
(lp1580
g61
(g82
g63
NtRp1581
(dp1582
g66
(dp1583
sg75
g1577
sg68
(lp1584
g61
(g62
g63
NtRp1585
(dp1586
g66
(dp1587
g74
I3
ssg75
g1581
sg68
(lp1588
S'2'
asbasbasbag61
(g77
g63
NtRp1589
(dp1590
g66
(dp1591
sg75
g1573
sg68
(lp1592
g61
(g82
g63
NtRp1593
(dp1594
g66
(dp1595
sg75
g1589
sg68
(lp1596
g61
(g62
g63
NtRp1597
(dp1598
g66
(dp1599
g74
I3
ssg75
g1593
sg68
(lp1600
S'4'
asbasbasbag61
(g77
g63
NtRp1601
(dp1602
g66
(dp1603
sg75
g1573
sg68
(lp1604
g61
(g82
g63
NtRp1605
(dp1606
g66
(dp1607
sg75
g1601
sg68
(lp1608
g61
(g62
g63
NtRp1609
(dp1610
g66
(dp1611
g74
I3
ssg75
g1605
sg68
(lp1612
S'5'
asbasbasbag61
(g77
g63
NtRp1613
(dp1614
g66
(dp1615
sg75
g1573
sg68
(lp1616
g61
(g82
g63
NtRp1617
(dp1618
g66
(dp1619
sg75
g1613
sg68
(lp1620
g61
(g62
g63
NtRp1621
(dp1622
g66
(dp1623
g74
I3
ssg75
g1617
sg68
(lp1624
S'stable'
p1625
asbasbasbag61
(g77
g63
NtRp1626
(dp1627
g66
(dp1628
sg75
g1573
sg68
(lp1629
g61
(g82
g63
NtRp1630
(dp1631
g66
(dp1632
sg75
g1626
sg68
(lp1633
g61
(g62
g63
NtRp1634
(dp1635
g66
(dp1636
g74
I3
ssg75
g1630
sg68
(lp1637
S'datetime.datetime(2013, 3, 18, 22, 46, 22)'
p1638
asbasbasbasbasbasbasbag61
(g77
g63
NtRp1639
(dp1640
g66
(dp1641
sg75
g802
sg68
(lp1642
g61
(g82
g63
NtRp1643
(dp1644
g66
(dp1645
g86
g87
ssg75
g1639
sg68
(lp1646
S'wsgi_errors'
p1647
asbag61
(g82
g63
NtRp1648
(dp1649
g66
(dp1650
g93
g94
ssg75
g1639
sg68
(lp1651
S':'
asbag61
(g82
g63
NtRp1652
(dp1653
g66
(dp1654
sg75
g1639
sg68
(lp1655
g61
(g62
g63
NtRp1656
(dp1657
g66
(dp1658
g74
I4
ssg75
g1652
sg68
(lp1659
S"<open file '<stderr>', mode 'w' at 0x540b0>"
p1660
asbasbasbag61
(g77
g63
NtRp1661
(dp1662
g66
(dp1663
sg75
g802
sg68
(lp1664
g61
(g82
g63
NtRp1665
(dp1666
g66
(dp1667
g86
g87
ssg75
g1661
sg68
(lp1668
S'wsgi_file_wrapper'
p1669
asbag61
(g82
g63
NtRp1670
(dp1671
g66
(dp1672
g93
g94
ssg75
g1661
sg68
(lp1673
S':'
asbag61
(g82
g63
NtRp1674
(dp1675
g66
(dp1676
sg75
g1661
sg68
(lp1677
g61
(g62
g63
NtRp1678
(dp1679
g66
(dp1680
g74
I4
ssg75
g1674
sg68
(lp1681
S'<class wsgiref.util.FileWrapper at 0x329d060>'
p1682
asbasbasbag61
(g77
g63
NtRp1683
(dp1684
g66
(dp1685
sg75
g802
sg68
(lp1686
g61
(g82
g63
NtRp1687
(dp1688
g66
(dp1689
g86
g87
ssg75
g1683
sg68
(lp1690
S'wsgi_input'
p1691
asbag61
(g82
g63
NtRp1692
(dp1693
g66
(dp1694
g93
g94
ssg75
g1683
sg68
(lp1695
S':'
asbag61
(g82
g63
NtRp1696
(dp1697
g66
(dp1698
sg75
g1683
sg68
(lp1699
g61
(g62
g63
NtRp1700
(dp1701
g66
(dp1702
g74
I4
ssg75
g1696
sg68
(lp1703
S'<socket._fileobject object at 0xa29bcf0>'
p1704
asbasbasbag61
(g77
g63
NtRp1705
(dp1706
g66
(dp1707
sg75
g802
sg68
(lp1708
g61
(g82
g63
NtRp1709
(dp1710
g66
(dp1711
g86
g87
ssg75
g1705
sg68
(lp1712
S'wsgi_multiprocess'
p1713
asbag61
(g82
g63
NtRp1714
(dp1715
g66
(dp1716
g93
g94
ssg75
g1705
sg68
(lp1717
S':'
asbag61
(g82
g63
NtRp1718
(dp1719
g66
(dp1720
sg75
g1705
sg68
(lp1721
g61
(g62
g63
NtRp1722
(dp1723
g66
(dp1724
g74
I4
ssg75
g1718
sg68
(lp1725
g104
asbasbasbag61
(g77
g63
NtRp1726
(dp1727
g66
(dp1728
sg75
g802
sg68
(lp1729
g61
(g82
g63
NtRp1730
(dp1731
g66
(dp1732
g86
g87
ssg75
g1726
sg68
(lp1733
S'wsgi_multithread'
p1734
asbag61
(g82
g63
NtRp1735
(dp1736
g66
(dp1737
g93
g94
ssg75
g1726
sg68
(lp1738
S':'
asbag61
(g82
g63
NtRp1739
(dp1740
g66
(dp1741
sg75
g1726
sg68
(lp1742
g61
(g62
g63
NtRp1743
(dp1744
g66
(dp1745
g74
I4
ssg75
g1739
sg68
(lp1746
g940
asbasbasbag61
(g77
g63
NtRp1747
(dp1748
g66
(dp1749
sg75
g802
sg68
(lp1750
g61
(g82
g63
NtRp1751
(dp1752
g66
(dp1753
g86
g87
ssg75
g1747
sg68
(lp1754
S'wsgi_run_once'
p1755
asbag61
(g82
g63
NtRp1756
(dp1757
g66
(dp1758
g93
g94
ssg75
g1747
sg68
(lp1759
S':'
asbag61
(g82
g63
NtRp1760
(dp1761
g66
(dp1762
sg75
g1747
sg68
(lp1763
g61
(g62
g63
NtRp1764
(dp1765
g66
(dp1766
g74
I4
ssg75
g1760
sg68
(lp1767
g104
asbasbasbag61
(g77
g63
NtRp1768
(dp1769
g66
(dp1770
sg75
g802
sg68
(lp1771
g61
(g82
g63
NtRp1772
(dp1773
g66
(dp1774
g86
g87
ssg75
g1768
sg68
(lp1775
S'wsgi_url_scheme'
p1776
asbag61
(g82
g63
NtRp1777
(dp1778
g66
(dp1779
g93
g94
ssg75
g1768
sg68
(lp1780
S':'
asbag61
(g82
g63
NtRp1781
(dp1782
g66
(dp1783
sg75
g1768
sg68
(lp1784
g61
(g62
g63
NtRp1785
(dp1786
g66
(dp1787
g74
I4
ssg75
g1781
sg68
(lp1788
S'http'
p1789
asbasbasbag61
(g77
g63
NtRp1790
(dp1791
g66
(dp1792
sg75
g802
sg68
(lp1793
g61
(g82
g63
NtRp1794
(dp1795
g66
(dp1796
g86
g87
ssg75
g1790
sg68
(lp1797
S'wsgi_version'
p1798
asbag61
(g82
g63
NtRp1799
(dp1800
g66
(dp1801
g93
g94
ssg75
g1790
sg68
(lp1802
S':'
asbag61
(g82
g63
NtRp1803
(dp1804
g66
(dp1805
sg75
g1790
sg68
(lp1806
g61
(g62
g63
NtRp1807
(dp1808
g66
(dp1809
g74
I4
ssg75
g1803
sg68
(lp1810
g61
(g70
g63
NtRp1811
(dp1812
g66
(dp1813
g74
I3
ssg75
Nsg68
(lp1814
g61
(g77
g63
NtRp1815
(dp1816
g66
(dp1817
sg75
g1811
sg68
(lp1818
g61
(g82
g63
NtRp1819
(dp1820
g66
(dp1821
sg75
g1815
sg68
(lp1822
g61
(g62
g63
NtRp1823
(dp1824
g66
(dp1825
g74
I3
ssg75
g1819
sg68
(lp1826
S'1'
asbasbasbag61
(g77
g63
NtRp1827
(dp1828
g66
(dp1829
sg75
g1811
sg68
(lp1830
g61
(g82
g63
NtRp1831
(dp1832
g66
(dp1833
sg75
g1827
sg68
(lp1834
g61
(g62
g63
NtRp1835
(dp1836
g66
(dp1837
g74
I3
ssg75
g1831
sg68
(lp1838
S'0'
asbasbasbasbasbasbasbasbasbasbasbag61
(g77
g63
NtRp1839
(dp1840
g66
(dp1841
sg75
g71
sg68
(lp1842
g61
(g82
g63
NtRp1843
(dp1844
g66
(dp1845
g86
g87
ssg75
g1839
sg68
(lp1846
S'extension'
p1847
asbag61
(g82
g63
NtRp1848
(dp1849
g66
(dp1850
g93
g94
ssg75
g1839
sg68
(lp1851
S':'
asbag61
(g82
g63
NtRp1852
(dp1853
g66
(dp1854
sg75
g1839
sg68
(lp1855
g61
(g62
g63
NtRp1856
(dp1857
g66
(dp1858
g74
I5
ssg75
g1852
sg68
(lp1859
S'html'
p1860
asbasbasbag61
(g77
g63
NtRp1861
(dp1862
g66
(dp1863
sg75
g71
sg68
(lp1864
g61
(g82
g63
NtRp1865
(dp1866
g66
(dp1867
g86
g87
ssg75
g1861
sg68
(lp1868
S'folder'
p1869
asbag61
(g82
g63
NtRp1870
(dp1871
g66
(dp1872
g93
g94
ssg75
g1861
sg68
(lp1873
S':'
asbag61
(g82
g63
NtRp1874
(dp1875
g66
(dp1876
sg75
g1861
sg68
(lp1877
g61
(g62
g63
NtRp1878
(dp1879
g66
(dp1880
g74
I5
ssg75
g1874
sg68
(lp1881
S'/Users/zamechek/Downloads/web2py/web2py.app/Contents/Resources/applications/hellow/'
p1882
asbasbasbag61
(g77
g63
NtRp1883
(dp1884
g66
(dp1885
sg75
g71
sg68
(lp1886
g61
(g82
g63
NtRp1887
(dp1888
g66
(dp1889
g86
g87
ssg75
g1883
sg68
(lp1890
S'function'
p1891
asbag61
(g82
g63
NtRp1892
(dp1893
g66
(dp1894
g93
g94
ssg75
g1883
sg68
(lp1895
S':'
asbag61
(g82
g63
NtRp1896
(dp1897
g66
(dp1898
sg75
g1883
sg68
(lp1899
g61
(g62
g63
NtRp1900
(dp1901
g66
(dp1902
g74
I5
ssg75
g1896
sg68
(lp1903
S'show'
p1904
asbasbasbag61
(g77
g63
NtRp1905
(dp1906
g66
(dp1907
sg75
g71
sg68
(lp1908
g61
(g82
g63
NtRp1909
(dp1910
g66
(dp1911
g86
g87
ssg75
g1905
sg68
(lp1912
S'get_vars'
p1913
asbag61
(g82
g63
NtRp1914
(dp1915
g66
(dp1916
g93
g94
ssg75
g1905
sg68
(lp1917
S':'
asbag61
(g82
g63
NtRp1918
(dp1919
g66
(dp1920
sg75
g1905
sg68
(lp1921
g61
(g62
g63
NtRp1922
(dp1923
g66
(dp1924
g74
I5
ssg75
g1918
sg68
(lp1925
g61
(g70
g63
NtRp1926
(dp1927
g66
(dp1928
g74
I4
ssg75
Nsg68
(lp1929
sbasbasbasbag61
(g77
g63
NtRp1930
(dp1931
g66
(dp1932
sg75
g71
sg68
(lp1933
g61
(g82
g63
NtRp1934
(dp1935
g66
(dp1936
g86
g87
ssg75
g1930
sg68
(lp1937
S'global_settings'
p1938
asbag61
(g82
g63
NtRp1939
(dp1940
g66
(dp1941
g93
g94
ssg75
g1930
sg68
(lp1942
S':'
asbag61
(g82
g63
NtRp1943
(dp1944
g66
(dp1945
sg75
g1930
sg68
(lp1946
g61
(g62
g63
NtRp1947
(dp1948
g66
(dp1949
g74
I5
ssg75
g1943
sg68
(lp1950
g61
(g70
g63
NtRp1951
(dp1952
g66
(dp1953
g74
I4
ssg75
Nsg68
(lp1954
g61
(g77
g63
NtRp1955
(dp1956
g66
(dp1957
sg75
g1951
sg68
(lp1958
g61
(g82
g63
NtRp1959
(dp1960
g66
(dp1961
g86
g87
ssg75
g1955
sg68
(lp1962
g814
asbag61
(g82
g63
NtRp1963
(dp1964
g66
(dp1965
g93
g94
ssg75
g1955
sg68
(lp1966
S':'
asbag61
(g82
g63
NtRp1967
(dp1968
g66
(dp1969
sg75
g1955
sg68
(lp1970
g61
(g62
g63
NtRp1971
(dp1972
g66
(dp1973
g74
I4
ssg75
g1967
sg68
(lp1974
S"set(['/Users/zamechek/Downloads/web2py/web2py.app/Contents/Resources/applications/examples/', '/Users/zamechek/Downloads/web2py/web2py.app/Contents/Resources/applications/hellow/', '/Users/zamechek/Downloads/web2py/web2py.app/Contents/Resources/applications/admin/', '/Users/zamechek/Downloads/web2py/web2py.app/Contents/Resources/applications/slots/', '/Users/zamechek/Downloads/web2py/web2py.app/Contents/Resources/applications/welcome/'])"
p1975
asbasbasbag61
(g77
g63
NtRp1976
(dp1977
g66
(dp1978
sg75
g1951
sg68
(lp1979
g61
(g82
g63
NtRp1980
(dp1981
g66
(dp1982
g86
g87
ssg75
g1976
sg68
(lp1983
g836
asbag61
(g82
g63
NtRp1984
(dp1985
g66
(dp1986
g93
g94
ssg75
g1976
sg68
(lp1987
S':'
asbag61
(g82
g63
NtRp1988
(dp1989
g66
(dp1990
sg75
g1976
sg68
(lp1991
g61
(g62
g63
NtRp1992
(dp1993
g66
(dp1994
g74
I4
ssg75
g1988
sg68
(lp1995
g849
asbasbasbag61
(g77
g63
NtRp1996
(dp1997
g66
(dp1998
sg75
g1951
sg68
(lp1999
g61
(g82
g63
NtRp2000
(dp2001
g66
(dp2002
g86
g87
ssg75
g1996
sg68
(lp2003
g858
asbag61
(g82
g63
NtRp2004
(dp2005
g66
(dp2006
g93
g94
ssg75
g1996
sg68
(lp2007
S':'
asbag61
(g82
g63
NtRp2008
(dp2009
g66
(dp2010
sg75
g1996
sg68
(lp2011
g61
(g62
g63
NtRp2012
(dp2013
g66
(dp2014
g74
I4
ssg75
g2008
sg68
(lp2015
g61
(g70
g63
NtRp2016
(dp2017
g66
(dp2018
g74
I3
ssg75
Nsg68
(lp2019
sbasbasbasbag61
(g77
g63
NtRp2020
(dp2021
g66
(dp2022
sg75
g1951
sg68
(lp2023
g61
(g82
g63
NtRp2024
(dp2025
g66
(dp2026
g86
g87
ssg75
g2020
sg68
(lp2027
g883
asbag61
(g82
g63
NtRp2028
(dp2029
g66
(dp2030
g93
g94
ssg75
g2020
sg68
(lp2031
S':'
asbag61
(g82
g63
NtRp2032
(dp2033
g66
(dp2034
sg75
g2020
sg68
(lp2035
g61
(g62
g63
NtRp2036
(dp2037
g66
(dp2038
g74
I4
ssg75
g2032
sg68
(lp2039
S"<Values at 0x32c8f58: {'verbose': False, 'ip': '127.0.0.1', 'with_scheduler': False, 'ips': ['130.91.151.157'], 'shutdown_timeout': 5, 'taskbar': False, 'port': 8000, 'maxthreads': None, 'softcron': False, 'server_name': 'hntvlan531.0924.wlan.wireless-pennnet.upenn.edu', 'bpython': False, 'nogui': False, 'pid_filename': 'httpserver.pid', 'extcron': False, 'runcron': False, 'run_system_tests': False, 'test': None, 'folder': '/Users/zamechek/Downloads/web2py/web2py.app/Contents/Resources', 'config': '', 'import_models': False, 'winservice': '', 'shell': None, 'run': '', 'log_filename': 'httpserver.log', 'debuglevel': 30, 'args': [''], 'socket_timeout': 5, 'ssl_ca_certificate': None, 'scheduler': None, 'profiler_filename': None, 'ssl_private_key': '', 'scheduler_groups': None, 'password': '<ask>', 'request_queue_size': 5, 'ssl_certificate': '', 'cronjob': False, 'numthreads': None, 'quiet': False, 'interfaces': None, 'minthreads': None, 'timeout': 10, 'plain': False, 'nobanner': False}>"
p2040
asbasbasbag61
(g77
g63
NtRp2041
(dp2042
g66
(dp2043
sg75
g1951
sg68
(lp2044
g61
(g82
g63
NtRp2045
(dp2046
g66
(dp2047
g86
g87
ssg75
g2041
sg68
(lp2048
g905
asbag61
(g82
g63
NtRp2049
(dp2050
g66
(dp2051
g93
g94
ssg75
g2041
sg68
(lp2052
S':'
asbag61
(g82
g63
NtRp2053
(dp2054
g66
(dp2055
sg75
g2041
sg68
(lp2056
g61
(g62
g63
NtRp2057
(dp2058
g66
(dp2059
g74
I4
ssg75
g2053
sg68
(lp2060
S'set([])'
p2061
asbasbasbag61
(g77
g63
NtRp2062
(dp2063
g66
(dp2064
sg75
g1951
sg68
(lp2065
g61
(g82
g63
NtRp2066
(dp2067
g66
(dp2068
g86
g87
ssg75
g2062
sg68
(lp2069
g927
asbag61
(g82
g63
NtRp2070
(dp2071
g66
(dp2072
g93
g94
ssg75
g2062
sg68
(lp2073
S':'
asbag61
(g82
g63
NtRp2074
(dp2075
g66
(dp2076
sg75
g2062
sg68
(lp2077
g61
(g62
g63
NtRp2078
(dp2079
g66
(dp2080
g74
I4
ssg75
g2074
sg68
(lp2081
g940
asbasbasbag61
(g77
g63
NtRp2082
(dp2083
g66
(dp2084
sg75
g1951
sg68
(lp2085
g61
(g82
g63
NtRp2086
(dp2087
g66
(dp2088
g86
g87
ssg75
g2082
sg68
(lp2089
g949
asbag61
(g82
g63
NtRp2090
(dp2091
g66
(dp2092
g93
g94
ssg75
g2082
sg68
(lp2093
S':'
asbag61
(g82
g63
NtRp2094
(dp2095
g66
(dp2096
sg75
g2082
sg68
(lp2097
g61
(g62
g63
NtRp2098
(dp2099
g66
(dp2100
g74
I4
ssg75
g2094
sg68
(lp2101
g962
asbasbasbag61
(g77
g63
NtRp2102
(dp2103
g66
(dp2104
sg75
g1951
sg68
(lp2105
g61
(g82
g63
NtRp2106
(dp2107
g66
(dp2108
g86
g87
ssg75
g2102
sg68
(lp2109
g1169
asbag61
(g82
g63
NtRp2110
(dp2111
g66
(dp2112
g93
g94
ssg75
g2102
sg68
(lp2113
S':'
asbag61
(g82
g63
NtRp2114
(dp2115
g66
(dp2116
sg75
g2102
sg68
(lp2117
g61
(g62
g63
NtRp2118
(dp2119
g66
(dp2120
g74
I4
ssg75
g2114
sg68
(lp2121
g104
asbasbasbag61
(g77
g63
NtRp2122
(dp2123
g66
(dp2124
sg75
g1951
sg68
(lp2125
g61
(g82
g63
NtRp2126
(dp2127
g66
(dp2128
g86
g87
ssg75
g2122
sg68
(lp2129
g1190
asbag61
(g82
g63
NtRp2130
(dp2131
g66
(dp2132
g93
g94
ssg75
g2122
sg68
(lp2133
S':'
asbag61
(g82
g63
NtRp2134
(dp2135
g66
(dp2136
sg75
g2122
sg68
(lp2137
g61
(g62
g63
NtRp2138
(dp2139
g66
(dp2140
g74
I4
ssg75
g2134
sg68
(lp2141
g104
asbasbasbag61
(g77
g63
NtRp2142
(dp2143
g66
(dp2144
sg75
g1951
sg68
(lp2145
g61
(g82
g63
NtRp2146
(dp2147
g66
(dp2148
g86
g87
ssg75
g2142
sg68
(lp2149
g1211
asbag61
(g82
g63
NtRp2150
(dp2151
g66
(dp2152
g93
g94
ssg75
g2142
sg68
(lp2153
S':'
asbag61
(g82
g63
NtRp2154
(dp2155
g66
(dp2156
sg75
g2142
sg68
(lp2157
g61
(g62
g63
NtRp2158
(dp2159
g66
(dp2160
g74
I4
ssg75
g2154
sg68
(lp2161
g61
(g70
g63
NtRp2162
(dp2163
g66
(dp2164
g74
I3
ssg75
Nsg68
(lp2165
g61
(g77
g63
NtRp2166
(dp2167
g66
(dp2168
sg75
g2162
sg68
(lp2169
g61
(g82
g63
NtRp2170
(dp2171
g66
(dp2172
sg75
g2166
sg68
(lp2173
g61
(g62
g63
NtRp2174
(dp2175
g66
(dp2176
g74
I3
ssg75
g2170
sg68
(lp2177
g1240
asbasbasbag61
(g77
g63
NtRp2178
(dp2179
g66
(dp2180
sg75
g2162
sg68
(lp2181
g61
(g82
g63
NtRp2182
(dp2183
g66
(dp2184
sg75
g2178
sg68
(lp2185
g61
(g62
g63
NtRp2186
(dp2187
g66
(dp2188
g74
I3
ssg75
g2182
sg68
(lp2189
g1253
asbasbasbag61
(g77
g63
NtRp2190
(dp2191
g66
(dp2192
sg75
g2162
sg68
(lp2193
g61
(g82
g63
NtRp2194
(dp2195
g66
(dp2196
sg75
g2190
sg68
(lp2197
g61
(g62
g63
NtRp2198
(dp2199
g66
(dp2200
g74
I3
ssg75
g2194
sg68
(lp2201
g1266
asbasbasbag61
(g77
g63
NtRp2202
(dp2203
g66
(dp2204
sg75
g2162
sg68
(lp2205
g61
(g82
g63
NtRp2206
(dp2207
g66
(dp2208
sg75
g2202
sg68
(lp2209
g61
(g62
g63
NtRp2210
(dp2211
g66
(dp2212
g74
I3
ssg75
g2206
sg68
(lp2213
g1279
asbasbasbag61
(g77
g63
NtRp2214
(dp2215
g66
(dp2216
sg75
g2162
sg68
(lp2217
g61
(g82
g63
NtRp2218
(dp2219
g66
(dp2220
sg75
g2214
sg68
(lp2221
g61
(g62
g63
NtRp2222
(dp2223
g66
(dp2224
g74
I3
ssg75
g2218
sg68
(lp2225
g1292
asbasbasbasbasbasbasbag61
(g77
g63
NtRp2226
(dp2227
g66
(dp2228
sg75
g1951
sg68
(lp2229
g61
(g82
g63
NtRp2230
(dp2231
g66
(dp2232
g86
g87
ssg75
g2226
sg68
(lp2233
g1560
asbag61
(g82
g63
NtRp2234
(dp2235
g66
(dp2236
g93
g94
ssg75
g2226
sg68
(lp2237
S':'
asbag61
(g82
g63
NtRp2238
(dp2239
g66
(dp2240
sg75
g2226
sg68
(lp2241
g61
(g62
g63
NtRp2242
(dp2243
g66
(dp2244
g74
I4
ssg75
g2238
sg68
(lp2245
g61
(g70
g63
NtRp2246
(dp2247
g66
(dp2248
g74
I3
ssg75
Nsg68
(lp2249
g61
(g77
g63
NtRp2250
(dp2251
g66
(dp2252
sg75
g2246
sg68
(lp2253
g61
(g82
g63
NtRp2254
(dp2255
g66
(dp2256
sg75
g2250
sg68
(lp2257
g61
(g62
g63
NtRp2258
(dp2259
g66
(dp2260
g74
I3
ssg75
g2254
sg68
(lp2261
S'2'
asbasbasbag61
(g77
g63
NtRp2262
(dp2263
g66
(dp2264
sg75
g2246
sg68
(lp2265
g61
(g82
g63
NtRp2266
(dp2267
g66
(dp2268
sg75
g2262
sg68
(lp2269
g61
(g62
g63
NtRp2270
(dp2271
g66
(dp2272
g74
I3
ssg75
g2266
sg68
(lp2273
S'4'
asbasbasbag61
(g77
g63
NtRp2274
(dp2275
g66
(dp2276
sg75
g2246
sg68
(lp2277
g61
(g82
g63
NtRp2278
(dp2279
g66
(dp2280
sg75
g2274
sg68
(lp2281
g61
(g62
g63
NtRp2282
(dp2283
g66
(dp2284
g74
I3
ssg75
g2278
sg68
(lp2285
S'5'
asbasbasbag61
(g77
g63
NtRp2286
(dp2287
g66
(dp2288
sg75
g2246
sg68
(lp2289
g61
(g82
g63
NtRp2290
(dp2291
g66
(dp2292
sg75
g2286
sg68
(lp2293
g61
(g62
g63
NtRp2294
(dp2295
g66
(dp2296
g74
I3
ssg75
g2290
sg68
(lp2297
g1625
asbasbasbag61
(g77
g63
NtRp2298
(dp2299
g66
(dp2300
sg75
g2246
sg68
(lp2301
g61
(g82
g63
NtRp2302
(dp2303
g66
(dp2304
sg75
g2298
sg68
(lp2305
g61
(g62
g63
NtRp2306
(dp2307
g66
(dp2308
g74
I3
ssg75
g2302
sg68
(lp2309
S'datetime.datetime(2013, 3, 18, 22, 46, 22)'
p2310
asbasbasbasbasbasbasbasbasbasbasbag61
(g77
g63
NtRp2311
(dp2312
g66
(dp2313
sg75
g71
sg68
(lp2314
g61
(g82
g63
NtRp2315
(dp2316
g66
(dp2317
g86
g87
ssg75
g2311
sg68
(lp2318
S'is_https'
p2319
asbag61
(g82
g63
NtRp2320
(dp2321
g66
(dp2322
g93
g94
ssg75
g2311
sg68
(lp2323
S':'
asbag61
(g82
g63
NtRp2324
(dp2325
g66
(dp2326
sg75
g2311
sg68
(lp2327
g61
(g62
g63
NtRp2328
(dp2329
g66
(dp2330
g74
I5
ssg75
g2324
sg68
(lp2331
g104
asbasbasbag61
(g77
g63
NtRp2332
(dp2333
g66
(dp2334
sg75
g71
sg68
(lp2335
g61
(g82
g63
NtRp2336
(dp2337
g66
(dp2338
g86
g87
ssg75
g2332
sg68
(lp2339
S'is_local'
p2340
asbag61
(g82
g63
NtRp2341
(dp2342
g66
(dp2343
g93
g94
ssg75
g2332
sg68
(lp2344
S':'
asbag61
(g82
g63
NtRp2345
(dp2346
g66
(dp2347
sg75
g2332
sg68
(lp2348
g61
(g62
g63
NtRp2349
(dp2350
g66
(dp2351
g74
I5
ssg75
g2345
sg68
(lp2352
g940
asbasbasbag61
(g77
g63
NtRp2353
(dp2354
g66
(dp2355
sg75
g71
sg68
(lp2356
g61
(g82
g63
NtRp2357
(dp2358
g66
(dp2359
g86
g87
ssg75
g2353
sg68
(lp2360
S'is_restful'
p2361
asbag61
(g82
g63
NtRp2362
(dp2363
g66
(dp2364
g93
g94
ssg75
g2353
sg68
(lp2365
S':'
asbag61
(g82
g63
NtRp2366
(dp2367
g66
(dp2368
sg75
g2353
sg68
(lp2369
g61
(g62
g63
NtRp2370
(dp2371
g66
(dp2372
g74
I5
ssg75
g2366
sg68
(lp2373
g104
asbasbasbag61
(g77
g63
NtRp2374
(dp2375
g66
(dp2376
sg75
g71
sg68
(lp2377
g61
(g82
g63
NtRp2378
(dp2379
g66
(dp2380
g86
g87
ssg75
g2374
sg68
(lp2381
S'now'
p2382
asbag61
(g82
g63
NtRp2383
(dp2384
g66
(dp2385
g93
g94
ssg75
g2374
sg68
(lp2386
S':'
asbag61
(g82
g63
NtRp2387
(dp2388
g66
(dp2389
sg75
g2374
sg68
(lp2390
g61
(g62
g63
NtRp2391
(dp2392
g66
(dp2393
g74
I5
ssg75
g2387
sg68
(lp2394
S'datetime.datetime(2013, 3, 26, 12, 52, 56, 704628)'
p2395
asbasbasbag61
(g77
g63
NtRp2396
(dp2397
g66
(dp2398
sg75
g71
sg68
(lp2399
g61
(g82
g63
NtRp2400
(dp2401
g66
(dp2402
g86
g87
ssg75
g2396
sg68
(lp2403
S'post_vars'
p2404
asbag61
(g82
g63
NtRp2405
(dp2406
g66
(dp2407
g93
g94
ssg75
g2396
sg68
(lp2408
S':'
asbag61
(g82
g63
NtRp2409
(dp2410
g66
(dp2411
sg75
g2396
sg68
(lp2412
g61
(g62
g63
NtRp2413
(dp2414
g66
(dp2415
g74
I5
ssg75
g2409
sg68
(lp2416
g61
(g70
g63
NtRp2417
(dp2418
g66
(dp2419
g74
I4
ssg75
Nsg68
(lp2420
sbasbasbasbag61
(g77
g63
NtRp2421
(dp2422
g66
(dp2423
sg75
g71
sg68
(lp2424
g61
(g82
g63
NtRp2425
(dp2426
g66
(dp2427
g86
g87
ssg75
g2421
sg68
(lp2428
S'raw_args'
p2429
asbag61
(g82
g63
NtRp2430
(dp2431
g66
(dp2432
g93
g94
ssg75
g2421
sg68
(lp2433
S':'
asbag61
(g82
g63
NtRp2434
(dp2435
g66
(dp2436
sg75
g2421
sg68
(lp2437
g61
(g62
g63
NtRp2438
(dp2439
g66
(dp2440
g74
I5
ssg75
g2434
sg68
(lp2441
S'1'
asbasbasbag61
(g77
g63
NtRp2442
(dp2443
g66
(dp2444
sg75
g71
sg68
(lp2445
g61
(g82
g63
NtRp2446
(dp2447
g66
(dp2448
g86
g87
ssg75
g2442
sg68
(lp2449
S'raw_extension'
p2450
asbag61
(g82
g63
NtRp2451
(dp2452
g66
(dp2453
g93
g94
ssg75
g2442
sg68
(lp2454
S':'
asbag61
(g82
g63
NtRp2455
(dp2456
g66
(dp2457
sg75
g2442
sg68
(lp2458
g61
(g62
g63
NtRp2459
(dp2460
g66
(dp2461
g74
I5
ssg75
g2455
sg68
(lp2462
S'None'
p2463
asbasbasbag61
(g77
g63
NtRp2464
(dp2465
g66
(dp2466
sg75
g71
sg68
(lp2467
g61
(g82
g63
NtRp2468
(dp2469
g66
(dp2470
g86
g87
ssg75
g2464
sg68
(lp2471
S'url'
p2472
asbag61
(g82
g63
NtRp2473
(dp2474
g66
(dp2475
g93
g94
ssg75
g2464
sg68
(lp2476
S':'
asbag61
(g82
g63
NtRp2477
(dp2478
g66
(dp2479
sg75
g2464
sg68
(lp2480
g61
(g62
g63
NtRp2481
(dp2482
g66
(dp2483
g74
I5
ssg75
g2477
sg68
(lp2484
g1314
asbasbasbag61
(g77
g63
NtRp2485
(dp2486
g66
(dp2487
sg75
g71
sg68
(lp2488
g61
(g82
g63
NtRp2489
(dp2490
g66
(dp2491
g86
g87
ssg75
g2485
sg68
(lp2492
S'utcnow'
p2493
asbag61
(g82
g63
NtRp2494
(dp2495
g66
(dp2496
g93
g94
ssg75
g2485
sg68
(lp2497
S':'
asbag61
(g82
g63
NtRp2498
(dp2499
g66
(dp2500
sg75
g2485
sg68
(lp2501
g61
(g62
g63
NtRp2502
(dp2503
g66
(dp2504
g74
I5
ssg75
g2498
sg68
(lp2505
S'datetime.datetime(2013, 3, 26, 16, 52, 56, 704641)'
p2506
asbasbasbag61
(g77
g63
NtRp2507
(dp2508
g66
(dp2509
sg75
g71
sg68
(lp2510
g61
(g82
g63
NtRp2511
(dp2512
g66
(dp2513
g86
g87
ssg75
g2507
sg68
(lp2514
S'uuid'
p2515
asbag61
(g82
g63
NtRp2516
(dp2517
g66
(dp2518
g93
g94
ssg75
g2507
sg68
(lp2519
S':'
asbag61
(g82
g63
NtRp2520
(dp2521
g66
(dp2522
sg75
g2507
sg68
(lp2523
g61
(g62
g63
NtRp2524
(dp2525
g66
(dp2526
g74
I5
ssg75
g2520
sg68
(lp2527
S'hellow/127.0.0.1.2013-03-26.12-52-56.83b4bfed-abdf-4793-b196-86e286503fb5'
p2528
asbasbasbag61
(g77
g63
NtRp2529
(dp2530
g66
(dp2531
sg75
g71
sg68
(lp2532
g61
(g82
g63
NtRp2533
(dp2534
g66
(dp2535
g86
g87
ssg75
g2529
sg68
(lp2536
S'vars'
p2537
asbag61
(g82
g63
NtRp2538
(dp2539
g66
(dp2540
g93
g94
ssg75
g2529
sg68
(lp2541
S':'
asbag61
(g82
g63
NtRp2542
(dp2543
g66
(dp2544
sg75
g2529
sg68
(lp2545
g61
(g62
g63
NtRp2546
(dp2547
g66
(dp2548
g74
I5
ssg75
g2542
sg68
(lp2549
g61
(g70
g63
NtRp2550
(dp2551
g66
(dp2552
g74
I4
ssg75
Nsg68
(lp2553
sbasbasbasbag61
(g77
g63
NtRp2554
(dp2555
g66
(dp2556
sg75
g71
sg68
(lp2557
g61
(g82
g63
NtRp2558
(dp2559
g66
(dp2560
g86
g87
ssg75
g2554
sg68
(lp2561
S'wsgi'
p2562
asbag61
(g82
g63
NtRp2563
(dp2564
g66
(dp2565
g93
g94
ssg75
g2554
sg68
(lp2566
S':'
asbag61
(g82
g63
NtRp2567
(dp2568
g66
(dp2569
sg75
g2554
sg68
(lp2570
g61
(g62
g63
NtRp2571
(dp2572
g66
(dp2573
g74
I5
ssg75
g2567
sg68
(lp2574
g61
(g70
g63
NtRp2575
(dp2576
g66
(dp2577
g74
I4
ssg75
Nsg68
(lp2578
g61
(g77
g63
NtRp2579
(dp2580
g66
(dp2581
sg75
g2575
sg68
(lp2582
g61
(g82
g63
NtRp2583
(dp2584
g66
(dp2585
g86
g87
ssg75
g2579
sg68
(lp2586
S'environ'
p2587
asbag61
(g82
g63
NtRp2588
(dp2589
g66
(dp2590
g93
g94
ssg75
g2579
sg68
(lp2591
S':'
asbag61
(g82
g63
NtRp2592
(dp2593
g66
(dp2594
sg75
g2579
sg68
(lp2595
g61
(g62
g63
NtRp2596
(dp2597
g66
(dp2598
g74
I4
ssg75
g2592
sg68
(lp2599
g61
(g70
g63
NtRp2600
(dp2601
g66
(dp2602
g74
I3
ssg75
Nsg68
(lp2603
g61
(g77
g63
NtRp2604
(dp2605
g66
(dp2606
sg75
g2600
sg68
(lp2607
g61
(g82
g63
NtRp2608
(dp2609
g66
(dp2610
g86
g87
ssg75
g2604
sg68
(lp2611
S'HTTP_ACCEPT'
p2612
asbag61
(g82
g63
NtRp2613
(dp2614
g66
(dp2615
g93
g94
ssg75
g2604
sg68
(lp2616
S':'
asbag61
(g82
g63
NtRp2617
(dp2618
g66
(dp2619
sg75
g2604
sg68
(lp2620
g61
(g62
g63
NtRp2621
(dp2622
g66
(dp2623
g74
I3
ssg75
g2617
sg68
(lp2624
g984
asbasbasbag61
(g77
g63
NtRp2625
(dp2626
g66
(dp2627
sg75
g2600
sg68
(lp2628
g61
(g82
g63
NtRp2629
(dp2630
g66
(dp2631
g86
g87
ssg75
g2625
sg68
(lp2632
S'HTTP_ACCEPT_CHARSET'
p2633
asbag61
(g82
g63
NtRp2634
(dp2635
g66
(dp2636
g93
g94
ssg75
g2625
sg68
(lp2637
S':'
asbag61
(g82
g63
NtRp2638
(dp2639
g66
(dp2640
sg75
g2625
sg68
(lp2641
g61
(g62
g63
NtRp2642
(dp2643
g66
(dp2644
g74
I3
ssg75
g2638
sg68
(lp2645
g1006
asbasbasbag61
(g77
g63
NtRp2646
(dp2647
g66
(dp2648
sg75
g2600
sg68
(lp2649
g61
(g82
g63
NtRp2650
(dp2651
g66
(dp2652
g86
g87
ssg75
g2646
sg68
(lp2653
S'HTTP_ACCEPT_ENCODING'
p2654
asbag61
(g82
g63
NtRp2655
(dp2656
g66
(dp2657
g93
g94
ssg75
g2646
sg68
(lp2658
S':'
asbag61
(g82
g63
NtRp2659
(dp2660
g66
(dp2661
sg75
g2646
sg68
(lp2662
g61
(g62
g63
NtRp2663
(dp2664
g66
(dp2665
g74
I3
ssg75
g2659
sg68
(lp2666
g1028
asbasbasbag61
(g77
g63
NtRp2667
(dp2668
g66
(dp2669
sg75
g2600
sg68
(lp2670
g61
(g82
g63
NtRp2671
(dp2672
g66
(dp2673
g86
g87
ssg75
g2667
sg68
(lp2674
S'HTTP_ACCEPT_LANGUAGE'
p2675
asbag61
(g82
g63
NtRp2676
(dp2677
g66
(dp2678
g93
g94
ssg75
g2667
sg68
(lp2679
S':'
asbag61
(g82
g63
NtRp2680
(dp2681
g66
(dp2682
sg75
g2667
sg68
(lp2683
g61
(g62
g63
NtRp2684
(dp2685
g66
(dp2686
g74
I3
ssg75
g2680
sg68
(lp2687
g1050
asbasbasbag61
(g77
g63
NtRp2688
(dp2689
g66
(dp2690
sg75
g2600
sg68
(lp2691
g61
(g82
g63
NtRp2692
(dp2693
g66
(dp2694
g86
g87
ssg75
g2688
sg68
(lp2695
S'HTTP_CACHE_CONTROL'
p2696
asbag61
(g82
g63
NtRp2697
(dp2698
g66
(dp2699
g93
g94
ssg75
g2688
sg68
(lp2700
S':'
asbag61
(g82
g63
NtRp2701
(dp2702
g66
(dp2703
sg75
g2688
sg68
(lp2704
g61
(g62
g63
NtRp2705
(dp2706
g66
(dp2707
g74
I3
ssg75
g2701
sg68
(lp2708
g1072
asbasbasbag61
(g77
g63
NtRp2709
(dp2710
g66
(dp2711
sg75
g2600
sg68
(lp2712
g61
(g82
g63
NtRp2713
(dp2714
g66
(dp2715
g86
g87
ssg75
g2709
sg68
(lp2716
S'HTTP_CONNECTION'
p2717
asbag61
(g82
g63
NtRp2718
(dp2719
g66
(dp2720
g93
g94
ssg75
g2709
sg68
(lp2721
S':'
asbag61
(g82
g63
NtRp2722
(dp2723
g66
(dp2724
sg75
g2709
sg68
(lp2725
g61
(g62
g63
NtRp2726
(dp2727
g66
(dp2728
g74
I3
ssg75
g2722
sg68
(lp2729
g1094
asbasbasbag61
(g77
g63
NtRp2730
(dp2731
g66
(dp2732
sg75
g2600
sg68
(lp2733
g61
(g82
g63
NtRp2734
(dp2735
g66
(dp2736
g86
g87
ssg75
g2730
sg68
(lp2737
S'HTTP_COOKIE'
p2738
asbag61
(g82
g63
NtRp2739
(dp2740
g66
(dp2741
g93
g94
ssg75
g2730
sg68
(lp2742
S':'
asbag61
(g82
g63
NtRp2743
(dp2744
g66
(dp2745
sg75
g2730
sg68
(lp2746
g61
(g62
g63
NtRp2747
(dp2748
g66
(dp2749
g74
I3
ssg75
g2743
sg68
(lp2750
g1116
asbasbasbag61
(g77
g63
NtRp2751
(dp2752
g66
(dp2753
sg75
g2600
sg68
(lp2754
g61
(g82
g63
NtRp2755
(dp2756
g66
(dp2757
g86
g87
ssg75
g2751
sg68
(lp2758
S'HTTP_HOST'
p2759
asbag61
(g82
g63
NtRp2760
(dp2761
g66
(dp2762
g93
g94
ssg75
g2751
sg68
(lp2763
S':'
asbag61
(g82
g63
NtRp2764
(dp2765
g66
(dp2766
sg75
g2751
sg68
(lp2767
g61
(g62
g63
NtRp2768
(dp2769
g66
(dp2770
g74
I3
ssg75
g2764
sg68
(lp2771
g1138
asbasbasbag61
(g77
g63
NtRp2772
(dp2773
g66
(dp2774
sg75
g2600
sg68
(lp2775
g61
(g82
g63
NtRp2776
(dp2777
g66
(dp2778
g86
g87
ssg75
g2772
sg68
(lp2779
S'HTTP_USER_AGENT'
p2780
asbag61
(g82
g63
NtRp2781
(dp2782
g66
(dp2783
g93
g94
ssg75
g2772
sg68
(lp2784
S':'
asbag61
(g82
g63
NtRp2785
(dp2786
g66
(dp2787
sg75
g2772
sg68
(lp2788
g61
(g62
g63
NtRp2789
(dp2790
g66
(dp2791
g74
I3
ssg75
g2785
sg68
(lp2792
g1160
asbasbasbag61
(g77
g63
NtRp2793
(dp2794
g66
(dp2795
sg75
g2600
sg68
(lp2796
g61
(g82
g63
NtRp2797
(dp2798
g66
(dp2799
g86
g87
ssg75
g2793
sg68
(lp2800
S'PATH_INFO'
p2801
asbag61
(g82
g63
NtRp2802
(dp2803
g66
(dp2804
g93
g94
ssg75
g2793
sg68
(lp2805
S':'
asbag61
(g82
g63
NtRp2806
(dp2807
g66
(dp2808
sg75
g2793
sg68
(lp2809
g61
(g62
g63
NtRp2810
(dp2811
g66
(dp2812
g74
I3
ssg75
g2806
sg68
(lp2813
g1314
asbasbasbag61
(g77
g63
NtRp2814
(dp2815
g66
(dp2816
sg75
g2600
sg68
(lp2817
g61
(g82
g63
NtRp2818
(dp2819
g66
(dp2820
g86
g87
ssg75
g2814
sg68
(lp2821
S'QUERY_STRING'
p2822
asbag61
(g82
g63
NtRp2823
(dp2824
g66
(dp2825
g93
g94
ssg75
g2814
sg68
(lp2826
S':'
asbag61
(g82
g63
NtRp2827
(dp2828
g66
(dp2829
sg75
g2814
sg68
(lp2830
g61
(g62
g63
NtRp2831
(dp2832
g66
(dp2833
g74
I3
ssg75
g2827
sg68
(lp2834
S''
asbasbasbag61
(g77
g63
NtRp2835
(dp2836
g66
(dp2837
sg75
g2600
sg68
(lp2838
g61
(g82
g63
NtRp2839
(dp2840
g66
(dp2841
g86
g87
ssg75
g2835
sg68
(lp2842
S'REMOTE_ADDR'
p2843
asbag61
(g82
g63
NtRp2844
(dp2845
g66
(dp2846
g93
g94
ssg75
g2835
sg68
(lp2847
S':'
asbag61
(g82
g63
NtRp2848
(dp2849
g66
(dp2850
sg75
g2835
sg68
(lp2851
g61
(g62
g63
NtRp2852
(dp2853
g66
(dp2854
g74
I3
ssg75
g2848
sg68
(lp2855
g228
asbasbasbag61
(g77
g63
NtRp2856
(dp2857
g66
(dp2858
sg75
g2600
sg68
(lp2859
g61
(g82
g63
NtRp2860
(dp2861
g66
(dp2862
g86
g87
ssg75
g2856
sg68
(lp2863
S'REMOTE_PORT'
p2864
asbag61
(g82
g63
NtRp2865
(dp2866
g66
(dp2867
g93
g94
ssg75
g2856
sg68
(lp2868
S':'
asbag61
(g82
g63
NtRp2869
(dp2870
g66
(dp2871
sg75
g2856
sg68
(lp2872
g61
(g62
g63
NtRp2873
(dp2874
g66
(dp2875
g74
I3
ssg75
g2869
sg68
(lp2876
g1378
asbasbasbag61
(g77
g63
NtRp2877
(dp2878
g66
(dp2879
sg75
g2600
sg68
(lp2880
g61
(g82
g63
NtRp2881
(dp2882
g66
(dp2883
g86
g87
ssg75
g2877
sg68
(lp2884
S'REQUEST_METHOD'
p2885
asbag61
(g82
g63
NtRp2886
(dp2887
g66
(dp2888
g93
g94
ssg75
g2877
sg68
(lp2889
S':'
asbag61
(g82
g63
NtRp2890
(dp2891
g66
(dp2892
sg75
g2877
sg68
(lp2893
g61
(g62
g63
NtRp2894
(dp2895
g66
(dp2896
g74
I3
ssg75
g2890
sg68
(lp2897
g1400
asbasbasbag61
(g77
g63
NtRp2898
(dp2899
g66
(dp2900
sg75
g2600
sg68
(lp2901
g61
(g82
g63
NtRp2902
(dp2903
g66
(dp2904
g86
g87
ssg75
g2898
sg68
(lp2905
S'REQUEST_URI'
p2906
asbag61
(g82
g63
NtRp2907
(dp2908
g66
(dp2909
g93
g94
ssg75
g2898
sg68
(lp2910
S':'
asbag61
(g82
g63
NtRp2911
(dp2912
g66
(dp2913
sg75
g2898
sg68
(lp2914
g61
(g62
g63
NtRp2915
(dp2916
g66
(dp2917
g74
I3
ssg75
g2911
sg68
(lp2918
g1314
asbasbasbag61
(g77
g63
NtRp2919
(dp2920
g66
(dp2921
sg75
g2600
sg68
(lp2922
g61
(g82
g63
NtRp2923
(dp2924
g66
(dp2925
g86
g87
ssg75
g2919
sg68
(lp2926
S'SCRIPT_NAME'
p2927
asbag61
(g82
g63
NtRp2928
(dp2929
g66
(dp2930
g93
g94
ssg75
g2919
sg68
(lp2931
S':'
asbag61
(g82
g63
NtRp2932
(dp2933
g66
(dp2934
sg75
g2919
sg68
(lp2935
g61
(g62
g63
NtRp2936
(dp2937
g66
(dp2938
g74
I3
ssg75
g2932
sg68
(lp2939
S''
asbasbasbag61
(g77
g63
NtRp2940
(dp2941
g66
(dp2942
sg75
g2600
sg68
(lp2943
g61
(g82
g63
NtRp2944
(dp2945
g66
(dp2946
g86
g87
ssg75
g2940
sg68
(lp2947
S'SERVER_NAME'
p2948
asbag61
(g82
g63
NtRp2949
(dp2950
g66
(dp2951
g93
g94
ssg75
g2940
sg68
(lp2952
S':'
asbag61
(g82
g63
NtRp2953
(dp2954
g66
(dp2955
sg75
g2940
sg68
(lp2956
g61
(g62
g63
NtRp2957
(dp2958
g66
(dp2959
g74
I3
ssg75
g2953
sg68
(lp2960
g1464
asbasbasbag61
(g77
g63
NtRp2961
(dp2962
g66
(dp2963
sg75
g2600
sg68
(lp2964
g61
(g82
g63
NtRp2965
(dp2966
g66
(dp2967
g86
g87
ssg75
g2961
sg68
(lp2968
S'SERVER_PORT'
p2969
asbag61
(g82
g63
NtRp2970
(dp2971
g66
(dp2972
g93
g94
ssg75
g2961
sg68
(lp2973
S':'
asbag61
(g82
g63
NtRp2974
(dp2975
g66
(dp2976
sg75
g2961
sg68
(lp2977
g61
(g62
g63
NtRp2978
(dp2979
g66
(dp2980
g74
I3
ssg75
g2974
sg68
(lp2981
g1486
asbasbasbag61
(g77
g63
NtRp2982
(dp2983
g66
(dp2984
sg75
g2600
sg68
(lp2985
g61
(g82
g63
NtRp2986
(dp2987
g66
(dp2988
g86
g87
ssg75
g2982
sg68
(lp2989
S'SERVER_PROTOCOL'
p2990
asbag61
(g82
g63
NtRp2991
(dp2992
g66
(dp2993
g93
g94
ssg75
g2982
sg68
(lp2994
S':'
asbag61
(g82
g63
NtRp2995
(dp2996
g66
(dp2997
sg75
g2982
sg68
(lp2998
g61
(g62
g63
NtRp2999
(dp3000
g66
(dp3001
g74
I3
ssg75
g2995
sg68
(lp3002
g1508
asbasbasbag61
(g77
g63
NtRp3003
(dp3004
g66
(dp3005
sg75
g2600
sg68
(lp3006
g61
(g82
g63
NtRp3007
(dp3008
g66
(dp3009
g86
g87
ssg75
g3003
sg68
(lp3010
S'SERVER_SOFTWARE'
p3011
asbag61
(g82
g63
NtRp3012
(dp3013
g66
(dp3014
g93
g94
ssg75
g3003
sg68
(lp3015
S':'
asbag61
(g82
g63
NtRp3016
(dp3017
g66
(dp3018
sg75
g3003
sg68
(lp3019
g61
(g62
g63
NtRp3020
(dp3021
g66
(dp3022
g74
I3
ssg75
g3016
sg68
(lp3023
g1530
asbasbasbag61
(g77
g63
NtRp3024
(dp3025
g66
(dp3026
sg75
g2600
sg68
(lp3027
g61
(g82
g63
NtRp3028
(dp3029
g66
(dp3030
g86
g87
ssg75
g3024
sg68
(lp3031
S'wsgi.errors'
p3032
asbag61
(g82
g63
NtRp3033
(dp3034
g66
(dp3035
g93
g94
ssg75
g3024
sg68
(lp3036
S':'
asbag61
(g82
g63
NtRp3037
(dp3038
g66
(dp3039
sg75
g3024
sg68
(lp3040
g61
(g62
g63
NtRp3041
(dp3042
g66
(dp3043
g74
I3
ssg75
g3037
sg68
(lp3044
S"<open file '<stderr>', mode 'w' at 0x540b0>"
p3045
asbasbasbag61
(g77
g63
NtRp3046
(dp3047
g66
(dp3048
sg75
g2600
sg68
(lp3049
g61
(g82
g63
NtRp3050
(dp3051
g66
(dp3052
g86
g87
ssg75
g3046
sg68
(lp3053
S'wsgi.file_wrapper'
p3054
asbag61
(g82
g63
NtRp3055
(dp3056
g66
(dp3057
g93
g94
ssg75
g3046
sg68
(lp3058
S':'
asbag61
(g82
g63
NtRp3059
(dp3060
g66
(dp3061
sg75
g3046
sg68
(lp3062
g61
(g62
g63
NtRp3063
(dp3064
g66
(dp3065
g74
I3
ssg75
g3059
sg68
(lp3066
S'<class wsgiref.util.FileWrapper at 0x329d060>'
p3067
asbasbasbag61
(g77
g63
NtRp3068
(dp3069
g66
(dp3070
sg75
g2600
sg68
(lp3071
g61
(g82
g63
NtRp3072
(dp3073
g66
(dp3074
g86
g87
ssg75
g3068
sg68
(lp3075
S'wsgi.input'
p3076
asbag61
(g82
g63
NtRp3077
(dp3078
g66
(dp3079
g93
g94
ssg75
g3068
sg68
(lp3080
S':'
asbag61
(g82
g63
NtRp3081
(dp3082
g66
(dp3083
sg75
g3068
sg68
(lp3084
g61
(g62
g63
NtRp3085
(dp3086
g66
(dp3087
g74
I3
ssg75
g3081
sg68
(lp3088
S'<cStringIO.StringO object at 0xc328420>'
p3089
asbasbasbag61
(g77
g63
NtRp3090
(dp3091
g66
(dp3092
sg75
g2600
sg68
(lp3093
g61
(g82
g63
NtRp3094
(dp3095
g66
(dp3096
g86
g87
ssg75
g3090
sg68
(lp3097
S'wsgi.multiprocess'
p3098
asbag61
(g82
g63
NtRp3099
(dp3100
g66
(dp3101
g93
g94
ssg75
g3090
sg68
(lp3102
S':'
asbag61
(g82
g63
NtRp3103
(dp3104
g66
(dp3105
sg75
g3090
sg68
(lp3106
g61
(g62
g63
NtRp3107
(dp3108
g66
(dp3109
g74
I3
ssg75
g3103
sg68
(lp3110
g104
asbasbasbag61
(g77
g63
NtRp3111
(dp3112
g66
(dp3113
sg75
g2600
sg68
(lp3114
g61
(g82
g63
NtRp3115
(dp3116
g66
(dp3117
g86
g87
ssg75
g3111
sg68
(lp3118
S'wsgi.multithread'
p3119
asbag61
(g82
g63
NtRp3120
(dp3121
g66
(dp3122
g93
g94
ssg75
g3111
sg68
(lp3123
S':'
asbag61
(g82
g63
NtRp3124
(dp3125
g66
(dp3126
sg75
g3111
sg68
(lp3127
g61
(g62
g63
NtRp3128
(dp3129
g66
(dp3130
g74
I3
ssg75
g3124
sg68
(lp3131
g940
asbasbasbag61
(g77
g63
NtRp3132
(dp3133
g66
(dp3134
sg75
g2600
sg68
(lp3135
g61
(g82
g63
NtRp3136
(dp3137
g66
(dp3138
g86
g87
ssg75
g3132
sg68
(lp3139
S'wsgi.run_once'
p3140
asbag61
(g82
g63
NtRp3141
(dp3142
g66
(dp3143
g93
g94
ssg75
g3132
sg68
(lp3144
S':'
asbag61
(g82
g63
NtRp3145
(dp3146
g66
(dp3147
sg75
g3132
sg68
(lp3148
g61
(g62
g63
NtRp3149
(dp3150
g66
(dp3151
g74
I3
ssg75
g3145
sg68
(lp3152
g104
asbasbasbag61
(g77
g63
NtRp3153
(dp3154
g66
(dp3155
sg75
g2600
sg68
(lp3156
g61
(g82
g63
NtRp3157
(dp3158
g66
(dp3159
g86
g87
ssg75
g3153
sg68
(lp3160
S'wsgi.url_scheme'
p3161
asbag61
(g82
g63
NtRp3162
(dp3163
g66
(dp3164
g93
g94
ssg75
g3153
sg68
(lp3165
S':'
asbag61
(g82
g63
NtRp3166
(dp3167
g66
(dp3168
sg75
g3153
sg68
(lp3169
g61
(g62
g63
NtRp3170
(dp3171
g66
(dp3172
g74
I3
ssg75
g3166
sg68
(lp3173
g1789
asbasbasbag61
(g77
g63
NtRp3174
(dp3175
g66
(dp3176
sg75
g2600
sg68
(lp3177
g61
(g82
g63
NtRp3178
(dp3179
g66
(dp3180
g86
g87
ssg75
g3174
sg68
(lp3181
S'wsgi.version'
p3182
asbag61
(g82
g63
NtRp3183
(dp3184
g66
(dp3185
g93
g94
ssg75
g3174
sg68
(lp3186
S':'
asbag61
(g82
g63
NtRp3187
(dp3188
g66
(dp3189
sg75
g3174
sg68
(lp3190
g61
(g62
g63
NtRp3191
(dp3192
g66
(dp3193
g74
I3
ssg75
g3187
sg68
(lp3194
S'1'
asbasbasbasbasbasbasbasbasbasbasbasbasbsS'frames'
p3195
(lp3196
(dp3197
S'file'
p3198
S'/home/mdipierro/web2py/gluon/restricted.py'
p3199
sS'dump'
p3200
(dp3201
sS'lnum'
p3202
I211
sS'lines'
p3203
(dp3204
sS'call'
p3205
S'(code=\'response.write(\\\'<!--[if HTML5]><![endif]-->\\\\n<!D..."></script>\\\\n</body>\\\\n</html>\\\\n\\\\n\\\', escape=False)\', environment={\'A\': <class \'gluon.html.A\'>, \'Auth\': <class \'gluon.tools.Auth\'>, \'B\': <class \'gluon.html.B\'>, \'BEAUTIFY\': <class \'gluon.html.BEAUTIFY\'>, \'BODY\': <class \'gluon.html.BODY\'>, \'BR\': <class \'gluon.html.BR\'>, \'BUTTON\': <class \'gluon.html.BUTTON\'>, \'Balance\': 100, \'CAT\': <class \'gluon.html.CAT\'>, \'CENTER\': <class \'gluon.html.CENTER\'>, ...}, layer=\'/Users/zamechek/Downloads/web2py/web2py.app/Cont...esources/applications/hellow/views/game/show.html\')'
p3206
sS'func'
p3207
S'restricted'
p3208
sa(dp3209
g3198
S'/home/mdipierro/web2py/gluon/restricted.py'
p3210
sg3200
(dp3211
sg3202
I194
sg3203
(dp3212
sg3205
S'(code=\'response.write(\\\'<!--[if HTML5]><![endif]-->\\\\n<!D..."></script>\\\\n</body>\\\\n</html>\\\\n\\\\n\\\', escape=False)\', layer=\'/Users/zamechek/Downloads/web2py/web2py.app/Cont...esources/applications/hellow/views/game/show.html\')'
p3213
sg3207
S'compile2'
p3214
sasS'pyver'
p3215
S'Python 2.5.1: /Users/zamechek/Downloads/web2py/web2py.app/Contents/MacOS/python'
p3216
sS'session'
p3217
g61
(g62
g63
NtRp3218
(dp3219
g66
(dp3220
sg68
(lp3221
g61
(g70
g63
NtRp3222
(dp3223
g66
(dp3224
g74
I5
ssg75
Nsg68
(lp3225
sbasbsS'etype'
p3226
S"<type 'exceptions.SyntaxError'>"
p3227
sS'date'
p3228
S'Tue Mar 26 12:52:56 2013'
p3229
sS'response'
p3230
g61
(g62
g63
NtRp3231
(dp3232
g66
(dp3233
sg68
(lp3234
g61
(g70
g63
NtRp3235
(dp3236
g66
(dp3237
g74
I5
ssg75
Nsg68
(lp3238
g61
(g77
g63
NtRp3239
(dp3240
g66
(dp3241
sg75
g3235
sg68
(lp3242
g61
(g82
g63
NtRp3243
(dp3244
g66
(dp3245
g86
g87
ssg75
g3239
sg68
(lp3246
g171
asbag61
(g82
g63
NtRp3247
(dp3248
g66
(dp3249
g93
g94
ssg75
g3239
sg68
(lp3250
S':'
asbag61
(g82
g63
NtRp3251
(dp3252
g66
(dp3253
sg75
g3239
sg68
(lp3254
g61
(g62
g63
NtRp3255
(dp3256
g66
(dp3257
g74
I5
ssg75
g3251
sg68
(lp3258
S'<cStringIO.StringO object at 0xc328d60>'
p3259
asbasbasbag61
(g77
g63
NtRp3260
(dp3261
g66
(dp3262
sg75
g3235
sg68
(lp3263
g61
(g82
g63
NtRp3264
(dp3265
g66
(dp3266
g86
g87
ssg75
g3260
sg68
(lp3267
g259
asbag61
(g82
g63
NtRp3268
(dp3269
g66
(dp3270
g93
g94
ssg75
g3260
sg68
(lp3271
S':'
asbag61
(g82
g63
NtRp3272
(dp3273
g66
(dp3274
sg75
g3260
sg68
(lp3275
g61
(g62
g63
NtRp3276
(dp3277
g66
(dp3278
g74
I5
ssg75
g3272
sg68
(lp3279
g61
(g70
g63
NtRp3280
(dp3281
g66
(dp3282
g74
I4
ssg75
Nsg68
(lp3283
g61
(g77
g63
NtRp3284
(dp3285
g66
(dp3286
sg75
g3280
sg68
(lp3287
g61
(g82
g63
NtRp3288
(dp3289
g66
(dp3290
g86
g87
ssg75
g3284
sg68
(lp3291
S'session_id_hellow'
p3292
asbag61
(g82
g63
NtRp3293
(dp3294
g66
(dp3295
g93
g94
ssg75
g3284
sg68
(lp3296
S':'
asbag61
(g82
g63
NtRp3297
(dp3298
g66
(dp3299
sg75
g3284
sg68
(lp3300
g61
(g62
g63
NtRp3301
(dp3302
g66
(dp3303
g74
I4
ssg75
g3297
sg68
(lp3304
g470
ag61
(g70
g63
NtRp3305
(dp3306
g66
(dp3307
g74
I3
ssg75
Nsg68
(lp3308
g61
(g77
g63
NtRp3309
(dp3310
g66
(dp3311
sg75
g3305
sg68
(lp3312
g61
(g82
g63
NtRp3313
(dp3314
g66
(dp3315
g86
g87
ssg75
g3309
sg68
(lp3316
g310
asbag61
(g82
g63
NtRp3317
(dp3318
g66
(dp3319
g93
g94
ssg75
g3309
sg68
(lp3320
S':'
asbag61
(g82
g63
NtRp3321
(dp3322
g66
(dp3323
sg75
g3309
sg68
(lp3324
g61
(g62
g63
NtRp3325
(dp3326
g66
(dp3327
g74
I3
ssg75
g3321
sg68
(lp3328
S''
asbasbasbag61
(g77
g63
NtRp3329
(dp3330
g66
(dp3331
sg75
g3305
sg68
(lp3332
g61
(g82
g63
NtRp3333
(dp3334
g66
(dp3335
g86
g87
ssg75
g3329
sg68
(lp3336
g331
asbag61
(g82
g63
NtRp3337
(dp3338
g66
(dp3339
g93
g94
ssg75
g3329
sg68
(lp3340
S':'
asbag61
(g82
g63
NtRp3341
(dp3342
g66
(dp3343
sg75
g3329
sg68
(lp3344
g61
(g62
g63
NtRp3345
(dp3346
g66
(dp3347
g74
I3
ssg75
g3341
sg68
(lp3348
S''
asbasbasbag61
(g77
g63
NtRp3349
(dp3350
g66
(dp3351
sg75
g3305
sg68
(lp3352
g61
(g82
g63
NtRp3353
(dp3354
g66
(dp3355
g86
g87
ssg75
g3349
sg68
(lp3356
g352
asbag61
(g82
g63
NtRp3357
(dp3358
g66
(dp3359
g93
g94
ssg75
g3349
sg68
(lp3360
S':'
asbag61
(g82
g63
NtRp3361
(dp3362
g66
(dp3363
sg75
g3349
sg68
(lp3364
g61
(g62
g63
NtRp3365
(dp3366
g66
(dp3367
g74
I3
ssg75
g3361
sg68
(lp3368
S''
asbasbasbag61
(g77
g63
NtRp3369
(dp3370
g66
(dp3371
sg75
g3305
sg68
(lp3372
g61
(g82
g63
NtRp3373
(dp3374
g66
(dp3375
g86
g87
ssg75
g3369
sg68
(lp3376
g373
asbag61
(g82
g63
NtRp3377
(dp3378
g66
(dp3379
g93
g94
ssg75
g3369
sg68
(lp3380
S':'
asbag61
(g82
g63
NtRp3381
(dp3382
g66
(dp3383
sg75
g3369
sg68
(lp3384
g61
(g62
g63
NtRp3385
(dp3386
g66
(dp3387
g74
I3
ssg75
g3381
sg68
(lp3388
S''
asbasbasbag61
(g77
g63
NtRp3389
(dp3390
g66
(dp3391
sg75
g3305
sg68
(lp3392
g61
(g82
g63
NtRp3393
(dp3394
g66
(dp3395
g86
g87
ssg75
g3389
sg68
(lp3396
g394
asbag61
(g82
g63
NtRp3397
(dp3398
g66
(dp3399
g93
g94
ssg75
g3389
sg68
(lp3400
S':'
asbag61
(g82
g63
NtRp3401
(dp3402
g66
(dp3403
sg75
g3389
sg68
(lp3404
g61
(g62
g63
NtRp3405
(dp3406
g66
(dp3407
g74
I3
ssg75
g3401
sg68
(lp3408
S'/'
asbasbasbag61
(g77
g63
NtRp3409
(dp3410
g66
(dp3411
sg75
g3305
sg68
(lp3412
g61
(g82
g63
NtRp3413
(dp3414
g66
(dp3415
g86
g87
ssg75
g3409
sg68
(lp3416
g415
asbag61
(g82
g63
NtRp3417
(dp3418
g66
(dp3419
g93
g94
ssg75
g3409
sg68
(lp3420
S':'
asbag61
(g82
g63
NtRp3421
(dp3422
g66
(dp3423
sg75
g3409
sg68
(lp3424
g61
(g62
g63
NtRp3425
(dp3426
g66
(dp3427
g74
I3
ssg75
g3421
sg68
(lp3428
S''
asbasbasbag61
(g77
g63
NtRp3429
(dp3430
g66
(dp3431
sg75
g3305
sg68
(lp3432
g61
(g82
g63
NtRp3433
(dp3434
g66
(dp3435
g86
g87
ssg75
g3429
sg68
(lp3436
g436
asbag61
(g82
g63
NtRp3437
(dp3438
g66
(dp3439
g93
g94
ssg75
g3429
sg68
(lp3440
S':'
asbag61
(g82
g63
NtRp3441
(dp3442
g66
(dp3443
sg75
g3429
sg68
(lp3444
g61
(g62
g63
NtRp3445
(dp3446
g66
(dp3447
g74
I3
ssg75
g3441
sg68
(lp3448
S''
asbasbasbasbasbasbasbasbasbasbasbag61
(g77
g63
NtRp3449
(dp3450
g66
(dp3451
sg75
g3235
sg68
(lp3452
g61
(g82
g63
NtRp3453
(dp3454
g66
(dp3455
g86
g87
ssg75
g3449
sg68
(lp3456
S'delimiters'
p3457
asbag61
(g82
g63
NtRp3458
(dp3459
g66
(dp3460
g93
g94
ssg75
g3449
sg68
(lp3461
S':'
asbag61
(g82
g63
NtRp3462
(dp3463
g66
(dp3464
sg75
g3449
sg68
(lp3465
g61
(g62
g63
NtRp3466
(dp3467
g66
(dp3468
g74
I5
ssg75
g3462
sg68
(lp3469
g61
(g70
g63
NtRp3470
(dp3471
g66
(dp3472
g74
I4
ssg75
Nsg68
(lp3473
g61
(g77
g63
NtRp3474
(dp3475
g66
(dp3476
sg75
g3470
sg68
(lp3477
g61
(g82
g63
NtRp3478
(dp3479
g66
(dp3480
sg75
g3474
sg68
(lp3481
g61
(g62
g63
NtRp3482
(dp3483
g66
(dp3484
g74
I4
ssg75
g3478
sg68
(lp3485
S'{{'
p3486
asbasbasbag61
(g77
g63
NtRp3487
(dp3488
g66
(dp3489
sg75
g3470
sg68
(lp3490
g61
(g82
g63
NtRp3491
(dp3492
g66
(dp3493
sg75
g3487
sg68
(lp3494
g61
(g62
g63
NtRp3495
(dp3496
g66
(dp3497
g74
I4
ssg75
g3491
sg68
(lp3498
S'}}'
p3499
asbasbasbasbasbasbasbag61
(g77
g63
NtRp3500
(dp3501
g66
(dp3502
sg75
g3235
sg68
(lp3503
g61
(g82
g63
NtRp3504
(dp3505
g66
(dp3506
g86
g87
ssg75
g3500
sg68
(lp3507
S'files'
p3508
asbag61
(g82
g63
NtRp3509
(dp3510
g66
(dp3511
g93
g94
ssg75
g3500
sg68
(lp3512
S':'
asbag61
(g82
g63
NtRp3513
(dp3514
g66
(dp3515
sg75
g3500
sg68
(lp3516
g61
(g62
g63
NtRp3517
(dp3518
g66
(dp3519
g74
I5
ssg75
g3513
sg68
(lp3520
g61
(g70
g63
NtRp3521
(dp3522
g66
(dp3523
g74
I4
ssg75
Nsg68
(lp3524
sbasbasbasbag61
(g77
g63
NtRp3525
(dp3526
g66
(dp3527
sg75
g3235
sg68
(lp3528
g61
(g82
g63
NtRp3529
(dp3530
g66
(dp3531
g86
g87
ssg75
g3525
sg68
(lp3532
S'flash'
p3533
asbag61
(g82
g63
NtRp3534
(dp3535
g66
(dp3536
g93
g94
ssg75
g3525
sg68
(lp3537
S':'
asbag61
(g82
g63
NtRp3538
(dp3539
g66
(dp3540
sg75
g3525
sg68
(lp3541
g61
(g62
g63
NtRp3542
(dp3543
g66
(dp3544
g74
I5
ssg75
g3538
sg68
(lp3545
S''
asbasbasbag61
(g77
g63
NtRp3546
(dp3547
g66
(dp3548
sg75
g3235
sg68
(lp3549
g61
(g82
g63
NtRp3550
(dp3551
g66
(dp3552
g86
g87
ssg75
g3546
sg68
(lp3553
S'generic_patterns'
p3554
asbag61
(g82
g63
NtRp3555
(dp3556
g66
(dp3557
g93
g94
ssg75
g3546
sg68
(lp3558
S':'
asbag61
(g82
g63
NtRp3559
(dp3560
g66
(dp3561
sg75
g3546
sg68
(lp3562
g61
(g62
g63
NtRp3563
(dp3564
g66
(dp3565
g74
I5
ssg75
g3559
sg68
(lp3566
g61
(g70
g63
NtRp3567
(dp3568
g66
(dp3569
g74
I4
ssg75
Nsg68
(lp3570
g61
(g77
g63
NtRp3571
(dp3572
g66
(dp3573
sg75
g3567
sg68
(lp3574
g61
(g82
g63
NtRp3575
(dp3576
g66
(dp3577
sg75
g3571
sg68
(lp3578
g61
(g62
g63
NtRp3579
(dp3580
g66
(dp3581
g74
I4
ssg75
g3575
sg68
(lp3582
S'*'
asbasbasbasbasbasbasbag61
(g77
g63
NtRp3583
(dp3584
g66
(dp3585
sg75
g3235
sg68
(lp3586
g61
(g82
g63
NtRp3587
(dp3588
g66
(dp3589
g86
g87
ssg75
g3583
sg68
(lp3590
S'google_analytics_id'
p3591
asbag61
(g82
g63
NtRp3592
(dp3593
g66
(dp3594
g93
g94
ssg75
g3583
sg68
(lp3595
S':'
asbag61
(g82
g63
NtRp3596
(dp3597
g66
(dp3598
sg75
g3583
sg68
(lp3599
g61
(g62
g63
NtRp3600
(dp3601
g66
(dp3602
g74
I5
ssg75
g3596
sg68
(lp3603
S'None'
p3604
asbasbasbag61
(g77
g63
NtRp3605
(dp3606
g66
(dp3607
sg75
g3235
sg68
(lp3608
g61
(g82
g63
NtRp3609
(dp3610
g66
(dp3611
g86
g87
ssg75
g3605
sg68
(lp3612
S'headers'
p3613
asbag61
(g82
g63
NtRp3614
(dp3615
g66
(dp3616
g93
g94
ssg75
g3605
sg68
(lp3617
S':'
asbag61
(g82
g63
NtRp3618
(dp3619
g66
(dp3620
sg75
g3605
sg68
(lp3621
g61
(g62
g63
NtRp3622
(dp3623
g66
(dp3624
g74
I5
ssg75
g3618
sg68
(lp3625
g61
(g70
g63
NtRp3626
(dp3627
g66
(dp3628
g74
I4
ssg75
Nsg68
(lp3629
g61
(g77
g63
NtRp3630
(dp3631
g66
(dp3632
sg75
g3626
sg68
(lp3633
g61
(g82
g63
NtRp3634
(dp3635
g66
(dp3636
g86
g87
ssg75
g3630
sg68
(lp3637
S'X-Powered-By'
p3638
asbag61
(g82
g63
NtRp3639
(dp3640
g66
(dp3641
g93
g94
ssg75
g3630
sg68
(lp3642
S':'
asbag61
(g82
g63
NtRp3643
(dp3644
g66
(dp3645
sg75
g3630
sg68
(lp3646
g61
(g62
g63
NtRp3647
(dp3648
g66
(dp3649
g74
I4
ssg75
g3643
sg68
(lp3650
S'web2py'
p3651
asbasbasbasbasbasbasbag61
(g77
g63
NtRp3652
(dp3653
g66
(dp3654
sg75
g3235
sg68
(lp3655
g61
(g82
g63
NtRp3656
(dp3657
g66
(dp3658
g86
g87
ssg75
g3652
sg68
(lp3659
S'logo'
p3660
asbag61
(g82
g63
NtRp3661
(dp3662
g66
(dp3663
g93
g94
ssg75
g3652
sg68
(lp3664
S':'
asbag61
(g82
g63
NtRp3665
(dp3666
g66
(dp3667
sg75
g3652
sg68
(lp3668
g61
(g62
g63
NtRp3669
(dp3670
g66
(dp3671
g74
I5
ssg75
g3665
sg68
(lp3672
g61
(cgluon.html
A
p3673
g63
NtRp3674
(dp3675
g66
(dp3676
S'_class'
p3677
S'brand'
p3678
sS'_href'
p3679
S'http://www.web2py.com/'
p3680
ssg75
Nsg68
(lp3681
g61
(cgluon.html
B
p3682
g63
NtRp3683
(dp3684
g66
(dp3685
sg75
g3674
sg68
(lp3686
S'web'
p3687
ag61
(cgluon.html
SPAN
p3688
g63
NtRp3689
(dp3690
g66
(dp3691
sg75
g3683
sg68
(lp3692
I2
asbaS'py'
p3693
asbacgluon.html
XML_unpickle
p3694
(S's\r\x00\x00\x00&trade;&nbsp;'
tRp3695
asbasbasbasbag61
(g77
g63
NtRp3696
(dp3697
g66
(dp3698
sg75
g3235
sg68
(lp3699
g61
(g82
g63
NtRp3700
(dp3701
g66
(dp3702
g86
g87
ssg75
g3696
sg68
(lp3703
S'menu'
p3704
asbag61
(g82
g63
NtRp3705
(dp3706
g66
(dp3707
g93
g94
ssg75
g3696
sg68
(lp3708
S':'
asbag61
(g82
g63
NtRp3709
(dp3710
g66
(dp3711
sg75
g3696
sg68
(lp3712
g61
(g62
g63
NtRp3713
(dp3714
g66
(dp3715
g74
I5
ssg75
g3709
sg68
(lp3716
g61
(g70
g63
NtRp3717
(dp3718
g66
(dp3719
g74
I4
ssg75
Nsg68
(lp3720
g61
(g77
g63
NtRp3721
(dp3722
g66
(dp3723
sg75
g3717
sg68
(lp3724
g61
(g82
g63
NtRp3725
(dp3726
g66
(dp3727
sg75
g3721
sg68
(lp3728
g61
(g62
g63
NtRp3729
(dp3730
g66
(dp3731
g74
I4
ssg75
g3725
sg68
(lp3732
g61
(g70
g63
NtRp3733
(dp3734
g66
(dp3735
g74
I3
ssg75
Nsg68
(lp3736
g61
(g77
g63
NtRp3737
(dp3738
g66
(dp3739
sg75
g3733
sg68
(lp3740
g61
(g82
g63
NtRp3741
(dp3742
g66
(dp3743
sg75
g3737
sg68
(lp3744
g61
(g62
g63
NtRp3745
(dp3746
g66
(dp3747
g74
I3
ssg75
g3741
sg68
(lp3748
cgluon.languages
lazyT_unpickle
p3749
(S't\x04\x00\x00\x00Home'
tRp3750
asbasbasbag61
(g77
g63
NtRp3751
(dp3752
g66
(dp3753
sg75
g3733
sg68
(lp3754
g61
(g82
g63
NtRp3755
(dp3756
g66
(dp3757
sg75
g3751
sg68
(lp3758
g61
(g62
g63
NtRp3759
(dp3760
g66
(dp3761
g74
I3
ssg75
g3755
sg68
(lp3762
g104
asbasbasbag61
(g77
g63
NtRp3763
(dp3764
g66
(dp3765
sg75
g3733
sg68
(lp3766
g61
(g82
g63
NtRp3767
(dp3768
g66
(dp3769
sg75
g3763
sg68
(lp3770
g61
(g62
g63
NtRp3771
(dp3772
g66
(dp3773
g74
I3
ssg75
g3767
sg68
(lp3774
S'/hellow/default/index'
p3775
asbasbasbag61
(g77
g63
NtRp3776
(dp3777
g66
(dp3778
sg75
g3733
sg68
(lp3779
g61
(g82
g63
NtRp3780
(dp3781
g66
(dp3782
sg75
g3776
sg68
(lp3783
g61
(g62
g63
NtRp3784
(dp3785
g66
(dp3786
g74
I3
ssg75
g3780
sg68
(lp3787
g61
(g70
g63
NtRp3788
(dp3789
g66
(dp3790
g74
I2
ssg75
Nsg68
(lp3791
sbasbasbasbasbasbasbasbag61
(g77
g63
NtRp3792
(dp3793
g66
(dp3794
sg75
g3717
sg68
(lp3795
g61
(g82
g63
NtRp3796
(dp3797
g66
(dp3798
sg75
g3792
sg68
(lp3799
g61
(g62
g63
NtRp3800
(dp3801
g66
(dp3802
g74
I4
ssg75
g3796
sg68
(lp3803
g61
(g70
g63
NtRp3804
(dp3805
g66
(dp3806
g74
I3
ssg75
Nsg68
(lp3807
g61
(g77
g63
NtRp3808
(dp3809
g66
(dp3810
sg75
g3804
sg68
(lp3811
g61
(g82
g63
NtRp3812
(dp3813
g66
(dp3814
sg75
g3808
sg68
(lp3815
g61
(g62
g63
NtRp3816
(dp3817
g66
(dp3818
g74
I3
ssg75
g3812
sg68
(lp3819
g61
(g3688
g63
NtRp3820
(dp3821
g66
(dp3822
g3677
S'highlighted'
p3823
ssg75
Nsg68
(lp3824
g3651
asbasbasbasbag61
(g77
g63
NtRp3825
(dp3826
g66
(dp3827
sg75
g3804
sg68
(lp3828
g61
(g82
g63
NtRp3829
(dp3830
g66
(dp3831
sg75
g3825
sg68
(lp3832
g61
(g62
g63
NtRp3833
(dp3834
g66
(dp3835
g74
I3
ssg75
g3829
sg68
(lp3836
g104
asbasbasbag61
(g77
g63
NtRp3837
(dp3838
g66
(dp3839
sg75
g3804
sg68
(lp3840
g61
(g82
g63
NtRp3841
(dp3842
g66
(dp3843
sg75
g3837
sg68
(lp3844
g61
(g62
g63
NtRp3845
(dp3846
g66
(dp3847
g74
I3
ssg75
g3841
sg68
(lp3848
S'http://web2py.com'
p3849
asbasbasbag61
(g77
g63
NtRp3850
(dp3851
g66
(dp3852
sg75
g3804
sg68
(lp3853
g61
(g82
g63
NtRp3854
(dp3855
g66
(dp3856
sg75
g3850
sg68
(lp3857
g61
(g62
g63
NtRp3858
(dp3859
g66
(dp3860
g74
I3
ssg75
g3854
sg68
(lp3861
g61
(g70
g63
NtRp3862
(dp3863
g66
(dp3864
g74
I2
ssg75
Nsg68
(lp3865
g61
(g77
g63
NtRp3866
(dp3867
g66
(dp3868
sg75
g3862
sg68
(lp3869
g61
(g82
g63
NtRp3870
(dp3871
g66
(dp3872
sg75
g3866
sg68
(lp3873
g61
(g62
g63
NtRp3874
(dp3875
g66
(dp3876
g74
I2
ssg75
g3870
sg68
(lp3877
g61
(g70
g63
NtRp3878
(dp3879
g66
(dp3880
g74
I1
ssg75
Nsg68
(lp3881
g61
(g77
g63
NtRp3882
(dp3883
g66
(dp3884
sg75
g3878
sg68
(lp3885
g61
(g82
g63
NtRp3886
(dp3887
g66
(dp3888
sg75
g3882
sg68
(lp3889
g61
(g62
g63
NtRp3890
(dp3891
g66
(dp3892
g74
I1
ssg75
g3886
sg68
(lp3893
g3749
(S's\x08\x00\x00\x00My Sites'
tRp3894
asbasbasbag61
(g77
g63
NtRp3895
(dp3896
g66
(dp3897
sg75
g3878
sg68
(lp3898
g61
(g82
g63
NtRp3899
(dp3900
g66
(dp3901
sg75
g3895
sg68
(lp3902
g61
(g62
g63
NtRp3903
(dp3904
g66
(dp3905
g74
I1
ssg75
g3899
sg68
(lp3906
I00
asbasbasbag61
(g77
g63
NtRp3907
(dp3908
g66
(dp3909
sg75
g3878
sg68
(lp3910
g61
(g82
g63
NtRp3911
(dp3912
g66
(dp3913
sg75
g3907
sg68
(lp3914
g61
(g62
g63
NtRp3915
(dp3916
g66
(dp3917
g74
I1
ssg75
g3911
sg68
(lp3918
S'/admin/default/site'
p3919
asbasbasbasbasbasbasbag61
(g77
g63
NtRp3920
(dp3921
g66
(dp3922
sg75
g3862
sg68
(lp3923
g61
(g82
g63
NtRp3924
(dp3925
g66
(dp3926
sg75
g3920
sg68
(lp3927
g61
(g62
g63
NtRp3928
(dp3929
g66
(dp3930
g74
I2
ssg75
g3924
sg68
(lp3931
g61
(g70
g63
NtRp3932
(dp3933
g66
(dp3934
g74
I1
ssg75
Nsg68
(lp3935
g61
(g77
g63
NtRp3936
(dp3937
g66
(dp3938
sg75
g3932
sg68
(lp3939
g61
(g82
g63
NtRp3940
(dp3941
g66
(dp3942
sg75
g3936
sg68
(lp3943
g61
(g62
g63
NtRp3944
(dp3945
g66
(dp3946
g74
I1
ssg75
g3940
sg68
(lp3947
g3749
(S's\x08\x00\x00\x00This App'
tRp3948
asbasbasbag61
(g77
g63
NtRp3949
(dp3950
g66
(dp3951
sg75
g3932
sg68
(lp3952
g61
(g82
g63
NtRp3953
(dp3954
g66
(dp3955
sg75
g3949
sg68
(lp3956
g61
(g62
g63
NtRp3957
(dp3958
g66
(dp3959
g74
I1
ssg75
g3953
sg68
(lp3960
I00
asbasbasbag61
(g77
g63
NtRp3961
(dp3962
g66
(dp3963
sg75
g3932
sg68
(lp3964
g61
(g82
g63
NtRp3965
(dp3966
g66
(dp3967
sg75
g3961
sg68
(lp3968
g61
(g62
g63
NtRp3969
(dp3970
g66
(dp3971
g74
I1
ssg75
g3965
sg68
(lp3972
S'/admin/default/design/hellow'
p3973
asbasbasbag61
(g77
g63
NtRp3974
(dp3975
g66
(dp3976
sg75
g3932
sg68
(lp3977
g61
(g82
g63
NtRp3978
(dp3979
g66
(dp3980
sg75
g3974
sg68
(lp3981
g61
(g62
g63
NtRp3982
(dp3983
g66
(dp3984
g74
I1
ssg75
g3978
sg68
(lp3985
(lp3986
(g3749
(S't\n\x00\x00\x00Controller'
tRp3987
I00
S'/admin/default/edit/hellow/controllers/game.py'
tp3988
a(g3749
(S't\x04\x00\x00\x00View'
tRp3989
I00
S'/admin/default/edit/hellow/views/game/show.html'
tp3990
a(g3749
(S't\x06\x00\x00\x00Layout'
tRp3991
I00
S'/admin/default/edit/hellow/views/layout.html'
tp3992
a(g3749
(S't\n\x00\x00\x00Stylesheet'
tRp3993
I00
S'/admin/default/edit/hellow/static/css/web2py.css'
tp3994
a(g3749
(S's\x08\x00\x00\x00DB Model'
tRp3995
I00
S'/admin/default/edit/hellow/models/db.py'
tp3996
a(g3749
(S's\n\x00\x00\x00Menu Model'
tRp3997
I00
S'/admin/default/edit/hellow/models/menu.py'
tp3998
a(g3749
(S't\x08\x00\x00\x00Database'
tRp3999
I00
S'/hellow/appadmin/index'
tp4000
a(g3749
(S't\x06\x00\x00\x00Errors'
tRp4001
I00
S'/admin/default/errors/hellow'
tp4002
a(g3749
(S't\x05\x00\x00\x00About'
tRp4003
I00
S'/admin/default/about/hellow'
tp4004
aasbasbasbasbasbasbasbag61
(g77
g63
NtRp4005
(dp4006
g66
(dp4007
sg75
g3862
sg68
(lp4008
g61
(g82
g63
NtRp4009
(dp4010
g66
(dp4011
sg75
g4005
sg68
(lp4012
g61
(g62
g63
NtRp4013
(dp4014
g66
(dp4015
g74
I2
ssg75
g4009
sg68
(lp4016
g61
(g70
g63
NtRp4017
(dp4018
g66
(dp4019
g74
I1
ssg75
Nsg68
(lp4020
g61
(g77
g63
NtRp4021
(dp4022
g66
(dp4023
sg75
g4017
sg68
(lp4024
g61
(g82
g63
NtRp4025
(dp4026
g66
(dp4027
sg75
g4021
sg68
(lp4028
g61
(g62
g63
NtRp4029
(dp4030
g66
(dp4031
g74
I1
ssg75
g4025
sg68
(lp4032
S'web2py.com'
p4033
asbasbasbag61
(g77
g63
NtRp4034
(dp4035
g66
(dp4036
sg75
g4017
sg68
(lp4037
g61
(g82
g63
NtRp4038
(dp4039
g66
(dp4040
sg75
g4034
sg68
(lp4041
g61
(g62
g63
NtRp4042
(dp4043
g66
(dp4044
g74
I1
ssg75
g4038
sg68
(lp4045
I00
asbasbasbag61
(g77
g63
NtRp4046
(dp4047
g66
(dp4048
sg75
g4017
sg68
(lp4049
g61
(g82
g63
NtRp4050
(dp4051
g66
(dp4052
sg75
g4046
sg68
(lp4053
g61
(g62
g63
NtRp4054
(dp4055
g66
(dp4056
g74
I1
ssg75
g4050
sg68
(lp4057
S'http://www.web2py.com'
p4058
asbasbasbag61
(g77
g63
NtRp4059
(dp4060
g66
(dp4061
sg75
g4017
sg68
(lp4062
g61
(g82
g63
NtRp4063
(dp4064
g66
(dp4065
sg75
g4059
sg68
(lp4066
g61
(g62
g63
NtRp4067
(dp4068
g66
(dp4069
g74
I1
ssg75
g4063
sg68
(lp4070
(lp4071
(g3749
(S't\x08\x00\x00\x00Download'
tRp4072
I00
S'http://www.web2py.com/examples/default/download'
p4073
tp4074
a(g3749
(S't\x07\x00\x00\x00Support'
tRp4075
I00
S'http://www.web2py.com/examples/default/support'
p4076
tp4077
a(g3749
(S't\x04\x00\x00\x00Demo'
tRp4078
I00
S'http://web2py.com/demo_admin'
p4079
tp4080
a(g3749
(S's\x0e\x00\x00\x00Quick Examples'
tRp4081
I00
S'http://web2py.com/examples/default/examples'
p4082
tp4083
a(g3749
(S't\x03\x00\x00\x00FAQ'
tRp4084
I00
S'http://web2py.com/AlterEgo'
p4085
tp4086
a(g3749
(S't\x06\x00\x00\x00Videos'
tRp4087
I00
S'http://www.web2py.com/examples/default/videos/'
p4088
tp4089
a(g3749
(S's\x11\x00\x00\x00Free Applications'
tRp4090
I00
S'http://web2py.com/appliances'
p4091
tp4092
a(g3749
(S't\x07\x00\x00\x00Plugins'
tRp4093
I00
S'http://web2py.com/plugins'
p4094
tp4095
a(g3749
(S't\x07\x00\x00\x00Layouts'
tRp4096
I00
S'http://web2py.com/layouts'
p4097
tp4098
a(g3749
(S't\x07\x00\x00\x00Recipes'
tRp4099
I00
S'http://web2pyslices.com/'
p4100
tp4101
a(g3749
(S't\x08\x00\x00\x00Semantic'
tRp4102
I00
S'http://web2py.com/semantic'
p4103
tp4104
aasbasbasbasbasbasbasbag61
(g77
g63
NtRp4105
(dp4106
g66
(dp4107
sg75
g3862
sg68
(lp4108
g61
(g82
g63
NtRp4109
(dp4110
g66
(dp4111
sg75
g4105
sg68
(lp4112
g61
(g62
g63
NtRp4113
(dp4114
g66
(dp4115
g74
I2
ssg75
g4109
sg68
(lp4116
g61
(g70
g63
NtRp4117
(dp4118
g66
(dp4119
g74
I1
ssg75
Nsg68
(lp4120
g61
(g77
g63
NtRp4121
(dp4122
g66
(dp4123
sg75
g4117
sg68
(lp4124
g61
(g82
g63
NtRp4125
(dp4126
g66
(dp4127
sg75
g4121
sg68
(lp4128
g61
(g62
g63
NtRp4129
(dp4130
g66
(dp4131
g74
I1
ssg75
g4125
sg68
(lp4132
g3749
(S't\r\x00\x00\x00Documentation'
tRp4133
asbasbasbag61
(g77
g63
NtRp4134
(dp4135
g66
(dp4136
sg75
g4117
sg68
(lp4137
g61
(g82
g63
NtRp4138
(dp4139
g66
(dp4140
sg75
g4134
sg68
(lp4141
g61
(g62
g63
NtRp4142
(dp4143
g66
(dp4144
g74
I1
ssg75
g4138
sg68
(lp4145
I00
asbasbasbag61
(g77
g63
NtRp4146
(dp4147
g66
(dp4148
sg75
g4117
sg68
(lp4149
g61
(g82
g63
NtRp4150
(dp4151
g66
(dp4152
sg75
g4146
sg68
(lp4153
g61
(g62
g63
NtRp4154
(dp4155
g66
(dp4156
g74
I1
ssg75
g4150
sg68
(lp4157
S'http://www.web2py.com/book'
p4158
asbasbasbag61
(g77
g63
NtRp4159
(dp4160
g66
(dp4161
sg75
g4117
sg68
(lp4162
g61
(g82
g63
NtRp4163
(dp4164
g66
(dp4165
sg75
g4159
sg68
(lp4166
g61
(g62
g63
NtRp4167
(dp4168
g66
(dp4169
g74
I1
ssg75
g4163
sg68
(lp4170
(lp4171
(g3749
(S't\x07\x00\x00\x00Preface'
tRp4172
I00
S'http://www.web2py.com/book/default/chapter/00'
p4173
tp4174
a(g3749
(S't\x0c\x00\x00\x00Introduction'
tRp4175
I00
S'http://www.web2py.com/book/default/chapter/01'
p4176
tp4177
a(g3749
(S't\x06\x00\x00\x00Python'
tRp4178
I00
S'http://www.web2py.com/book/default/chapter/02'
p4179
tp4180
a(g3749
(S't\x08\x00\x00\x00Overview'
tRp4181
I00
S'http://www.web2py.com/book/default/chapter/03'
p4182
tp4183
a(g3749
(S's\x08\x00\x00\x00The Core'
tRp4184
I00
S'http://www.web2py.com/book/default/chapter/04'
p4185
tp4186
a(g3749
(S's\t\x00\x00\x00The Views'
tRp4187
I00
S'http://www.web2py.com/book/default/chapter/05'
p4188
tp4189
a(g3749
(S't\x08\x00\x00\x00Database'
tRp4190
I00
S'http://www.web2py.com/book/default/chapter/06'
p4191
tp4192
a(g3749
(S's\x14\x00\x00\x00Forms and Validators'
tRp4193
I00
S'http://www.web2py.com/book/default/chapter/07'
p4194
tp4195
a(g3749
(S's\r\x00\x00\x00Email and SMS'
tRp4196
I00
S'http://www.web2py.com/book/default/chapter/08'
p4197
tp4198
a(g3749
(S's\x0e\x00\x00\x00Access Control'
tRp4199
I00
S'http://www.web2py.com/book/default/chapter/09'
p4200
tp4201
a(g3749
(S't\x08\x00\x00\x00Services'
tRp4202
I00
S'http://www.web2py.com/book/default/chapter/10'
p4203
tp4204
a(g3749
(S's\x0c\x00\x00\x00Ajax Recipes'
tRp4205
I00
S'http://www.web2py.com/book/default/chapter/11'
p4206
tp4207
a(g3749
(S's\x16\x00\x00\x00Components and Plugins'
tRp4208
I00
S'http://www.web2py.com/book/default/chapter/12'
p4209
tp4210
a(g3749
(S's\x12\x00\x00\x00Deployment Recipes'
tRp4211
I00
S'http://www.web2py.com/book/default/chapter/13'
p4212
tp4213
a(g3749
(S's\r\x00\x00\x00Other Recipes'
tRp4214
I00
S'http://www.web2py.com/book/default/chapter/14'
p4215
tp4216
a(g3749
(S's\r\x00\x00\x00Buy this book'
tRp4217
I00
S'http://stores.lulu.com/web2py'
p4218
tp4219
aasbasbasbasbasbasbasbag61
(g77
g63
NtRp4220
(dp4221
g66
(dp4222
sg75
g3862
sg68
(lp4223
g61
(g82
g63
NtRp4224
(dp4225
g66
(dp4226
sg75
g4220
sg68
(lp4227
g61
(g62
g63
NtRp4228
(dp4229
g66
(dp4230
g74
I2
ssg75
g4224
sg68
(lp4231
g61
(g70
g63
NtRp4232
(dp4233
g66
(dp4234
g74
I1
ssg75
Nsg68
(lp4235
g61
(g77
g63
NtRp4236
(dp4237
g66
(dp4238
sg75
g4232
sg68
(lp4239
g61
(g82
g63
NtRp4240
(dp4241
g66
(dp4242
sg75
g4236
sg68
(lp4243
g61
(g62
g63
NtRp4244
(dp4245
g66
(dp4246
g74
I1
ssg75
g4240
sg68
(lp4247
g3749
(S't\t\x00\x00\x00Community'
tRp4248
asbasbasbag61
(g77
g63
NtRp4249
(dp4250
g66
(dp4251
sg75
g4232
sg68
(lp4252
g61
(g82
g63
NtRp4253
(dp4254
g66
(dp4255
sg75
g4249
sg68
(lp4256
g61
(g62
g63
NtRp4257
(dp4258
g66
(dp4259
g74
I1
ssg75
g4253
sg68
(lp4260
I00
asbasbasbag61
(g77
g63
NtRp4261
(dp4262
g66
(dp4263
sg75
g4232
sg68
(lp4264
g61
(g82
g63
NtRp4265
(dp4266
g66
(dp4267
sg75
g4261
sg68
(lp4268
g61
(g62
g63
NtRp4269
(dp4270
g66
(dp4271
g74
I1
ssg75
g4265
sg68
(lp4272
Nasbasbasbag61
(g77
g63
NtRp4273
(dp4274
g66
(dp4275
sg75
g4232
sg68
(lp4276
g61
(g82
g63
NtRp4277
(dp4278
g66
(dp4279
sg75
g4273
sg68
(lp4280
g61
(g62
g63
NtRp4281
(dp4282
g66
(dp4283
g74
I1
ssg75
g4277
sg68
(lp4284
(lp4285
(g3749
(S't\x06\x00\x00\x00Groups'
tRp4286
I00
S'http://www.web2py.com/examples/default/usergroups'
p4287
tp4288
a(g3749
(S't\x07\x00\x00\x00Twitter'
tRp4289
I00
S'http://twitter.com/web2py'
p4290
tp4291
a(g3749
(S's\t\x00\x00\x00Live Chat'
tRp4292
I00
S'http://webchat.freenode.net/?channels=web2py'
p4293
tp4294
aasbasbasbasbasbasbasbag61
(g77
g63
NtRp4295
(dp4296
g66
(dp4297
sg75
g3862
sg68
(lp4298
g61
(g82
g63
NtRp4299
(dp4300
g66
(dp4301
sg75
g4295
sg68
(lp4302
g61
(g62
g63
NtRp4303
(dp4304
g66
(dp4305
g74
I2
ssg75
g4299
sg68
(lp4306
g61
(g70
g63
NtRp4307
(dp4308
g66
(dp4309
g74
I1
ssg75
Nsg68
(lp4310
g61
(g77
g63
NtRp4311
(dp4312
g66
(dp4313
sg75
g4307
sg68
(lp4314
g61
(g82
g63
NtRp4315
(dp4316
g66
(dp4317
sg75
g4311
sg68
(lp4318
g61
(g62
g63
NtRp4319
(dp4320
g66
(dp4321
g74
I1
ssg75
g4315
sg68
(lp4322
g3749
(S't\x07\x00\x00\x00Plugins'
tRp4323
asbasbasbag61
(g77
g63
NtRp4324
(dp4325
g66
(dp4326
sg75
g4307
sg68
(lp4327
g61
(g82
g63
NtRp4328
(dp4329
g66
(dp4330
sg75
g4324
sg68
(lp4331
g61
(g62
g63
NtRp4332
(dp4333
g66
(dp4334
g74
I1
ssg75
g4328
sg68
(lp4335
I00
asbasbasbag61
(g77
g63
NtRp4336
(dp4337
g66
(dp4338
sg75
g4307
sg68
(lp4339
g61
(g82
g63
NtRp4340
(dp4341
g66
(dp4342
sg75
g4336
sg68
(lp4343
g61
(g62
g63
NtRp4344
(dp4345
g66
(dp4346
g74
I1
ssg75
g4340
sg68
(lp4347
Nasbasbasbag61
(g77
g63
NtRp4348
(dp4349
g66
(dp4350
sg75
g4307
sg68
(lp4351
g61
(g82
g63
NtRp4352
(dp4353
g66
(dp4354
sg75
g4348
sg68
(lp4355
g61
(g62
g63
NtRp4356
(dp4357
g66
(dp4358
g74
I1
ssg75
g4352
sg68
(lp4359
(lp4360
(S'plugin_wiki'
p4361
I00
S'http://web2py.com/examples/default/download'
p4362
tp4363
a(g3749
(S's\r\x00\x00\x00Other Plugins'
tRp4364
I00
g4094
tp4365
a(g3749
(S's\x0e\x00\x00\x00Layout Plugins'
tRp4366
I00
g4097
tp4367
aasbasbasbasbasbasbasbasbasbasbasbasbasbasbasbasbasbasbasbag61
(g77
g63
NtRp4368
(dp4369
g66
(dp4370
sg75
g3235
sg68
(lp4371
g61
(g82
g63
NtRp4372
(dp4373
g66
(dp4374
g86
g87
ssg75
g4368
sg68
(lp4375
S'meta'
p4376
asbag61
(g82
g63
NtRp4377
(dp4378
g66
(dp4379
g93
g94
ssg75
g4368
sg68
(lp4380
S':'
asbag61
(g82
g63
NtRp4381
(dp4382
g66
(dp4383
sg75
g4368
sg68
(lp4384
g61
(g62
g63
NtRp4385
(dp4386
g66
(dp4387
g74
I5
ssg75
g4381
sg68
(lp4388
g61
(g70
g63
NtRp4389
(dp4390
g66
(dp4391
g74
I4
ssg75
Nsg68
(lp4392
g61
(g77
g63
NtRp4393
(dp4394
g66
(dp4395
sg75
g4389
sg68
(lp4396
g61
(g82
g63
NtRp4397
(dp4398
g66
(dp4399
g86
g87
ssg75
g4393
sg68
(lp4400
S'author'
p4401
asbag61
(g82
g63
NtRp4402
(dp4403
g66
(dp4404
g93
g94
ssg75
g4393
sg68
(lp4405
S':'
asbag61
(g82
g63
NtRp4406
(dp4407
g66
(dp4408
sg75
g4393
sg68
(lp4409
g61
(g62
g63
NtRp4410
(dp4411
g66
(dp4412
g74
I4
ssg75
g4406
sg68
(lp4413
S'Your Name <you@example.com>'
p4414
asbasbasbag61
(g77
g63
NtRp4415
(dp4416
g66
(dp4417
sg75
g4389
sg68
(lp4418
g61
(g82
g63
NtRp4419
(dp4420
g66
(dp4421
g86
g87
ssg75
g4415
sg68
(lp4422
S'description'
p4423
asbag61
(g82
g63
NtRp4424
(dp4425
g66
(dp4426
g93
g94
ssg75
g4415
sg68
(lp4427
S':'
asbag61
(g82
g63
NtRp4428
(dp4429
g66
(dp4430
sg75
g4415
sg68
(lp4431
g61
(g62
g63
NtRp4432
(dp4433
g66
(dp4434
g74
I4
ssg75
g4428
sg68
(lp4435
S'a cool new app'
p4436
asbasbasbag61
(g77
g63
NtRp4437
(dp4438
g66
(dp4439
sg75
g4389
sg68
(lp4440
g61
(g82
g63
NtRp4441
(dp4442
g66
(dp4443
g86
g87
ssg75
g4437
sg68
(lp4444
S'generator'
p4445
asbag61
(g82
g63
NtRp4446
(dp4447
g66
(dp4448
g93
g94
ssg75
g4437
sg68
(lp4449
S':'
asbag61
(g82
g63
NtRp4450
(dp4451
g66
(dp4452
sg75
g4437
sg68
(lp4453
g61
(g62
g63
NtRp4454
(dp4455
g66
(dp4456
g74
I4
ssg75
g4450
sg68
(lp4457
S'Web2py Web Framework'
p4458
asbasbasbag61
(g77
g63
NtRp4459
(dp4460
g66
(dp4461
sg75
g4389
sg68
(lp4462
g61
(g82
g63
NtRp4463
(dp4464
g66
(dp4465
g86
g87
ssg75
g4459
sg68
(lp4466
S'keywords'
p4467
asbag61
(g82
g63
NtRp4468
(dp4469
g66
(dp4470
g93
g94
ssg75
g4459
sg68
(lp4471
S':'
asbag61
(g82
g63
NtRp4472
(dp4473
g66
(dp4474
sg75
g4459
sg68
(lp4475
g61
(g62
g63
NtRp4476
(dp4477
g66
(dp4478
g74
I4
ssg75
g4472
sg68
(lp4479
S'web2py, python, framework'
p4480
asbasbasbasbasbasbasbag61
(g77
g63
NtRp4481
(dp4482
g66
(dp4483
sg75
g3235
sg68
(lp4484
g61
(g82
g63
NtRp4485
(dp4486
g66
(dp4487
g86
g87
ssg75
g4481
sg68
(lp4488
S'models_to_run'
p4489
asbag61
(g82
g63
NtRp4490
(dp4491
g66
(dp4492
g93
g94
ssg75
g4481
sg68
(lp4493
S':'
asbag61
(g82
g63
NtRp4494
(dp4495
g66
(dp4496
sg75
g4481
sg68
(lp4497
g61
(g62
g63
NtRp4498
(dp4499
g66
(dp4500
g74
I5
ssg75
g4494
sg68
(lp4501
g61
(g70
g63
NtRp4502
(dp4503
g66
(dp4504
g74
I4
ssg75
Nsg68
(lp4505
g61
(g77
g63
NtRp4506
(dp4507
g66
(dp4508
sg75
g4502
sg68
(lp4509
g61
(g82
g63
NtRp4510
(dp4511
g66
(dp4512
sg75
g4506
sg68
(lp4513
g61
(g62
g63
NtRp4514
(dp4515
g66
(dp4516
g74
I4
ssg75
g4510
sg68
(lp4517
S'^\\w+\\.py$'
p4518
asbasbasbag61
(g77
g63
NtRp4519
(dp4520
g66
(dp4521
sg75
g4502
sg68
(lp4522
g61
(g82
g63
NtRp4523
(dp4524
g66
(dp4525
sg75
g4519
sg68
(lp4526
g61
(g62
g63
NtRp4527
(dp4528
g66
(dp4529
g74
I4
ssg75
g4523
sg68
(lp4530
S'^game/\\w+\\.py$'
p4531
asbasbasbag61
(g77
g63
NtRp4532
(dp4533
g66
(dp4534
sg75
g4502
sg68
(lp4535
g61
(g82
g63
NtRp4536
(dp4537
g66
(dp4538
sg75
g4532
sg68
(lp4539
g61
(g62
g63
NtRp4540
(dp4541
g66
(dp4542
g74
I4
ssg75
g4536
sg68
(lp4543
S'^game/show/\\w+\\.py$'
p4544
asbasbasbasbasbasbasbag61
(g77
g63
NtRp4545
(dp4546
g66
(dp4547
sg75
g3235
sg68
(lp4548
g61
(g82
g63
NtRp4549
(dp4550
g66
(dp4551
g86
g87
ssg75
g4545
sg68
(lp4552
S'postprocessing'
p4553
asbag61
(g82
g63
NtRp4554
(dp4555
g66
(dp4556
g93
g94
ssg75
g4545
sg68
(lp4557
S':'
asbag61
(g82
g63
NtRp4558
(dp4559
g66
(dp4560
sg75
g4545
sg68
(lp4561
g61
(g62
g63
NtRp4562
(dp4563
g66
(dp4564
g74
I5
ssg75
g4558
sg68
(lp4565
g61
(g70
g63
NtRp4566
(dp4567
g66
(dp4568
g74
I4
ssg75
Nsg68
(lp4569
sbasbasbasbag61
(g77
g63
NtRp4570
(dp4571
g66
(dp4572
sg75
g3235
sg68
(lp4573
g61
(g82
g63
NtRp4574
(dp4575
g66
(dp4576
g86
g87
ssg75
g4570
sg68
(lp4577
S'session_cookie_expires'
p4578
asbag61
(g82
g63
NtRp4579
(dp4580
g66
(dp4581
g93
g94
ssg75
g4570
sg68
(lp4582
S':'
asbag61
(g82
g63
NtRp4583
(dp4584
g66
(dp4585
sg75
g4570
sg68
(lp4586
g61
(g62
g63
NtRp4587
(dp4588
g66
(dp4589
g74
I5
ssg75
g4583
sg68
(lp4590
S'None'
p4591
asbasbasbag61
(g77
g63
NtRp4592
(dp4593
g66
(dp4594
sg75
g3235
sg68
(lp4595
g61
(g82
g63
NtRp4596
(dp4597
g66
(dp4598
g86
g87
ssg75
g4592
sg68
(lp4599
S'session_data_name'
p4600
asbag61
(g82
g63
NtRp4601
(dp4602
g66
(dp4603
g93
g94
ssg75
g4592
sg68
(lp4604
S':'
asbag61
(g82
g63
NtRp4605
(dp4606
g66
(dp4607
sg75
g4592
sg68
(lp4608
g61
(g62
g63
NtRp4609
(dp4610
g66
(dp4611
g74
I5
ssg75
g4605
sg68
(lp4612
S'session_data_hellow'
p4613
asbasbasbag61
(g77
g63
NtRp4614
(dp4615
g66
(dp4616
sg75
g3235
sg68
(lp4617
g61
(g82
g63
NtRp4618
(dp4619
g66
(dp4620
g86
g87
ssg75
g4614
sg68
(lp4621
S'session_file'
p4622
asbag61
(g82
g63
NtRp4623
(dp4624
g66
(dp4625
g93
g94
ssg75
g4614
sg68
(lp4626
S':'
asbag61
(g82
g63
NtRp4627
(dp4628
g66
(dp4629
sg75
g4614
sg68
(lp4630
g61
(g62
g63
NtRp4631
(dp4632
g66
(dp4633
g74
I5
ssg75
g4627
sg68
(lp4634
S'None'
p4635
asbasbasbag61
(g77
g63
NtRp4636
(dp4637
g66
(dp4638
sg75
g3235
sg68
(lp4639
g61
(g82
g63
NtRp4640
(dp4641
g66
(dp4642
g86
g87
ssg75
g4636
sg68
(lp4643
S'session_filename'
p4644
asbag61
(g82
g63
NtRp4645
(dp4646
g66
(dp4647
g93
g94
ssg75
g4636
sg68
(lp4648
S':'
asbag61
(g82
g63
NtRp4649
(dp4650
g66
(dp4651
sg75
g4636
sg68
(lp4652
g61
(g62
g63
NtRp4653
(dp4654
g66
(dp4655
g74
I5
ssg75
g4649
sg68
(lp4656
S'/Users/zamechek/Downloads/web2py/web2py.app/Contents/Resources/applications/hellow/sessions/127.0.0.1-bbea59f2-333e-4593-a45c-2c44a5133d77'
p4657
asbasbasbag61
(g77
g63
NtRp4658
(dp4659
g66
(dp4660
sg75
g3235
sg68
(lp4661
g61
(g82
g63
NtRp4662
(dp4663
g66
(dp4664
g86
g87
ssg75
g4658
sg68
(lp4665
S'session_id'
p4666
asbag61
(g82
g63
NtRp4667
(dp4668
g66
(dp4669
g93
g94
ssg75
g4658
sg68
(lp4670
S':'
asbag61
(g82
g63
NtRp4671
(dp4672
g66
(dp4673
sg75
g4658
sg68
(lp4674
g61
(g62
g63
NtRp4675
(dp4676
g66
(dp4677
g74
I5
ssg75
g4671
sg68
(lp4678
g470
asbasbasbag61
(g77
g63
NtRp4679
(dp4680
g66
(dp4681
sg75
g3235
sg68
(lp4682
g61
(g82
g63
NtRp4683
(dp4684
g66
(dp4685
g86
g87
ssg75
g4679
sg68
(lp4686
S'session_id_name'
p4687
asbag61
(g82
g63
NtRp4688
(dp4689
g66
(dp4690
g93
g94
ssg75
g4679
sg68
(lp4691
S':'
asbag61
(g82
g63
NtRp4692
(dp4693
g66
(dp4694
sg75
g4679
sg68
(lp4695
g61
(g62
g63
NtRp4696
(dp4697
g66
(dp4698
g74
I5
ssg75
g4692
sg68
(lp4699
g3292
asbasbasbag61
(g77
g63
NtRp4700
(dp4701
g66
(dp4702
sg75
g3235
sg68
(lp4703
g61
(g82
g63
NtRp4704
(dp4705
g66
(dp4706
g86
g87
ssg75
g4700
sg68
(lp4707
S'session_new'
p4708
asbag61
(g82
g63
NtRp4709
(dp4710
g66
(dp4711
g93
g94
ssg75
g4700
sg68
(lp4712
S':'
asbag61
(g82
g63
NtRp4713
(dp4714
g66
(dp4715
sg75
g4700
sg68
(lp4716
g61
(g62
g63
NtRp4717
(dp4718
g66
(dp4719
g74
I5
ssg75
g4713
sg68
(lp4720
g104
asbasbasbag61
(g77
g63
NtRp4721
(dp4722
g66
(dp4723
sg75
g3235
sg68
(lp4724
g61
(g82
g63
NtRp4725
(dp4726
g66
(dp4727
g86
g87
ssg75
g4721
sg68
(lp4728
S'session_storage_type'
p4729
asbag61
(g82
g63
NtRp4730
(dp4731
g66
(dp4732
g93
g94
ssg75
g4721
sg68
(lp4733
S':'
asbag61
(g82
g63
NtRp4734
(dp4735
g66
(dp4736
sg75
g4721
sg68
(lp4737
g61
(g62
g63
NtRp4738
(dp4739
g66
(dp4740
g74
I5
ssg75
g4734
sg68
(lp4741
g3198
asbasbasbag61
(g77
g63
NtRp4742
(dp4743
g66
(dp4744
sg75
g3235
sg68
(lp4745
g61
(g82
g63
NtRp4746
(dp4747
g66
(dp4748
g86
g87
ssg75
g4742
sg68
(lp4749
S'status'
p4750
asbag61
(g82
g63
NtRp4751
(dp4752
g66
(dp4753
g93
g94
ssg75
g4742
sg68
(lp4754
S':'
asbag61
(g82
g63
NtRp4755
(dp4756
g66
(dp4757
sg75
g4742
sg68
(lp4758
g61
(g62
g63
NtRp4759
(dp4760
g66
(dp4761
g74
I5
ssg75
g4755
sg68
(lp4762
S'200'
p4763
asbasbasbag61
(g77
g63
NtRp4764
(dp4765
g66
(dp4766
sg75
g3235
sg68
(lp4767
g61
(g82
g63
NtRp4768
(dp4769
g66
(dp4770
g86
g87
ssg75
g4764
sg68
(lp4771
S'subtitle'
p4772
asbag61
(g82
g63
NtRp4773
(dp4774
g66
(dp4775
g93
g94
ssg75
g4764
sg68
(lp4776
S':'
asbag61
(g82
g63
NtRp4777
(dp4778
g66
(dp4779
sg75
g4764
sg68
(lp4780
g61
(g62
g63
NtRp4781
(dp4782
g66
(dp4783
g74
I5
ssg75
g4777
sg68
(lp4784
g3749
(S's\r\x00\x00\x00customize me!'
tRp4785
asbasbasbag61
(g77
g63
NtRp4786
(dp4787
g66
(dp4788
sg75
g3235
sg68
(lp4789
g61
(g82
g63
NtRp4790
(dp4791
g66
(dp4792
g86
g87
ssg75
g4786
sg68
(lp4793
S'title'
p4794
asbag61
(g82
g63
NtRp4795
(dp4796
g66
(dp4797
g93
g94
ssg75
g4786
sg68
(lp4798
S':'
asbag61
(g82
g63
NtRp4799
(dp4800
g66
(dp4801
sg75
g4786
sg68
(lp4802
g61
(g62
g63
NtRp4803
(dp4804
g66
(dp4805
g74
I5
ssg75
g4799
sg68
(lp4806
S'Hellow'
p4807
asbasbasbag61
(g77
g63
NtRp4808
(dp4809
g66
(dp4810
sg75
g3235
sg68
(lp4811
g61
(g82
g63
NtRp4812
(dp4813
g66
(dp4814
g86
g87
ssg75
g4808
sg68
(lp4815
S'view'
p4816
asbag61
(g82
g63
NtRp4817
(dp4818
g66
(dp4819
g93
g94
ssg75
g4808
sg68
(lp4820
S':'
asbag61
(g82
g63
NtRp4821
(dp4822
g66
(dp4823
sg75
g4808
sg68
(lp4824
g61
(g62
g63
NtRp4825
(dp4826
g66
(dp4827
g74
I5
ssg75
g4821
sg68
(lp4828
S'game/show.html'
p4829
asbasbasbasbasbsS'locals'
p4830
(dp4831
g4
S"'/Users/zamechek/Downloads/web2py/web2py.app/Cont...esources/applications/hellow/views/game/show.html'"
p4832
sg6
S'\'response.write(\\\'<!--[if HTML5]><![endif]-->\\\\n<!D..."></script>\\\\n</body>\\\\n</html>\\\\n\\\\n\\\', escape=False)\''
p4833
sssS'traceback'
p4834
S'Traceback (most recent call last):\n  File "/home/mdipierro/web2py/gluon/restricted.py", line 211, in restricted\n  File "/home/mdipierro/web2py/gluon/restricted.py", line 194, in compile2\n  File "/Users/zamechek/Downloads/web2py/web2py.app/Contents/Resources/applications/hellow/views/game/show.html", line 85\n    for gs in rows\n                 \n^\nSyntaxError: invalid syntax\n'
p4835
s.