(dp1
S'output'
p2
S"<type 'exceptions.NameError'> name 'form' is not defined"
p3
sS'layer'
p4
S'/Users/zamechek/Downloads/web2py/web2py.app/Contents/Resources/applications/hellow/views/game/show.html'
p5
sS'code'
p6
S'response.write(\'<!--[if HTML5]><![endif]-->\\n<!DOCTYPE html>\\n<!-- paulirish.com/2008/conditional-stylesheets-vs-css-hacks-answer-neither/ -->\\n<!--[if lt IE 7]><html class="ie ie6 ie-lte9 ie-lte8 ie-lte7 no-js" lang="\', escape=False)\nresponse.write(T.accepted_language or \'en\')\nresponse.write(\'"> <![endif]-->\\n<!--[if IE 7]><html class="ie ie7 ie-lte9 ie-lte8 ie-lte7 no-js" lang="\', escape=False)\nresponse.write(T.accepted_language or \'en\')\nresponse.write(\'"> <![endif]-->\\n<!--[if IE 8]><html class="ie ie8 ie-lte9 ie-lte8 no-js" lang="\', escape=False)\nresponse.write(T.accepted_language or \'en\')\nresponse.write(\'"> <![endif]-->\\n<!--[if IE 9]><html class="ie9 ie-lte9 no-js" lang="\', escape=False)\nresponse.write(T.accepted_language or \'en\')\nresponse.write(\'"> <![endif]-->\\n<!--[if (gt IE 9)|!(IE)]><!--> <html class="no-js" lang="\', escape=False)\nresponse.write(T.accepted_language or \'en\')\nresponse.write(\'"> <!--<![endif]-->\\n<head>\\n<title>\', escape=False)\nresponse.write(response.title or request.application)\nresponse.write(\'</title>\\n  <!--[if !HTML5]>\\n      <meta http-equiv="X-UA-Compatible" content="IE=edge\', escape=False)\nresponse.write(not request.is_local and \',chrome=1\' or \'\')\nresponse.write(\'">\\n  <![endif]-->\\n  <!-- www.phpied.com/conditional-comments-block-downloads/ -->\\n  <!-- Always force latest IE rendering engine\\n       (even in intranet) & Chrome Frame\\n       Remove this if you use the .htaccess -->\\n\\t   \\n  <meta charset="utf-8" />\\n\\n  <!-- http://dev.w3.org/html5/markup/meta.name.html -->\\n  <meta name="application-name" content="\', escape=False)\nresponse.write(request.application)\nresponse.write(\'" />\\n\\n  <!-- Speaking of Google, don\\\'t forget to set your site up:\\n       http://google.com/webmasters -->\\n  <meta name="google-site-verification" content="" />\\n\\n  <!--  Mobile Viewport Fix\\n        j.mp/mobileviewport & davidbcalhoun.com/2010/viewport-metatag\\n        device-width: Occupy full width of the screen in its current orientation\\n        initial-scale = 1.0 retains dimensions instead of zooming out if page height > device height\\n        user-scalable = yes allows the user to zoom in -->\\n  <meta name="viewport" content="width=device-width, initial-scale=1.0" />\\n\\n  <link rel="shortcut icon" href="\', escape=False)\nresponse.write(URL(\'static\',\'images/favicon.ico\'))\nresponse.write(\'" type="image/x-icon">\\n  <link rel="apple-touch-icon" href="\', escape=False)\nresponse.write(URL(\'static\',\'images/favicon.png\'))\nresponse.write(\'">\\n\\n  <!-- All JavaScript at the bottom, except for Modernizr which enables\\n       HTML5 elements & feature detects -->\\n  <script src="\', escape=False)\nresponse.write(URL(\'static\',\'js/modernizr.custom.js\'))\nresponse.write(\'"></script>\\n\\n  <!-- include stylesheets -->\\n  \', escape=False)\nresponse.files.append(URL(\'static\',\'css/web2py.css\'))\nresponse.files.append(URL(\'static\',\'css/bootstrap.min.css\'))\nresponse.files.append(URL(\'static\',\'css/bootstrap-responsive.min.css\'))\nresponse.files.append(URL(\'static\',\'css/web2py_bootstrap.css\'))\nresponse.write(\'\\n\\n  \', escape=False)\nresponse.write(\'<script type="text/javascript"><!--\\n    // These variables are used by the web2py_ajax_init function in web2py_ajax.js (which is loaded below).\\n    var w2p_ajax_confirm_message = "\', escape=False)\nresponse.write(T(\'Are you sure you want to delete this object?\'))\nresponse.write(\'";\\n    var w2p_ajax_date_format = "\', escape=False)\nresponse.write(T(\'%Y-%m-%d\'))\nresponse.write(\'";\\n    var w2p_ajax_datetime_format = "\', escape=False)\nresponse.write(T(\'%Y-%m-%d %H:%M:%S\'))\nresponse.write(\'";\\n    var ajax_error_500 = \\\'\', escape=False)\nresponse.write(XML(T(\'An error occured, please %s the page\') % A(T(\'reload\'), _href=URL(args=request.args, vars=request.vars))))\nresponse.write("\'\\n    //--></script>\\n", escape=False)\nresponse.files.insert(0,URL(\'static\',\'js/jquery.js\'))\nresponse.files.insert(1,URL(\'static\',\'css/calendar.css\'))\nresponse.files.insert(2,URL(\'static\',\'js/calendar.js\'))\nresponse.files.insert(3,URL(\'static\',\'js/web2py.js\'))\nresponse.include_meta()\nresponse.include_files()\nresponse.write(\'\\n\', escape=False)\nresponse.write(\'\\n\\n  \', escape=False)\n# using sidebars need to know what sidebar you want to use\nleft_sidebar_enabled = globals().get(\'left_sidebar_enabled\',False)\nright_sidebar_enabled = globals().get(\'right_sidebar_enabled\',False)\nmiddle_columns = {0:\'span12\',1:\'span9\',2:\'span6\'}[\n(left_sidebar_enabled and 1 or 0)+(right_sidebar_enabled and 1 or 0)]\nresponse.write(\'\\n\\n  <!-- uncomment here to load jquery-ui\\n       <link rel="stylesheet" href="http://ajax.googleapis.com/ajax/libs/jqueryui/1.8.16/themes/base/jquery-ui.css" type="text/css" media="all" />\\n       <script src="http://ajax.googleapis.com/ajax/libs/jqueryui/1.8.16/jquery-ui.min.js" type="text/javascript"></script>\\n       uncomment to load jquery-ui //-->\\n  <noscript><link href="\', escape=False)\nresponse.write(URL(\'static\', \'css/web2py_bootstrap_nojs.css\'))\nresponse.write(\'" rel="stylesheet" type="text/css" /></noscript>\\n  \', escape=False)\nresponse.write(\'\\n</head>\\n\\n<body>\\n  <!-- Navbar ================================================== -->\\n  <div class="navbar navbar-inverse navbar-fixed-top">\\n    <div class="flash">\', escape=False)\nresponse.write(response.flash or \'\')\nresponse.write(\'</div>\\n    <div class="navbar-inner">\\n      <div class="container">\\n        <!-- the next tag is necessary for bootstrap menus, do not remove -->\\n        <button type="button" class="btn btn-navbar" data-toggle="collapse" data-target=".nav-collapse">\\n          <span class="icon-bar"></span>\\n          <span class="icon-bar"></span>\\n          <span class="icon-bar"></span>\\n        </button>\\n\\t\', escape=False)\nresponse.write(response.logo or \'\')\nresponse.write(\'\\n        <ul id="navbar" class="nav pull-right">\', escape=False)\nresponse.write(\'auth\' in globals() and auth.navbar(mode="dropdown") or \'\')\nresponse.write(\'</ul>\\n        <div class="nav-collapse">\\n          \', escape=False)\nis_mobile=request.user_agent().is_mobile\nresponse.write(\'\\n          \', escape=False)\nif response.menu:\n    response.write(\'\\n          \', escape=False)\n    response.write(MENU(response.menu, _class=\'mobile-menu nav\' if is_mobile else \'nav\',mobile=is_mobile,li_class=\'dropdown\',ul_class=\'dropdown-menu\'))\n    response.write(\'\\n          \', escape=False)\n    pass\nresponse.write(\'\\n        </div><!--/.nav-collapse -->\\n      </div>\\n    </div>\\n  </div><!--/top navbar -->\\n\\n  <div class="container">\\n    <!-- Masthead ================================================== -->\\n    <header class="mastheader row" id="header">\\n        <div class="span12">\\n            <div class="page-header">\\n                <h1>\\n                    \', escape=False)\nresponse.write(response.title or request.application)\nresponse.write(\'\\n                    <small>\', escape=False)\nresponse.write(response.subtitle or \'\')\nresponse.write(\'</small>\\n                </h1>\\n            </div>\\n        </div>\\n    </header>\\n\\n    <section id="main" class="main row">\\n        \', escape=False)\nif left_sidebar_enabled:\n    response.write(\'\\n        <div class="span3 left-sidebar">\\n            \', escape=False)\n    response.write(\'\\n            <h3>Left Sidebar</h3>\\n            <p></p>\\n            \', escape=False)\n    response.write(\'\\n        </div>\\n        \', escape=False)\n    pass\nresponse.write(\'\\n\\n        <div class="\', escape=False)\nresponse.write(middle_columns)\nresponse.write(\'">\\n            \', escape=False)\nresponse.write(\'\\n            \', escape=False)\nresponse.write(\'\\n<h1>Game \', escape=False)\nresponse.write(gameid)\nresponse.write(\'</h1>\\n<div>\\n\\t<ul>\\n        <li>Name = \', escape=False)\nresponse.write(name)\nresponse.write(\'</li>\\n        <li>Balance = \', escape=False)\nresponse.write(balance)\nresponse.write(\'</li>\\n    </ul>\\n    \', escape=False)\nresponse.write(form)\nresponse.write(\'\\n</div>\\n\', escape=False)\nresponse.write(\'\\n            \', escape=False)\nresponse.write(\'\\n        </div>\\n\\n        \', escape=False)\nif right_sidebar_enabled:\n    response.write(\'\\n        <div class="span3">\\n            \', escape=False)\n    response.write(\'\\n            <h3>Right Sidebar</h3>\\n            <p></p>\\n            \', escape=False)\n    response.write(\'\\n        </div>\\n        \', escape=False)\n    pass\nresponse.write(\'\\n    </section><!--/main-->\\n\\n    <!-- Footer ================================================== -->\\n    <div class="row">\\n        <footer class="footer span12" id="footer">\\n            <div class="footer-content">\\n                \', escape=False)\nresponse.write(\' <!-- this is default footer -->\\n                <div class="copyright pull-left">\', escape=False)\nresponse.write(T(\'Copyright\'))\nresponse.write(\' &#169; \', escape=False)\nresponse.write(request.now.year)\nresponse.write(\'</div>\\n                <div id="poweredBy" class="pull-right">\\n                    \', escape=False)\nresponse.write(T(\'Powered by\'))\nresponse.write(\'\\n                    <a href="http://www.web2py.com/">web2py</a>\\n                </div>\\n                \', escape=False)\nresponse.write(\'\\n            </div>\\n        </footer>\\n    </div>\\n\\n  </div> <!-- /container -->\\n\\n  <!-- The javascript =============================================\\n       (Placed at the end of the document so the pages load faster) -->\\n  <script src="\', escape=False)\nresponse.write(URL(\'static\',\'js/bootstrap.min.js\'))\nresponse.write(\'"></script>\\n  <script src="\', escape=False)\nresponse.write(URL(\'static\',\'js/web2py_bootstrap.js\'))\nresponse.write(\'"></script>\\n  <!--[if lt IE 7 ]>\\n      <script src="\', escape=False)\nresponse.write(URL(\'static\',\'js/dd_belatedpng.js\'))\nresponse.write(\'"></script>\\n      <script> DD_belatedPNG.fix(\\\'img, .png_bg\\\'); //fix any <img> or .png_bg background-images </script>\\n      <![endif]-->\\n  \\n  \', escape=False)\nif response.google_analytics_id:\n    response.write(\'\\n  <script src="\', escape=False)\n    response.write(URL(\'static\',\'js/analytics.min.js\'))\n    response.write(\'"></script>\\n  <script type="text/javascript">\\n  analytics.initialize({\\n    \\\'Google Analytics\\\':{trackingId:\\\'\', escape=False)\n    response.write(response.google_analytics_id)\n    response.write("\'} \\n  });</script>\\n  ", escape=False)\n    pass\nresponse.write(\'\\n  <script src="\', escape=False)\nresponse.write(URL(\'static\',\'js/share.js\',vars=dict(static=URL(\'static\',\'images\'))))\nresponse.write(\'"></script>\\n</body>\\n</html>\\n\\n\', escape=False)'
p7
sS'snapshot'
p8
(dp9
S'exception'
p10
(dp11
S'__hash__'
p12
S"<method-wrapper '__hash__' of exceptions.NameError object at 0xa218f58>"
p13
sS'__setattr__'
p14
S"<method-wrapper '__setattr__' of exceptions.NameError object at 0xa218f58>"
p15
sS'__reduce_ex__'
p16
S'<built-in method __reduce_ex__ of exceptions.NameError object at 0xa218f58>'
p17
sS'__getslice__'
p18
S"<method-wrapper '__getslice__' of exceptions.NameError object at 0xa218f58>"
p19
sS'__getitem__'
p20
S"<method-wrapper '__getitem__' of exceptions.NameError object at 0xa218f58>"
p21
sS'__setstate__'
p22
S'<built-in method __setstate__ of exceptions.NameError object at 0xa218f58>'
p23
sS'__reduce__'
p24
S'<built-in method __reduce__ of exceptions.NameError object at 0xa218f58>'
p25
sS'__str__'
p26
S"<method-wrapper '__str__' of exceptions.NameError object at 0xa218f58>"
p27
sS'args'
p28
S'("name \'form\' is not defined",)'
p29
sS'__getattribute__'
p30
S"<method-wrapper '__getattribute__' of exceptions.NameError object at 0xa218f58>"
p31
sS'__class__'
p32
S"<type 'exceptions.NameError'>"
p33
sS'__delattr__'
p34
S"<method-wrapper '__delattr__' of exceptions.NameError object at 0xa218f58>"
p35
sS'__repr__'
p36
S"<method-wrapper '__repr__' of exceptions.NameError object at 0xa218f58>"
p37
sS'__dict__'
p38
S'{}'
p39
sS'__doc__'
p40
S"'Name not found globally.'"
p41
sS'__init__'
p42
S"<method-wrapper '__init__' of exceptions.NameError object at 0xa218f58>"
p43
sS'__new__'
p44
S'<built-in method __new__ of type object at 0x5f9640>'
p45
ssS'evalue'
p46
S"name 'form' is not defined"
p47
sS'request'
p48
ccopy_reg
_reconstructor
p49
(cgluon.html
BEAUTIFY
p50
c__builtin__
object
p51
NtRp52
(dp53
S'attributes'
p54
(dp55
sS'components'
p56
(lp57
g49
(cgluon.html
TABLE
p58
g51
NtRp59
(dp60
g54
(dp61
S'level'
p62
I5
ssS'parent'
p63
Nsg56
(lp64
g49
(cgluon.html
TR
p65
g51
NtRp66
(dp67
g54
(dp68
sg63
g59
sg56
(lp69
g49
(cgluon.html
TD
p70
g51
NtRp71
(dp72
g54
(dp73
S'_style'
p74
S'font-weight:bold;vertical-align:top'
p75
ssg63
g66
sg56
(lp76
S'ajax'
p77
asbag49
(g70
g51
NtRp78
(dp79
g54
(dp80
S'_valign'
p81
S'top'
p82
ssg63
g66
sg56
(lp83
S':'
asbag49
(g70
g51
NtRp84
(dp85
g54
(dp86
sg63
g66
sg56
(lp87
g49
(g50
g51
NtRp88
(dp89
g54
(dp90
g62
I5
ssg63
g84
sg56
(lp91
S'False'
p92
asbasbasbag49
(g65
g51
NtRp93
(dp94
g54
(dp95
sg63
g59
sg56
(lp96
g49
(g70
g51
NtRp97
(dp98
g54
(dp99
g74
g75
ssg63
g93
sg56
(lp100
S'application'
p101
asbag49
(g70
g51
NtRp102
(dp103
g54
(dp104
g81
g82
ssg63
g93
sg56
(lp105
S':'
asbag49
(g70
g51
NtRp106
(dp107
g54
(dp108
sg63
g93
sg56
(lp109
g49
(g50
g51
NtRp110
(dp111
g54
(dp112
g62
I5
ssg63
g106
sg56
(lp113
S'hellow'
p114
asbasbasbag49
(g65
g51
NtRp115
(dp116
g54
(dp117
sg63
g59
sg56
(lp118
g49
(g70
g51
NtRp119
(dp120
g54
(dp121
g74
g75
ssg63
g115
sg56
(lp122
g28
asbag49
(g70
g51
NtRp123
(dp124
g54
(dp125
g81
g82
ssg63
g115
sg56
(lp126
S':'
asbag49
(g70
g51
NtRp127
(dp128
g54
(dp129
sg63
g115
sg56
(lp130
g49
(g50
g51
NtRp131
(dp132
g54
(dp133
g62
I5
ssg63
g127
sg56
(lp134
g49
(g58
g51
NtRp135
(dp136
g54
(dp137
g62
I4
ssg63
Nsg56
(lp138
g49
(g65
g51
NtRp139
(dp140
g54
(dp141
sg63
g135
sg56
(lp142
g49
(g70
g51
NtRp143
(dp144
g54
(dp145
sg63
g139
sg56
(lp146
g49
(g50
g51
NtRp147
(dp148
g54
(dp149
g62
I4
ssg63
g143
sg56
(lp150
S'1'
asbasbasbasbasbasbasbag49
(g65
g51
NtRp151
(dp152
g54
(dp153
sg63
g59
sg56
(lp154
g49
(g70
g51
NtRp155
(dp156
g54
(dp157
g74
g75
ssg63
g151
sg56
(lp158
S'body'
p159
asbag49
(g70
g51
NtRp160
(dp161
g54
(dp162
g81
g82
ssg63
g151
sg56
(lp163
S':'
asbag49
(g70
g51
NtRp164
(dp165
g54
(dp166
sg63
g151
sg56
(lp167
g49
(g50
g51
NtRp168
(dp169
g54
(dp170
g62
I5
ssg63
g164
sg56
(lp171
S'<cStringIO.StringO object at 0xaadd7c0>'
p172
asbasbasbag49
(g65
g51
NtRp173
(dp174
g54
(dp175
sg63
g59
sg56
(lp176
g49
(g70
g51
NtRp177
(dp178
g54
(dp179
g74
g75
ssg63
g173
sg56
(lp180
S'cid'
p181
asbag49
(g70
g51
NtRp182
(dp183
g54
(dp184
g81
g82
ssg63
g173
sg56
(lp185
S':'
asbag49
(g70
g51
NtRp186
(dp187
g54
(dp188
sg63
g173
sg56
(lp189
g49
(g50
g51
NtRp190
(dp191
g54
(dp192
g62
I5
ssg63
g186
sg56
(lp193
S'None'
p194
asbasbasbag49
(g65
g51
NtRp195
(dp196
g54
(dp197
sg63
g59
sg56
(lp198
g49
(g70
g51
NtRp199
(dp200
g54
(dp201
g74
g75
ssg63
g195
sg56
(lp202
S'client'
p203
asbag49
(g70
g51
NtRp204
(dp205
g54
(dp206
g81
g82
ssg63
g195
sg56
(lp207
S':'
asbag49
(g70
g51
NtRp208
(dp209
g54
(dp210
sg63
g195
sg56
(lp211
g49
(g50
g51
NtRp212
(dp213
g54
(dp214
g62
I5
ssg63
g208
sg56
(lp215
S'127.0.0.1'
p216
asbasbasbag49
(g65
g51
NtRp217
(dp218
g54
(dp219
sg63
g59
sg56
(lp220
g49
(g70
g51
NtRp221
(dp222
g54
(dp223
g74
g75
ssg63
g217
sg56
(lp224
S'controller'
p225
asbag49
(g70
g51
NtRp226
(dp227
g54
(dp228
g81
g82
ssg63
g217
sg56
(lp229
S':'
asbag49
(g70
g51
NtRp230
(dp231
g54
(dp232
sg63
g217
sg56
(lp233
g49
(g50
g51
NtRp234
(dp235
g54
(dp236
g62
I5
ssg63
g230
sg56
(lp237
S'game'
p238
asbasbasbag49
(g65
g51
NtRp239
(dp240
g54
(dp241
sg63
g59
sg56
(lp242
g49
(g70
g51
NtRp243
(dp244
g54
(dp245
g74
g75
ssg63
g239
sg56
(lp246
S'cookies'
p247
asbag49
(g70
g51
NtRp248
(dp249
g54
(dp250
g81
g82
ssg63
g239
sg56
(lp251
S':'
asbag49
(g70
g51
NtRp252
(dp253
g54
(dp254
sg63
g239
sg56
(lp255
g49
(g50
g51
NtRp256
(dp257
g54
(dp258
g62
I5
ssg63
g252
sg56
(lp259
g49
(g58
g51
NtRp260
(dp261
g54
(dp262
g62
I4
ssg63
Nsg56
(lp263
g49
(g65
g51
NtRp264
(dp265
g54
(dp266
sg63
g260
sg56
(lp267
g49
(g70
g51
NtRp268
(dp269
g54
(dp270
g74
g75
ssg63
g264
sg56
(lp271
S'session_id_admin'
p272
asbag49
(g70
g51
NtRp273
(dp274
g54
(dp275
g81
g82
ssg63
g264
sg56
(lp276
S':'
asbag49
(g70
g51
NtRp277
(dp278
g54
(dp279
sg63
g264
sg56
(lp280
g49
(g50
g51
NtRp281
(dp282
g54
(dp283
g62
I4
ssg63
g277
sg56
(lp284
S'127.0.0.1-bf448199-cadc-41e3-b1a7-bed302e89a3e'
p285
ag49
(g58
g51
NtRp286
(dp287
g54
(dp288
g62
I3
ssg63
Nsg56
(lp289
g49
(g65
g51
NtRp290
(dp291
g54
(dp292
sg63
g286
sg56
(lp293
g49
(g70
g51
NtRp294
(dp295
g54
(dp296
g74
g75
ssg63
g290
sg56
(lp297
S'comment'
p298
asbag49
(g70
g51
NtRp299
(dp300
g54
(dp301
g81
g82
ssg63
g290
sg56
(lp302
S':'
asbag49
(g70
g51
NtRp303
(dp304
g54
(dp305
sg63
g290
sg56
(lp306
g49
(g50
g51
NtRp307
(dp308
g54
(dp309
g62
I3
ssg63
g303
sg56
(lp310
S''
asbasbasbag49
(g65
g51
NtRp311
(dp312
g54
(dp313
sg63
g286
sg56
(lp314
g49
(g70
g51
NtRp315
(dp316
g54
(dp317
g74
g75
ssg63
g311
sg56
(lp318
S'domain'
p319
asbag49
(g70
g51
NtRp320
(dp321
g54
(dp322
g81
g82
ssg63
g311
sg56
(lp323
S':'
asbag49
(g70
g51
NtRp324
(dp325
g54
(dp326
sg63
g311
sg56
(lp327
g49
(g50
g51
NtRp328
(dp329
g54
(dp330
g62
I3
ssg63
g324
sg56
(lp331
S''
asbasbasbag49
(g65
g51
NtRp332
(dp333
g54
(dp334
sg63
g286
sg56
(lp335
g49
(g70
g51
NtRp336
(dp337
g54
(dp338
g74
g75
ssg63
g332
sg56
(lp339
S'expires'
p340
asbag49
(g70
g51
NtRp341
(dp342
g54
(dp343
g81
g82
ssg63
g332
sg56
(lp344
S':'
asbag49
(g70
g51
NtRp345
(dp346
g54
(dp347
sg63
g332
sg56
(lp348
g49
(g50
g51
NtRp349
(dp350
g54
(dp351
g62
I3
ssg63
g345
sg56
(lp352
S''
asbasbasbag49
(g65
g51
NtRp353
(dp354
g54
(dp355
sg63
g286
sg56
(lp356
g49
(g70
g51
NtRp357
(dp358
g54
(dp359
g74
g75
ssg63
g353
sg56
(lp360
S'max-age'
p361
asbag49
(g70
g51
NtRp362
(dp363
g54
(dp364
g81
g82
ssg63
g353
sg56
(lp365
S':'
asbag49
(g70
g51
NtRp366
(dp367
g54
(dp368
sg63
g353
sg56
(lp369
g49
(g50
g51
NtRp370
(dp371
g54
(dp372
g62
I3
ssg63
g366
sg56
(lp373
S''
asbasbasbag49
(g65
g51
NtRp374
(dp375
g54
(dp376
sg63
g286
sg56
(lp377
g49
(g70
g51
NtRp378
(dp379
g54
(dp380
g74
g75
ssg63
g374
sg56
(lp381
S'path'
p382
asbag49
(g70
g51
NtRp383
(dp384
g54
(dp385
g81
g82
ssg63
g374
sg56
(lp386
S':'
asbag49
(g70
g51
NtRp387
(dp388
g54
(dp389
sg63
g374
sg56
(lp390
g49
(g50
g51
NtRp391
(dp392
g54
(dp393
g62
I3
ssg63
g387
sg56
(lp394
S''
asbasbasbag49
(g65
g51
NtRp395
(dp396
g54
(dp397
sg63
g286
sg56
(lp398
g49
(g70
g51
NtRp399
(dp400
g54
(dp401
g74
g75
ssg63
g395
sg56
(lp402
S'secure'
p403
asbag49
(g70
g51
NtRp404
(dp405
g54
(dp406
g81
g82
ssg63
g395
sg56
(lp407
S':'
asbag49
(g70
g51
NtRp408
(dp409
g54
(dp410
sg63
g395
sg56
(lp411
g49
(g50
g51
NtRp412
(dp413
g54
(dp414
g62
I3
ssg63
g408
sg56
(lp415
S''
asbasbasbag49
(g65
g51
NtRp416
(dp417
g54
(dp418
sg63
g286
sg56
(lp419
g49
(g70
g51
NtRp420
(dp421
g54
(dp422
g74
g75
ssg63
g416
sg56
(lp423
S'version'
p424
asbag49
(g70
g51
NtRp425
(dp426
g54
(dp427
g81
g82
ssg63
g416
sg56
(lp428
S':'
asbag49
(g70
g51
NtRp429
(dp430
g54
(dp431
sg63
g416
sg56
(lp432
g49
(g50
g51
NtRp433
(dp434
g54
(dp435
g62
I3
ssg63
g429
sg56
(lp436
S''
asbasbasbasbasbasbasbag49
(g65
g51
NtRp437
(dp438
g54
(dp439
sg63
g260
sg56
(lp440
g49
(g70
g51
NtRp441
(dp442
g54
(dp443
g74
g75
ssg63
g437
sg56
(lp444
S'session_id_hellow'
p445
asbag49
(g70
g51
NtRp446
(dp447
g54
(dp448
g81
g82
ssg63
g437
sg56
(lp449
S':'
asbag49
(g70
g51
NtRp450
(dp451
g54
(dp452
sg63
g437
sg56
(lp453
g49
(g50
g51
NtRp454
(dp455
g54
(dp456
g62
I4
ssg63
g450
sg56
(lp457
S'127.0.0.1-bbea59f2-333e-4593-a45c-2c44a5133d77'
p458
ag49
(g58
g51
NtRp459
(dp460
g54
(dp461
g62
I3
ssg63
Nsg56
(lp462
g49
(g65
g51
NtRp463
(dp464
g54
(dp465
sg63
g459
sg56
(lp466
g49
(g70
g51
NtRp467
(dp468
g54
(dp469
g74
g75
ssg63
g463
sg56
(lp470
g298
asbag49
(g70
g51
NtRp471
(dp472
g54
(dp473
g81
g82
ssg63
g463
sg56
(lp474
S':'
asbag49
(g70
g51
NtRp475
(dp476
g54
(dp477
sg63
g463
sg56
(lp478
g49
(g50
g51
NtRp479
(dp480
g54
(dp481
g62
I3
ssg63
g475
sg56
(lp482
S''
asbasbasbag49
(g65
g51
NtRp483
(dp484
g54
(dp485
sg63
g459
sg56
(lp486
g49
(g70
g51
NtRp487
(dp488
g54
(dp489
g74
g75
ssg63
g483
sg56
(lp490
g319
asbag49
(g70
g51
NtRp491
(dp492
g54
(dp493
g81
g82
ssg63
g483
sg56
(lp494
S':'
asbag49
(g70
g51
NtRp495
(dp496
g54
(dp497
sg63
g483
sg56
(lp498
g49
(g50
g51
NtRp499
(dp500
g54
(dp501
g62
I3
ssg63
g495
sg56
(lp502
S''
asbasbasbag49
(g65
g51
NtRp503
(dp504
g54
(dp505
sg63
g459
sg56
(lp506
g49
(g70
g51
NtRp507
(dp508
g54
(dp509
g74
g75
ssg63
g503
sg56
(lp510
g340
asbag49
(g70
g51
NtRp511
(dp512
g54
(dp513
g81
g82
ssg63
g503
sg56
(lp514
S':'
asbag49
(g70
g51
NtRp515
(dp516
g54
(dp517
sg63
g503
sg56
(lp518
g49
(g50
g51
NtRp519
(dp520
g54
(dp521
g62
I3
ssg63
g515
sg56
(lp522
S''
asbasbasbag49
(g65
g51
NtRp523
(dp524
g54
(dp525
sg63
g459
sg56
(lp526
g49
(g70
g51
NtRp527
(dp528
g54
(dp529
g74
g75
ssg63
g523
sg56
(lp530
g361
asbag49
(g70
g51
NtRp531
(dp532
g54
(dp533
g81
g82
ssg63
g523
sg56
(lp534
S':'
asbag49
(g70
g51
NtRp535
(dp536
g54
(dp537
sg63
g523
sg56
(lp538
g49
(g50
g51
NtRp539
(dp540
g54
(dp541
g62
I3
ssg63
g535
sg56
(lp542
S''
asbasbasbag49
(g65
g51
NtRp543
(dp544
g54
(dp545
sg63
g459
sg56
(lp546
g49
(g70
g51
NtRp547
(dp548
g54
(dp549
g74
g75
ssg63
g543
sg56
(lp550
g382
asbag49
(g70
g51
NtRp551
(dp552
g54
(dp553
g81
g82
ssg63
g543
sg56
(lp554
S':'
asbag49
(g70
g51
NtRp555
(dp556
g54
(dp557
sg63
g543
sg56
(lp558
g49
(g50
g51
NtRp559
(dp560
g54
(dp561
g62
I3
ssg63
g555
sg56
(lp562
S''
asbasbasbag49
(g65
g51
NtRp563
(dp564
g54
(dp565
sg63
g459
sg56
(lp566
g49
(g70
g51
NtRp567
(dp568
g54
(dp569
g74
g75
ssg63
g563
sg56
(lp570
g403
asbag49
(g70
g51
NtRp571
(dp572
g54
(dp573
g81
g82
ssg63
g563
sg56
(lp574
S':'
asbag49
(g70
g51
NtRp575
(dp576
g54
(dp577
sg63
g563
sg56
(lp578
g49
(g50
g51
NtRp579
(dp580
g54
(dp581
g62
I3
ssg63
g575
sg56
(lp582
S''
asbasbasbag49
(g65
g51
NtRp583
(dp584
g54
(dp585
sg63
g459
sg56
(lp586
g49
(g70
g51
NtRp587
(dp588
g54
(dp589
g74
g75
ssg63
g583
sg56
(lp590
g424
asbag49
(g70
g51
NtRp591
(dp592
g54
(dp593
g81
g82
ssg63
g583
sg56
(lp594
S':'
asbag49
(g70
g51
NtRp595
(dp596
g54
(dp597
sg63
g583
sg56
(lp598
g49
(g50
g51
NtRp599
(dp600
g54
(dp601
g62
I3
ssg63
g595
sg56
(lp602
S''
asbasbasbasbasbasbasbag49
(g65
g51
NtRp603
(dp604
g54
(dp605
sg63
g260
sg56
(lp606
g49
(g70
g51
NtRp607
(dp608
g54
(dp609
g74
g75
ssg63
g603
sg56
(lp610
S'session_id_welcome'
p611
asbag49
(g70
g51
NtRp612
(dp613
g54
(dp614
g81
g82
ssg63
g603
sg56
(lp615
S':'
asbag49
(g70
g51
NtRp616
(dp617
g54
(dp618
sg63
g603
sg56
(lp619
g49
(g50
g51
NtRp620
(dp621
g54
(dp622
g62
I4
ssg63
g616
sg56
(lp623
S'127.0.0.1-dfebfa33-25aa-4072-bce4-08f7e89e2d04'
p624
ag49
(g58
g51
NtRp625
(dp626
g54
(dp627
g62
I3
ssg63
Nsg56
(lp628
g49
(g65
g51
NtRp629
(dp630
g54
(dp631
sg63
g625
sg56
(lp632
g49
(g70
g51
NtRp633
(dp634
g54
(dp635
g74
g75
ssg63
g629
sg56
(lp636
g298
asbag49
(g70
g51
NtRp637
(dp638
g54
(dp639
g81
g82
ssg63
g629
sg56
(lp640
S':'
asbag49
(g70
g51
NtRp641
(dp642
g54
(dp643
sg63
g629
sg56
(lp644
g49
(g50
g51
NtRp645
(dp646
g54
(dp647
g62
I3
ssg63
g641
sg56
(lp648
S''
asbasbasbag49
(g65
g51
NtRp649
(dp650
g54
(dp651
sg63
g625
sg56
(lp652
g49
(g70
g51
NtRp653
(dp654
g54
(dp655
g74
g75
ssg63
g649
sg56
(lp656
g319
asbag49
(g70
g51
NtRp657
(dp658
g54
(dp659
g81
g82
ssg63
g649
sg56
(lp660
S':'
asbag49
(g70
g51
NtRp661
(dp662
g54
(dp663
sg63
g649
sg56
(lp664
g49
(g50
g51
NtRp665
(dp666
g54
(dp667
g62
I3
ssg63
g661
sg56
(lp668
S''
asbasbasbag49
(g65
g51
NtRp669
(dp670
g54
(dp671
sg63
g625
sg56
(lp672
g49
(g70
g51
NtRp673
(dp674
g54
(dp675
g74
g75
ssg63
g669
sg56
(lp676
g340
asbag49
(g70
g51
NtRp677
(dp678
g54
(dp679
g81
g82
ssg63
g669
sg56
(lp680
S':'
asbag49
(g70
g51
NtRp681
(dp682
g54
(dp683
sg63
g669
sg56
(lp684
g49
(g50
g51
NtRp685
(dp686
g54
(dp687
g62
I3
ssg63
g681
sg56
(lp688
S''
asbasbasbag49
(g65
g51
NtRp689
(dp690
g54
(dp691
sg63
g625
sg56
(lp692
g49
(g70
g51
NtRp693
(dp694
g54
(dp695
g74
g75
ssg63
g689
sg56
(lp696
g361
asbag49
(g70
g51
NtRp697
(dp698
g54
(dp699
g81
g82
ssg63
g689
sg56
(lp700
S':'
asbag49
(g70
g51
NtRp701
(dp702
g54
(dp703
sg63
g689
sg56
(lp704
g49
(g50
g51
NtRp705
(dp706
g54
(dp707
g62
I3
ssg63
g701
sg56
(lp708
S''
asbasbasbag49
(g65
g51
NtRp709
(dp710
g54
(dp711
sg63
g625
sg56
(lp712
g49
(g70
g51
NtRp713
(dp714
g54
(dp715
g74
g75
ssg63
g709
sg56
(lp716
g382
asbag49
(g70
g51
NtRp717
(dp718
g54
(dp719
g81
g82
ssg63
g709
sg56
(lp720
S':'
asbag49
(g70
g51
NtRp721
(dp722
g54
(dp723
sg63
g709
sg56
(lp724
g49
(g50
g51
NtRp725
(dp726
g54
(dp727
g62
I3
ssg63
g721
sg56
(lp728
S''
asbasbasbag49
(g65
g51
NtRp729
(dp730
g54
(dp731
sg63
g625
sg56
(lp732
g49
(g70
g51
NtRp733
(dp734
g54
(dp735
g74
g75
ssg63
g729
sg56
(lp736
g403
asbag49
(g70
g51
NtRp737
(dp738
g54
(dp739
g81
g82
ssg63
g729
sg56
(lp740
S':'
asbag49
(g70
g51
NtRp741
(dp742
g54
(dp743
sg63
g729
sg56
(lp744
g49
(g50
g51
NtRp745
(dp746
g54
(dp747
g62
I3
ssg63
g741
sg56
(lp748
S''
asbasbasbag49
(g65
g51
NtRp749
(dp750
g54
(dp751
sg63
g625
sg56
(lp752
g49
(g70
g51
NtRp753
(dp754
g54
(dp755
g74
g75
ssg63
g749
sg56
(lp756
g424
asbag49
(g70
g51
NtRp757
(dp758
g54
(dp759
g81
g82
ssg63
g749
sg56
(lp760
S':'
asbag49
(g70
g51
NtRp761
(dp762
g54
(dp763
sg63
g749
sg56
(lp764
g49
(g50
g51
NtRp765
(dp766
g54
(dp767
g62
I3
ssg63
g761
sg56
(lp768
S''
asbasbasbasbasbasbasbasbasbasbasbag49
(g65
g51
NtRp769
(dp770
g54
(dp771
sg63
g59
sg56
(lp772
g49
(g70
g51
NtRp773
(dp774
g54
(dp775
g74
g75
ssg63
g769
sg56
(lp776
S'env'
p777
asbag49
(g70
g51
NtRp778
(dp779
g54
(dp780
g81
g82
ssg63
g769
sg56
(lp781
S':'
asbag49
(g70
g51
NtRp782
(dp783
g54
(dp784
sg63
g769
sg56
(lp785
g49
(g50
g51
NtRp786
(dp787
g54
(dp788
g62
I5
ssg63
g782
sg56
(lp789
g49
(g58
g51
NtRp790
(dp791
g54
(dp792
g62
I4
ssg63
Nsg56
(lp793
g49
(g65
g51
NtRp794
(dp795
g54
(dp796
sg63
g790
sg56
(lp797
g49
(g70
g51
NtRp798
(dp799
g54
(dp800
g74
g75
ssg63
g794
sg56
(lp801
S'app_folders'
p802
asbag49
(g70
g51
NtRp803
(dp804
g54
(dp805
g81
g82
ssg63
g794
sg56
(lp806
S':'
asbag49
(g70
g51
NtRp807
(dp808
g54
(dp809
sg63
g794
sg56
(lp810
g49
(g50
g51
NtRp811
(dp812
g54
(dp813
g62
I4
ssg63
g807
sg56
(lp814
S"set(['/Users/zamechek/Downloads/web2py/web2py.app/Contents/Resources/applications/examples/', '/Users/zamechek/Downloads/web2py/web2py.app/Contents/Resources/applications/hellow/', '/Users/zamechek/Downloads/web2py/web2py.app/Contents/Resources/applications/admin/', '/Users/zamechek/Downloads/web2py/web2py.app/Contents/Resources/applications/slots/', '/Users/zamechek/Downloads/web2py/web2py.app/Contents/Resources/applications/welcome/'])"
p815
asbasbasbag49
(g65
g51
NtRp816
(dp817
g54
(dp818
sg63
g790
sg56
(lp819
g49
(g70
g51
NtRp820
(dp821
g54
(dp822
g74
g75
ssg63
g816
sg56
(lp823
S'applications_parent'
p824
asbag49
(g70
g51
NtRp825
(dp826
g54
(dp827
g81
g82
ssg63
g816
sg56
(lp828
S':'
asbag49
(g70
g51
NtRp829
(dp830
g54
(dp831
sg63
g816
sg56
(lp832
g49
(g50
g51
NtRp833
(dp834
g54
(dp835
g62
I4
ssg63
g829
sg56
(lp836
S'/Users/zamechek/Downloads/web2py/web2py.app/Contents/Resources'
p837
asbasbasbag49
(g65
g51
NtRp838
(dp839
g54
(dp840
sg63
g790
sg56
(lp841
g49
(g70
g51
NtRp842
(dp843
g54
(dp844
g74
g75
ssg63
g838
sg56
(lp845
S'cmd_args'
p846
asbag49
(g70
g51
NtRp847
(dp848
g54
(dp849
g81
g82
ssg63
g838
sg56
(lp850
S':'
asbag49
(g70
g51
NtRp851
(dp852
g54
(dp853
sg63
g838
sg56
(lp854
g49
(g50
g51
NtRp855
(dp856
g54
(dp857
g62
I4
ssg63
g851
sg56
(lp858
g49
(g58
g51
NtRp859
(dp860
g54
(dp861
g62
I3
ssg63
Nsg56
(lp862
sbasbasbasbag49
(g65
g51
NtRp863
(dp864
g54
(dp865
sg63
g790
sg56
(lp866
g49
(g70
g51
NtRp867
(dp868
g54
(dp869
g74
g75
ssg63
g863
sg56
(lp870
S'cmd_options'
p871
asbag49
(g70
g51
NtRp872
(dp873
g54
(dp874
g81
g82
ssg63
g863
sg56
(lp875
S':'
asbag49
(g70
g51
NtRp876
(dp877
g54
(dp878
sg63
g863
sg56
(lp879
g49
(g50
g51
NtRp880
(dp881
g54
(dp882
g62
I4
ssg63
g876
sg56
(lp883
S"<Values at 0x32c8f58: {'verbose': False, 'ip': '127.0.0.1', 'with_scheduler': False, 'ips': ['130.91.151.157'], 'shutdown_timeout': 5, 'taskbar': False, 'port': 8000, 'maxthreads': None, 'softcron': False, 'server_name': 'hntvlan531.0924.wlan.wireless-pennnet.upenn.edu', 'bpython': False, 'nogui': False, 'pid_filename': 'httpserver.pid', 'extcron': False, 'runcron': False, 'run_system_tests': False, 'test': None, 'folder': '/Users/zamechek/Downloads/web2py/web2py.app/Contents/Resources', 'config': '', 'import_models': False, 'winservice': '', 'shell': None, 'run': '', 'log_filename': 'httpserver.log', 'debuglevel': 30, 'args': [''], 'socket_timeout': 5, 'ssl_ca_certificate': None, 'scheduler': None, 'profiler_filename': None, 'ssl_private_key': '', 'scheduler_groups': None, 'password': '<ask>', 'request_queue_size': 5, 'ssl_certificate': '', 'cronjob': False, 'numthreads': None, 'quiet': False, 'interfaces': None, 'minthreads': None, 'timeout': 10, 'plain': False, 'nobanner': False}>"
p884
asbasbasbag49
(g65
g51
NtRp885
(dp886
g54
(dp887
sg63
g790
sg56
(lp888
g49
(g70
g51
NtRp889
(dp890
g54
(dp891
g74
g75
ssg63
g885
sg56
(lp892
S'db_sessions'
p893
asbag49
(g70
g51
NtRp894
(dp895
g54
(dp896
g81
g82
ssg63
g885
sg56
(lp897
S':'
asbag49
(g70
g51
NtRp898
(dp899
g54
(dp900
sg63
g885
sg56
(lp901
g49
(g50
g51
NtRp902
(dp903
g54
(dp904
g62
I4
ssg63
g898
sg56
(lp905
S'set([])'
p906
asbasbasbag49
(g65
g51
NtRp907
(dp908
g54
(dp909
sg63
g790
sg56
(lp910
g49
(g70
g51
NtRp911
(dp912
g54
(dp913
g74
g75
ssg63
g907
sg56
(lp914
S'debugging'
p915
asbag49
(g70
g51
NtRp916
(dp917
g54
(dp918
g81
g82
ssg63
g907
sg56
(lp919
S':'
asbag49
(g70
g51
NtRp920
(dp921
g54
(dp922
sg63
g907
sg56
(lp923
g49
(g50
g51
NtRp924
(dp925
g54
(dp926
g62
I4
ssg63
g920
sg56
(lp927
S'True'
p928
asbasbasbag49
(g65
g51
NtRp929
(dp930
g54
(dp931
sg63
g790
sg56
(lp932
g49
(g70
g51
NtRp933
(dp934
g54
(dp935
g74
g75
ssg63
g929
sg56
(lp936
S'gluon_parent'
p937
asbag49
(g70
g51
NtRp938
(dp939
g54
(dp940
g81
g82
ssg63
g929
sg56
(lp941
S':'
asbag49
(g70
g51
NtRp942
(dp943
g54
(dp944
sg63
g929
sg56
(lp945
g49
(g50
g51
NtRp946
(dp947
g54
(dp948
g62
I4
ssg63
g942
sg56
(lp949
S'/Users/zamechek/Downloads/web2py/web2py.app/Contents/Resources'
p950
asbasbasbag49
(g65
g51
NtRp951
(dp952
g54
(dp953
sg63
g790
sg56
(lp954
g49
(g70
g51
NtRp955
(dp956
g54
(dp957
g74
g75
ssg63
g951
sg56
(lp958
S'http_accept'
p959
asbag49
(g70
g51
NtRp960
(dp961
g54
(dp962
g81
g82
ssg63
g951
sg56
(lp963
S':'
asbag49
(g70
g51
NtRp964
(dp965
g54
(dp966
sg63
g951
sg56
(lp967
g49
(g50
g51
NtRp968
(dp969
g54
(dp970
g62
I4
ssg63
g964
sg56
(lp971
S'text/html,application/xhtml+xml,application/xml;q=0.9,*/*;q=0.8'
p972
asbasbasbag49
(g65
g51
NtRp973
(dp974
g54
(dp975
sg63
g790
sg56
(lp976
g49
(g70
g51
NtRp977
(dp978
g54
(dp979
g74
g75
ssg63
g973
sg56
(lp980
S'http_accept_charset'
p981
asbag49
(g70
g51
NtRp982
(dp983
g54
(dp984
g81
g82
ssg63
g973
sg56
(lp985
S':'
asbag49
(g70
g51
NtRp986
(dp987
g54
(dp988
sg63
g973
sg56
(lp989
g49
(g50
g51
NtRp990
(dp991
g54
(dp992
g62
I4
ssg63
g986
sg56
(lp993
S'ISO-8859-1,utf-8;q=0.7,*;q=0.3'
p994
asbasbasbag49
(g65
g51
NtRp995
(dp996
g54
(dp997
sg63
g790
sg56
(lp998
g49
(g70
g51
NtRp999
(dp1000
g54
(dp1001
g74
g75
ssg63
g995
sg56
(lp1002
S'http_accept_encoding'
p1003
asbag49
(g70
g51
NtRp1004
(dp1005
g54
(dp1006
g81
g82
ssg63
g995
sg56
(lp1007
S':'
asbag49
(g70
g51
NtRp1008
(dp1009
g54
(dp1010
sg63
g995
sg56
(lp1011
g49
(g50
g51
NtRp1012
(dp1013
g54
(dp1014
g62
I4
ssg63
g1008
sg56
(lp1015
S'gzip,deflate,sdch'
p1016
asbasbasbag49
(g65
g51
NtRp1017
(dp1018
g54
(dp1019
sg63
g790
sg56
(lp1020
g49
(g70
g51
NtRp1021
(dp1022
g54
(dp1023
g74
g75
ssg63
g1017
sg56
(lp1024
S'http_accept_language'
p1025
asbag49
(g70
g51
NtRp1026
(dp1027
g54
(dp1028
g81
g82
ssg63
g1017
sg56
(lp1029
S':'
asbag49
(g70
g51
NtRp1030
(dp1031
g54
(dp1032
sg63
g1017
sg56
(lp1033
g49
(g50
g51
NtRp1034
(dp1035
g54
(dp1036
g62
I4
ssg63
g1030
sg56
(lp1037
S'en-US,en;q=0.8'
p1038
asbasbasbag49
(g65
g51
NtRp1039
(dp1040
g54
(dp1041
sg63
g790
sg56
(lp1042
g49
(g70
g51
NtRp1043
(dp1044
g54
(dp1045
g74
g75
ssg63
g1039
sg56
(lp1046
S'http_cache_control'
p1047
asbag49
(g70
g51
NtRp1048
(dp1049
g54
(dp1050
g81
g82
ssg63
g1039
sg56
(lp1051
S':'
asbag49
(g70
g51
NtRp1052
(dp1053
g54
(dp1054
sg63
g1039
sg56
(lp1055
g49
(g50
g51
NtRp1056
(dp1057
g54
(dp1058
g62
I4
ssg63
g1052
sg56
(lp1059
S'max-age=0'
p1060
asbasbasbag49
(g65
g51
NtRp1061
(dp1062
g54
(dp1063
sg63
g790
sg56
(lp1064
g49
(g70
g51
NtRp1065
(dp1066
g54
(dp1067
g74
g75
ssg63
g1061
sg56
(lp1068
S'http_connection'
p1069
asbag49
(g70
g51
NtRp1070
(dp1071
g54
(dp1072
g81
g82
ssg63
g1061
sg56
(lp1073
S':'
asbag49
(g70
g51
NtRp1074
(dp1075
g54
(dp1076
sg63
g1061
sg56
(lp1077
g49
(g50
g51
NtRp1078
(dp1079
g54
(dp1080
g62
I4
ssg63
g1074
sg56
(lp1081
S'keep-alive'
p1082
asbasbasbag49
(g65
g51
NtRp1083
(dp1084
g54
(dp1085
sg63
g790
sg56
(lp1086
g49
(g70
g51
NtRp1087
(dp1088
g54
(dp1089
g74
g75
ssg63
g1083
sg56
(lp1090
S'http_cookie'
p1091
asbag49
(g70
g51
NtRp1092
(dp1093
g54
(dp1094
g81
g82
ssg63
g1083
sg56
(lp1095
S':'
asbag49
(g70
g51
NtRp1096
(dp1097
g54
(dp1098
sg63
g1083
sg56
(lp1099
g49
(g50
g51
NtRp1100
(dp1101
g54
(dp1102
g62
I4
ssg63
g1096
sg56
(lp1103
S'_define_session=BAh7CEkiD3Nlc3Npb25faWQGOgZFRkkiJTVmM2YzOTE4ZmYyNzY4ZDRjYjY5YjcyOGNkZTAxODEwBjsAVEkiEF9jc3JmX3Rva2VuBjsARkkiMVY4MTBXWE1hdGNGUGR0ZzhxeStGc3FiajlCNzB6UkpqcHZUalZJNjRFNms9BjsARkkiGXdhcmRlbi51c2VyLnVzZXIua2V5BjsAVFsISSIJVXNlcgY7AEZbBmkGSSIiJDJhJDEwJGxpeDBzN29QMk5ocFJWZUl4RXZ4WXUGOwBU--36fb82eb40ee1558fc8e56b5bce1c04bba1a6c00; _bs_session=BAh7B0kiD3Nlc3Npb25faWQGOgZFRkkiJWFhOTlmNjdkODEzYjIwNGMyNGUwMTZmNjlkMDBjMjlhBjsAVEkiEF9jc3JmX3Rva2VuBjsARkkiMUJjek16b0JSUDluYk5MekI0YlNTMklPb2Q3V3pNQzJXcHQ1enY1RDgrT3c9BjsARg%3D%3D--80cc0f5e6211d60923eda39a15903de5a280521a; _table_session=BAh7B0kiD3Nlc3Npb25faWQGOgZFRkkiJTdhZTA3MzFhMGMxM2Q4YTAxZGQ3ZTNlMDM2ODIwOWY3BjsAVEkiEF9jc3JmX3Rva2VuBjsARkkiMWxKWVRtT3hGU3dxT0tnbmJ1OG1iL3FXSW9jWVRJdnZhZHJmNTN2b1BqR2M9BjsARg%3D%3D--a8b8801fe97e379d91991be9a0d21a60f46bc09e; _usertable_session=BAh7CEkiD3Nlc3Npb25faWQGOgZFRkkiJTRmY2NiMWMyOTE1ZThhYzE1MzVlYmU3ODMxZjdhM2NmBjsAVEkiEF9jc3JmX3Rva2VuBjsARkkiMXlibkQxRk5wVVFFU05OcDVxMEQvUURSZWRJQVlRY1JwYTdoSkRucEtlYXc9BjsARkkiCmZsYXNoBjsARm86JUFjdGlvbkRpc3BhdGNoOjpGbGFzaDo6Rmxhc2hIYXNoCToKQHVzZWRvOghTZXQGOgpAaGFzaHsAOgxAY2xvc2VkRjoNQGZsYXNoZXN7BjoLbm90aWNlSSItRmllbGQgcmVsYXRpb24gd2FzIHN1Y2Nlc3NmdWxseSBjcmVhdGVkLgY7AEY6CUBub3cw--c455129d4f2ca1e085c6ad184fd200aecc0b7061; _tbls_session=BAh7B0kiD3Nlc3Npb25faWQGOgZFRkkiJWY5MmM2Mzk2ZWQ0M2ZlODZkN2E5YjMxYmViOTU4NTI2BjsAVEkiEF9jc3JmX3Rva2VuBjsARkkiMVZjemQ4UGhpZXhnaEhnOUE2alRCRmdGSXFBclViMFhwQlo5Ulg2VTRhdFk9BjsARg%3D%3D--53586c2b8499a2c56c427cd8b8e3de116331bd4d; _typel_session=BAh7CEkiD3Nlc3Npb25faWQGOgZFRkkiJWQzMjkxZGExNGY5ZTQzNzIzZTk5MWZmZTM0NDY2NTFiBjsAVEkiEF9jc3JmX3Rva2VuBjsARkkiMWM5cVg1c3pKalpQSjd3Yk5lanQ5alpjZW4zRmNOVXdQS29YNExGOXJIUWM9BjsARkkiGXdhcmRlbi51c2VyLnVzZXIua2V5BjsAVFsISSIJVXNlcgY7AEZbBmkGSSIiJDJhJDEwJEVybm5aY0RTdm9sRjRETENhdjRveGUGOwBU--df06a9ed1ab2763964f111c2534c9f2a3630c12c; _ampersand_factory_session=BAh7CUkiD3Nlc3Npb25faWQGOgZFRkkiJWI2NTFmMThjZDNkMWU4NTNhNmI4OWU1MjNhYjMyZmQ0BjsAVEkiDWluc3RhbmNlBjsARmkGSSIQX2NzcmZfdG9rZW4GOwBGSSIxTEtBZER3MFlQQUV6Nmh1NW95TG4vUTFGcFdXa1ozWTVJaUx5aXh4ZndTVT0GOwBGSSIbd2FyZGVuLnVzZXIud29ya2VyLmtleQY7AFRbCEkiC1dvcmtlcgY7AEZbBmkGSSIiJDJhJDEwJGlEdndMRmhzQXB5eE1tLnhjMFM2di4GOwBU--e6bc7e5d4e945842bb7862fd547d433b3c7bfdcb; _lang_session=BAh7B0kiD3Nlc3Npb25faWQGOgZFRkkiJTY2YzI4YTY5NDkzNzE1ZGIzYzUwNWM3ZDg2ZmY1MWNiBjsAVEkiEF9jc3JmX3Rva2VuBjsARkkiMVdVczNjYnUvY2tZaHFvMVlwLy9zemdCcFliUytKdTlUTGZ3M1RIUlI3aHc9BjsARg%3D%3D--52f16b665cb4cfc5b54cea21c7b082ab6b75b1bf; session_id_welcome=127.0.0.1-dfebfa33-25aa-4072-bce4-08f7e89e2d04; session_id_hellow=127.0.0.1-bbea59f2-333e-4593-a45c-2c44a5133d77; session_id_admin=127.0.0.1-bf448199-cadc-41e3-b1a7-bed302e89a3e'
p1104
asbasbasbag49
(g65
g51
NtRp1105
(dp1106
g54
(dp1107
sg63
g790
sg56
(lp1108
g49
(g70
g51
NtRp1109
(dp1110
g54
(dp1111
g74
g75
ssg63
g1105
sg56
(lp1112
S'http_host'
p1113
asbag49
(g70
g51
NtRp1114
(dp1115
g54
(dp1116
g81
g82
ssg63
g1105
sg56
(lp1117
S':'
asbag49
(g70
g51
NtRp1118
(dp1119
g54
(dp1120
sg63
g1105
sg56
(lp1121
g49
(g50
g51
NtRp1122
(dp1123
g54
(dp1124
g62
I4
ssg63
g1118
sg56
(lp1125
S'localhost:8887'
p1126
asbasbasbag49
(g65
g51
NtRp1127
(dp1128
g54
(dp1129
sg63
g790
sg56
(lp1130
g49
(g70
g51
NtRp1131
(dp1132
g54
(dp1133
g74
g75
ssg63
g1127
sg56
(lp1134
S'http_user_agent'
p1135
asbag49
(g70
g51
NtRp1136
(dp1137
g54
(dp1138
g81
g82
ssg63
g1127
sg56
(lp1139
S':'
asbag49
(g70
g51
NtRp1140
(dp1141
g54
(dp1142
sg63
g1127
sg56
(lp1143
g49
(g50
g51
NtRp1144
(dp1145
g54
(dp1146
g62
I4
ssg63
g1140
sg56
(lp1147
S'Mozilla/5.0 (Macintosh; Intel Mac OS X 10_8_3) AppleWebKit/537.22 (KHTML, like Gecko) Chrome/25.0.1364.172 Safari/537.22'
p1148
asbasbasbag49
(g65
g51
NtRp1149
(dp1150
g54
(dp1151
sg63
g790
sg56
(lp1152
g49
(g70
g51
NtRp1153
(dp1154
g54
(dp1155
g74
g75
ssg63
g1149
sg56
(lp1156
S'is_jython'
p1157
asbag49
(g70
g51
NtRp1158
(dp1159
g54
(dp1160
g81
g82
ssg63
g1149
sg56
(lp1161
S':'
asbag49
(g70
g51
NtRp1162
(dp1163
g54
(dp1164
sg63
g1149
sg56
(lp1165
g49
(g50
g51
NtRp1166
(dp1167
g54
(dp1168
g62
I4
ssg63
g1162
sg56
(lp1169
g92
asbasbasbag49
(g65
g51
NtRp1170
(dp1171
g54
(dp1172
sg63
g790
sg56
(lp1173
g49
(g70
g51
NtRp1174
(dp1175
g54
(dp1176
g74
g75
ssg63
g1170
sg56
(lp1177
S'is_pypy'
p1178
asbag49
(g70
g51
NtRp1179
(dp1180
g54
(dp1181
g81
g82
ssg63
g1170
sg56
(lp1182
S':'
asbag49
(g70
g51
NtRp1183
(dp1184
g54
(dp1185
sg63
g1170
sg56
(lp1186
g49
(g50
g51
NtRp1187
(dp1188
g54
(dp1189
g62
I4
ssg63
g1183
sg56
(lp1190
g92
asbasbasbag49
(g65
g51
NtRp1191
(dp1192
g54
(dp1193
sg63
g790
sg56
(lp1194
g49
(g70
g51
NtRp1195
(dp1196
g54
(dp1197
g74
g75
ssg63
g1191
sg56
(lp1198
S'local_hosts'
p1199
asbag49
(g70
g51
NtRp1200
(dp1201
g54
(dp1202
g81
g82
ssg63
g1191
sg56
(lp1203
S':'
asbag49
(g70
g51
NtRp1204
(dp1205
g54
(dp1206
sg63
g1191
sg56
(lp1207
g49
(g50
g51
NtRp1208
(dp1209
g54
(dp1210
g62
I4
ssg63
g1204
sg56
(lp1211
g49
(g58
g51
NtRp1212
(dp1213
g54
(dp1214
g62
I3
ssg63
Nsg56
(lp1215
g49
(g65
g51
NtRp1216
(dp1217
g54
(dp1218
sg63
g1212
sg56
(lp1219
g49
(g70
g51
NtRp1220
(dp1221
g54
(dp1222
sg63
g1216
sg56
(lp1223
g49
(g50
g51
NtRp1224
(dp1225
g54
(dp1226
g62
I3
ssg63
g1220
sg56
(lp1227
S'130.91.151.157'
p1228
asbasbasbag49
(g65
g51
NtRp1229
(dp1230
g54
(dp1231
sg63
g1212
sg56
(lp1232
g49
(g70
g51
NtRp1233
(dp1234
g54
(dp1235
sg63
g1229
sg56
(lp1236
g49
(g50
g51
NtRp1237
(dp1238
g54
(dp1239
g62
I3
ssg63
g1233
sg56
(lp1240
S'::1'
p1241
asbasbasbag49
(g65
g51
NtRp1242
(dp1243
g54
(dp1244
sg63
g1212
sg56
(lp1245
g49
(g70
g51
NtRp1246
(dp1247
g54
(dp1248
sg63
g1242
sg56
(lp1249
g49
(g50
g51
NtRp1250
(dp1251
g54
(dp1252
g62
I3
ssg63
g1246
sg56
(lp1253
S'::ffff:127.0.0.1'
p1254
asbasbasbag49
(g65
g51
NtRp1255
(dp1256
g54
(dp1257
sg63
g1212
sg56
(lp1258
g49
(g70
g51
NtRp1259
(dp1260
g54
(dp1261
sg63
g1255
sg56
(lp1262
g49
(g50
g51
NtRp1263
(dp1264
g54
(dp1265
g62
I3
ssg63
g1259
sg56
(lp1266
S'127.0.0.1'
p1267
asbasbasbag49
(g65
g51
NtRp1268
(dp1269
g54
(dp1270
sg63
g1212
sg56
(lp1271
g49
(g70
g51
NtRp1272
(dp1273
g54
(dp1274
sg63
g1268
sg56
(lp1275
g49
(g50
g51
NtRp1276
(dp1277
g54
(dp1278
g62
I3
ssg63
g1272
sg56
(lp1279
S'hntvlan531.0924.wlan.wireless-pennnet.upenn.edu'
p1280
asbasbasbasbasbasbasbag49
(g65
g51
NtRp1281
(dp1282
g54
(dp1283
sg63
g790
sg56
(lp1284
g49
(g70
g51
NtRp1285
(dp1286
g54
(dp1287
g74
g75
ssg63
g1281
sg56
(lp1288
S'path_info'
p1289
asbag49
(g70
g51
NtRp1290
(dp1291
g54
(dp1292
g81
g82
ssg63
g1281
sg56
(lp1293
S':'
asbag49
(g70
g51
NtRp1294
(dp1295
g54
(dp1296
sg63
g1281
sg56
(lp1297
g49
(g50
g51
NtRp1298
(dp1299
g54
(dp1300
g62
I4
ssg63
g1294
sg56
(lp1301
S'/hellow/game/show/1'
p1302
asbasbasbag49
(g65
g51
NtRp1303
(dp1304
g54
(dp1305
sg63
g790
sg56
(lp1306
g49
(g70
g51
NtRp1307
(dp1308
g54
(dp1309
g74
g75
ssg63
g1303
sg56
(lp1310
S'query_string'
p1311
asbag49
(g70
g51
NtRp1312
(dp1313
g54
(dp1314
g81
g82
ssg63
g1303
sg56
(lp1315
S':'
asbag49
(g70
g51
NtRp1316
(dp1317
g54
(dp1318
sg63
g1303
sg56
(lp1319
g49
(g50
g51
NtRp1320
(dp1321
g54
(dp1322
g62
I4
ssg63
g1316
sg56
(lp1323
S''
asbasbasbag49
(g65
g51
NtRp1324
(dp1325
g54
(dp1326
sg63
g790
sg56
(lp1327
g49
(g70
g51
NtRp1328
(dp1329
g54
(dp1330
g74
g75
ssg63
g1324
sg56
(lp1331
S'remote_addr'
p1332
asbag49
(g70
g51
NtRp1333
(dp1334
g54
(dp1335
g81
g82
ssg63
g1324
sg56
(lp1336
S':'
asbag49
(g70
g51
NtRp1337
(dp1338
g54
(dp1339
sg63
g1324
sg56
(lp1340
g49
(g50
g51
NtRp1341
(dp1342
g54
(dp1343
g62
I4
ssg63
g1337
sg56
(lp1344
g216
asbasbasbag49
(g65
g51
NtRp1345
(dp1346
g54
(dp1347
sg63
g790
sg56
(lp1348
g49
(g70
g51
NtRp1349
(dp1350
g54
(dp1351
g74
g75
ssg63
g1345
sg56
(lp1352
S'remote_port'
p1353
asbag49
(g70
g51
NtRp1354
(dp1355
g54
(dp1356
g81
g82
ssg63
g1345
sg56
(lp1357
S':'
asbag49
(g70
g51
NtRp1358
(dp1359
g54
(dp1360
sg63
g1345
sg56
(lp1361
g49
(g50
g51
NtRp1362
(dp1363
g54
(dp1364
g62
I4
ssg63
g1358
sg56
(lp1365
S'53678'
p1366
asbasbasbag49
(g65
g51
NtRp1367
(dp1368
g54
(dp1369
sg63
g790
sg56
(lp1370
g49
(g70
g51
NtRp1371
(dp1372
g54
(dp1373
g74
g75
ssg63
g1367
sg56
(lp1374
S'request_method'
p1375
asbag49
(g70
g51
NtRp1376
(dp1377
g54
(dp1378
g81
g82
ssg63
g1367
sg56
(lp1379
S':'
asbag49
(g70
g51
NtRp1380
(dp1381
g54
(dp1382
sg63
g1367
sg56
(lp1383
g49
(g50
g51
NtRp1384
(dp1385
g54
(dp1386
g62
I4
ssg63
g1380
sg56
(lp1387
S'GET'
p1388
asbasbasbag49
(g65
g51
NtRp1389
(dp1390
g54
(dp1391
sg63
g790
sg56
(lp1392
g49
(g70
g51
NtRp1393
(dp1394
g54
(dp1395
g74
g75
ssg63
g1389
sg56
(lp1396
S'request_uri'
p1397
asbag49
(g70
g51
NtRp1398
(dp1399
g54
(dp1400
g81
g82
ssg63
g1389
sg56
(lp1401
S':'
asbag49
(g70
g51
NtRp1402
(dp1403
g54
(dp1404
sg63
g1389
sg56
(lp1405
g49
(g50
g51
NtRp1406
(dp1407
g54
(dp1408
g62
I4
ssg63
g1402
sg56
(lp1409
g1302
asbasbasbag49
(g65
g51
NtRp1410
(dp1411
g54
(dp1412
sg63
g790
sg56
(lp1413
g49
(g70
g51
NtRp1414
(dp1415
g54
(dp1416
g74
g75
ssg63
g1410
sg56
(lp1417
S'script_name'
p1418
asbag49
(g70
g51
NtRp1419
(dp1420
g54
(dp1421
g81
g82
ssg63
g1410
sg56
(lp1422
S':'
asbag49
(g70
g51
NtRp1423
(dp1424
g54
(dp1425
sg63
g1410
sg56
(lp1426
g49
(g50
g51
NtRp1427
(dp1428
g54
(dp1429
g62
I4
ssg63
g1423
sg56
(lp1430
S''
asbasbasbag49
(g65
g51
NtRp1431
(dp1432
g54
(dp1433
sg63
g790
sg56
(lp1434
g49
(g70
g51
NtRp1435
(dp1436
g54
(dp1437
g74
g75
ssg63
g1431
sg56
(lp1438
S'server_name'
p1439
asbag49
(g70
g51
NtRp1440
(dp1441
g54
(dp1442
g81
g82
ssg63
g1431
sg56
(lp1443
S':'
asbag49
(g70
g51
NtRp1444
(dp1445
g54
(dp1446
sg63
g1431
sg56
(lp1447
g49
(g50
g51
NtRp1448
(dp1449
g54
(dp1450
g62
I4
ssg63
g1444
sg56
(lp1451
S'hntvlan531.0924.wlan.wireless-pennnet.upenn.edu'
p1452
asbasbasbag49
(g65
g51
NtRp1453
(dp1454
g54
(dp1455
sg63
g790
sg56
(lp1456
g49
(g70
g51
NtRp1457
(dp1458
g54
(dp1459
g74
g75
ssg63
g1453
sg56
(lp1460
S'server_port'
p1461
asbag49
(g70
g51
NtRp1462
(dp1463
g54
(dp1464
g81
g82
ssg63
g1453
sg56
(lp1465
S':'
asbag49
(g70
g51
NtRp1466
(dp1467
g54
(dp1468
sg63
g1453
sg56
(lp1469
g49
(g50
g51
NtRp1470
(dp1471
g54
(dp1472
g62
I4
ssg63
g1466
sg56
(lp1473
S'8887'
p1474
asbasbasbag49
(g65
g51
NtRp1475
(dp1476
g54
(dp1477
sg63
g790
sg56
(lp1478
g49
(g70
g51
NtRp1479
(dp1480
g54
(dp1481
g74
g75
ssg63
g1475
sg56
(lp1482
S'server_protocol'
p1483
asbag49
(g70
g51
NtRp1484
(dp1485
g54
(dp1486
g81
g82
ssg63
g1475
sg56
(lp1487
S':'
asbag49
(g70
g51
NtRp1488
(dp1489
g54
(dp1490
sg63
g1475
sg56
(lp1491
g49
(g50
g51
NtRp1492
(dp1493
g54
(dp1494
g62
I4
ssg63
g1488
sg56
(lp1495
S'HTTP/1.1'
p1496
asbasbasbag49
(g65
g51
NtRp1497
(dp1498
g54
(dp1499
sg63
g790
sg56
(lp1500
g49
(g70
g51
NtRp1501
(dp1502
g54
(dp1503
g74
g75
ssg63
g1497
sg56
(lp1504
S'server_software'
p1505
asbag49
(g70
g51
NtRp1506
(dp1507
g54
(dp1508
g81
g82
ssg63
g1497
sg56
(lp1509
S':'
asbag49
(g70
g51
NtRp1510
(dp1511
g54
(dp1512
sg63
g1497
sg56
(lp1513
g49
(g50
g51
NtRp1514
(dp1515
g54
(dp1516
g62
I4
ssg63
g1510
sg56
(lp1517
S'Rocket 1.2.6'
p1518
asbasbasbag49
(g65
g51
NtRp1519
(dp1520
g54
(dp1521
sg63
g790
sg56
(lp1522
g49
(g70
g51
NtRp1523
(dp1524
g54
(dp1525
g74
g75
ssg63
g1519
sg56
(lp1526
S'web2py_path'
p1527
asbag49
(g70
g51
NtRp1528
(dp1529
g54
(dp1530
g81
g82
ssg63
g1519
sg56
(lp1531
S':'
asbag49
(g70
g51
NtRp1532
(dp1533
g54
(dp1534
sg63
g1519
sg56
(lp1535
g49
(g50
g51
NtRp1536
(dp1537
g54
(dp1538
g62
I4
ssg63
g1532
sg56
(lp1539
g837
asbasbasbag49
(g65
g51
NtRp1540
(dp1541
g54
(dp1542
sg63
g790
sg56
(lp1543
g49
(g70
g51
NtRp1544
(dp1545
g54
(dp1546
g74
g75
ssg63
g1540
sg56
(lp1547
S'web2py_version'
p1548
asbag49
(g70
g51
NtRp1549
(dp1550
g54
(dp1551
g81
g82
ssg63
g1540
sg56
(lp1552
S':'
asbag49
(g70
g51
NtRp1553
(dp1554
g54
(dp1555
sg63
g1540
sg56
(lp1556
g49
(g50
g51
NtRp1557
(dp1558
g54
(dp1559
g62
I4
ssg63
g1553
sg56
(lp1560
g49
(g58
g51
NtRp1561
(dp1562
g54
(dp1563
g62
I3
ssg63
Nsg56
(lp1564
g49
(g65
g51
NtRp1565
(dp1566
g54
(dp1567
sg63
g1561
sg56
(lp1568
g49
(g70
g51
NtRp1569
(dp1570
g54
(dp1571
sg63
g1565
sg56
(lp1572
g49
(g50
g51
NtRp1573
(dp1574
g54
(dp1575
g62
I3
ssg63
g1569
sg56
(lp1576
S'2'
asbasbasbag49
(g65
g51
NtRp1577
(dp1578
g54
(dp1579
sg63
g1561
sg56
(lp1580
g49
(g70
g51
NtRp1581
(dp1582
g54
(dp1583
sg63
g1577
sg56
(lp1584
g49
(g50
g51
NtRp1585
(dp1586
g54
(dp1587
g62
I3
ssg63
g1581
sg56
(lp1588
S'4'
asbasbasbag49
(g65
g51
NtRp1589
(dp1590
g54
(dp1591
sg63
g1561
sg56
(lp1592
g49
(g70
g51
NtRp1593
(dp1594
g54
(dp1595
sg63
g1589
sg56
(lp1596
g49
(g50
g51
NtRp1597
(dp1598
g54
(dp1599
g62
I3
ssg63
g1593
sg56
(lp1600
S'5'
asbasbasbag49
(g65
g51
NtRp1601
(dp1602
g54
(dp1603
sg63
g1561
sg56
(lp1604
g49
(g70
g51
NtRp1605
(dp1606
g54
(dp1607
sg63
g1601
sg56
(lp1608
g49
(g50
g51
NtRp1609
(dp1610
g54
(dp1611
g62
I3
ssg63
g1605
sg56
(lp1612
S'stable'
p1613
asbasbasbag49
(g65
g51
NtRp1614
(dp1615
g54
(dp1616
sg63
g1561
sg56
(lp1617
g49
(g70
g51
NtRp1618
(dp1619
g54
(dp1620
sg63
g1614
sg56
(lp1621
g49
(g50
g51
NtRp1622
(dp1623
g54
(dp1624
g62
I3
ssg63
g1618
sg56
(lp1625
S'datetime.datetime(2013, 3, 18, 22, 46, 22)'
p1626
asbasbasbasbasbasbasbag49
(g65
g51
NtRp1627
(dp1628
g54
(dp1629
sg63
g790
sg56
(lp1630
g49
(g70
g51
NtRp1631
(dp1632
g54
(dp1633
g74
g75
ssg63
g1627
sg56
(lp1634
S'wsgi_errors'
p1635
asbag49
(g70
g51
NtRp1636
(dp1637
g54
(dp1638
g81
g82
ssg63
g1627
sg56
(lp1639
S':'
asbag49
(g70
g51
NtRp1640
(dp1641
g54
(dp1642
sg63
g1627
sg56
(lp1643
g49
(g50
g51
NtRp1644
(dp1645
g54
(dp1646
g62
I4
ssg63
g1640
sg56
(lp1647
S"<open file '<stderr>', mode 'w' at 0x540b0>"
p1648
asbasbasbag49
(g65
g51
NtRp1649
(dp1650
g54
(dp1651
sg63
g790
sg56
(lp1652
g49
(g70
g51
NtRp1653
(dp1654
g54
(dp1655
g74
g75
ssg63
g1649
sg56
(lp1656
S'wsgi_file_wrapper'
p1657
asbag49
(g70
g51
NtRp1658
(dp1659
g54
(dp1660
g81
g82
ssg63
g1649
sg56
(lp1661
S':'
asbag49
(g70
g51
NtRp1662
(dp1663
g54
(dp1664
sg63
g1649
sg56
(lp1665
g49
(g50
g51
NtRp1666
(dp1667
g54
(dp1668
g62
I4
ssg63
g1662
sg56
(lp1669
S'<class wsgiref.util.FileWrapper at 0x329d060>'
p1670
asbasbasbag49
(g65
g51
NtRp1671
(dp1672
g54
(dp1673
sg63
g790
sg56
(lp1674
g49
(g70
g51
NtRp1675
(dp1676
g54
(dp1677
g74
g75
ssg63
g1671
sg56
(lp1678
S'wsgi_input'
p1679
asbag49
(g70
g51
NtRp1680
(dp1681
g54
(dp1682
g81
g82
ssg63
g1671
sg56
(lp1683
S':'
asbag49
(g70
g51
NtRp1684
(dp1685
g54
(dp1686
sg63
g1671
sg56
(lp1687
g49
(g50
g51
NtRp1688
(dp1689
g54
(dp1690
g62
I4
ssg63
g1684
sg56
(lp1691
S'<socket._fileobject object at 0xc282f30>'
p1692
asbasbasbag49
(g65
g51
NtRp1693
(dp1694
g54
(dp1695
sg63
g790
sg56
(lp1696
g49
(g70
g51
NtRp1697
(dp1698
g54
(dp1699
g74
g75
ssg63
g1693
sg56
(lp1700
S'wsgi_multiprocess'
p1701
asbag49
(g70
g51
NtRp1702
(dp1703
g54
(dp1704
g81
g82
ssg63
g1693
sg56
(lp1705
S':'
asbag49
(g70
g51
NtRp1706
(dp1707
g54
(dp1708
sg63
g1693
sg56
(lp1709
g49
(g50
g51
NtRp1710
(dp1711
g54
(dp1712
g62
I4
ssg63
g1706
sg56
(lp1713
g92
asbasbasbag49
(g65
g51
NtRp1714
(dp1715
g54
(dp1716
sg63
g790
sg56
(lp1717
g49
(g70
g51
NtRp1718
(dp1719
g54
(dp1720
g74
g75
ssg63
g1714
sg56
(lp1721
S'wsgi_multithread'
p1722
asbag49
(g70
g51
NtRp1723
(dp1724
g54
(dp1725
g81
g82
ssg63
g1714
sg56
(lp1726
S':'
asbag49
(g70
g51
NtRp1727
(dp1728
g54
(dp1729
sg63
g1714
sg56
(lp1730
g49
(g50
g51
NtRp1731
(dp1732
g54
(dp1733
g62
I4
ssg63
g1727
sg56
(lp1734
g928
asbasbasbag49
(g65
g51
NtRp1735
(dp1736
g54
(dp1737
sg63
g790
sg56
(lp1738
g49
(g70
g51
NtRp1739
(dp1740
g54
(dp1741
g74
g75
ssg63
g1735
sg56
(lp1742
S'wsgi_run_once'
p1743
asbag49
(g70
g51
NtRp1744
(dp1745
g54
(dp1746
g81
g82
ssg63
g1735
sg56
(lp1747
S':'
asbag49
(g70
g51
NtRp1748
(dp1749
g54
(dp1750
sg63
g1735
sg56
(lp1751
g49
(g50
g51
NtRp1752
(dp1753
g54
(dp1754
g62
I4
ssg63
g1748
sg56
(lp1755
g92
asbasbasbag49
(g65
g51
NtRp1756
(dp1757
g54
(dp1758
sg63
g790
sg56
(lp1759
g49
(g70
g51
NtRp1760
(dp1761
g54
(dp1762
g74
g75
ssg63
g1756
sg56
(lp1763
S'wsgi_url_scheme'
p1764
asbag49
(g70
g51
NtRp1765
(dp1766
g54
(dp1767
g81
g82
ssg63
g1756
sg56
(lp1768
S':'
asbag49
(g70
g51
NtRp1769
(dp1770
g54
(dp1771
sg63
g1756
sg56
(lp1772
g49
(g50
g51
NtRp1773
(dp1774
g54
(dp1775
g62
I4
ssg63
g1769
sg56
(lp1776
S'http'
p1777
asbasbasbag49
(g65
g51
NtRp1778
(dp1779
g54
(dp1780
sg63
g790
sg56
(lp1781
g49
(g70
g51
NtRp1782
(dp1783
g54
(dp1784
g74
g75
ssg63
g1778
sg56
(lp1785
S'wsgi_version'
p1786
asbag49
(g70
g51
NtRp1787
(dp1788
g54
(dp1789
g81
g82
ssg63
g1778
sg56
(lp1790
S':'
asbag49
(g70
g51
NtRp1791
(dp1792
g54
(dp1793
sg63
g1778
sg56
(lp1794
g49
(g50
g51
NtRp1795
(dp1796
g54
(dp1797
g62
I4
ssg63
g1791
sg56
(lp1798
g49
(g58
g51
NtRp1799
(dp1800
g54
(dp1801
g62
I3
ssg63
Nsg56
(lp1802
g49
(g65
g51
NtRp1803
(dp1804
g54
(dp1805
sg63
g1799
sg56
(lp1806
g49
(g70
g51
NtRp1807
(dp1808
g54
(dp1809
sg63
g1803
sg56
(lp1810
g49
(g50
g51
NtRp1811
(dp1812
g54
(dp1813
g62
I3
ssg63
g1807
sg56
(lp1814
S'1'
asbasbasbag49
(g65
g51
NtRp1815
(dp1816
g54
(dp1817
sg63
g1799
sg56
(lp1818
g49
(g70
g51
NtRp1819
(dp1820
g54
(dp1821
sg63
g1815
sg56
(lp1822
g49
(g50
g51
NtRp1823
(dp1824
g54
(dp1825
g62
I3
ssg63
g1819
sg56
(lp1826
S'0'
asbasbasbasbasbasbasbasbasbasbasbag49
(g65
g51
NtRp1827
(dp1828
g54
(dp1829
sg63
g59
sg56
(lp1830
g49
(g70
g51
NtRp1831
(dp1832
g54
(dp1833
g74
g75
ssg63
g1827
sg56
(lp1834
S'extension'
p1835
asbag49
(g70
g51
NtRp1836
(dp1837
g54
(dp1838
g81
g82
ssg63
g1827
sg56
(lp1839
S':'
asbag49
(g70
g51
NtRp1840
(dp1841
g54
(dp1842
sg63
g1827
sg56
(lp1843
g49
(g50
g51
NtRp1844
(dp1845
g54
(dp1846
g62
I5
ssg63
g1840
sg56
(lp1847
S'html'
p1848
asbasbasbag49
(g65
g51
NtRp1849
(dp1850
g54
(dp1851
sg63
g59
sg56
(lp1852
g49
(g70
g51
NtRp1853
(dp1854
g54
(dp1855
g74
g75
ssg63
g1849
sg56
(lp1856
S'folder'
p1857
asbag49
(g70
g51
NtRp1858
(dp1859
g54
(dp1860
g81
g82
ssg63
g1849
sg56
(lp1861
S':'
asbag49
(g70
g51
NtRp1862
(dp1863
g54
(dp1864
sg63
g1849
sg56
(lp1865
g49
(g50
g51
NtRp1866
(dp1867
g54
(dp1868
g62
I5
ssg63
g1862
sg56
(lp1869
S'/Users/zamechek/Downloads/web2py/web2py.app/Contents/Resources/applications/hellow/'
p1870
asbasbasbag49
(g65
g51
NtRp1871
(dp1872
g54
(dp1873
sg63
g59
sg56
(lp1874
g49
(g70
g51
NtRp1875
(dp1876
g54
(dp1877
g74
g75
ssg63
g1871
sg56
(lp1878
S'function'
p1879
asbag49
(g70
g51
NtRp1880
(dp1881
g54
(dp1882
g81
g82
ssg63
g1871
sg56
(lp1883
S':'
asbag49
(g70
g51
NtRp1884
(dp1885
g54
(dp1886
sg63
g1871
sg56
(lp1887
g49
(g50
g51
NtRp1888
(dp1889
g54
(dp1890
g62
I5
ssg63
g1884
sg56
(lp1891
S'show'
p1892
asbasbasbag49
(g65
g51
NtRp1893
(dp1894
g54
(dp1895
sg63
g59
sg56
(lp1896
g49
(g70
g51
NtRp1897
(dp1898
g54
(dp1899
g74
g75
ssg63
g1893
sg56
(lp1900
S'get_vars'
p1901
asbag49
(g70
g51
NtRp1902
(dp1903
g54
(dp1904
g81
g82
ssg63
g1893
sg56
(lp1905
S':'
asbag49
(g70
g51
NtRp1906
(dp1907
g54
(dp1908
sg63
g1893
sg56
(lp1909
g49
(g50
g51
NtRp1910
(dp1911
g54
(dp1912
g62
I5
ssg63
g1906
sg56
(lp1913
g49
(g58
g51
NtRp1914
(dp1915
g54
(dp1916
g62
I4
ssg63
Nsg56
(lp1917
sbasbasbasbag49
(g65
g51
NtRp1918
(dp1919
g54
(dp1920
sg63
g59
sg56
(lp1921
g49
(g70
g51
NtRp1922
(dp1923
g54
(dp1924
g74
g75
ssg63
g1918
sg56
(lp1925
S'global_settings'
p1926
asbag49
(g70
g51
NtRp1927
(dp1928
g54
(dp1929
g81
g82
ssg63
g1918
sg56
(lp1930
S':'
asbag49
(g70
g51
NtRp1931
(dp1932
g54
(dp1933
sg63
g1918
sg56
(lp1934
g49
(g50
g51
NtRp1935
(dp1936
g54
(dp1937
g62
I5
ssg63
g1931
sg56
(lp1938
g49
(g58
g51
NtRp1939
(dp1940
g54
(dp1941
g62
I4
ssg63
Nsg56
(lp1942
g49
(g65
g51
NtRp1943
(dp1944
g54
(dp1945
sg63
g1939
sg56
(lp1946
g49
(g70
g51
NtRp1947
(dp1948
g54
(dp1949
g74
g75
ssg63
g1943
sg56
(lp1950
g802
asbag49
(g70
g51
NtRp1951
(dp1952
g54
(dp1953
g81
g82
ssg63
g1943
sg56
(lp1954
S':'
asbag49
(g70
g51
NtRp1955
(dp1956
g54
(dp1957
sg63
g1943
sg56
(lp1958
g49
(g50
g51
NtRp1959
(dp1960
g54
(dp1961
g62
I4
ssg63
g1955
sg56
(lp1962
S"set(['/Users/zamechek/Downloads/web2py/web2py.app/Contents/Resources/applications/examples/', '/Users/zamechek/Downloads/web2py/web2py.app/Contents/Resources/applications/hellow/', '/Users/zamechek/Downloads/web2py/web2py.app/Contents/Resources/applications/admin/', '/Users/zamechek/Downloads/web2py/web2py.app/Contents/Resources/applications/slots/', '/Users/zamechek/Downloads/web2py/web2py.app/Contents/Resources/applications/welcome/'])"
p1963
asbasbasbag49
(g65
g51
NtRp1964
(dp1965
g54
(dp1966
sg63
g1939
sg56
(lp1967
g49
(g70
g51
NtRp1968
(dp1969
g54
(dp1970
g74
g75
ssg63
g1964
sg56
(lp1971
g824
asbag49
(g70
g51
NtRp1972
(dp1973
g54
(dp1974
g81
g82
ssg63
g1964
sg56
(lp1975
S':'
asbag49
(g70
g51
NtRp1976
(dp1977
g54
(dp1978
sg63
g1964
sg56
(lp1979
g49
(g50
g51
NtRp1980
(dp1981
g54
(dp1982
g62
I4
ssg63
g1976
sg56
(lp1983
g837
asbasbasbag49
(g65
g51
NtRp1984
(dp1985
g54
(dp1986
sg63
g1939
sg56
(lp1987
g49
(g70
g51
NtRp1988
(dp1989
g54
(dp1990
g74
g75
ssg63
g1984
sg56
(lp1991
g846
asbag49
(g70
g51
NtRp1992
(dp1993
g54
(dp1994
g81
g82
ssg63
g1984
sg56
(lp1995
S':'
asbag49
(g70
g51
NtRp1996
(dp1997
g54
(dp1998
sg63
g1984
sg56
(lp1999
g49
(g50
g51
NtRp2000
(dp2001
g54
(dp2002
g62
I4
ssg63
g1996
sg56
(lp2003
g49
(g58
g51
NtRp2004
(dp2005
g54
(dp2006
g62
I3
ssg63
Nsg56
(lp2007
sbasbasbasbag49
(g65
g51
NtRp2008
(dp2009
g54
(dp2010
sg63
g1939
sg56
(lp2011
g49
(g70
g51
NtRp2012
(dp2013
g54
(dp2014
g74
g75
ssg63
g2008
sg56
(lp2015
g871
asbag49
(g70
g51
NtRp2016
(dp2017
g54
(dp2018
g81
g82
ssg63
g2008
sg56
(lp2019
S':'
asbag49
(g70
g51
NtRp2020
(dp2021
g54
(dp2022
sg63
g2008
sg56
(lp2023
g49
(g50
g51
NtRp2024
(dp2025
g54
(dp2026
g62
I4
ssg63
g2020
sg56
(lp2027
S"<Values at 0x32c8f58: {'verbose': False, 'ip': '127.0.0.1', 'with_scheduler': False, 'ips': ['130.91.151.157'], 'shutdown_timeout': 5, 'taskbar': False, 'port': 8000, 'maxthreads': None, 'softcron': False, 'server_name': 'hntvlan531.0924.wlan.wireless-pennnet.upenn.edu', 'bpython': False, 'nogui': False, 'pid_filename': 'httpserver.pid', 'extcron': False, 'runcron': False, 'run_system_tests': False, 'test': None, 'folder': '/Users/zamechek/Downloads/web2py/web2py.app/Contents/Resources', 'config': '', 'import_models': False, 'winservice': '', 'shell': None, 'run': '', 'log_filename': 'httpserver.log', 'debuglevel': 30, 'args': [''], 'socket_timeout': 5, 'ssl_ca_certificate': None, 'scheduler': None, 'profiler_filename': None, 'ssl_private_key': '', 'scheduler_groups': None, 'password': '<ask>', 'request_queue_size': 5, 'ssl_certificate': '', 'cronjob': False, 'numthreads': None, 'quiet': False, 'interfaces': None, 'minthreads': None, 'timeout': 10, 'plain': False, 'nobanner': False}>"
p2028
asbasbasbag49
(g65
g51
NtRp2029
(dp2030
g54
(dp2031
sg63
g1939
sg56
(lp2032
g49
(g70
g51
NtRp2033
(dp2034
g54
(dp2035
g74
g75
ssg63
g2029
sg56
(lp2036
g893
asbag49
(g70
g51
NtRp2037
(dp2038
g54
(dp2039
g81
g82
ssg63
g2029
sg56
(lp2040
S':'
asbag49
(g70
g51
NtRp2041
(dp2042
g54
(dp2043
sg63
g2029
sg56
(lp2044
g49
(g50
g51
NtRp2045
(dp2046
g54
(dp2047
g62
I4
ssg63
g2041
sg56
(lp2048
S'set([])'
p2049
asbasbasbag49
(g65
g51
NtRp2050
(dp2051
g54
(dp2052
sg63
g1939
sg56
(lp2053
g49
(g70
g51
NtRp2054
(dp2055
g54
(dp2056
g74
g75
ssg63
g2050
sg56
(lp2057
g915
asbag49
(g70
g51
NtRp2058
(dp2059
g54
(dp2060
g81
g82
ssg63
g2050
sg56
(lp2061
S':'
asbag49
(g70
g51
NtRp2062
(dp2063
g54
(dp2064
sg63
g2050
sg56
(lp2065
g49
(g50
g51
NtRp2066
(dp2067
g54
(dp2068
g62
I4
ssg63
g2062
sg56
(lp2069
g928
asbasbasbag49
(g65
g51
NtRp2070
(dp2071
g54
(dp2072
sg63
g1939
sg56
(lp2073
g49
(g70
g51
NtRp2074
(dp2075
g54
(dp2076
g74
g75
ssg63
g2070
sg56
(lp2077
g937
asbag49
(g70
g51
NtRp2078
(dp2079
g54
(dp2080
g81
g82
ssg63
g2070
sg56
(lp2081
S':'
asbag49
(g70
g51
NtRp2082
(dp2083
g54
(dp2084
sg63
g2070
sg56
(lp2085
g49
(g50
g51
NtRp2086
(dp2087
g54
(dp2088
g62
I4
ssg63
g2082
sg56
(lp2089
g950
asbasbasbag49
(g65
g51
NtRp2090
(dp2091
g54
(dp2092
sg63
g1939
sg56
(lp2093
g49
(g70
g51
NtRp2094
(dp2095
g54
(dp2096
g74
g75
ssg63
g2090
sg56
(lp2097
g1157
asbag49
(g70
g51
NtRp2098
(dp2099
g54
(dp2100
g81
g82
ssg63
g2090
sg56
(lp2101
S':'
asbag49
(g70
g51
NtRp2102
(dp2103
g54
(dp2104
sg63
g2090
sg56
(lp2105
g49
(g50
g51
NtRp2106
(dp2107
g54
(dp2108
g62
I4
ssg63
g2102
sg56
(lp2109
g92
asbasbasbag49
(g65
g51
NtRp2110
(dp2111
g54
(dp2112
sg63
g1939
sg56
(lp2113
g49
(g70
g51
NtRp2114
(dp2115
g54
(dp2116
g74
g75
ssg63
g2110
sg56
(lp2117
g1178
asbag49
(g70
g51
NtRp2118
(dp2119
g54
(dp2120
g81
g82
ssg63
g2110
sg56
(lp2121
S':'
asbag49
(g70
g51
NtRp2122
(dp2123
g54
(dp2124
sg63
g2110
sg56
(lp2125
g49
(g50
g51
NtRp2126
(dp2127
g54
(dp2128
g62
I4
ssg63
g2122
sg56
(lp2129
g92
asbasbasbag49
(g65
g51
NtRp2130
(dp2131
g54
(dp2132
sg63
g1939
sg56
(lp2133
g49
(g70
g51
NtRp2134
(dp2135
g54
(dp2136
g74
g75
ssg63
g2130
sg56
(lp2137
g1199
asbag49
(g70
g51
NtRp2138
(dp2139
g54
(dp2140
g81
g82
ssg63
g2130
sg56
(lp2141
S':'
asbag49
(g70
g51
NtRp2142
(dp2143
g54
(dp2144
sg63
g2130
sg56
(lp2145
g49
(g50
g51
NtRp2146
(dp2147
g54
(dp2148
g62
I4
ssg63
g2142
sg56
(lp2149
g49
(g58
g51
NtRp2150
(dp2151
g54
(dp2152
g62
I3
ssg63
Nsg56
(lp2153
g49
(g65
g51
NtRp2154
(dp2155
g54
(dp2156
sg63
g2150
sg56
(lp2157
g49
(g70
g51
NtRp2158
(dp2159
g54
(dp2160
sg63
g2154
sg56
(lp2161
g49
(g50
g51
NtRp2162
(dp2163
g54
(dp2164
g62
I3
ssg63
g2158
sg56
(lp2165
g1228
asbasbasbag49
(g65
g51
NtRp2166
(dp2167
g54
(dp2168
sg63
g2150
sg56
(lp2169
g49
(g70
g51
NtRp2170
(dp2171
g54
(dp2172
sg63
g2166
sg56
(lp2173
g49
(g50
g51
NtRp2174
(dp2175
g54
(dp2176
g62
I3
ssg63
g2170
sg56
(lp2177
g1241
asbasbasbag49
(g65
g51
NtRp2178
(dp2179
g54
(dp2180
sg63
g2150
sg56
(lp2181
g49
(g70
g51
NtRp2182
(dp2183
g54
(dp2184
sg63
g2178
sg56
(lp2185
g49
(g50
g51
NtRp2186
(dp2187
g54
(dp2188
g62
I3
ssg63
g2182
sg56
(lp2189
g1254
asbasbasbag49
(g65
g51
NtRp2190
(dp2191
g54
(dp2192
sg63
g2150
sg56
(lp2193
g49
(g70
g51
NtRp2194
(dp2195
g54
(dp2196
sg63
g2190
sg56
(lp2197
g49
(g50
g51
NtRp2198
(dp2199
g54
(dp2200
g62
I3
ssg63
g2194
sg56
(lp2201
g1267
asbasbasbag49
(g65
g51
NtRp2202
(dp2203
g54
(dp2204
sg63
g2150
sg56
(lp2205
g49
(g70
g51
NtRp2206
(dp2207
g54
(dp2208
sg63
g2202
sg56
(lp2209
g49
(g50
g51
NtRp2210
(dp2211
g54
(dp2212
g62
I3
ssg63
g2206
sg56
(lp2213
g1280
asbasbasbasbasbasbasbag49
(g65
g51
NtRp2214
(dp2215
g54
(dp2216
sg63
g1939
sg56
(lp2217
g49
(g70
g51
NtRp2218
(dp2219
g54
(dp2220
g74
g75
ssg63
g2214
sg56
(lp2221
g1548
asbag49
(g70
g51
NtRp2222
(dp2223
g54
(dp2224
g81
g82
ssg63
g2214
sg56
(lp2225
S':'
asbag49
(g70
g51
NtRp2226
(dp2227
g54
(dp2228
sg63
g2214
sg56
(lp2229
g49
(g50
g51
NtRp2230
(dp2231
g54
(dp2232
g62
I4
ssg63
g2226
sg56
(lp2233
g49
(g58
g51
NtRp2234
(dp2235
g54
(dp2236
g62
I3
ssg63
Nsg56
(lp2237
g49
(g65
g51
NtRp2238
(dp2239
g54
(dp2240
sg63
g2234
sg56
(lp2241
g49
(g70
g51
NtRp2242
(dp2243
g54
(dp2244
sg63
g2238
sg56
(lp2245
g49
(g50
g51
NtRp2246
(dp2247
g54
(dp2248
g62
I3
ssg63
g2242
sg56
(lp2249
S'2'
asbasbasbag49
(g65
g51
NtRp2250
(dp2251
g54
(dp2252
sg63
g2234
sg56
(lp2253
g49
(g70
g51
NtRp2254
(dp2255
g54
(dp2256
sg63
g2250
sg56
(lp2257
g49
(g50
g51
NtRp2258
(dp2259
g54
(dp2260
g62
I3
ssg63
g2254
sg56
(lp2261
S'4'
asbasbasbag49
(g65
g51
NtRp2262
(dp2263
g54
(dp2264
sg63
g2234
sg56
(lp2265
g49
(g70
g51
NtRp2266
(dp2267
g54
(dp2268
sg63
g2262
sg56
(lp2269
g49
(g50
g51
NtRp2270
(dp2271
g54
(dp2272
g62
I3
ssg63
g2266
sg56
(lp2273
S'5'
asbasbasbag49
(g65
g51
NtRp2274
(dp2275
g54
(dp2276
sg63
g2234
sg56
(lp2277
g49
(g70
g51
NtRp2278
(dp2279
g54
(dp2280
sg63
g2274
sg56
(lp2281
g49
(g50
g51
NtRp2282
(dp2283
g54
(dp2284
g62
I3
ssg63
g2278
sg56
(lp2285
g1613
asbasbasbag49
(g65
g51
NtRp2286
(dp2287
g54
(dp2288
sg63
g2234
sg56
(lp2289
g49
(g70
g51
NtRp2290
(dp2291
g54
(dp2292
sg63
g2286
sg56
(lp2293
g49
(g50
g51
NtRp2294
(dp2295
g54
(dp2296
g62
I3
ssg63
g2290
sg56
(lp2297
S'datetime.datetime(2013, 3, 18, 22, 46, 22)'
p2298
asbasbasbasbasbasbasbasbasbasbasbag49
(g65
g51
NtRp2299
(dp2300
g54
(dp2301
sg63
g59
sg56
(lp2302
g49
(g70
g51
NtRp2303
(dp2304
g54
(dp2305
g74
g75
ssg63
g2299
sg56
(lp2306
S'is_https'
p2307
asbag49
(g70
g51
NtRp2308
(dp2309
g54
(dp2310
g81
g82
ssg63
g2299
sg56
(lp2311
S':'
asbag49
(g70
g51
NtRp2312
(dp2313
g54
(dp2314
sg63
g2299
sg56
(lp2315
g49
(g50
g51
NtRp2316
(dp2317
g54
(dp2318
g62
I5
ssg63
g2312
sg56
(lp2319
g92
asbasbasbag49
(g65
g51
NtRp2320
(dp2321
g54
(dp2322
sg63
g59
sg56
(lp2323
g49
(g70
g51
NtRp2324
(dp2325
g54
(dp2326
g74
g75
ssg63
g2320
sg56
(lp2327
S'is_local'
p2328
asbag49
(g70
g51
NtRp2329
(dp2330
g54
(dp2331
g81
g82
ssg63
g2320
sg56
(lp2332
S':'
asbag49
(g70
g51
NtRp2333
(dp2334
g54
(dp2335
sg63
g2320
sg56
(lp2336
g49
(g50
g51
NtRp2337
(dp2338
g54
(dp2339
g62
I5
ssg63
g2333
sg56
(lp2340
g928
asbasbasbag49
(g65
g51
NtRp2341
(dp2342
g54
(dp2343
sg63
g59
sg56
(lp2344
g49
(g70
g51
NtRp2345
(dp2346
g54
(dp2347
g74
g75
ssg63
g2341
sg56
(lp2348
S'is_restful'
p2349
asbag49
(g70
g51
NtRp2350
(dp2351
g54
(dp2352
g81
g82
ssg63
g2341
sg56
(lp2353
S':'
asbag49
(g70
g51
NtRp2354
(dp2355
g54
(dp2356
sg63
g2341
sg56
(lp2357
g49
(g50
g51
NtRp2358
(dp2359
g54
(dp2360
g62
I5
ssg63
g2354
sg56
(lp2361
g92
asbasbasbag49
(g65
g51
NtRp2362
(dp2363
g54
(dp2364
sg63
g59
sg56
(lp2365
g49
(g70
g51
NtRp2366
(dp2367
g54
(dp2368
g74
g75
ssg63
g2362
sg56
(lp2369
S'now'
p2370
asbag49
(g70
g51
NtRp2371
(dp2372
g54
(dp2373
g81
g82
ssg63
g2362
sg56
(lp2374
S':'
asbag49
(g70
g51
NtRp2375
(dp2376
g54
(dp2377
sg63
g2362
sg56
(lp2378
g49
(g50
g51
NtRp2379
(dp2380
g54
(dp2381
g62
I5
ssg63
g2375
sg56
(lp2382
S'datetime.datetime(2013, 3, 26, 14, 36, 54, 759691)'
p2383
asbasbasbag49
(g65
g51
NtRp2384
(dp2385
g54
(dp2386
sg63
g59
sg56
(lp2387
g49
(g70
g51
NtRp2388
(dp2389
g54
(dp2390
g74
g75
ssg63
g2384
sg56
(lp2391
S'post_vars'
p2392
asbag49
(g70
g51
NtRp2393
(dp2394
g54
(dp2395
g81
g82
ssg63
g2384
sg56
(lp2396
S':'
asbag49
(g70
g51
NtRp2397
(dp2398
g54
(dp2399
sg63
g2384
sg56
(lp2400
g49
(g50
g51
NtRp2401
(dp2402
g54
(dp2403
g62
I5
ssg63
g2397
sg56
(lp2404
g49
(g58
g51
NtRp2405
(dp2406
g54
(dp2407
g62
I4
ssg63
Nsg56
(lp2408
sbasbasbasbag49
(g65
g51
NtRp2409
(dp2410
g54
(dp2411
sg63
g59
sg56
(lp2412
g49
(g70
g51
NtRp2413
(dp2414
g54
(dp2415
g74
g75
ssg63
g2409
sg56
(lp2416
S'raw_args'
p2417
asbag49
(g70
g51
NtRp2418
(dp2419
g54
(dp2420
g81
g82
ssg63
g2409
sg56
(lp2421
S':'
asbag49
(g70
g51
NtRp2422
(dp2423
g54
(dp2424
sg63
g2409
sg56
(lp2425
g49
(g50
g51
NtRp2426
(dp2427
g54
(dp2428
g62
I5
ssg63
g2422
sg56
(lp2429
S'1'
asbasbasbag49
(g65
g51
NtRp2430
(dp2431
g54
(dp2432
sg63
g59
sg56
(lp2433
g49
(g70
g51
NtRp2434
(dp2435
g54
(dp2436
g74
g75
ssg63
g2430
sg56
(lp2437
S'raw_extension'
p2438
asbag49
(g70
g51
NtRp2439
(dp2440
g54
(dp2441
g81
g82
ssg63
g2430
sg56
(lp2442
S':'
asbag49
(g70
g51
NtRp2443
(dp2444
g54
(dp2445
sg63
g2430
sg56
(lp2446
g49
(g50
g51
NtRp2447
(dp2448
g54
(dp2449
g62
I5
ssg63
g2443
sg56
(lp2450
S'None'
p2451
asbasbasbag49
(g65
g51
NtRp2452
(dp2453
g54
(dp2454
sg63
g59
sg56
(lp2455
g49
(g70
g51
NtRp2456
(dp2457
g54
(dp2458
g74
g75
ssg63
g2452
sg56
(lp2459
S'url'
p2460
asbag49
(g70
g51
NtRp2461
(dp2462
g54
(dp2463
g81
g82
ssg63
g2452
sg56
(lp2464
S':'
asbag49
(g70
g51
NtRp2465
(dp2466
g54
(dp2467
sg63
g2452
sg56
(lp2468
g49
(g50
g51
NtRp2469
(dp2470
g54
(dp2471
g62
I5
ssg63
g2465
sg56
(lp2472
g1302
asbasbasbag49
(g65
g51
NtRp2473
(dp2474
g54
(dp2475
sg63
g59
sg56
(lp2476
g49
(g70
g51
NtRp2477
(dp2478
g54
(dp2479
g74
g75
ssg63
g2473
sg56
(lp2480
S'utcnow'
p2481
asbag49
(g70
g51
NtRp2482
(dp2483
g54
(dp2484
g81
g82
ssg63
g2473
sg56
(lp2485
S':'
asbag49
(g70
g51
NtRp2486
(dp2487
g54
(dp2488
sg63
g2473
sg56
(lp2489
g49
(g50
g51
NtRp2490
(dp2491
g54
(dp2492
g62
I5
ssg63
g2486
sg56
(lp2493
S'datetime.datetime(2013, 3, 26, 18, 36, 54, 759703)'
p2494
asbasbasbag49
(g65
g51
NtRp2495
(dp2496
g54
(dp2497
sg63
g59
sg56
(lp2498
g49
(g70
g51
NtRp2499
(dp2500
g54
(dp2501
g74
g75
ssg63
g2495
sg56
(lp2502
S'uuid'
p2503
asbag49
(g70
g51
NtRp2504
(dp2505
g54
(dp2506
g81
g82
ssg63
g2495
sg56
(lp2507
S':'
asbag49
(g70
g51
NtRp2508
(dp2509
g54
(dp2510
sg63
g2495
sg56
(lp2511
g49
(g50
g51
NtRp2512
(dp2513
g54
(dp2514
g62
I5
ssg63
g2508
sg56
(lp2515
S'hellow/127.0.0.1.2013-03-26.14-36-54.8ff1379c-6e2f-40a0-a252-c966001b9597'
p2516
asbasbasbag49
(g65
g51
NtRp2517
(dp2518
g54
(dp2519
sg63
g59
sg56
(lp2520
g49
(g70
g51
NtRp2521
(dp2522
g54
(dp2523
g74
g75
ssg63
g2517
sg56
(lp2524
S'vars'
p2525
asbag49
(g70
g51
NtRp2526
(dp2527
g54
(dp2528
g81
g82
ssg63
g2517
sg56
(lp2529
S':'
asbag49
(g70
g51
NtRp2530
(dp2531
g54
(dp2532
sg63
g2517
sg56
(lp2533
g49
(g50
g51
NtRp2534
(dp2535
g54
(dp2536
g62
I5
ssg63
g2530
sg56
(lp2537
g49
(g58
g51
NtRp2538
(dp2539
g54
(dp2540
g62
I4
ssg63
Nsg56
(lp2541
sbasbasbasbag49
(g65
g51
NtRp2542
(dp2543
g54
(dp2544
sg63
g59
sg56
(lp2545
g49
(g70
g51
NtRp2546
(dp2547
g54
(dp2548
g74
g75
ssg63
g2542
sg56
(lp2549
S'wsgi'
p2550
asbag49
(g70
g51
NtRp2551
(dp2552
g54
(dp2553
g81
g82
ssg63
g2542
sg56
(lp2554
S':'
asbag49
(g70
g51
NtRp2555
(dp2556
g54
(dp2557
sg63
g2542
sg56
(lp2558
g49
(g50
g51
NtRp2559
(dp2560
g54
(dp2561
g62
I5
ssg63
g2555
sg56
(lp2562
g49
(g58
g51
NtRp2563
(dp2564
g54
(dp2565
g62
I4
ssg63
Nsg56
(lp2566
g49
(g65
g51
NtRp2567
(dp2568
g54
(dp2569
sg63
g2563
sg56
(lp2570
g49
(g70
g51
NtRp2571
(dp2572
g54
(dp2573
g74
g75
ssg63
g2567
sg56
(lp2574
S'environ'
p2575
asbag49
(g70
g51
NtRp2576
(dp2577
g54
(dp2578
g81
g82
ssg63
g2567
sg56
(lp2579
S':'
asbag49
(g70
g51
NtRp2580
(dp2581
g54
(dp2582
sg63
g2567
sg56
(lp2583
g49
(g50
g51
NtRp2584
(dp2585
g54
(dp2586
g62
I4
ssg63
g2580
sg56
(lp2587
g49
(g58
g51
NtRp2588
(dp2589
g54
(dp2590
g62
I3
ssg63
Nsg56
(lp2591
g49
(g65
g51
NtRp2592
(dp2593
g54
(dp2594
sg63
g2588
sg56
(lp2595
g49
(g70
g51
NtRp2596
(dp2597
g54
(dp2598
g74
g75
ssg63
g2592
sg56
(lp2599
S'HTTP_ACCEPT'
p2600
asbag49
(g70
g51
NtRp2601
(dp2602
g54
(dp2603
g81
g82
ssg63
g2592
sg56
(lp2604
S':'
asbag49
(g70
g51
NtRp2605
(dp2606
g54
(dp2607
sg63
g2592
sg56
(lp2608
g49
(g50
g51
NtRp2609
(dp2610
g54
(dp2611
g62
I3
ssg63
g2605
sg56
(lp2612
g972
asbasbasbag49
(g65
g51
NtRp2613
(dp2614
g54
(dp2615
sg63
g2588
sg56
(lp2616
g49
(g70
g51
NtRp2617
(dp2618
g54
(dp2619
g74
g75
ssg63
g2613
sg56
(lp2620
S'HTTP_ACCEPT_CHARSET'
p2621
asbag49
(g70
g51
NtRp2622
(dp2623
g54
(dp2624
g81
g82
ssg63
g2613
sg56
(lp2625
S':'
asbag49
(g70
g51
NtRp2626
(dp2627
g54
(dp2628
sg63
g2613
sg56
(lp2629
g49
(g50
g51
NtRp2630
(dp2631
g54
(dp2632
g62
I3
ssg63
g2626
sg56
(lp2633
g994
asbasbasbag49
(g65
g51
NtRp2634
(dp2635
g54
(dp2636
sg63
g2588
sg56
(lp2637
g49
(g70
g51
NtRp2638
(dp2639
g54
(dp2640
g74
g75
ssg63
g2634
sg56
(lp2641
S'HTTP_ACCEPT_ENCODING'
p2642
asbag49
(g70
g51
NtRp2643
(dp2644
g54
(dp2645
g81
g82
ssg63
g2634
sg56
(lp2646
S':'
asbag49
(g70
g51
NtRp2647
(dp2648
g54
(dp2649
sg63
g2634
sg56
(lp2650
g49
(g50
g51
NtRp2651
(dp2652
g54
(dp2653
g62
I3
ssg63
g2647
sg56
(lp2654
g1016
asbasbasbag49
(g65
g51
NtRp2655
(dp2656
g54
(dp2657
sg63
g2588
sg56
(lp2658
g49
(g70
g51
NtRp2659
(dp2660
g54
(dp2661
g74
g75
ssg63
g2655
sg56
(lp2662
S'HTTP_ACCEPT_LANGUAGE'
p2663
asbag49
(g70
g51
NtRp2664
(dp2665
g54
(dp2666
g81
g82
ssg63
g2655
sg56
(lp2667
S':'
asbag49
(g70
g51
NtRp2668
(dp2669
g54
(dp2670
sg63
g2655
sg56
(lp2671
g49
(g50
g51
NtRp2672
(dp2673
g54
(dp2674
g62
I3
ssg63
g2668
sg56
(lp2675
g1038
asbasbasbag49
(g65
g51
NtRp2676
(dp2677
g54
(dp2678
sg63
g2588
sg56
(lp2679
g49
(g70
g51
NtRp2680
(dp2681
g54
(dp2682
g74
g75
ssg63
g2676
sg56
(lp2683
S'HTTP_CACHE_CONTROL'
p2684
asbag49
(g70
g51
NtRp2685
(dp2686
g54
(dp2687
g81
g82
ssg63
g2676
sg56
(lp2688
S':'
asbag49
(g70
g51
NtRp2689
(dp2690
g54
(dp2691
sg63
g2676
sg56
(lp2692
g49
(g50
g51
NtRp2693
(dp2694
g54
(dp2695
g62
I3
ssg63
g2689
sg56
(lp2696
g1060
asbasbasbag49
(g65
g51
NtRp2697
(dp2698
g54
(dp2699
sg63
g2588
sg56
(lp2700
g49
(g70
g51
NtRp2701
(dp2702
g54
(dp2703
g74
g75
ssg63
g2697
sg56
(lp2704
S'HTTP_CONNECTION'
p2705
asbag49
(g70
g51
NtRp2706
(dp2707
g54
(dp2708
g81
g82
ssg63
g2697
sg56
(lp2709
S':'
asbag49
(g70
g51
NtRp2710
(dp2711
g54
(dp2712
sg63
g2697
sg56
(lp2713
g49
(g50
g51
NtRp2714
(dp2715
g54
(dp2716
g62
I3
ssg63
g2710
sg56
(lp2717
g1082
asbasbasbag49
(g65
g51
NtRp2718
(dp2719
g54
(dp2720
sg63
g2588
sg56
(lp2721
g49
(g70
g51
NtRp2722
(dp2723
g54
(dp2724
g74
g75
ssg63
g2718
sg56
(lp2725
S'HTTP_COOKIE'
p2726
asbag49
(g70
g51
NtRp2727
(dp2728
g54
(dp2729
g81
g82
ssg63
g2718
sg56
(lp2730
S':'
asbag49
(g70
g51
NtRp2731
(dp2732
g54
(dp2733
sg63
g2718
sg56
(lp2734
g49
(g50
g51
NtRp2735
(dp2736
g54
(dp2737
g62
I3
ssg63
g2731
sg56
(lp2738
g1104
asbasbasbag49
(g65
g51
NtRp2739
(dp2740
g54
(dp2741
sg63
g2588
sg56
(lp2742
g49
(g70
g51
NtRp2743
(dp2744
g54
(dp2745
g74
g75
ssg63
g2739
sg56
(lp2746
S'HTTP_HOST'
p2747
asbag49
(g70
g51
NtRp2748
(dp2749
g54
(dp2750
g81
g82
ssg63
g2739
sg56
(lp2751
S':'
asbag49
(g70
g51
NtRp2752
(dp2753
g54
(dp2754
sg63
g2739
sg56
(lp2755
g49
(g50
g51
NtRp2756
(dp2757
g54
(dp2758
g62
I3
ssg63
g2752
sg56
(lp2759
g1126
asbasbasbag49
(g65
g51
NtRp2760
(dp2761
g54
(dp2762
sg63
g2588
sg56
(lp2763
g49
(g70
g51
NtRp2764
(dp2765
g54
(dp2766
g74
g75
ssg63
g2760
sg56
(lp2767
S'HTTP_USER_AGENT'
p2768
asbag49
(g70
g51
NtRp2769
(dp2770
g54
(dp2771
g81
g82
ssg63
g2760
sg56
(lp2772
S':'
asbag49
(g70
g51
NtRp2773
(dp2774
g54
(dp2775
sg63
g2760
sg56
(lp2776
g49
(g50
g51
NtRp2777
(dp2778
g54
(dp2779
g62
I3
ssg63
g2773
sg56
(lp2780
g1148
asbasbasbag49
(g65
g51
NtRp2781
(dp2782
g54
(dp2783
sg63
g2588
sg56
(lp2784
g49
(g70
g51
NtRp2785
(dp2786
g54
(dp2787
g74
g75
ssg63
g2781
sg56
(lp2788
S'PATH_INFO'
p2789
asbag49
(g70
g51
NtRp2790
(dp2791
g54
(dp2792
g81
g82
ssg63
g2781
sg56
(lp2793
S':'
asbag49
(g70
g51
NtRp2794
(dp2795
g54
(dp2796
sg63
g2781
sg56
(lp2797
g49
(g50
g51
NtRp2798
(dp2799
g54
(dp2800
g62
I3
ssg63
g2794
sg56
(lp2801
g1302
asbasbasbag49
(g65
g51
NtRp2802
(dp2803
g54
(dp2804
sg63
g2588
sg56
(lp2805
g49
(g70
g51
NtRp2806
(dp2807
g54
(dp2808
g74
g75
ssg63
g2802
sg56
(lp2809
S'QUERY_STRING'
p2810
asbag49
(g70
g51
NtRp2811
(dp2812
g54
(dp2813
g81
g82
ssg63
g2802
sg56
(lp2814
S':'
asbag49
(g70
g51
NtRp2815
(dp2816
g54
(dp2817
sg63
g2802
sg56
(lp2818
g49
(g50
g51
NtRp2819
(dp2820
g54
(dp2821
g62
I3
ssg63
g2815
sg56
(lp2822
S''
asbasbasbag49
(g65
g51
NtRp2823
(dp2824
g54
(dp2825
sg63
g2588
sg56
(lp2826
g49
(g70
g51
NtRp2827
(dp2828
g54
(dp2829
g74
g75
ssg63
g2823
sg56
(lp2830
S'REMOTE_ADDR'
p2831
asbag49
(g70
g51
NtRp2832
(dp2833
g54
(dp2834
g81
g82
ssg63
g2823
sg56
(lp2835
S':'
asbag49
(g70
g51
NtRp2836
(dp2837
g54
(dp2838
sg63
g2823
sg56
(lp2839
g49
(g50
g51
NtRp2840
(dp2841
g54
(dp2842
g62
I3
ssg63
g2836
sg56
(lp2843
g216
asbasbasbag49
(g65
g51
NtRp2844
(dp2845
g54
(dp2846
sg63
g2588
sg56
(lp2847
g49
(g70
g51
NtRp2848
(dp2849
g54
(dp2850
g74
g75
ssg63
g2844
sg56
(lp2851
S'REMOTE_PORT'
p2852
asbag49
(g70
g51
NtRp2853
(dp2854
g54
(dp2855
g81
g82
ssg63
g2844
sg56
(lp2856
S':'
asbag49
(g70
g51
NtRp2857
(dp2858
g54
(dp2859
sg63
g2844
sg56
(lp2860
g49
(g50
g51
NtRp2861
(dp2862
g54
(dp2863
g62
I3
ssg63
g2857
sg56
(lp2864
g1366
asbasbasbag49
(g65
g51
NtRp2865
(dp2866
g54
(dp2867
sg63
g2588
sg56
(lp2868
g49
(g70
g51
NtRp2869
(dp2870
g54
(dp2871
g74
g75
ssg63
g2865
sg56
(lp2872
S'REQUEST_METHOD'
p2873
asbag49
(g70
g51
NtRp2874
(dp2875
g54
(dp2876
g81
g82
ssg63
g2865
sg56
(lp2877
S':'
asbag49
(g70
g51
NtRp2878
(dp2879
g54
(dp2880
sg63
g2865
sg56
(lp2881
g49
(g50
g51
NtRp2882
(dp2883
g54
(dp2884
g62
I3
ssg63
g2878
sg56
(lp2885
g1388
asbasbasbag49
(g65
g51
NtRp2886
(dp2887
g54
(dp2888
sg63
g2588
sg56
(lp2889
g49
(g70
g51
NtRp2890
(dp2891
g54
(dp2892
g74
g75
ssg63
g2886
sg56
(lp2893
S'REQUEST_URI'
p2894
asbag49
(g70
g51
NtRp2895
(dp2896
g54
(dp2897
g81
g82
ssg63
g2886
sg56
(lp2898
S':'
asbag49
(g70
g51
NtRp2899
(dp2900
g54
(dp2901
sg63
g2886
sg56
(lp2902
g49
(g50
g51
NtRp2903
(dp2904
g54
(dp2905
g62
I3
ssg63
g2899
sg56
(lp2906
g1302
asbasbasbag49
(g65
g51
NtRp2907
(dp2908
g54
(dp2909
sg63
g2588
sg56
(lp2910
g49
(g70
g51
NtRp2911
(dp2912
g54
(dp2913
g74
g75
ssg63
g2907
sg56
(lp2914
S'SCRIPT_NAME'
p2915
asbag49
(g70
g51
NtRp2916
(dp2917
g54
(dp2918
g81
g82
ssg63
g2907
sg56
(lp2919
S':'
asbag49
(g70
g51
NtRp2920
(dp2921
g54
(dp2922
sg63
g2907
sg56
(lp2923
g49
(g50
g51
NtRp2924
(dp2925
g54
(dp2926
g62
I3
ssg63
g2920
sg56
(lp2927
S''
asbasbasbag49
(g65
g51
NtRp2928
(dp2929
g54
(dp2930
sg63
g2588
sg56
(lp2931
g49
(g70
g51
NtRp2932
(dp2933
g54
(dp2934
g74
g75
ssg63
g2928
sg56
(lp2935
S'SERVER_NAME'
p2936
asbag49
(g70
g51
NtRp2937
(dp2938
g54
(dp2939
g81
g82
ssg63
g2928
sg56
(lp2940
S':'
asbag49
(g70
g51
NtRp2941
(dp2942
g54
(dp2943
sg63
g2928
sg56
(lp2944
g49
(g50
g51
NtRp2945
(dp2946
g54
(dp2947
g62
I3
ssg63
g2941
sg56
(lp2948
g1452
asbasbasbag49
(g65
g51
NtRp2949
(dp2950
g54
(dp2951
sg63
g2588
sg56
(lp2952
g49
(g70
g51
NtRp2953
(dp2954
g54
(dp2955
g74
g75
ssg63
g2949
sg56
(lp2956
S'SERVER_PORT'
p2957
asbag49
(g70
g51
NtRp2958
(dp2959
g54
(dp2960
g81
g82
ssg63
g2949
sg56
(lp2961
S':'
asbag49
(g70
g51
NtRp2962
(dp2963
g54
(dp2964
sg63
g2949
sg56
(lp2965
g49
(g50
g51
NtRp2966
(dp2967
g54
(dp2968
g62
I3
ssg63
g2962
sg56
(lp2969
g1474
asbasbasbag49
(g65
g51
NtRp2970
(dp2971
g54
(dp2972
sg63
g2588
sg56
(lp2973
g49
(g70
g51
NtRp2974
(dp2975
g54
(dp2976
g74
g75
ssg63
g2970
sg56
(lp2977
S'SERVER_PROTOCOL'
p2978
asbag49
(g70
g51
NtRp2979
(dp2980
g54
(dp2981
g81
g82
ssg63
g2970
sg56
(lp2982
S':'
asbag49
(g70
g51
NtRp2983
(dp2984
g54
(dp2985
sg63
g2970
sg56
(lp2986
g49
(g50
g51
NtRp2987
(dp2988
g54
(dp2989
g62
I3
ssg63
g2983
sg56
(lp2990
g1496
asbasbasbag49
(g65
g51
NtRp2991
(dp2992
g54
(dp2993
sg63
g2588
sg56
(lp2994
g49
(g70
g51
NtRp2995
(dp2996
g54
(dp2997
g74
g75
ssg63
g2991
sg56
(lp2998
S'SERVER_SOFTWARE'
p2999
asbag49
(g70
g51
NtRp3000
(dp3001
g54
(dp3002
g81
g82
ssg63
g2991
sg56
(lp3003
S':'
asbag49
(g70
g51
NtRp3004
(dp3005
g54
(dp3006
sg63
g2991
sg56
(lp3007
g49
(g50
g51
NtRp3008
(dp3009
g54
(dp3010
g62
I3
ssg63
g3004
sg56
(lp3011
g1518
asbasbasbag49
(g65
g51
NtRp3012
(dp3013
g54
(dp3014
sg63
g2588
sg56
(lp3015
g49
(g70
g51
NtRp3016
(dp3017
g54
(dp3018
g74
g75
ssg63
g3012
sg56
(lp3019
S'wsgi.errors'
p3020
asbag49
(g70
g51
NtRp3021
(dp3022
g54
(dp3023
g81
g82
ssg63
g3012
sg56
(lp3024
S':'
asbag49
(g70
g51
NtRp3025
(dp3026
g54
(dp3027
sg63
g3012
sg56
(lp3028
g49
(g50
g51
NtRp3029
(dp3030
g54
(dp3031
g62
I3
ssg63
g3025
sg56
(lp3032
S"<open file '<stderr>', mode 'w' at 0x540b0>"
p3033
asbasbasbag49
(g65
g51
NtRp3034
(dp3035
g54
(dp3036
sg63
g2588
sg56
(lp3037
g49
(g70
g51
NtRp3038
(dp3039
g54
(dp3040
g74
g75
ssg63
g3034
sg56
(lp3041
S'wsgi.file_wrapper'
p3042
asbag49
(g70
g51
NtRp3043
(dp3044
g54
(dp3045
g81
g82
ssg63
g3034
sg56
(lp3046
S':'
asbag49
(g70
g51
NtRp3047
(dp3048
g54
(dp3049
sg63
g3034
sg56
(lp3050
g49
(g50
g51
NtRp3051
(dp3052
g54
(dp3053
g62
I3
ssg63
g3047
sg56
(lp3054
S'<class wsgiref.util.FileWrapper at 0x329d060>'
p3055
asbasbasbag49
(g65
g51
NtRp3056
(dp3057
g54
(dp3058
sg63
g2588
sg56
(lp3059
g49
(g70
g51
NtRp3060
(dp3061
g54
(dp3062
g74
g75
ssg63
g3056
sg56
(lp3063
S'wsgi.input'
p3064
asbag49
(g70
g51
NtRp3065
(dp3066
g54
(dp3067
g81
g82
ssg63
g3056
sg56
(lp3068
S':'
asbag49
(g70
g51
NtRp3069
(dp3070
g54
(dp3071
sg63
g3056
sg56
(lp3072
g49
(g50
g51
NtRp3073
(dp3074
g54
(dp3075
g62
I3
ssg63
g3069
sg56
(lp3076
S'<cStringIO.StringO object at 0xaadd7c0>'
p3077
asbasbasbag49
(g65
g51
NtRp3078
(dp3079
g54
(dp3080
sg63
g2588
sg56
(lp3081
g49
(g70
g51
NtRp3082
(dp3083
g54
(dp3084
g74
g75
ssg63
g3078
sg56
(lp3085
S'wsgi.multiprocess'
p3086
asbag49
(g70
g51
NtRp3087
(dp3088
g54
(dp3089
g81
g82
ssg63
g3078
sg56
(lp3090
S':'
asbag49
(g70
g51
NtRp3091
(dp3092
g54
(dp3093
sg63
g3078
sg56
(lp3094
g49
(g50
g51
NtRp3095
(dp3096
g54
(dp3097
g62
I3
ssg63
g3091
sg56
(lp3098
g92
asbasbasbag49
(g65
g51
NtRp3099
(dp3100
g54
(dp3101
sg63
g2588
sg56
(lp3102
g49
(g70
g51
NtRp3103
(dp3104
g54
(dp3105
g74
g75
ssg63
g3099
sg56
(lp3106
S'wsgi.multithread'
p3107
asbag49
(g70
g51
NtRp3108
(dp3109
g54
(dp3110
g81
g82
ssg63
g3099
sg56
(lp3111
S':'
asbag49
(g70
g51
NtRp3112
(dp3113
g54
(dp3114
sg63
g3099
sg56
(lp3115
g49
(g50
g51
NtRp3116
(dp3117
g54
(dp3118
g62
I3
ssg63
g3112
sg56
(lp3119
g928
asbasbasbag49
(g65
g51
NtRp3120
(dp3121
g54
(dp3122
sg63
g2588
sg56
(lp3123
g49
(g70
g51
NtRp3124
(dp3125
g54
(dp3126
g74
g75
ssg63
g3120
sg56
(lp3127
S'wsgi.run_once'
p3128
asbag49
(g70
g51
NtRp3129
(dp3130
g54
(dp3131
g81
g82
ssg63
g3120
sg56
(lp3132
S':'
asbag49
(g70
g51
NtRp3133
(dp3134
g54
(dp3135
sg63
g3120
sg56
(lp3136
g49
(g50
g51
NtRp3137
(dp3138
g54
(dp3139
g62
I3
ssg63
g3133
sg56
(lp3140
g92
asbasbasbag49
(g65
g51
NtRp3141
(dp3142
g54
(dp3143
sg63
g2588
sg56
(lp3144
g49
(g70
g51
NtRp3145
(dp3146
g54
(dp3147
g74
g75
ssg63
g3141
sg56
(lp3148
S'wsgi.url_scheme'
p3149
asbag49
(g70
g51
NtRp3150
(dp3151
g54
(dp3152
g81
g82
ssg63
g3141
sg56
(lp3153
S':'
asbag49
(g70
g51
NtRp3154
(dp3155
g54
(dp3156
sg63
g3141
sg56
(lp3157
g49
(g50
g51
NtRp3158
(dp3159
g54
(dp3160
g62
I3
ssg63
g3154
sg56
(lp3161
g1777
asbasbasbag49
(g65
g51
NtRp3162
(dp3163
g54
(dp3164
sg63
g2588
sg56
(lp3165
g49
(g70
g51
NtRp3166
(dp3167
g54
(dp3168
g74
g75
ssg63
g3162
sg56
(lp3169
S'wsgi.version'
p3170
asbag49
(g70
g51
NtRp3171
(dp3172
g54
(dp3173
g81
g82
ssg63
g3162
sg56
(lp3174
S':'
asbag49
(g70
g51
NtRp3175
(dp3176
g54
(dp3177
sg63
g3162
sg56
(lp3178
g49
(g50
g51
NtRp3179
(dp3180
g54
(dp3181
g62
I3
ssg63
g3175
sg56
(lp3182
S'1'
asbasbasbasbasbasbasbasbasbasbasbasbasbsS'frames'
p3183
(lp3184
(dp3185
S'file'
p3186
S'/home/mdipierro/web2py/gluon/restricted.py'
p3187
sS'dump'
p3188
(dp3189
sS'lnum'
p3190
I212
sS'lines'
p3191
(dp3192
sS'call'
p3193
S'(code=\'response.write(\\\'<!--[if HTML5]><![endif]-->\\\\n<!D..."></script>\\\\n</body>\\\\n</html>\\\\n\\\\n\\\', escape=False)\', environment={\'A\': <class \'gluon.html.A\'>, \'Auth\': <class \'gluon.tools.Auth\'>, \'B\': <class \'gluon.html.B\'>, \'BEAUTIFY\': <class \'gluon.html.BEAUTIFY\'>, \'BODY\': <class \'gluon.html.BODY\'>, \'BR\': <class \'gluon.html.BR\'>, \'BUTTON\': <class \'gluon.html.BUTTON\'>, \'CAT\': <class \'gluon.html.CAT\'>, \'CENTER\': <class \'gluon.html.CENTER\'>, \'CLEANUP\': <class \'gluon.validators.CLEANUP\'>, ...}, layer=\'/Users/zamechek/Downloads/web2py/web2py.app/Cont...esources/applications/hellow/views/game/show.html\')'
p3194
sS'func'
p3195
S'restricted'
p3196
sa(dp3197
g3186
S'/Users/zamechek/Downloads/web2py/web2py.app/Contents/Resources/applications/hellow/views/game/show.html'
p3198
sg3188
(dp3199
sg3190
I89
sg3191
(dp3200
I96
S"    response.write('\\n        </div>\\n        ', escape=False)"
p3201
sI97
S'    pass'
p3202
sI98
S'response.write(\'\\n    </section><!--/main-->\\n\\n    <!-- Footer ================================================== -->\\n    <div class="row">\\n        <footer class="footer span12" id="footer">\\n            <div class="footer-content">\\n                \', escape=False)'
p3203
sI99
S'response.write(\' <!-- this is default footer -->\\n                <div class="copyright pull-left">\', escape=False)'
p3204
sI80
S'response.write(\'">\\n            \', escape=False)'
p3205
sI81
S"response.write('\\n            ', escape=False)"
p3206
sI82
S"response.write('\\n<h1>Game ', escape=False)"
p3207
sI83
S'response.write(gameid)'
p3208
sI84
S"response.write('</h1>\\n<div>\\n\\t<ul>\\n        <li>Name = ', escape=False)"
p3209
sI85
S'response.write(name)'
p3210
sI86
S"response.write('</li>\\n        <li>Balance = ', escape=False)"
p3211
sI87
S'response.write(balance)'
p3212
sI88
S"response.write('</li>\\n    </ul>\\n    ', escape=False)"
p3213
sI89
S'response.write(form)'
p3214
sI90
S"response.write('\\n</div>\\n', escape=False)"
p3215
sI91
S"response.write('\\n            ', escape=False)"
p3216
sI92
S"response.write('\\n        </div>\\n\\n        ', escape=False)"
p3217
sI93
S'if right_sidebar_enabled:'
p3218
sI94
S'    response.write(\'\\n        <div class="span3">\\n            \', escape=False)'
p3219
sI95
S"    response.write('\\n            <h3>Right Sidebar</h3>\\n            <p></p>\\n            ', escape=False)"
p3220
ssg3193
S'()'
p3221
sg3195
S'<module>'
p3222
sasS'pyver'
p3223
S'Python 2.5.1: /Users/zamechek/Downloads/web2py/web2py.app/Contents/MacOS/python'
p3224
sS'session'
p3225
g49
(g50
g51
NtRp3226
(dp3227
g54
(dp3228
sg56
(lp3229
g49
(g58
g51
NtRp3230
(dp3231
g54
(dp3232
g62
I5
ssg63
Nsg56
(lp3233
sbasbsS'etype'
p3234
S"<type 'exceptions.NameError'>"
p3235
sS'date'
p3236
S'Tue Mar 26 14:36:54 2013'
p3237
sS'response'
p3238
g49
(g50
g51
NtRp3239
(dp3240
g54
(dp3241
sg56
(lp3242
g49
(g58
g51
NtRp3243
(dp3244
g54
(dp3245
g62
I5
ssg63
Nsg56
(lp3246
g49
(g65
g51
NtRp3247
(dp3248
g54
(dp3249
sg63
g3243
sg56
(lp3250
g49
(g70
g51
NtRp3251
(dp3252
g54
(dp3253
g74
g75
ssg63
g3247
sg56
(lp3254
g159
asbag49
(g70
g51
NtRp3255
(dp3256
g54
(dp3257
g81
g82
ssg63
g3247
sg56
(lp3258
S':'
asbag49
(g70
g51
NtRp3259
(dp3260
g54
(dp3261
sg63
g3247
sg56
(lp3262
g49
(g50
g51
NtRp3263
(dp3264
g54
(dp3265
g62
I5
ssg63
g3259
sg56
(lp3266
S'<cStringIO.StringO object at 0xb470380>'
p3267
asbasbasbag49
(g65
g51
NtRp3268
(dp3269
g54
(dp3270
sg63
g3243
sg56
(lp3271
g49
(g70
g51
NtRp3272
(dp3273
g54
(dp3274
g74
g75
ssg63
g3268
sg56
(lp3275
g247
asbag49
(g70
g51
NtRp3276
(dp3277
g54
(dp3278
g81
g82
ssg63
g3268
sg56
(lp3279
S':'
asbag49
(g70
g51
NtRp3280
(dp3281
g54
(dp3282
sg63
g3268
sg56
(lp3283
g49
(g50
g51
NtRp3284
(dp3285
g54
(dp3286
g62
I5
ssg63
g3280
sg56
(lp3287
g49
(g58
g51
NtRp3288
(dp3289
g54
(dp3290
g62
I4
ssg63
Nsg56
(lp3291
g49
(g65
g51
NtRp3292
(dp3293
g54
(dp3294
sg63
g3288
sg56
(lp3295
g49
(g70
g51
NtRp3296
(dp3297
g54
(dp3298
g74
g75
ssg63
g3292
sg56
(lp3299
S'session_id_hellow'
p3300
asbag49
(g70
g51
NtRp3301
(dp3302
g54
(dp3303
g81
g82
ssg63
g3292
sg56
(lp3304
S':'
asbag49
(g70
g51
NtRp3305
(dp3306
g54
(dp3307
sg63
g3292
sg56
(lp3308
g49
(g50
g51
NtRp3309
(dp3310
g54
(dp3311
g62
I4
ssg63
g3305
sg56
(lp3312
g458
ag49
(g58
g51
NtRp3313
(dp3314
g54
(dp3315
g62
I3
ssg63
Nsg56
(lp3316
g49
(g65
g51
NtRp3317
(dp3318
g54
(dp3319
sg63
g3313
sg56
(lp3320
g49
(g70
g51
NtRp3321
(dp3322
g54
(dp3323
g74
g75
ssg63
g3317
sg56
(lp3324
g298
asbag49
(g70
g51
NtRp3325
(dp3326
g54
(dp3327
g81
g82
ssg63
g3317
sg56
(lp3328
S':'
asbag49
(g70
g51
NtRp3329
(dp3330
g54
(dp3331
sg63
g3317
sg56
(lp3332
g49
(g50
g51
NtRp3333
(dp3334
g54
(dp3335
g62
I3
ssg63
g3329
sg56
(lp3336
S''
asbasbasbag49
(g65
g51
NtRp3337
(dp3338
g54
(dp3339
sg63
g3313
sg56
(lp3340
g49
(g70
g51
NtRp3341
(dp3342
g54
(dp3343
g74
g75
ssg63
g3337
sg56
(lp3344
g319
asbag49
(g70
g51
NtRp3345
(dp3346
g54
(dp3347
g81
g82
ssg63
g3337
sg56
(lp3348
S':'
asbag49
(g70
g51
NtRp3349
(dp3350
g54
(dp3351
sg63
g3337
sg56
(lp3352
g49
(g50
g51
NtRp3353
(dp3354
g54
(dp3355
g62
I3
ssg63
g3349
sg56
(lp3356
S''
asbasbasbag49
(g65
g51
NtRp3357
(dp3358
g54
(dp3359
sg63
g3313
sg56
(lp3360
g49
(g70
g51
NtRp3361
(dp3362
g54
(dp3363
g74
g75
ssg63
g3357
sg56
(lp3364
g340
asbag49
(g70
g51
NtRp3365
(dp3366
g54
(dp3367
g81
g82
ssg63
g3357
sg56
(lp3368
S':'
asbag49
(g70
g51
NtRp3369
(dp3370
g54
(dp3371
sg63
g3357
sg56
(lp3372
g49
(g50
g51
NtRp3373
(dp3374
g54
(dp3375
g62
I3
ssg63
g3369
sg56
(lp3376
S''
asbasbasbag49
(g65
g51
NtRp3377
(dp3378
g54
(dp3379
sg63
g3313
sg56
(lp3380
g49
(g70
g51
NtRp3381
(dp3382
g54
(dp3383
g74
g75
ssg63
g3377
sg56
(lp3384
g361
asbag49
(g70
g51
NtRp3385
(dp3386
g54
(dp3387
g81
g82
ssg63
g3377
sg56
(lp3388
S':'
asbag49
(g70
g51
NtRp3389
(dp3390
g54
(dp3391
sg63
g3377
sg56
(lp3392
g49
(g50
g51
NtRp3393
(dp3394
g54
(dp3395
g62
I3
ssg63
g3389
sg56
(lp3396
S''
asbasbasbag49
(g65
g51
NtRp3397
(dp3398
g54
(dp3399
sg63
g3313
sg56
(lp3400
g49
(g70
g51
NtRp3401
(dp3402
g54
(dp3403
g74
g75
ssg63
g3397
sg56
(lp3404
g382
asbag49
(g70
g51
NtRp3405
(dp3406
g54
(dp3407
g81
g82
ssg63
g3397
sg56
(lp3408
S':'
asbag49
(g70
g51
NtRp3409
(dp3410
g54
(dp3411
sg63
g3397
sg56
(lp3412
g49
(g50
g51
NtRp3413
(dp3414
g54
(dp3415
g62
I3
ssg63
g3409
sg56
(lp3416
S'/'
asbasbasbag49
(g65
g51
NtRp3417
(dp3418
g54
(dp3419
sg63
g3313
sg56
(lp3420
g49
(g70
g51
NtRp3421
(dp3422
g54
(dp3423
g74
g75
ssg63
g3417
sg56
(lp3424
g403
asbag49
(g70
g51
NtRp3425
(dp3426
g54
(dp3427
g81
g82
ssg63
g3417
sg56
(lp3428
S':'
asbag49
(g70
g51
NtRp3429
(dp3430
g54
(dp3431
sg63
g3417
sg56
(lp3432
g49
(g50
g51
NtRp3433
(dp3434
g54
(dp3435
g62
I3
ssg63
g3429
sg56
(lp3436
S''
asbasbasbag49
(g65
g51
NtRp3437
(dp3438
g54
(dp3439
sg63
g3313
sg56
(lp3440
g49
(g70
g51
NtRp3441
(dp3442
g54
(dp3443
g74
g75
ssg63
g3437
sg56
(lp3444
g424
asbag49
(g70
g51
NtRp3445
(dp3446
g54
(dp3447
g81
g82
ssg63
g3437
sg56
(lp3448
S':'
asbag49
(g70
g51
NtRp3449
(dp3450
g54
(dp3451
sg63
g3437
sg56
(lp3452
g49
(g50
g51
NtRp3453
(dp3454
g54
(dp3455
g62
I3
ssg63
g3449
sg56
(lp3456
S''
asbasbasbasbasbasbasbasbasbasbasbag49
(g65
g51
NtRp3457
(dp3458
g54
(dp3459
sg63
g3243
sg56
(lp3460
g49
(g70
g51
NtRp3461
(dp3462
g54
(dp3463
g74
g75
ssg63
g3457
sg56
(lp3464
S'delimiters'
p3465
asbag49
(g70
g51
NtRp3466
(dp3467
g54
(dp3468
g81
g82
ssg63
g3457
sg56
(lp3469
S':'
asbag49
(g70
g51
NtRp3470
(dp3471
g54
(dp3472
sg63
g3457
sg56
(lp3473
g49
(g50
g51
NtRp3474
(dp3475
g54
(dp3476
g62
I5
ssg63
g3470
sg56
(lp3477
g49
(g58
g51
NtRp3478
(dp3479
g54
(dp3480
g62
I4
ssg63
Nsg56
(lp3481
g49
(g65
g51
NtRp3482
(dp3483
g54
(dp3484
sg63
g3478
sg56
(lp3485
g49
(g70
g51
NtRp3486
(dp3487
g54
(dp3488
sg63
g3482
sg56
(lp3489
g49
(g50
g51
NtRp3490
(dp3491
g54
(dp3492
g62
I4
ssg63
g3486
sg56
(lp3493
S'{{'
p3494
asbasbasbag49
(g65
g51
NtRp3495
(dp3496
g54
(dp3497
sg63
g3478
sg56
(lp3498
g49
(g70
g51
NtRp3499
(dp3500
g54
(dp3501
sg63
g3495
sg56
(lp3502
g49
(g50
g51
NtRp3503
(dp3504
g54
(dp3505
g62
I4
ssg63
g3499
sg56
(lp3506
S'}}'
p3507
asbasbasbasbasbasbasbag49
(g65
g51
NtRp3508
(dp3509
g54
(dp3510
sg63
g3243
sg56
(lp3511
g49
(g70
g51
NtRp3512
(dp3513
g54
(dp3514
g74
g75
ssg63
g3508
sg56
(lp3515
S'files'
p3516
asbag49
(g70
g51
NtRp3517
(dp3518
g54
(dp3519
g81
g82
ssg63
g3508
sg56
(lp3520
S':'
asbag49
(g70
g51
NtRp3521
(dp3522
g54
(dp3523
sg63
g3508
sg56
(lp3524
g49
(g50
g51
NtRp3525
(dp3526
g54
(dp3527
g62
I5
ssg63
g3521
sg56
(lp3528
g49
(g58
g51
NtRp3529
(dp3530
g54
(dp3531
g62
I4
ssg63
Nsg56
(lp3532
g49
(g65
g51
NtRp3533
(dp3534
g54
(dp3535
sg63
g3529
sg56
(lp3536
g49
(g70
g51
NtRp3537
(dp3538
g54
(dp3539
sg63
g3533
sg56
(lp3540
g49
(g50
g51
NtRp3541
(dp3542
g54
(dp3543
g62
I4
ssg63
g3537
sg56
(lp3544
S'/hellow/static/js/jquery.js'
p3545
asbasbasbag49
(g65
g51
NtRp3546
(dp3547
g54
(dp3548
sg63
g3529
sg56
(lp3549
g49
(g70
g51
NtRp3550
(dp3551
g54
(dp3552
sg63
g3546
sg56
(lp3553
g49
(g50
g51
NtRp3554
(dp3555
g54
(dp3556
g62
I4
ssg63
g3550
sg56
(lp3557
S'/hellow/static/css/calendar.css'
p3558
asbasbasbag49
(g65
g51
NtRp3559
(dp3560
g54
(dp3561
sg63
g3529
sg56
(lp3562
g49
(g70
g51
NtRp3563
(dp3564
g54
(dp3565
sg63
g3559
sg56
(lp3566
g49
(g50
g51
NtRp3567
(dp3568
g54
(dp3569
g62
I4
ssg63
g3563
sg56
(lp3570
S'/hellow/static/js/calendar.js'
p3571
asbasbasbag49
(g65
g51
NtRp3572
(dp3573
g54
(dp3574
sg63
g3529
sg56
(lp3575
g49
(g70
g51
NtRp3576
(dp3577
g54
(dp3578
sg63
g3572
sg56
(lp3579
g49
(g50
g51
NtRp3580
(dp3581
g54
(dp3582
g62
I4
ssg63
g3576
sg56
(lp3583
S'/hellow/static/js/web2py.js'
p3584
asbasbasbag49
(g65
g51
NtRp3585
(dp3586
g54
(dp3587
sg63
g3529
sg56
(lp3588
g49
(g70
g51
NtRp3589
(dp3590
g54
(dp3591
sg63
g3585
sg56
(lp3592
g49
(g50
g51
NtRp3593
(dp3594
g54
(dp3595
g62
I4
ssg63
g3589
sg56
(lp3596
S'/hellow/static/css/web2py.css'
p3597
asbasbasbag49
(g65
g51
NtRp3598
(dp3599
g54
(dp3600
sg63
g3529
sg56
(lp3601
g49
(g70
g51
NtRp3602
(dp3603
g54
(dp3604
sg63
g3598
sg56
(lp3605
g49
(g50
g51
NtRp3606
(dp3607
g54
(dp3608
g62
I4
ssg63
g3602
sg56
(lp3609
S'/hellow/static/css/bootstrap.min.css'
p3610
asbasbasbag49
(g65
g51
NtRp3611
(dp3612
g54
(dp3613
sg63
g3529
sg56
(lp3614
g49
(g70
g51
NtRp3615
(dp3616
g54
(dp3617
sg63
g3611
sg56
(lp3618
g49
(g50
g51
NtRp3619
(dp3620
g54
(dp3621
g62
I4
ssg63
g3615
sg56
(lp3622
S'/hellow/static/css/bootstrap-responsive.min.css'
p3623
asbasbasbag49
(g65
g51
NtRp3624
(dp3625
g54
(dp3626
sg63
g3529
sg56
(lp3627
g49
(g70
g51
NtRp3628
(dp3629
g54
(dp3630
sg63
g3624
sg56
(lp3631
g49
(g50
g51
NtRp3632
(dp3633
g54
(dp3634
g62
I4
ssg63
g3628
sg56
(lp3635
S'/hellow/static/css/web2py_bootstrap.css'
p3636
asbasbasbasbasbasbasbag49
(g65
g51
NtRp3637
(dp3638
g54
(dp3639
sg63
g3243
sg56
(lp3640
g49
(g70
g51
NtRp3641
(dp3642
g54
(dp3643
g74
g75
ssg63
g3637
sg56
(lp3644
S'flash'
p3645
asbag49
(g70
g51
NtRp3646
(dp3647
g54
(dp3648
g81
g82
ssg63
g3637
sg56
(lp3649
S':'
asbag49
(g70
g51
NtRp3650
(dp3651
g54
(dp3652
sg63
g3637
sg56
(lp3653
g49
(g50
g51
NtRp3654
(dp3655
g54
(dp3656
g62
I5
ssg63
g3650
sg56
(lp3657
S''
asbasbasbag49
(g65
g51
NtRp3658
(dp3659
g54
(dp3660
sg63
g3243
sg56
(lp3661
g49
(g70
g51
NtRp3662
(dp3663
g54
(dp3664
g74
g75
ssg63
g3658
sg56
(lp3665
S'generic_patterns'
p3666
asbag49
(g70
g51
NtRp3667
(dp3668
g54
(dp3669
g81
g82
ssg63
g3658
sg56
(lp3670
S':'
asbag49
(g70
g51
NtRp3671
(dp3672
g54
(dp3673
sg63
g3658
sg56
(lp3674
g49
(g50
g51
NtRp3675
(dp3676
g54
(dp3677
g62
I5
ssg63
g3671
sg56
(lp3678
g49
(g58
g51
NtRp3679
(dp3680
g54
(dp3681
g62
I4
ssg63
Nsg56
(lp3682
g49
(g65
g51
NtRp3683
(dp3684
g54
(dp3685
sg63
g3679
sg56
(lp3686
g49
(g70
g51
NtRp3687
(dp3688
g54
(dp3689
sg63
g3683
sg56
(lp3690
g49
(g50
g51
NtRp3691
(dp3692
g54
(dp3693
g62
I4
ssg63
g3687
sg56
(lp3694
S'*'
asbasbasbasbasbasbasbag49
(g65
g51
NtRp3695
(dp3696
g54
(dp3697
sg63
g3243
sg56
(lp3698
g49
(g70
g51
NtRp3699
(dp3700
g54
(dp3701
g74
g75
ssg63
g3695
sg56
(lp3702
S'google_analytics_id'
p3703
asbag49
(g70
g51
NtRp3704
(dp3705
g54
(dp3706
g81
g82
ssg63
g3695
sg56
(lp3707
S':'
asbag49
(g70
g51
NtRp3708
(dp3709
g54
(dp3710
sg63
g3695
sg56
(lp3711
g49
(g50
g51
NtRp3712
(dp3713
g54
(dp3714
g62
I5
ssg63
g3708
sg56
(lp3715
S'None'
p3716
asbasbasbag49
(g65
g51
NtRp3717
(dp3718
g54
(dp3719
sg63
g3243
sg56
(lp3720
g49
(g70
g51
NtRp3721
(dp3722
g54
(dp3723
g74
g75
ssg63
g3717
sg56
(lp3724
S'headers'
p3725
asbag49
(g70
g51
NtRp3726
(dp3727
g54
(dp3728
g81
g82
ssg63
g3717
sg56
(lp3729
S':'
asbag49
(g70
g51
NtRp3730
(dp3731
g54
(dp3732
sg63
g3717
sg56
(lp3733
g49
(g50
g51
NtRp3734
(dp3735
g54
(dp3736
g62
I5
ssg63
g3730
sg56
(lp3737
g49
(g58
g51
NtRp3738
(dp3739
g54
(dp3740
g62
I4
ssg63
Nsg56
(lp3741
g49
(g65
g51
NtRp3742
(dp3743
g54
(dp3744
sg63
g3738
sg56
(lp3745
g49
(g70
g51
NtRp3746
(dp3747
g54
(dp3748
g74
g75
ssg63
g3742
sg56
(lp3749
S'X-Powered-By'
p3750
asbag49
(g70
g51
NtRp3751
(dp3752
g54
(dp3753
g81
g82
ssg63
g3742
sg56
(lp3754
S':'
asbag49
(g70
g51
NtRp3755
(dp3756
g54
(dp3757
sg63
g3742
sg56
(lp3758
g49
(g50
g51
NtRp3759
(dp3760
g54
(dp3761
g62
I4
ssg63
g3755
sg56
(lp3762
S'web2py'
p3763
asbasbasbasbasbasbasbag49
(g65
g51
NtRp3764
(dp3765
g54
(dp3766
sg63
g3243
sg56
(lp3767
g49
(g70
g51
NtRp3768
(dp3769
g54
(dp3770
g74
g75
ssg63
g3764
sg56
(lp3771
S'logo'
p3772
asbag49
(g70
g51
NtRp3773
(dp3774
g54
(dp3775
g81
g82
ssg63
g3764
sg56
(lp3776
S':'
asbag49
(g70
g51
NtRp3777
(dp3778
g54
(dp3779
sg63
g3764
sg56
(lp3780
g49
(g50
g51
NtRp3781
(dp3782
g54
(dp3783
g62
I5
ssg63
g3777
sg56
(lp3784
g49
(cgluon.html
A
p3785
g51
NtRp3786
(dp3787
g54
(dp3788
S'_class'
p3789
S'brand'
p3790
sS'_href'
p3791
S'http://www.web2py.com/'
p3792
ssg63
Nsg56
(lp3793
g49
(cgluon.html
B
p3794
g51
NtRp3795
(dp3796
g54
(dp3797
sg63
g3786
sg56
(lp3798
S'web'
p3799
ag49
(cgluon.html
SPAN
p3800
g51
NtRp3801
(dp3802
g54
(dp3803
sg63
g3795
sg56
(lp3804
I2
asbaS'py'
p3805
asbacgluon.html
XML_unpickle
p3806
(S's\r\x00\x00\x00&trade;&nbsp;'
tRp3807
asbasbasbasbag49
(g65
g51
NtRp3808
(dp3809
g54
(dp3810
sg63
g3243
sg56
(lp3811
g49
(g70
g51
NtRp3812
(dp3813
g54
(dp3814
g74
g75
ssg63
g3808
sg56
(lp3815
S'menu'
p3816
asbag49
(g70
g51
NtRp3817
(dp3818
g54
(dp3819
g81
g82
ssg63
g3808
sg56
(lp3820
S':'
asbag49
(g70
g51
NtRp3821
(dp3822
g54
(dp3823
sg63
g3808
sg56
(lp3824
g49
(g50
g51
NtRp3825
(dp3826
g54
(dp3827
g62
I5
ssg63
g3821
sg56
(lp3828
g49
(g58
g51
NtRp3829
(dp3830
g54
(dp3831
g62
I4
ssg63
Nsg56
(lp3832
g49
(g65
g51
NtRp3833
(dp3834
g54
(dp3835
sg63
g3829
sg56
(lp3836
g49
(g70
g51
NtRp3837
(dp3838
g54
(dp3839
sg63
g3833
sg56
(lp3840
g49
(g50
g51
NtRp3841
(dp3842
g54
(dp3843
g62
I4
ssg63
g3837
sg56
(lp3844
g49
(g58
g51
NtRp3845
(dp3846
g54
(dp3847
g62
I3
ssg63
Nsg56
(lp3848
g49
(g65
g51
NtRp3849
(dp3850
g54
(dp3851
sg63
g3845
sg56
(lp3852
g49
(g70
g51
NtRp3853
(dp3854
g54
(dp3855
sg63
g3849
sg56
(lp3856
g49
(g50
g51
NtRp3857
(dp3858
g54
(dp3859
g62
I3
ssg63
g3853
sg56
(lp3860
cgluon.languages
lazyT_unpickle
p3861
(S't\x04\x00\x00\x00Home'
tRp3862
asbasbasbag49
(g65
g51
NtRp3863
(dp3864
g54
(dp3865
sg63
g3845
sg56
(lp3866
g49
(g70
g51
NtRp3867
(dp3868
g54
(dp3869
sg63
g3863
sg56
(lp3870
g49
(g50
g51
NtRp3871
(dp3872
g54
(dp3873
g62
I3
ssg63
g3867
sg56
(lp3874
g92
asbasbasbag49
(g65
g51
NtRp3875
(dp3876
g54
(dp3877
sg63
g3845
sg56
(lp3878
g49
(g70
g51
NtRp3879
(dp3880
g54
(dp3881
sg63
g3875
sg56
(lp3882
g49
(g50
g51
NtRp3883
(dp3884
g54
(dp3885
g62
I3
ssg63
g3879
sg56
(lp3886
S'/hellow/default/index'
p3887
asbasbasbag49
(g65
g51
NtRp3888
(dp3889
g54
(dp3890
sg63
g3845
sg56
(lp3891
g49
(g70
g51
NtRp3892
(dp3893
g54
(dp3894
sg63
g3888
sg56
(lp3895
g49
(g50
g51
NtRp3896
(dp3897
g54
(dp3898
g62
I3
ssg63
g3892
sg56
(lp3899
g49
(g58
g51
NtRp3900
(dp3901
g54
(dp3902
g62
I2
ssg63
Nsg56
(lp3903
sbasbasbasbasbasbasbasbag49
(g65
g51
NtRp3904
(dp3905
g54
(dp3906
sg63
g3829
sg56
(lp3907
g49
(g70
g51
NtRp3908
(dp3909
g54
(dp3910
sg63
g3904
sg56
(lp3911
g49
(g50
g51
NtRp3912
(dp3913
g54
(dp3914
g62
I4
ssg63
g3908
sg56
(lp3915
g49
(g58
g51
NtRp3916
(dp3917
g54
(dp3918
g62
I3
ssg63
Nsg56
(lp3919
g49
(g65
g51
NtRp3920
(dp3921
g54
(dp3922
sg63
g3916
sg56
(lp3923
g49
(g70
g51
NtRp3924
(dp3925
g54
(dp3926
sg63
g3920
sg56
(lp3927
g49
(g50
g51
NtRp3928
(dp3929
g54
(dp3930
g62
I3
ssg63
g3924
sg56
(lp3931
g49
(g3800
g51
NtRp3932
(dp3933
g54
(dp3934
g3789
S'highlighted'
p3935
ssg63
g49
(g3785
g51
NtRp3936
(dp3937
g54
(dp3938
g3791
S'http://web2py.com'
p3939
ssg63
g49
(cgluon.html
LI
p3940
g51
NtRp3941
(dp3942
g54
(dp3943
g3789
S'dropdown'
p3944
ssg63
g49
(cgluon.html
UL
p3945
g51
NtRp3946
(dp3947
g54
(dp3948
S'mobile'
p3949
I00
sS'ul_class'
p3950
S'dropdown-menu'
p3951
sS'li_last'
p3952
S'web2py-menu-last'
p3953
sS'li_class'
p3954
g3944
sS'li_first'
p3955
S'web2py-menu-first'
p3956
sg3789
S'nav'
p3957
sS'li_active'
p3958
S'web2py-menu-active'
p3959
ssg63
Nsg56
(lp3960
g49
(g3940
g51
NtRp3961
(dp3962
g54
(dp3963
g3789
g3956
ssg63
g3946
sg56
(lp3964
g49
(g3785
g51
NtRp3965
(dp3966
g54
(dp3967
g3791
g3887
ssg63
g3961
sg56
(lp3968
g3862
asbasbag3941
asbsg56
(lp3969
g3936
ag49
(g3945
g51
NtRp3970
(dp3971
g54
(dp3972
g3789
g3951
ssg63
g3941
sg56
(lp3973
g49
(g3940
g51
NtRp3974
(dp3975
g54
(dp3976
sg63
g3970
sg56
(lp3977
g49
(g3785
g51
NtRp3978
(dp3979
g54
(dp3980
g3791
S'/admin/default/site'
p3981
ssg63
g3974
sg56
(lp3982
g3861
(S's\x08\x00\x00\x00My Sites'
tRp3983
asbasbag49
(g3940
g51
NtRp3984
(dp3985
g54
(dp3986
g3789
g3944
ssg63
g3970
sg56
(lp3987
g49
(g3785
g51
NtRp3988
(dp3989
g54
(dp3990
g3791
S'/admin/default/design/hellow'
p3991
ssg63
g3984
sg56
(lp3992
g3861
(S's\x08\x00\x00\x00This App'
tRp3993
asbag49
(g3945
g51
NtRp3994
(dp3995
g54
(dp3996
g3789
g3951
ssg63
g3984
sg56
(lp3997
g49
(g3940
g51
NtRp3998
(dp3999
g54
(dp4000
sg63
g3994
sg56
(lp4001
g49
(g3785
g51
NtRp4002
(dp4003
g54
(dp4004
g3791
S'/admin/default/edit/hellow/controllers/game.py'
p4005
ssg63
g3998
sg56
(lp4006
g3861
(S't\n\x00\x00\x00Controller'
tRp4007
asbasbag49
(g3940
g51
NtRp4008
(dp4009
g54
(dp4010
sg63
g3994
sg56
(lp4011
g49
(g3785
g51
NtRp4012
(dp4013
g54
(dp4014
g3791
S'/admin/default/edit/hellow/views/game/show.html'
p4015
ssg63
g4008
sg56
(lp4016
g3861
(S't\x04\x00\x00\x00View'
tRp4017
asbasbag49
(g3940
g51
NtRp4018
(dp4019
g54
(dp4020
sg63
g3994
sg56
(lp4021
g49
(g3785
g51
NtRp4022
(dp4023
g54
(dp4024
g3791
S'/admin/default/edit/hellow/views/layout.html'
p4025
ssg63
g4018
sg56
(lp4026
g3861
(S't\x06\x00\x00\x00Layout'
tRp4027
asbasbag49
(g3940
g51
NtRp4028
(dp4029
g54
(dp4030
sg63
g3994
sg56
(lp4031
g49
(g3785
g51
NtRp4032
(dp4033
g54
(dp4034
g3791
S'/admin/default/edit/hellow/static/css/web2py.css'
p4035
ssg63
g4028
sg56
(lp4036
g3861
(S't\n\x00\x00\x00Stylesheet'
tRp4037
asbasbag49
(g3940
g51
NtRp4038
(dp4039
g54
(dp4040
sg63
g3994
sg56
(lp4041
g49
(g3785
g51
NtRp4042
(dp4043
g54
(dp4044
g3791
S'/admin/default/edit/hellow/models/db.py'
p4045
ssg63
g4038
sg56
(lp4046
g3861
(S's\x08\x00\x00\x00DB Model'
tRp4047
asbasbag49
(g3940
g51
NtRp4048
(dp4049
g54
(dp4050
sg63
g3994
sg56
(lp4051
g49
(g3785
g51
NtRp4052
(dp4053
g54
(dp4054
g3791
S'/admin/default/edit/hellow/models/menu.py'
p4055
ssg63
g4048
sg56
(lp4056
g3861
(S's\n\x00\x00\x00Menu Model'
tRp4057
asbasbag49
(g3940
g51
NtRp4058
(dp4059
g54
(dp4060
sg63
g3994
sg56
(lp4061
g49
(g3785
g51
NtRp4062
(dp4063
g54
(dp4064
g3791
S'/hellow/appadmin/index'
p4065
ssg63
g4058
sg56
(lp4066
g3861
(S't\x08\x00\x00\x00Database'
tRp4067
asbasbag49
(g3940
g51
NtRp4068
(dp4069
g54
(dp4070
sg63
g3994
sg56
(lp4071
g49
(g3785
g51
NtRp4072
(dp4073
g54
(dp4074
g3791
S'/admin/default/errors/hellow'
p4075
ssg63
g4068
sg56
(lp4076
g3861
(S't\x06\x00\x00\x00Errors'
tRp4077
asbasbag49
(g3940
g51
NtRp4078
(dp4079
g54
(dp4080
sg63
g3994
sg56
(lp4081
g49
(g3785
g51
NtRp4082
(dp4083
g54
(dp4084
g3791
S'/admin/default/about/hellow'
p4085
ssg63
g4078
sg56
(lp4086
g3861
(S't\x05\x00\x00\x00About'
tRp4087
asbasbasbasbag49
(g3940
g51
NtRp4088
(dp4089
g54
(dp4090
g3789
g3944
ssg63
g3970
sg56
(lp4091
g49
(g3785
g51
NtRp4092
(dp4093
g54
(dp4094
g3791
S'http://www.web2py.com'
p4095
ssg63
g4088
sg56
(lp4096
S'web2py.com'
p4097
asbag49
(g3945
g51
NtRp4098
(dp4099
g54
(dp4100
g3789
g3951
ssg63
g4088
sg56
(lp4101
g49
(g3940
g51
NtRp4102
(dp4103
g54
(dp4104
sg63
g4098
sg56
(lp4105
g49
(g3785
g51
NtRp4106
(dp4107
g54
(dp4108
g3791
S'http://www.web2py.com/examples/default/download'
p4109
ssg63
g4102
sg56
(lp4110
g3861
(S't\x08\x00\x00\x00Download'
tRp4111
asbasbag49
(g3940
g51
NtRp4112
(dp4113
g54
(dp4114
sg63
g4098
sg56
(lp4115
g49
(g3785
g51
NtRp4116
(dp4117
g54
(dp4118
g3791
S'http://www.web2py.com/examples/default/support'
p4119
ssg63
g4112
sg56
(lp4120
g3861
(S't\x07\x00\x00\x00Support'
tRp4121
asbasbag49
(g3940
g51
NtRp4122
(dp4123
g54
(dp4124
sg63
g4098
sg56
(lp4125
g49
(g3785
g51
NtRp4126
(dp4127
g54
(dp4128
g3791
S'http://web2py.com/demo_admin'
p4129
ssg63
g4122
sg56
(lp4130
g3861
(S't\x04\x00\x00\x00Demo'
tRp4131
asbasbag49
(g3940
g51
NtRp4132
(dp4133
g54
(dp4134
sg63
g4098
sg56
(lp4135
g49
(g3785
g51
NtRp4136
(dp4137
g54
(dp4138
g3791
S'http://web2py.com/examples/default/examples'
p4139
ssg63
g4132
sg56
(lp4140
g3861
(S's\x0e\x00\x00\x00Quick Examples'
tRp4141
asbasbag49
(g3940
g51
NtRp4142
(dp4143
g54
(dp4144
sg63
g4098
sg56
(lp4145
g49
(g3785
g51
NtRp4146
(dp4147
g54
(dp4148
g3791
S'http://web2py.com/AlterEgo'
p4149
ssg63
g4142
sg56
(lp4150
g3861
(S't\x03\x00\x00\x00FAQ'
tRp4151
asbasbag49
(g3940
g51
NtRp4152
(dp4153
g54
(dp4154
sg63
g4098
sg56
(lp4155
g49
(g3785
g51
NtRp4156
(dp4157
g54
(dp4158
g3791
S'http://www.web2py.com/examples/default/videos/'
p4159
ssg63
g4152
sg56
(lp4160
g3861
(S't\x06\x00\x00\x00Videos'
tRp4161
asbasbag49
(g3940
g51
NtRp4162
(dp4163
g54
(dp4164
sg63
g4098
sg56
(lp4165
g49
(g3785
g51
NtRp4166
(dp4167
g54
(dp4168
g3791
S'http://web2py.com/appliances'
p4169
ssg63
g4162
sg56
(lp4170
g3861
(S's\x11\x00\x00\x00Free Applications'
tRp4171
asbasbag49
(g3940
g51
NtRp4172
(dp4173
g54
(dp4174
sg63
g4098
sg56
(lp4175
g49
(g3785
g51
NtRp4176
(dp4177
g54
(dp4178
g3791
S'http://web2py.com/plugins'
p4179
ssg63
g4172
sg56
(lp4180
g3861
(S't\x07\x00\x00\x00Plugins'
tRp4181
asbasbag49
(g3940
g51
NtRp4182
(dp4183
g54
(dp4184
sg63
g4098
sg56
(lp4185
g49
(g3785
g51
NtRp4186
(dp4187
g54
(dp4188
g3791
S'http://web2py.com/layouts'
p4189
ssg63
g4182
sg56
(lp4190
g3861
(S't\x07\x00\x00\x00Layouts'
tRp4191
asbasbag49
(g3940
g51
NtRp4192
(dp4193
g54
(dp4194
sg63
g4098
sg56
(lp4195
g49
(g3785
g51
NtRp4196
(dp4197
g54
(dp4198
g3791
S'http://web2pyslices.com/'
p4199
ssg63
g4192
sg56
(lp4200
g3861
(S't\x07\x00\x00\x00Recipes'
tRp4201
asbasbag49
(g3940
g51
NtRp4202
(dp4203
g54
(dp4204
sg63
g4098
sg56
(lp4205
g49
(g3785
g51
NtRp4206
(dp4207
g54
(dp4208
g3791
S'http://web2py.com/semantic'
p4209
ssg63
g4202
sg56
(lp4210
g3861
(S't\x08\x00\x00\x00Semantic'
tRp4211
asbasbasbasbag49
(g3940
g51
NtRp4212
(dp4213
g54
(dp4214
g3789
g3944
ssg63
g3970
sg56
(lp4215
g49
(g3785
g51
NtRp4216
(dp4217
g54
(dp4218
g3791
S'http://www.web2py.com/book'
p4219
ssg63
g4212
sg56
(lp4220
g3861
(S't\r\x00\x00\x00Documentation'
tRp4221
asbag49
(g3945
g51
NtRp4222
(dp4223
g54
(dp4224
g3789
g3951
ssg63
g4212
sg56
(lp4225
g49
(g3940
g51
NtRp4226
(dp4227
g54
(dp4228
sg63
g4222
sg56
(lp4229
g49
(g3785
g51
NtRp4230
(dp4231
g54
(dp4232
g3791
S'http://www.web2py.com/book/default/chapter/00'
p4233
ssg63
g4226
sg56
(lp4234
g3861
(S't\x07\x00\x00\x00Preface'
tRp4235
asbasbag49
(g3940
g51
NtRp4236
(dp4237
g54
(dp4238
sg63
g4222
sg56
(lp4239
g49
(g3785
g51
NtRp4240
(dp4241
g54
(dp4242
g3791
S'http://www.web2py.com/book/default/chapter/01'
p4243
ssg63
g4236
sg56
(lp4244
g3861
(S't\x0c\x00\x00\x00Introduction'
tRp4245
asbasbag49
(g3940
g51
NtRp4246
(dp4247
g54
(dp4248
sg63
g4222
sg56
(lp4249
g49
(g3785
g51
NtRp4250
(dp4251
g54
(dp4252
g3791
S'http://www.web2py.com/book/default/chapter/02'
p4253
ssg63
g4246
sg56
(lp4254
g3861
(S't\x06\x00\x00\x00Python'
tRp4255
asbasbag49
(g3940
g51
NtRp4256
(dp4257
g54
(dp4258
sg63
g4222
sg56
(lp4259
g49
(g3785
g51
NtRp4260
(dp4261
g54
(dp4262
g3791
S'http://www.web2py.com/book/default/chapter/03'
p4263
ssg63
g4256
sg56
(lp4264
g3861
(S't\x08\x00\x00\x00Overview'
tRp4265
asbasbag49
(g3940
g51
NtRp4266
(dp4267
g54
(dp4268
sg63
g4222
sg56
(lp4269
g49
(g3785
g51
NtRp4270
(dp4271
g54
(dp4272
g3791
S'http://www.web2py.com/book/default/chapter/04'
p4273
ssg63
g4266
sg56
(lp4274
g3861
(S's\x08\x00\x00\x00The Core'
tRp4275
asbasbag49
(g3940
g51
NtRp4276
(dp4277
g54
(dp4278
sg63
g4222
sg56
(lp4279
g49
(g3785
g51
NtRp4280
(dp4281
g54
(dp4282
g3791
S'http://www.web2py.com/book/default/chapter/05'
p4283
ssg63
g4276
sg56
(lp4284
g3861
(S's\t\x00\x00\x00The Views'
tRp4285
asbasbag49
(g3940
g51
NtRp4286
(dp4287
g54
(dp4288
sg63
g4222
sg56
(lp4289
g49
(g3785
g51
NtRp4290
(dp4291
g54
(dp4292
g3791
S'http://www.web2py.com/book/default/chapter/06'
p4293
ssg63
g4286
sg56
(lp4294
g3861
(S't\x08\x00\x00\x00Database'
tRp4295
asbasbag49
(g3940
g51
NtRp4296
(dp4297
g54
(dp4298
sg63
g4222
sg56
(lp4299
g49
(g3785
g51
NtRp4300
(dp4301
g54
(dp4302
g3791
S'http://www.web2py.com/book/default/chapter/07'
p4303
ssg63
g4296
sg56
(lp4304
g3861
(S's\x14\x00\x00\x00Forms and Validators'
tRp4305
asbasbag49
(g3940
g51
NtRp4306
(dp4307
g54
(dp4308
sg63
g4222
sg56
(lp4309
g49
(g3785
g51
NtRp4310
(dp4311
g54
(dp4312
g3791
S'http://www.web2py.com/book/default/chapter/08'
p4313
ssg63
g4306
sg56
(lp4314
g3861
(S's\r\x00\x00\x00Email and SMS'
tRp4315
asbasbag49
(g3940
g51
NtRp4316
(dp4317
g54
(dp4318
sg63
g4222
sg56
(lp4319
g49
(g3785
g51
NtRp4320
(dp4321
g54
(dp4322
g3791
S'http://www.web2py.com/book/default/chapter/09'
p4323
ssg63
g4316
sg56
(lp4324
g3861
(S's\x0e\x00\x00\x00Access Control'
tRp4325
asbasbag49
(g3940
g51
NtRp4326
(dp4327
g54
(dp4328
sg63
g4222
sg56
(lp4329
g49
(g3785
g51
NtRp4330
(dp4331
g54
(dp4332
g3791
S'http://www.web2py.com/book/default/chapter/10'
p4333
ssg63
g4326
sg56
(lp4334
g3861
(S't\x08\x00\x00\x00Services'
tRp4335
asbasbag49
(g3940
g51
NtRp4336
(dp4337
g54
(dp4338
sg63
g4222
sg56
(lp4339
g49
(g3785
g51
NtRp4340
(dp4341
g54
(dp4342
g3791
S'http://www.web2py.com/book/default/chapter/11'
p4343
ssg63
g4336
sg56
(lp4344
g3861
(S's\x0c\x00\x00\x00Ajax Recipes'
tRp4345
asbasbag49
(g3940
g51
NtRp4346
(dp4347
g54
(dp4348
sg63
g4222
sg56
(lp4349
g49
(g3785
g51
NtRp4350
(dp4351
g54
(dp4352
g3791
S'http://www.web2py.com/book/default/chapter/12'
p4353
ssg63
g4346
sg56
(lp4354
g3861
(S's\x16\x00\x00\x00Components and Plugins'
tRp4355
asbasbag49
(g3940
g51
NtRp4356
(dp4357
g54
(dp4358
sg63
g4222
sg56
(lp4359
g49
(g3785
g51
NtRp4360
(dp4361
g54
(dp4362
g3791
S'http://www.web2py.com/book/default/chapter/13'
p4363
ssg63
g4356
sg56
(lp4364
g3861
(S's\x12\x00\x00\x00Deployment Recipes'
tRp4365
asbasbag49
(g3940
g51
NtRp4366
(dp4367
g54
(dp4368
sg63
g4222
sg56
(lp4369
g49
(g3785
g51
NtRp4370
(dp4371
g54
(dp4372
g3791
S'http://www.web2py.com/book/default/chapter/14'
p4373
ssg63
g4366
sg56
(lp4374
g3861
(S's\r\x00\x00\x00Other Recipes'
tRp4375
asbasbag49
(g3940
g51
NtRp4376
(dp4377
g54
(dp4378
sg63
g4222
sg56
(lp4379
g49
(g3785
g51
NtRp4380
(dp4381
g54
(dp4382
g3791
S'http://stores.lulu.com/web2py'
p4383
ssg63
g4376
sg56
(lp4384
g3861
(S's\r\x00\x00\x00Buy this book'
tRp4385
asbasbasbasbag49
(g3940
g51
NtRp4386
(dp4387
g54
(dp4388
g3789
g3944
ssg63
g3970
sg56
(lp4389
g49
(g3785
g51
NtRp4390
(dp4391
g54
(dp4392
S'_onclick'
p4393
S'javascript:void(0);return false;'
p4394
sg3791
S'#'
ssg63
g4386
sg56
(lp4395
g3861
(S't\t\x00\x00\x00Community'
tRp4396
asbag49
(g3945
g51
NtRp4397
(dp4398
g54
(dp4399
g3789
g3951
ssg63
g4386
sg56
(lp4400
g49
(g3940
g51
NtRp4401
(dp4402
g54
(dp4403
sg63
g4397
sg56
(lp4404
g49
(g3785
g51
NtRp4405
(dp4406
g54
(dp4407
g3791
S'http://www.web2py.com/examples/default/usergroups'
p4408
ssg63
g4401
sg56
(lp4409
g3861
(S't\x06\x00\x00\x00Groups'
tRp4410
asbasbag49
(g3940
g51
NtRp4411
(dp4412
g54
(dp4413
sg63
g4397
sg56
(lp4414
g49
(g3785
g51
NtRp4415
(dp4416
g54
(dp4417
g3791
S'http://twitter.com/web2py'
p4418
ssg63
g4411
sg56
(lp4419
g3861
(S't\x07\x00\x00\x00Twitter'
tRp4420
asbasbag49
(g3940
g51
NtRp4421
(dp4422
g54
(dp4423
sg63
g4397
sg56
(lp4424
g49
(g3785
g51
NtRp4425
(dp4426
g54
(dp4427
g3791
S'http://webchat.freenode.net/?channels=web2py'
p4428
ssg63
g4421
sg56
(lp4429
g3861
(S's\t\x00\x00\x00Live Chat'
tRp4430
asbasbasbasbag49
(g3940
g51
NtRp4431
(dp4432
g54
(dp4433
g3789
g3944
ssg63
g3970
sg56
(lp4434
g49
(g3785
g51
NtRp4435
(dp4436
g54
(dp4437
g4393
g4394
sg3791
S'#'
ssg63
g4431
sg56
(lp4438
g3861
(S't\x07\x00\x00\x00Plugins'
tRp4439
asbag49
(g3945
g51
NtRp4440
(dp4441
g54
(dp4442
g3789
g3951
ssg63
g4431
sg56
(lp4443
g49
(g3940
g51
NtRp4444
(dp4445
g54
(dp4446
sg63
g4440
sg56
(lp4447
g49
(g3785
g51
NtRp4448
(dp4449
g54
(dp4450
g3791
S'http://web2py.com/examples/default/download'
p4451
ssg63
g4444
sg56
(lp4452
S'plugin_wiki'
p4453
asbasbag49
(g3940
g51
NtRp4454
(dp4455
g54
(dp4456
sg63
g4440
sg56
(lp4457
g49
(g3785
g51
NtRp4458
(dp4459
g54
(dp4460
g3791
g4179
ssg63
g4454
sg56
(lp4461
g3861
(S's\r\x00\x00\x00Other Plugins'
tRp4462
asbasbag49
(g3940
g51
NtRp4463
(dp4464
g54
(dp4465
sg63
g4440
sg56
(lp4466
g49
(g3785
g51
NtRp4467
(dp4468
g54
(dp4469
g3791
g4189
ssg63
g4463
sg56
(lp4470
g3861
(S's\x0e\x00\x00\x00Layout Plugins'
tRp4471
asbasbasbasbasbasbsg56
(lp4472
g3932
asbsg56
(lp4473
g3763
asbasbasbasbag49
(g65
g51
NtRp4474
(dp4475
g54
(dp4476
sg63
g3916
sg56
(lp4477
g49
(g70
g51
NtRp4478
(dp4479
g54
(dp4480
sg63
g4474
sg56
(lp4481
g49
(g50
g51
NtRp4482
(dp4483
g54
(dp4484
g62
I3
ssg63
g4478
sg56
(lp4485
g92
asbasbasbag49
(g65
g51
NtRp4486
(dp4487
g54
(dp4488
sg63
g3916
sg56
(lp4489
g49
(g70
g51
NtRp4490
(dp4491
g54
(dp4492
sg63
g4486
sg56
(lp4493
g49
(g50
g51
NtRp4494
(dp4495
g54
(dp4496
g62
I3
ssg63
g4490
sg56
(lp4497
g3939
asbasbasbag49
(g65
g51
NtRp4498
(dp4499
g54
(dp4500
sg63
g3916
sg56
(lp4501
g49
(g70
g51
NtRp4502
(dp4503
g54
(dp4504
sg63
g4498
sg56
(lp4505
g49
(g50
g51
NtRp4506
(dp4507
g54
(dp4508
g62
I3
ssg63
g4502
sg56
(lp4509
g49
(g58
g51
NtRp4510
(dp4511
g54
(dp4512
g62
I2
ssg63
Nsg56
(lp4513
g49
(g65
g51
NtRp4514
(dp4515
g54
(dp4516
sg63
g4510
sg56
(lp4517
g49
(g70
g51
NtRp4518
(dp4519
g54
(dp4520
sg63
g4514
sg56
(lp4521
g49
(g50
g51
NtRp4522
(dp4523
g54
(dp4524
g62
I2
ssg63
g4518
sg56
(lp4525
g49
(g58
g51
NtRp4526
(dp4527
g54
(dp4528
g62
I1
ssg63
Nsg56
(lp4529
g49
(g65
g51
NtRp4530
(dp4531
g54
(dp4532
sg63
g4526
sg56
(lp4533
g49
(g70
g51
NtRp4534
(dp4535
g54
(dp4536
sg63
g4530
sg56
(lp4537
g49
(g50
g51
NtRp4538
(dp4539
g54
(dp4540
g62
I1
ssg63
g4534
sg56
(lp4541
g3983
asbasbasbag49
(g65
g51
NtRp4542
(dp4543
g54
(dp4544
sg63
g4526
sg56
(lp4545
g49
(g70
g51
NtRp4546
(dp4547
g54
(dp4548
sg63
g4542
sg56
(lp4549
g49
(g50
g51
NtRp4550
(dp4551
g54
(dp4552
g62
I1
ssg63
g4546
sg56
(lp4553
I00
asbasbasbag49
(g65
g51
NtRp4554
(dp4555
g54
(dp4556
sg63
g4526
sg56
(lp4557
g49
(g70
g51
NtRp4558
(dp4559
g54
(dp4560
sg63
g4554
sg56
(lp4561
g49
(g50
g51
NtRp4562
(dp4563
g54
(dp4564
g62
I1
ssg63
g4558
sg56
(lp4565
g3981
asbasbasbasbasbasbasbag49
(g65
g51
NtRp4566
(dp4567
g54
(dp4568
sg63
g4510
sg56
(lp4569
g49
(g70
g51
NtRp4570
(dp4571
g54
(dp4572
sg63
g4566
sg56
(lp4573
g49
(g50
g51
NtRp4574
(dp4575
g54
(dp4576
g62
I2
ssg63
g4570
sg56
(lp4577
g49
(g58
g51
NtRp4578
(dp4579
g54
(dp4580
g62
I1
ssg63
Nsg56
(lp4581
g49
(g65
g51
NtRp4582
(dp4583
g54
(dp4584
sg63
g4578
sg56
(lp4585
g49
(g70
g51
NtRp4586
(dp4587
g54
(dp4588
sg63
g4582
sg56
(lp4589
g49
(g50
g51
NtRp4590
(dp4591
g54
(dp4592
g62
I1
ssg63
g4586
sg56
(lp4593
g3993
asbasbasbag49
(g65
g51
NtRp4594
(dp4595
g54
(dp4596
sg63
g4578
sg56
(lp4597
g49
(g70
g51
NtRp4598
(dp4599
g54
(dp4600
sg63
g4594
sg56
(lp4601
g49
(g50
g51
NtRp4602
(dp4603
g54
(dp4604
g62
I1
ssg63
g4598
sg56
(lp4605
I00
asbasbasbag49
(g65
g51
NtRp4606
(dp4607
g54
(dp4608
sg63
g4578
sg56
(lp4609
g49
(g70
g51
NtRp4610
(dp4611
g54
(dp4612
sg63
g4606
sg56
(lp4613
g49
(g50
g51
NtRp4614
(dp4615
g54
(dp4616
g62
I1
ssg63
g4610
sg56
(lp4617
g3991
asbasbasbag49
(g65
g51
NtRp4618
(dp4619
g54
(dp4620
sg63
g4578
sg56
(lp4621
g49
(g70
g51
NtRp4622
(dp4623
g54
(dp4624
sg63
g4618
sg56
(lp4625
g49
(g50
g51
NtRp4626
(dp4627
g54
(dp4628
g62
I1
ssg63
g4622
sg56
(lp4629
(lp4630
(g4007
I00
g4005
tp4631
a(g4017
I00
g4015
tp4632
a(g4027
I00
g4025
tp4633
a(g4037
I00
g4035
tp4634
a(g4047
I00
g4045
tp4635
a(g4057
I00
g4055
tp4636
a(g4067
I00
g4065
tp4637
a(g4077
I00
g4075
tp4638
a(g4087
I00
g4085
tp4639
aasbasbasbasbasbasbasbag49
(g65
g51
NtRp4640
(dp4641
g54
(dp4642
sg63
g4510
sg56
(lp4643
g49
(g70
g51
NtRp4644
(dp4645
g54
(dp4646
sg63
g4640
sg56
(lp4647
g49
(g50
g51
NtRp4648
(dp4649
g54
(dp4650
g62
I2
ssg63
g4644
sg56
(lp4651
g49
(g58
g51
NtRp4652
(dp4653
g54
(dp4654
g62
I1
ssg63
Nsg56
(lp4655
g49
(g65
g51
NtRp4656
(dp4657
g54
(dp4658
sg63
g4652
sg56
(lp4659
g49
(g70
g51
NtRp4660
(dp4661
g54
(dp4662
sg63
g4656
sg56
(lp4663
g49
(g50
g51
NtRp4664
(dp4665
g54
(dp4666
g62
I1
ssg63
g4660
sg56
(lp4667
g4097
asbasbasbag49
(g65
g51
NtRp4668
(dp4669
g54
(dp4670
sg63
g4652
sg56
(lp4671
g49
(g70
g51
NtRp4672
(dp4673
g54
(dp4674
sg63
g4668
sg56
(lp4675
g49
(g50
g51
NtRp4676
(dp4677
g54
(dp4678
g62
I1
ssg63
g4672
sg56
(lp4679
I00
asbasbasbag49
(g65
g51
NtRp4680
(dp4681
g54
(dp4682
sg63
g4652
sg56
(lp4683
g49
(g70
g51
NtRp4684
(dp4685
g54
(dp4686
sg63
g4680
sg56
(lp4687
g49
(g50
g51
NtRp4688
(dp4689
g54
(dp4690
g62
I1
ssg63
g4684
sg56
(lp4691
g4095
asbasbasbag49
(g65
g51
NtRp4692
(dp4693
g54
(dp4694
sg63
g4652
sg56
(lp4695
g49
(g70
g51
NtRp4696
(dp4697
g54
(dp4698
sg63
g4692
sg56
(lp4699
g49
(g50
g51
NtRp4700
(dp4701
g54
(dp4702
g62
I1
ssg63
g4696
sg56
(lp4703
(lp4704
(g4111
I00
g4109
tp4705
a(g4121
I00
g4119
tp4706
a(g4131
I00
g4129
tp4707
a(g4141
I00
g4139
tp4708
a(g4151
I00
g4149
tp4709
a(g4161
I00
g4159
tp4710
a(g4171
I00
g4169
tp4711
a(g4181
I00
g4179
tp4712
a(g4191
I00
g4189
tp4713
a(g4201
I00
g4199
tp4714
a(g4211
I00
g4209
tp4715
aasbasbasbasbasbasbasbag49
(g65
g51
NtRp4716
(dp4717
g54
(dp4718
sg63
g4510
sg56
(lp4719
g49
(g70
g51
NtRp4720
(dp4721
g54
(dp4722
sg63
g4716
sg56
(lp4723
g49
(g50
g51
NtRp4724
(dp4725
g54
(dp4726
g62
I2
ssg63
g4720
sg56
(lp4727
g49
(g58
g51
NtRp4728
(dp4729
g54
(dp4730
g62
I1
ssg63
Nsg56
(lp4731
g49
(g65
g51
NtRp4732
(dp4733
g54
(dp4734
sg63
g4728
sg56
(lp4735
g49
(g70
g51
NtRp4736
(dp4737
g54
(dp4738
sg63
g4732
sg56
(lp4739
g49
(g50
g51
NtRp4740
(dp4741
g54
(dp4742
g62
I1
ssg63
g4736
sg56
(lp4743
g4221
asbasbasbag49
(g65
g51
NtRp4744
(dp4745
g54
(dp4746
sg63
g4728
sg56
(lp4747
g49
(g70
g51
NtRp4748
(dp4749
g54
(dp4750
sg63
g4744
sg56
(lp4751
g49
(g50
g51
NtRp4752
(dp4753
g54
(dp4754
g62
I1
ssg63
g4748
sg56
(lp4755
I00
asbasbasbag49
(g65
g51
NtRp4756
(dp4757
g54
(dp4758
sg63
g4728
sg56
(lp4759
g49
(g70
g51
NtRp4760
(dp4761
g54
(dp4762
sg63
g4756
sg56
(lp4763
g49
(g50
g51
NtRp4764
(dp4765
g54
(dp4766
g62
I1
ssg63
g4760
sg56
(lp4767
g4219
asbasbasbag49
(g65
g51
NtRp4768
(dp4769
g54
(dp4770
sg63
g4728
sg56
(lp4771
g49
(g70
g51
NtRp4772
(dp4773
g54
(dp4774
sg63
g4768
sg56
(lp4775
g49
(g50
g51
NtRp4776
(dp4777
g54
(dp4778
g62
I1
ssg63
g4772
sg56
(lp4779
(lp4780
(g4235
I00
g4233
tp4781
a(g4245
I00
g4243
tp4782
a(g4255
I00
g4253
tp4783
a(g4265
I00
g4263
tp4784
a(g4275
I00
g4273
tp4785
a(g4285
I00
g4283
tp4786
a(g4295
I00
g4293
tp4787
a(g4305
I00
g4303
tp4788
a(g4315
I00
g4313
tp4789
a(g4325
I00
g4323
tp4790
a(g4335
I00
g4333
tp4791
a(g4345
I00
g4343
tp4792
a(g4355
I00
g4353
tp4793
a(g4365
I00
g4363
tp4794
a(g4375
I00
g4373
tp4795
a(g4385
I00
g4383
tp4796
aasbasbasbasbasbasbasbag49
(g65
g51
NtRp4797
(dp4798
g54
(dp4799
sg63
g4510
sg56
(lp4800
g49
(g70
g51
NtRp4801
(dp4802
g54
(dp4803
sg63
g4797
sg56
(lp4804
g49
(g50
g51
NtRp4805
(dp4806
g54
(dp4807
g62
I2
ssg63
g4801
sg56
(lp4808
g49
(g58
g51
NtRp4809
(dp4810
g54
(dp4811
g62
I1
ssg63
Nsg56
(lp4812
g49
(g65
g51
NtRp4813
(dp4814
g54
(dp4815
sg63
g4809
sg56
(lp4816
g49
(g70
g51
NtRp4817
(dp4818
g54
(dp4819
sg63
g4813
sg56
(lp4820
g49
(g50
g51
NtRp4821
(dp4822
g54
(dp4823
g62
I1
ssg63
g4817
sg56
(lp4824
g4396
asbasbasbag49
(g65
g51
NtRp4825
(dp4826
g54
(dp4827
sg63
g4809
sg56
(lp4828
g49
(g70
g51
NtRp4829
(dp4830
g54
(dp4831
sg63
g4825
sg56
(lp4832
g49
(g50
g51
NtRp4833
(dp4834
g54
(dp4835
g62
I1
ssg63
g4829
sg56
(lp4836
I00
asbasbasbag49
(g65
g51
NtRp4837
(dp4838
g54
(dp4839
sg63
g4809
sg56
(lp4840
g49
(g70
g51
NtRp4841
(dp4842
g54
(dp4843
sg63
g4837
sg56
(lp4844
g49
(g50
g51
NtRp4845
(dp4846
g54
(dp4847
g62
I1
ssg63
g4841
sg56
(lp4848
Nasbasbasbag49
(g65
g51
NtRp4849
(dp4850
g54
(dp4851
sg63
g4809
sg56
(lp4852
g49
(g70
g51
NtRp4853
(dp4854
g54
(dp4855
sg63
g4849
sg56
(lp4856
g49
(g50
g51
NtRp4857
(dp4858
g54
(dp4859
g62
I1
ssg63
g4853
sg56
(lp4860
(lp4861
(g4410
I00
g4408
tp4862
a(g4420
I00
g4418
tp4863
a(g4430
I00
g4428
tp4864
aasbasbasbasbasbasbasbag49
(g65
g51
NtRp4865
(dp4866
g54
(dp4867
sg63
g4510
sg56
(lp4868
g49
(g70
g51
NtRp4869
(dp4870
g54
(dp4871
sg63
g4865
sg56
(lp4872
g49
(g50
g51
NtRp4873
(dp4874
g54
(dp4875
g62
I2
ssg63
g4869
sg56
(lp4876
g49
(g58
g51
NtRp4877
(dp4878
g54
(dp4879
g62
I1
ssg63
Nsg56
(lp4880
g49
(g65
g51
NtRp4881
(dp4882
g54
(dp4883
sg63
g4877
sg56
(lp4884
g49
(g70
g51
NtRp4885
(dp4886
g54
(dp4887
sg63
g4881
sg56
(lp4888
g49
(g50
g51
NtRp4889
(dp4890
g54
(dp4891
g62
I1
ssg63
g4885
sg56
(lp4892
g4439
asbasbasbag49
(g65
g51
NtRp4893
(dp4894
g54
(dp4895
sg63
g4877
sg56
(lp4896
g49
(g70
g51
NtRp4897
(dp4898
g54
(dp4899
sg63
g4893
sg56
(lp4900
g49
(g50
g51
NtRp4901
(dp4902
g54
(dp4903
g62
I1
ssg63
g4897
sg56
(lp4904
I00
asbasbasbag49
(g65
g51
NtRp4905
(dp4906
g54
(dp4907
sg63
g4877
sg56
(lp4908
g49
(g70
g51
NtRp4909
(dp4910
g54
(dp4911
sg63
g4905
sg56
(lp4912
g49
(g50
g51
NtRp4913
(dp4914
g54
(dp4915
g62
I1
ssg63
g4909
sg56
(lp4916
Nasbasbasbag49
(g65
g51
NtRp4917
(dp4918
g54
(dp4919
sg63
g4877
sg56
(lp4920
g49
(g70
g51
NtRp4921
(dp4922
g54
(dp4923
sg63
g4917
sg56
(lp4924
g49
(g50
g51
NtRp4925
(dp4926
g54
(dp4927
g62
I1
ssg63
g4921
sg56
(lp4928
(lp4929
(g4453
I00
g4451
tp4930
a(g4462
I00
g4179
tp4931
a(g4471
I00
g4189
tp4932
aasbasbasbasbasbasbasbasbasbasbasbasbasbasbasbasbasbasbasbag49
(g65
g51
NtRp4933
(dp4934
g54
(dp4935
sg63
g3243
sg56
(lp4936
g49
(g70
g51
NtRp4937
(dp4938
g54
(dp4939
g74
g75
ssg63
g4933
sg56
(lp4940
S'meta'
p4941
asbag49
(g70
g51
NtRp4942
(dp4943
g54
(dp4944
g81
g82
ssg63
g4933
sg56
(lp4945
S':'
asbag49
(g70
g51
NtRp4946
(dp4947
g54
(dp4948
sg63
g4933
sg56
(lp4949
g49
(g50
g51
NtRp4950
(dp4951
g54
(dp4952
g62
I5
ssg63
g4946
sg56
(lp4953
g49
(g58
g51
NtRp4954
(dp4955
g54
(dp4956
g62
I4
ssg63
Nsg56
(lp4957
g49
(g65
g51
NtRp4958
(dp4959
g54
(dp4960
sg63
g4954
sg56
(lp4961
g49
(g70
g51
NtRp4962
(dp4963
g54
(dp4964
g74
g75
ssg63
g4958
sg56
(lp4965
S'author'
p4966
asbag49
(g70
g51
NtRp4967
(dp4968
g54
(dp4969
g81
g82
ssg63
g4958
sg56
(lp4970
S':'
asbag49
(g70
g51
NtRp4971
(dp4972
g54
(dp4973
sg63
g4958
sg56
(lp4974
g49
(g50
g51
NtRp4975
(dp4976
g54
(dp4977
g62
I4
ssg63
g4971
sg56
(lp4978
S'Your Name <you@example.com>'
p4979
asbasbasbag49
(g65
g51
NtRp4980
(dp4981
g54
(dp4982
sg63
g4954
sg56
(lp4983
g49
(g70
g51
NtRp4984
(dp4985
g54
(dp4986
g74
g75
ssg63
g4980
sg56
(lp4987
S'description'
p4988
asbag49
(g70
g51
NtRp4989
(dp4990
g54
(dp4991
g81
g82
ssg63
g4980
sg56
(lp4992
S':'
asbag49
(g70
g51
NtRp4993
(dp4994
g54
(dp4995
sg63
g4980
sg56
(lp4996
g49
(g50
g51
NtRp4997
(dp4998
g54
(dp4999
g62
I4
ssg63
g4993
sg56
(lp5000
S'a cool new app'
p5001
asbasbasbag49
(g65
g51
NtRp5002
(dp5003
g54
(dp5004
sg63
g4954
sg56
(lp5005
g49
(g70
g51
NtRp5006
(dp5007
g54
(dp5008
g74
g75
ssg63
g5002
sg56
(lp5009
S'generator'
p5010
asbag49
(g70
g51
NtRp5011
(dp5012
g54
(dp5013
g81
g82
ssg63
g5002
sg56
(lp5014
S':'
asbag49
(g70
g51
NtRp5015
(dp5016
g54
(dp5017
sg63
g5002
sg56
(lp5018
g49
(g50
g51
NtRp5019
(dp5020
g54
(dp5021
g62
I4
ssg63
g5015
sg56
(lp5022
S'Web2py Web Framework'
p5023
asbasbasbag49
(g65
g51
NtRp5024
(dp5025
g54
(dp5026
sg63
g4954
sg56
(lp5027
g49
(g70
g51
NtRp5028
(dp5029
g54
(dp5030
g74
g75
ssg63
g5024
sg56
(lp5031
S'keywords'
p5032
asbag49
(g70
g51
NtRp5033
(dp5034
g54
(dp5035
g81
g82
ssg63
g5024
sg56
(lp5036
S':'
asbag49
(g70
g51
NtRp5037
(dp5038
g54
(dp5039
sg63
g5024
sg56
(lp5040
g49
(g50
g51
NtRp5041
(dp5042
g54
(dp5043
g62
I4
ssg63
g5037
sg56
(lp5044
S'web2py, python, framework'
p5045
asbasbasbasbasbasbasbag49
(g65
g51
NtRp5046
(dp5047
g54
(dp5048
sg63
g3243
sg56
(lp5049
g49
(g70
g51
NtRp5050
(dp5051
g54
(dp5052
g74
g75
ssg63
g5046
sg56
(lp5053
S'models_to_run'
p5054
asbag49
(g70
g51
NtRp5055
(dp5056
g54
(dp5057
g81
g82
ssg63
g5046
sg56
(lp5058
S':'
asbag49
(g70
g51
NtRp5059
(dp5060
g54
(dp5061
sg63
g5046
sg56
(lp5062
g49
(g50
g51
NtRp5063
(dp5064
g54
(dp5065
g62
I5
ssg63
g5059
sg56
(lp5066
g49
(g58
g51
NtRp5067
(dp5068
g54
(dp5069
g62
I4
ssg63
Nsg56
(lp5070
g49
(g65
g51
NtRp5071
(dp5072
g54
(dp5073
sg63
g5067
sg56
(lp5074
g49
(g70
g51
NtRp5075
(dp5076
g54
(dp5077
sg63
g5071
sg56
(lp5078
g49
(g50
g51
NtRp5079
(dp5080
g54
(dp5081
g62
I4
ssg63
g5075
sg56
(lp5082
S'^\\w+\\.py$'
p5083
asbasbasbag49
(g65
g51
NtRp5084
(dp5085
g54
(dp5086
sg63
g5067
sg56
(lp5087
g49
(g70
g51
NtRp5088
(dp5089
g54
(dp5090
sg63
g5084
sg56
(lp5091
g49
(g50
g51
NtRp5092
(dp5093
g54
(dp5094
g62
I4
ssg63
g5088
sg56
(lp5095
S'^game/\\w+\\.py$'
p5096
asbasbasbag49
(g65
g51
NtRp5097
(dp5098
g54
(dp5099
sg63
g5067
sg56
(lp5100
g49
(g70
g51
NtRp5101
(dp5102
g54
(dp5103
sg63
g5097
sg56
(lp5104
g49
(g50
g51
NtRp5105
(dp5106
g54
(dp5107
g62
I4
ssg63
g5101
sg56
(lp5108
S'^game/show/\\w+\\.py$'
p5109
asbasbasbasbasbasbasbag49
(g65
g51
NtRp5110
(dp5111
g54
(dp5112
sg63
g3243
sg56
(lp5113
g49
(g70
g51
NtRp5114
(dp5115
g54
(dp5116
g74
g75
ssg63
g5110
sg56
(lp5117
S'postprocessing'
p5118
asbag49
(g70
g51
NtRp5119
(dp5120
g54
(dp5121
g81
g82
ssg63
g5110
sg56
(lp5122
S':'
asbag49
(g70
g51
NtRp5123
(dp5124
g54
(dp5125
sg63
g5110
sg56
(lp5126
g49
(g50
g51
NtRp5127
(dp5128
g54
(dp5129
g62
I5
ssg63
g5123
sg56
(lp5130
g49
(g58
g51
NtRp5131
(dp5132
g54
(dp5133
g62
I4
ssg63
Nsg56
(lp5134
sbasbasbasbag49
(g65
g51
NtRp5135
(dp5136
g54
(dp5137
sg63
g3243
sg56
(lp5138
g49
(g70
g51
NtRp5139
(dp5140
g54
(dp5141
g74
g75
ssg63
g5135
sg56
(lp5142
S'session_cookie_expires'
p5143
asbag49
(g70
g51
NtRp5144
(dp5145
g54
(dp5146
g81
g82
ssg63
g5135
sg56
(lp5147
S':'
asbag49
(g70
g51
NtRp5148
(dp5149
g54
(dp5150
sg63
g5135
sg56
(lp5151
g49
(g50
g51
NtRp5152
(dp5153
g54
(dp5154
g62
I5
ssg63
g5148
sg56
(lp5155
S'None'
p5156
asbasbasbag49
(g65
g51
NtRp5157
(dp5158
g54
(dp5159
sg63
g3243
sg56
(lp5160
g49
(g70
g51
NtRp5161
(dp5162
g54
(dp5163
g74
g75
ssg63
g5157
sg56
(lp5164
S'session_data_name'
p5165
asbag49
(g70
g51
NtRp5166
(dp5167
g54
(dp5168
g81
g82
ssg63
g5157
sg56
(lp5169
S':'
asbag49
(g70
g51
NtRp5170
(dp5171
g54
(dp5172
sg63
g5157
sg56
(lp5173
g49
(g50
g51
NtRp5174
(dp5175
g54
(dp5176
g62
I5
ssg63
g5170
sg56
(lp5177
S'session_data_hellow'
p5178
asbasbasbag49
(g65
g51
NtRp5179
(dp5180
g54
(dp5181
sg63
g3243
sg56
(lp5182
g49
(g70
g51
NtRp5183
(dp5184
g54
(dp5185
g74
g75
ssg63
g5179
sg56
(lp5186
S'session_file'
p5187
asbag49
(g70
g51
NtRp5188
(dp5189
g54
(dp5190
g81
g82
ssg63
g5179
sg56
(lp5191
S':'
asbag49
(g70
g51
NtRp5192
(dp5193
g54
(dp5194
sg63
g5179
sg56
(lp5195
g49
(g50
g51
NtRp5196
(dp5197
g54
(dp5198
g62
I5
ssg63
g5192
sg56
(lp5199
S'None'
p5200
asbasbasbag49
(g65
g51
NtRp5201
(dp5202
g54
(dp5203
sg63
g3243
sg56
(lp5204
g49
(g70
g51
NtRp5205
(dp5206
g54
(dp5207
g74
g75
ssg63
g5201
sg56
(lp5208
S'session_filename'
p5209
asbag49
(g70
g51
NtRp5210
(dp5211
g54
(dp5212
g81
g82
ssg63
g5201
sg56
(lp5213
S':'
asbag49
(g70
g51
NtRp5214
(dp5215
g54
(dp5216
sg63
g5201
sg56
(lp5217
g49
(g50
g51
NtRp5218
(dp5219
g54
(dp5220
g62
I5
ssg63
g5214
sg56
(lp5221
S'/Users/zamechek/Downloads/web2py/web2py.app/Contents/Resources/applications/hellow/sessions/127.0.0.1-bbea59f2-333e-4593-a45c-2c44a5133d77'
p5222
asbasbasbag49
(g65
g51
NtRp5223
(dp5224
g54
(dp5225
sg63
g3243
sg56
(lp5226
g49
(g70
g51
NtRp5227
(dp5228
g54
(dp5229
g74
g75
ssg63
g5223
sg56
(lp5230
S'session_id'
p5231
asbag49
(g70
g51
NtRp5232
(dp5233
g54
(dp5234
g81
g82
ssg63
g5223
sg56
(lp5235
S':'
asbag49
(g70
g51
NtRp5236
(dp5237
g54
(dp5238
sg63
g5223
sg56
(lp5239
g49
(g50
g51
NtRp5240
(dp5241
g54
(dp5242
g62
I5
ssg63
g5236
sg56
(lp5243
g458
asbasbasbag49
(g65
g51
NtRp5244
(dp5245
g54
(dp5246
sg63
g3243
sg56
(lp5247
g49
(g70
g51
NtRp5248
(dp5249
g54
(dp5250
g74
g75
ssg63
g5244
sg56
(lp5251
S'session_id_name'
p5252
asbag49
(g70
g51
NtRp5253
(dp5254
g54
(dp5255
g81
g82
ssg63
g5244
sg56
(lp5256
S':'
asbag49
(g70
g51
NtRp5257
(dp5258
g54
(dp5259
sg63
g5244
sg56
(lp5260
g49
(g50
g51
NtRp5261
(dp5262
g54
(dp5263
g62
I5
ssg63
g5257
sg56
(lp5264
g3300
asbasbasbag49
(g65
g51
NtRp5265
(dp5266
g54
(dp5267
sg63
g3243
sg56
(lp5268
g49
(g70
g51
NtRp5269
(dp5270
g54
(dp5271
g74
g75
ssg63
g5265
sg56
(lp5272
S'session_new'
p5273
asbag49
(g70
g51
NtRp5274
(dp5275
g54
(dp5276
g81
g82
ssg63
g5265
sg56
(lp5277
S':'
asbag49
(g70
g51
NtRp5278
(dp5279
g54
(dp5280
sg63
g5265
sg56
(lp5281
g49
(g50
g51
NtRp5282
(dp5283
g54
(dp5284
g62
I5
ssg63
g5278
sg56
(lp5285
g92
asbasbasbag49
(g65
g51
NtRp5286
(dp5287
g54
(dp5288
sg63
g3243
sg56
(lp5289
g49
(g70
g51
NtRp5290
(dp5291
g54
(dp5292
g74
g75
ssg63
g5286
sg56
(lp5293
S'session_storage_type'
p5294
asbag49
(g70
g51
NtRp5295
(dp5296
g54
(dp5297
g81
g82
ssg63
g5286
sg56
(lp5298
S':'
asbag49
(g70
g51
NtRp5299
(dp5300
g54
(dp5301
sg63
g5286
sg56
(lp5302
g49
(g50
g51
NtRp5303
(dp5304
g54
(dp5305
g62
I5
ssg63
g5299
sg56
(lp5306
g3186
asbasbasbag49
(g65
g51
NtRp5307
(dp5308
g54
(dp5309
sg63
g3243
sg56
(lp5310
g49
(g70
g51
NtRp5311
(dp5312
g54
(dp5313
g74
g75
ssg63
g5307
sg56
(lp5314
S'status'
p5315
asbag49
(g70
g51
NtRp5316
(dp5317
g54
(dp5318
g81
g82
ssg63
g5307
sg56
(lp5319
S':'
asbag49
(g70
g51
NtRp5320
(dp5321
g54
(dp5322
sg63
g5307
sg56
(lp5323
g49
(g50
g51
NtRp5324
(dp5325
g54
(dp5326
g62
I5
ssg63
g5320
sg56
(lp5327
S'200'
p5328
asbasbasbag49
(g65
g51
NtRp5329
(dp5330
g54
(dp5331
sg63
g3243
sg56
(lp5332
g49
(g70
g51
NtRp5333
(dp5334
g54
(dp5335
g74
g75
ssg63
g5329
sg56
(lp5336
S'subtitle'
p5337
asbag49
(g70
g51
NtRp5338
(dp5339
g54
(dp5340
g81
g82
ssg63
g5329
sg56
(lp5341
S':'
asbag49
(g70
g51
NtRp5342
(dp5343
g54
(dp5344
sg63
g5329
sg56
(lp5345
g49
(g50
g51
NtRp5346
(dp5347
g54
(dp5348
g62
I5
ssg63
g5342
sg56
(lp5349
g3861
(S's\r\x00\x00\x00customize me!'
tRp5350
asbasbasbag49
(g65
g51
NtRp5351
(dp5352
g54
(dp5353
sg63
g3243
sg56
(lp5354
g49
(g70
g51
NtRp5355
(dp5356
g54
(dp5357
g74
g75
ssg63
g5351
sg56
(lp5358
S'title'
p5359
asbag49
(g70
g51
NtRp5360
(dp5361
g54
(dp5362
g81
g82
ssg63
g5351
sg56
(lp5363
S':'
asbag49
(g70
g51
NtRp5364
(dp5365
g54
(dp5366
sg63
g5351
sg56
(lp5367
g49
(g50
g51
NtRp5368
(dp5369
g54
(dp5370
g62
I5
ssg63
g5364
sg56
(lp5371
S'Hellow'
p5372
asbasbasbag49
(g65
g51
NtRp5373
(dp5374
g54
(dp5375
sg63
g3243
sg56
(lp5376
g49
(g70
g51
NtRp5377
(dp5378
g54
(dp5379
g74
g75
ssg63
g5373
sg56
(lp5380
S'view'
p5381
asbag49
(g70
g51
NtRp5382
(dp5383
g54
(dp5384
g81
g82
ssg63
g5373
sg56
(lp5385
S':'
asbag49
(g70
g51
NtRp5386
(dp5387
g54
(dp5388
sg63
g5373
sg56
(lp5389
g49
(g50
g51
NtRp5390
(dp5391
g54
(dp5392
g62
I5
ssg63
g5386
sg56
(lp5393
S'game/show.html'
p5394
asbasbasbasbasbsS'locals'
p5395
(dp5396
S'Service'
p5397
S"<class 'gluon.tools.Service'>"
p5398
sS'OBJECT'
p5399
S"<class 'gluon.html.OBJECT'>"
p5400
sS'SQLDB'
p5401
S"<class 'gluon.dal.DAL'>"
p5402
sg3225
S'<Storage {}>'
p5403
sS'LINK'
p5404
S"<class 'gluon.html.LINK'>"
p5405
sS'BR'
p5406
S"<class 'gluon.html.BR'>"
p5407
sS'local_import'
p5408
S'<function <lambda> at 0xa263f30>'
p5409
sS'OPTGROUP'
p5410
S"<class 'gluon.html.OPTGROUP'>"
p5411
sS'PRE'
p5412
S"<class 'gluon.html.PRE'>"
p5413
sS'IS_INT_IN_RANGE'
p5414
S"<class 'gluon.validators.IS_INT_IN_RANGE'>"
p5415
sS'left_sidebar_enabled'
p5416
g92
sS'IS_LOWER'
p5417
S"<class 'gluon.validators.IS_LOWER'>"
p5418
sS'IS_STRONG'
p5419
S"<class 'gluon.validators.IS_STRONG'>"
p5420
sS'cache'
p5421
S'<gluon.cache.Cache object at 0xa2baf30>'
p5422
sS'IS_IN_DB'
p5423
S"<class 'gluon.validators.IS_IN_DB'>"
p5424
sS'TAG'
p5425
S'<gluon.html.__TAG__ object at 0x2ed1d70>'
p5426
sS'SQLField'
p5427
S"<class 'gluon.dal.Field'>"
p5428
sS'mail'
p5429
S'<gluon.tools.Mail object at 0xaadd810>'
p5430
sS'BODY'
p5431
S"<class 'gluon.html.BODY'>"
p5432
sS'IS_DATE_IN_RANGE'
p5433
S"<class 'gluon.validators.IS_DATE_IN_RANGE'>"
p5434
sS'IFRAME'
p5435
S"<class 'gluon.html.IFRAME'>"
p5436
sS'URL'
p5437
S'<function URL at 0x2ebeef0>'
p5438
sS'__file__'
p5439
S"'/Users/zamechek/Downloads/web2py/web2py.app/Cont...esources/applications/hellow/views/game/show.html'"
p5440
sS'db'
p5441
S'<DAL uri="sqlite://storage.sqlite">'
p5442
sS'auth'
p5443
S'<gluon.tools.Auth object at 0xaadd290>'
p5444
sS'P'
S"<class 'gluon.html.P'>"
p5445
sS'TFOOT'
p5446
S"<class 'gluon.html.TFOOT'>"
p5447
sS'XHTML'
p5448
S"<class 'gluon.html.XHTML'>"
p5449
sS'ON'
p5450
g928
sS'OL'
p5451
S"<class 'gluon.html.OL'>"
p5452
sS'name'
p5453
S"'Shawn Zamechek'"
p5454
sS'TEXTAREA'
p5455
S"<class 'gluon.html.TEXTAREA'>"
p5456
sS'MENU'
p5457
S"<class 'gluon.html.MENU'>"
p5458
sS'IS_IMAGE'
p5459
S"<class 'gluon.validators.IS_IMAGE'>"
p5460
sS'EM'
p5461
S"<class 'gluon.html.EM'>"
p5462
sS'CODE'
p5463
S"<class 'gluon.html.CODE'>"
p5464
sS'HTTP'
p5465
S"<class 'gluon.http.HTTP'>"
p5466
sS'HR'
p5467
S"<class 'gluon.html.HR'>"
p5468
sS'IS_DATETIME'
p5469
S"<class 'gluon.validators.IS_DATETIME'>"
p5470
sS'STYLE'
p5471
S"<class 'gluon.html.STYLE'>"
p5472
sS'LABEL'
p5473
S"<class 'gluon.html.LABEL'>"
p5474
sS'CLEANUP'
p5475
S"<class 'gluon.validators.CLEANUP'>"
p5476
sS'plugins'
p5477
S'<gluon.tools.PluginManager object at 0xa827730>'
p5478
sS'SELECT'
p5479
S"<class 'gluon.html.SELECT'>"
p5480
sS'use_janrain'
p5481
S'<function use_janrain at 0x721c170>'
p5482
sS'CENTER'
p5483
S"<class 'gluon.html.CENTER'>"
p5484
sS'prettydate'
p5485
S'<function prettydate at 0x720f4b0>'
p5486
sS'Crud'
p5487
S"<class 'gluon.tools.Crud'>"
p5488
sS'Auth'
p5489
S"<class 'gluon.tools.Auth'>"
p5490
sS'DEVELOPMENT_MENU'
p5491
g928
sS'__builtins__'
p5492
S"{'ArithmeticError': <type 'exceptions.ArithmeticError'>, 'AssertionError': <type 'exceptions.AssertionError'>, 'AttributeError': <type 'exceptions.AttributeError'>, 'BaseException': <type 'exceptions.BaseException'>, 'DeprecationWarning': <type 'exceptions.DeprecationWarning'>, 'EOFError': <type 'exceptions.EOFError'>, 'Ellipsis': Ellipsis, 'EnvironmentError': <type 'exceptions.EnvironmentError'>, 'Exception': <type 'exceptions.Exception'>, 'False': False, ...}"
p5493
sS'HTML'
p5494
S"<class 'gluon.html.HTML'>"
p5495
sS'SQLFORM'
p5496
S"<class 'gluon.sqlhtml.SQLFORM'>"
p5497
sS'LOAD'
p5498
S'<function LOAD at 0x31884f0>'
p5499
sS'redirect'
p5500
S'<function redirect at 0x2bd74b0>'
p5501
sS'FIELDSET'
p5502
S"<class 'gluon.html.FIELDSET'>"
p5503
sS'IS_EQUAL_TO'
p5504
S"<class 'gluon.validators.IS_EQUAL_TO'>"
p5505
sS'embed64'
p5506
S'<function embed64 at 0x2ed3b30>'
p5507
sS'IS_LIST_OF'
p5508
S"<class 'gluon.validators.IS_LIST_OF'>"
p5509
sS'INPUT'
p5510
S"<class 'gluon.html.INPUT'>"
p5511
sS'EMBED'
p5512
S"<class 'gluon.html.EMBED'>"
p5513
sS'_'
S'<function _ at 0xa86c670>'
p5514
sS'H2'
p5515
S"<class 'gluon.html.H2'>"
p5516
sS'H3'
p5517
S"<class 'gluon.html.H3'>"
p5518
sS'BUTTON'
p5519
S"<class 'gluon.html.BUTTON'>"
p5520
sS'H1'
p5521
S"<class 'gluon.html.H1'>"
p5522
sS'H6'
p5523
S"<class 'gluon.html.H6'>"
p5524
sS'H4'
p5525
S"<class 'gluon.html.H4'>"
p5526
sS'H5'
p5527
S"<class 'gluon.html.H5'>"
p5528
sS'UL'
p5529
S"<class 'gluon.html.UL'>"
p5530
sS'IS_UPPER'
p5531
S"<class 'gluon.validators.IS_UPPER'>"
p5532
sS'xmlescape'
p5533
S'<function xmlescape at 0x2ebea70>'
p5534
sS'IS_TIME'
p5535
S"<class 'gluon.validators.IS_TIME'>"
p5536
sS'OPTION'
p5537
S"<class 'gluon.html.OPTION'>"
p5538
sS'TITLE'
p5539
S"<class 'gluon.html.TITLE'>"
p5540
sS'CRYPT'
p5541
S"<class 'gluon.validators.CRYPT'>"
p5542
sS'IS_EMPTY_OR'
p5543
S"<class 'gluon.validators.IS_EMPTY_OR'>"
p5544
sS'MARKMIN'
p5545
S"<class 'gluon.html.MARKMIN'>"
p5546
sS'__name__'
p5547
S"'__restricted__'"
p5548
sS'slots'
p5549
S'<Rows (2)>'
p5550
sS'STRONG'
p5551
S"<class 'gluon.html.STRONG'>"
p5552
sS'COL'
p5553
S"<class 'gluon.html.COL'>"
p5554
sS'service'
p5555
S'<gluon.tools.Service object at 0xa49a470>'
p5556
sS'SCRIPT'
p5557
S"<class 'gluon.html.SCRIPT'>"
p5558
sS'is_mobile'
p5559
g92
sS'TABLE'
p5560
S"<class 'gluon.html.TABLE'>"
p5561
sS'IS_IPV4'
p5562
S"<class 'gluon.validators.IS_IPV4'>"
p5563
sS'IS_LENGTH'
p5564
S"<class 'gluon.validators.IS_LENGTH'>"
p5565
sS'XML'
p5566
S"<class 'gluon.html.XML'>"
p5567
sS'B'
S"<class 'gluon.html.B'>"
p5568
sS'IMG'
p5569
S"<class 'gluon.html.IMG'>"
p5570
sS'SQLTABLE'
p5571
S"<class 'gluon.sqlhtml.SQLTABLE'>"
p5572
sS'IS_MATCH'
p5573
S"<class 'gluon.validators.IS_MATCH'>"
p5574
sS'IS_ALPHANUMERIC'
p5575
S"<class 'gluon.validators.IS_ALPHANUMERIC'>"
p5576
sS'SPAN'
p5577
S"<class 'gluon.html.SPAN'>"
p5578
sS'IS_JSON'
p5579
S"<class 'gluon.validators.IS_JSON'>"
p5580
sS'IS_SLUG'
p5581
S"<class 'gluon.validators.IS_SLUG'>"
p5582
sS'BEAUTIFY'
p5583
S"<class 'gluon.html.BEAUTIFY'>"
p5584
sS'META'
p5585
S"<class 'gluon.html.META'>"
p5586
sS'balance'
p5587
S'100'
p5588
sS'IS_DATE'
p5589
S"<class 'gluon.validators.IS_DATE'>"
p5590
sS'IS_EMAIL'
p5591
S"<class 'gluon.validators.IS_EMAIL'>"
p5592
sS'IS_NOT_EMPTY'
p5593
S"<class 'gluon.validators.IS_NOT_EMPTY'>"
p5594
sS'IS_FLOAT_IN_RANGE'
p5595
S"<class 'gluon.validators.IS_FLOAT_IN_RANGE'>"
p5596
sS'TBODY'
p5597
S"<class 'gluon.html.TBODY'>"
p5598
sS'CAT'
p5599
S"<class 'gluon.html.CAT'>"
p5600
sS'Field'
p5601
S"<class 'gluon.dal.Field'>"
p5602
sS'middle_columns'
p5603
S"'span12'"
p5604
sS'DIV'
p5605
S"<class 'gluon.html.DIV'>"
p5606
sS'LEGEND'
p5607
S"<class 'gluon.html.LEGEND'>"
p5608
sS'COLGROUP'
p5609
S"<class 'gluon.html.COLGROUP'>"
p5610
sS'DAL'
p5611
S"<class 'gluon.dal.DAL'>"
p5612
sS'TT'
p5613
S"<class 'gluon.html.TT'>"
p5614
sS'TR'
p5615
S"<class 'gluon.html.TR'>"
p5616
sS'LI'
p5617
S"<class 'gluon.html.LI'>"
p5618
sS'right_sidebar_enabled'
p5619
g92
sS'TH'
p5620
S"<class 'gluon.html.TH'>"
p5621
sS'TD'
p5622
S"<class 'gluon.html.TD'>"
p5623
sS'PluginManager'
p5624
S"<class 'gluon.tools.PluginManager'>"
p5625
sS'IS_URL'
p5626
S"<class 'gluon.validators.IS_URL'>"
p5627
sS'A'
S"<class 'gluon.html.A'>"
p5628
sS'HEAD'
p5629
S"<class 'gluon.html.HEAD'>"
p5630
sS'IS_DATETIME_IN_RANGE'
p5631
S"<class 'gluon.validators.IS_DATETIME_IN_RANGE'>"
p5632
sS'FORM'
p5633
S"<class 'gluon.html.FORM'>"
p5634
sS'I'
S"<class 'gluon.html.I'>"
p5635
sS'crud'
p5636
S'<gluon.tools.Crud object at 0xa49abb0>'
p5637
sS'IS_NOT_IN_DB'
p5638
S"<class 'gluon.validators.IS_NOT_IN_DB'>"
p5639
sg3238
S"<Storage {'body': <cStringIO.StringO object at 0...lambda> at 0xa1ad2f0>, 'view': 'game/show.html'}>"
p5640
sS'THEAD'
p5641
S"<class 'gluon.html.THEAD'>"
p5642
sS'IS_NULL_OR'
p5643
S"<class 'gluon.validators.IS_EMPTY_OR'>"
p5644
sS'gameid'
p5645
S"'1'"
p5646
sg48
S"<Storage {'function': 'show', 'body': <cStringIO...pplications/hellow/', 'post_vars': <Storage {}>}>"
p5647
sS'IS_EXPR'
p5648
S"<class 'gluon.validators.IS_EXPR'>"
p5649
sS'T'
S'<gluon.languages.translator object at 0xaba15b0>'
p5650
sS'IS_IN_SET'
p5651
S"<class 'gluon.validators.IS_IN_SET'>"
p5652
sS'IS_UPLOAD_FILENAME'
p5653
S"<class 'gluon.validators.IS_UPLOAD_FILENAME'>"
p5654
sS'IS_DECIMAL_IN_RANGE'
p5655
S"<class 'gluon.validators.IS_DECIMAL_IN_RANGE'>"
p5656
sssS'traceback'
p5657
S'Traceback (most recent call last):\n  File "/home/mdipierro/web2py/gluon/restricted.py", line 212, in restricted\n  File "/Users/zamechek/Downloads/web2py/web2py.app/Contents/Resources/applications/hellow/views/game/show.html", line 89, in <module>\nNameError: name \'form\' is not defined\n'
p5658
s.