(dp1
S'output'
p2
S"<type 'exceptions.NameError'> global name 'srt' is not defined"
p3
sS'layer'
p4
S'/Users/zamechek/Downloads/web2py/web2py.app/Contents/Resources/applications/hellow/controllers/game.py'
p5
sS'code'
p6
S'# coding: utf8\n# try something like\n\ndef show():\n    id = request.args[0]\n    game = db.game(id)\n    auth_user = (game.auth_user)\n    \n    query=((db.game.id==db.game_slots.game)&(db.slot.id==db.game_slots.slot))\n    #game_and_slots=(db.game.id==db.game_slots.game)&(db.slot.id==db.game_slots.slot)\n    rows = db(query).select(db.slot.id, db.slot.odds)\n    #form = display_form(rows)\n    \n    otherForm = form_from_factory(rows, game)\n    return dict(name=auth_user.first_name.capitalize() + " " + auth_user.last_name.capitalize(), balance = game.balance, slots = rows, gameid = id, otherForm=otherForm)\n    \ndef form_from_factory(rows , game):\n       \n    otherForm = SQLFORM.factory(\n        Field(\'bet\', requires=IS_NOT_EMPTY()),\n        Field(\'slot\', requires=IS_IN_SET(rows, labels=makePrettyLables(rows))))\n    if otherForm.process().accepted:\n        #id = db.game.insert(**db.client._filter_fields(form.vars))\n        bet = otherForm.vars.bet\n        \n        game.update(balance=srt(game.balance - bet))\n        response.flash = \'form accepted\'\n\n    elif otherForm.errors:\n        response.flash = \'form has errors\'\n    return otherForm\n\ndef makePrettyLables(rows):\n        arr = []\n        for i in range(0, len(rows)):\n            arr.append("Slot " + str(i+1) + " - " + str(rows[i].odds))\n        return arr\n\nresponse._vars=response._caller(show)\n'
p7
sS'snapshot'
p8
(dp9
S'exception'
p10
(dp11
S'__hash__'
p12
S"<method-wrapper '__hash__' of exceptions.NameError object at 0x8e07d50>"
p13
sS'__setattr__'
p14
S"<method-wrapper '__setattr__' of exceptions.NameError object at 0x8e07d50>"
p15
sS'__reduce_ex__'
p16
S'<built-in method __reduce_ex__ of exceptions.NameError object at 0x8e07d50>'
p17
sS'__getslice__'
p18
S"<method-wrapper '__getslice__' of exceptions.NameError object at 0x8e07d50>"
p19
sS'__getitem__'
p20
S"<method-wrapper '__getitem__' of exceptions.NameError object at 0x8e07d50>"
p21
sS'__setstate__'
p22
S'<built-in method __setstate__ of exceptions.NameError object at 0x8e07d50>'
p23
sS'__reduce__'
p24
S'<built-in method __reduce__ of exceptions.NameError object at 0x8e07d50>'
p25
sS'__str__'
p26
S"<method-wrapper '__str__' of exceptions.NameError object at 0x8e07d50>"
p27
sS'args'
p28
S'("global name \'srt\' is not defined",)'
p29
sS'__getattribute__'
p30
S"<method-wrapper '__getattribute__' of exceptions.NameError object at 0x8e07d50>"
p31
sS'__class__'
p32
S"<type 'exceptions.NameError'>"
p33
sS'__delattr__'
p34
S"<method-wrapper '__delattr__' of exceptions.NameError object at 0x8e07d50>"
p35
sS'__repr__'
p36
S"<method-wrapper '__repr__' of exceptions.NameError object at 0x8e07d50>"
p37
sS'__dict__'
p38
S'{}'
p39
sS'__doc__'
p40
S"'Name not found globally.'"
p41
sS'__init__'
p42
S"<method-wrapper '__init__' of exceptions.NameError object at 0x8e07d50>"
p43
sS'__new__'
p44
S'<built-in method __new__ of type object at 0x5f9640>'
p45
ssS'evalue'
p46
S"global name 'srt' is not defined"
p47
sS'request'
p48
ccopy_reg
_reconstructor
p49
(cgluon.html
BEAUTIFY
p50
c__builtin__
object
p51
NtRp52
(dp53
S'attributes'
p54
(dp55
sS'components'
p56
(lp57
g49
(cgluon.html
TABLE
p58
g51
NtRp59
(dp60
g54
(dp61
S'level'
p62
I5
ssS'parent'
p63
Nsg56
(lp64
g49
(cgluon.html
TR
p65
g51
NtRp66
(dp67
g54
(dp68
sg63
g59
sg56
(lp69
g49
(cgluon.html
TD
p70
g51
NtRp71
(dp72
g54
(dp73
S'_style'
p74
S'font-weight:bold;vertical-align:top'
p75
ssg63
g66
sg56
(lp76
S'ajax'
p77
asbag49
(g70
g51
NtRp78
(dp79
g54
(dp80
S'_valign'
p81
S'top'
p82
ssg63
g66
sg56
(lp83
S':'
asbag49
(g70
g51
NtRp84
(dp85
g54
(dp86
sg63
g66
sg56
(lp87
g49
(g50
g51
NtRp88
(dp89
g54
(dp90
g62
I5
ssg63
g84
sg56
(lp91
S'False'
p92
asbasbasbag49
(g65
g51
NtRp93
(dp94
g54
(dp95
sg63
g59
sg56
(lp96
g49
(g70
g51
NtRp97
(dp98
g54
(dp99
g74
g75
ssg63
g93
sg56
(lp100
S'application'
p101
asbag49
(g70
g51
NtRp102
(dp103
g54
(dp104
g81
g82
ssg63
g93
sg56
(lp105
S':'
asbag49
(g70
g51
NtRp106
(dp107
g54
(dp108
sg63
g93
sg56
(lp109
g49
(g50
g51
NtRp110
(dp111
g54
(dp112
g62
I5
ssg63
g106
sg56
(lp113
S'hellow'
p114
asbasbasbag49
(g65
g51
NtRp115
(dp116
g54
(dp117
sg63
g59
sg56
(lp118
g49
(g70
g51
NtRp119
(dp120
g54
(dp121
g74
g75
ssg63
g115
sg56
(lp122
g28
asbag49
(g70
g51
NtRp123
(dp124
g54
(dp125
g81
g82
ssg63
g115
sg56
(lp126
S':'
asbag49
(g70
g51
NtRp127
(dp128
g54
(dp129
sg63
g115
sg56
(lp130
g49
(g50
g51
NtRp131
(dp132
g54
(dp133
g62
I5
ssg63
g127
sg56
(lp134
g49
(g58
g51
NtRp135
(dp136
g54
(dp137
g62
I4
ssg63
Nsg56
(lp138
g49
(g65
g51
NtRp139
(dp140
g54
(dp141
sg63
g135
sg56
(lp142
g49
(g70
g51
NtRp143
(dp144
g54
(dp145
sg63
g139
sg56
(lp146
g49
(g50
g51
NtRp147
(dp148
g54
(dp149
g62
I4
ssg63
g143
sg56
(lp150
S'1'
asbasbasbasbasbasbasbag49
(g65
g51
NtRp151
(dp152
g54
(dp153
sg63
g59
sg56
(lp154
g49
(g70
g51
NtRp155
(dp156
g54
(dp157
g74
g75
ssg63
g151
sg56
(lp158
S'body'
p159
asbag49
(g70
g51
NtRp160
(dp161
g54
(dp162
g81
g82
ssg63
g151
sg56
(lp163
S':'
asbag49
(g70
g51
NtRp164
(dp165
g54
(dp166
sg63
g151
sg56
(lp167
g49
(g50
g51
NtRp168
(dp169
g54
(dp170
g62
I5
ssg63
g164
sg56
(lp171
S"<open file '<fdopen>', mode 'w+b' at 0x809c848>"
p172
asbasbasbag49
(g65
g51
NtRp173
(dp174
g54
(dp175
sg63
g59
sg56
(lp176
g49
(g70
g51
NtRp177
(dp178
g54
(dp179
g74
g75
ssg63
g173
sg56
(lp180
S'cid'
p181
asbag49
(g70
g51
NtRp182
(dp183
g54
(dp184
g81
g82
ssg63
g173
sg56
(lp185
S':'
asbag49
(g70
g51
NtRp186
(dp187
g54
(dp188
sg63
g173
sg56
(lp189
g49
(g50
g51
NtRp190
(dp191
g54
(dp192
g62
I5
ssg63
g186
sg56
(lp193
S'None'
p194
asbasbasbag49
(g65
g51
NtRp195
(dp196
g54
(dp197
sg63
g59
sg56
(lp198
g49
(g70
g51
NtRp199
(dp200
g54
(dp201
g74
g75
ssg63
g195
sg56
(lp202
S'client'
p203
asbag49
(g70
g51
NtRp204
(dp205
g54
(dp206
g81
g82
ssg63
g195
sg56
(lp207
S':'
asbag49
(g70
g51
NtRp208
(dp209
g54
(dp210
sg63
g195
sg56
(lp211
g49
(g50
g51
NtRp212
(dp213
g54
(dp214
g62
I5
ssg63
g208
sg56
(lp215
S'127.0.0.1'
p216
asbasbasbag49
(g65
g51
NtRp217
(dp218
g54
(dp219
sg63
g59
sg56
(lp220
g49
(g70
g51
NtRp221
(dp222
g54
(dp223
g74
g75
ssg63
g217
sg56
(lp224
S'controller'
p225
asbag49
(g70
g51
NtRp226
(dp227
g54
(dp228
g81
g82
ssg63
g217
sg56
(lp229
S':'
asbag49
(g70
g51
NtRp230
(dp231
g54
(dp232
sg63
g217
sg56
(lp233
g49
(g50
g51
NtRp234
(dp235
g54
(dp236
g62
I5
ssg63
g230
sg56
(lp237
S'game'
p238
asbasbasbag49
(g65
g51
NtRp239
(dp240
g54
(dp241
sg63
g59
sg56
(lp242
g49
(g70
g51
NtRp243
(dp244
g54
(dp245
g74
g75
ssg63
g239
sg56
(lp246
S'cookies'
p247
asbag49
(g70
g51
NtRp248
(dp249
g54
(dp250
g81
g82
ssg63
g239
sg56
(lp251
S':'
asbag49
(g70
g51
NtRp252
(dp253
g54
(dp254
sg63
g239
sg56
(lp255
g49
(g50
g51
NtRp256
(dp257
g54
(dp258
g62
I5
ssg63
g252
sg56
(lp259
g49
(g58
g51
NtRp260
(dp261
g54
(dp262
g62
I4
ssg63
Nsg56
(lp263
g49
(g65
g51
NtRp264
(dp265
g54
(dp266
sg63
g260
sg56
(lp267
g49
(g70
g51
NtRp268
(dp269
g54
(dp270
g74
g75
ssg63
g264
sg56
(lp271
S'session_id_admin'
p272
asbag49
(g70
g51
NtRp273
(dp274
g54
(dp275
g81
g82
ssg63
g264
sg56
(lp276
S':'
asbag49
(g70
g51
NtRp277
(dp278
g54
(dp279
sg63
g264
sg56
(lp280
g49
(g50
g51
NtRp281
(dp282
g54
(dp283
g62
I4
ssg63
g277
sg56
(lp284
S'127.0.0.1-bf448199-cadc-41e3-b1a7-bed302e89a3e'
p285
ag49
(g58
g51
NtRp286
(dp287
g54
(dp288
g62
I3
ssg63
Nsg56
(lp289
g49
(g65
g51
NtRp290
(dp291
g54
(dp292
sg63
g286
sg56
(lp293
g49
(g70
g51
NtRp294
(dp295
g54
(dp296
g74
g75
ssg63
g290
sg56
(lp297
S'comment'
p298
asbag49
(g70
g51
NtRp299
(dp300
g54
(dp301
g81
g82
ssg63
g290
sg56
(lp302
S':'
asbag49
(g70
g51
NtRp303
(dp304
g54
(dp305
sg63
g290
sg56
(lp306
g49
(g50
g51
NtRp307
(dp308
g54
(dp309
g62
I3
ssg63
g303
sg56
(lp310
S''
asbasbasbag49
(g65
g51
NtRp311
(dp312
g54
(dp313
sg63
g286
sg56
(lp314
g49
(g70
g51
NtRp315
(dp316
g54
(dp317
g74
g75
ssg63
g311
sg56
(lp318
S'domain'
p319
asbag49
(g70
g51
NtRp320
(dp321
g54
(dp322
g81
g82
ssg63
g311
sg56
(lp323
S':'
asbag49
(g70
g51
NtRp324
(dp325
g54
(dp326
sg63
g311
sg56
(lp327
g49
(g50
g51
NtRp328
(dp329
g54
(dp330
g62
I3
ssg63
g324
sg56
(lp331
S''
asbasbasbag49
(g65
g51
NtRp332
(dp333
g54
(dp334
sg63
g286
sg56
(lp335
g49
(g70
g51
NtRp336
(dp337
g54
(dp338
g74
g75
ssg63
g332
sg56
(lp339
S'expires'
p340
asbag49
(g70
g51
NtRp341
(dp342
g54
(dp343
g81
g82
ssg63
g332
sg56
(lp344
S':'
asbag49
(g70
g51
NtRp345
(dp346
g54
(dp347
sg63
g332
sg56
(lp348
g49
(g50
g51
NtRp349
(dp350
g54
(dp351
g62
I3
ssg63
g345
sg56
(lp352
S''
asbasbasbag49
(g65
g51
NtRp353
(dp354
g54
(dp355
sg63
g286
sg56
(lp356
g49
(g70
g51
NtRp357
(dp358
g54
(dp359
g74
g75
ssg63
g353
sg56
(lp360
S'max-age'
p361
asbag49
(g70
g51
NtRp362
(dp363
g54
(dp364
g81
g82
ssg63
g353
sg56
(lp365
S':'
asbag49
(g70
g51
NtRp366
(dp367
g54
(dp368
sg63
g353
sg56
(lp369
g49
(g50
g51
NtRp370
(dp371
g54
(dp372
g62
I3
ssg63
g366
sg56
(lp373
S''
asbasbasbag49
(g65
g51
NtRp374
(dp375
g54
(dp376
sg63
g286
sg56
(lp377
g49
(g70
g51
NtRp378
(dp379
g54
(dp380
g74
g75
ssg63
g374
sg56
(lp381
S'path'
p382
asbag49
(g70
g51
NtRp383
(dp384
g54
(dp385
g81
g82
ssg63
g374
sg56
(lp386
S':'
asbag49
(g70
g51
NtRp387
(dp388
g54
(dp389
sg63
g374
sg56
(lp390
g49
(g50
g51
NtRp391
(dp392
g54
(dp393
g62
I3
ssg63
g387
sg56
(lp394
S''
asbasbasbag49
(g65
g51
NtRp395
(dp396
g54
(dp397
sg63
g286
sg56
(lp398
g49
(g70
g51
NtRp399
(dp400
g54
(dp401
g74
g75
ssg63
g395
sg56
(lp402
S'secure'
p403
asbag49
(g70
g51
NtRp404
(dp405
g54
(dp406
g81
g82
ssg63
g395
sg56
(lp407
S':'
asbag49
(g70
g51
NtRp408
(dp409
g54
(dp410
sg63
g395
sg56
(lp411
g49
(g50
g51
NtRp412
(dp413
g54
(dp414
g62
I3
ssg63
g408
sg56
(lp415
S''
asbasbasbag49
(g65
g51
NtRp416
(dp417
g54
(dp418
sg63
g286
sg56
(lp419
g49
(g70
g51
NtRp420
(dp421
g54
(dp422
g74
g75
ssg63
g416
sg56
(lp423
S'version'
p424
asbag49
(g70
g51
NtRp425
(dp426
g54
(dp427
g81
g82
ssg63
g416
sg56
(lp428
S':'
asbag49
(g70
g51
NtRp429
(dp430
g54
(dp431
sg63
g416
sg56
(lp432
g49
(g50
g51
NtRp433
(dp434
g54
(dp435
g62
I3
ssg63
g429
sg56
(lp436
S''
asbasbasbasbasbasbasbag49
(g65
g51
NtRp437
(dp438
g54
(dp439
sg63
g260
sg56
(lp440
g49
(g70
g51
NtRp441
(dp442
g54
(dp443
g74
g75
ssg63
g437
sg56
(lp444
S'session_id_hellow'
p445
asbag49
(g70
g51
NtRp446
(dp447
g54
(dp448
g81
g82
ssg63
g437
sg56
(lp449
S':'
asbag49
(g70
g51
NtRp450
(dp451
g54
(dp452
sg63
g437
sg56
(lp453
g49
(g50
g51
NtRp454
(dp455
g54
(dp456
g62
I4
ssg63
g450
sg56
(lp457
S'127.0.0.1-bbea59f2-333e-4593-a45c-2c44a5133d77'
p458
ag49
(g58
g51
NtRp459
(dp460
g54
(dp461
g62
I3
ssg63
Nsg56
(lp462
g49
(g65
g51
NtRp463
(dp464
g54
(dp465
sg63
g459
sg56
(lp466
g49
(g70
g51
NtRp467
(dp468
g54
(dp469
g74
g75
ssg63
g463
sg56
(lp470
g298
asbag49
(g70
g51
NtRp471
(dp472
g54
(dp473
g81
g82
ssg63
g463
sg56
(lp474
S':'
asbag49
(g70
g51
NtRp475
(dp476
g54
(dp477
sg63
g463
sg56
(lp478
g49
(g50
g51
NtRp479
(dp480
g54
(dp481
g62
I3
ssg63
g475
sg56
(lp482
S''
asbasbasbag49
(g65
g51
NtRp483
(dp484
g54
(dp485
sg63
g459
sg56
(lp486
g49
(g70
g51
NtRp487
(dp488
g54
(dp489
g74
g75
ssg63
g483
sg56
(lp490
g319
asbag49
(g70
g51
NtRp491
(dp492
g54
(dp493
g81
g82
ssg63
g483
sg56
(lp494
S':'
asbag49
(g70
g51
NtRp495
(dp496
g54
(dp497
sg63
g483
sg56
(lp498
g49
(g50
g51
NtRp499
(dp500
g54
(dp501
g62
I3
ssg63
g495
sg56
(lp502
S''
asbasbasbag49
(g65
g51
NtRp503
(dp504
g54
(dp505
sg63
g459
sg56
(lp506
g49
(g70
g51
NtRp507
(dp508
g54
(dp509
g74
g75
ssg63
g503
sg56
(lp510
g340
asbag49
(g70
g51
NtRp511
(dp512
g54
(dp513
g81
g82
ssg63
g503
sg56
(lp514
S':'
asbag49
(g70
g51
NtRp515
(dp516
g54
(dp517
sg63
g503
sg56
(lp518
g49
(g50
g51
NtRp519
(dp520
g54
(dp521
g62
I3
ssg63
g515
sg56
(lp522
S''
asbasbasbag49
(g65
g51
NtRp523
(dp524
g54
(dp525
sg63
g459
sg56
(lp526
g49
(g70
g51
NtRp527
(dp528
g54
(dp529
g74
g75
ssg63
g523
sg56
(lp530
g361
asbag49
(g70
g51
NtRp531
(dp532
g54
(dp533
g81
g82
ssg63
g523
sg56
(lp534
S':'
asbag49
(g70
g51
NtRp535
(dp536
g54
(dp537
sg63
g523
sg56
(lp538
g49
(g50
g51
NtRp539
(dp540
g54
(dp541
g62
I3
ssg63
g535
sg56
(lp542
S''
asbasbasbag49
(g65
g51
NtRp543
(dp544
g54
(dp545
sg63
g459
sg56
(lp546
g49
(g70
g51
NtRp547
(dp548
g54
(dp549
g74
g75
ssg63
g543
sg56
(lp550
g382
asbag49
(g70
g51
NtRp551
(dp552
g54
(dp553
g81
g82
ssg63
g543
sg56
(lp554
S':'
asbag49
(g70
g51
NtRp555
(dp556
g54
(dp557
sg63
g543
sg56
(lp558
g49
(g50
g51
NtRp559
(dp560
g54
(dp561
g62
I3
ssg63
g555
sg56
(lp562
S''
asbasbasbag49
(g65
g51
NtRp563
(dp564
g54
(dp565
sg63
g459
sg56
(lp566
g49
(g70
g51
NtRp567
(dp568
g54
(dp569
g74
g75
ssg63
g563
sg56
(lp570
g403
asbag49
(g70
g51
NtRp571
(dp572
g54
(dp573
g81
g82
ssg63
g563
sg56
(lp574
S':'
asbag49
(g70
g51
NtRp575
(dp576
g54
(dp577
sg63
g563
sg56
(lp578
g49
(g50
g51
NtRp579
(dp580
g54
(dp581
g62
I3
ssg63
g575
sg56
(lp582
S''
asbasbasbag49
(g65
g51
NtRp583
(dp584
g54
(dp585
sg63
g459
sg56
(lp586
g49
(g70
g51
NtRp587
(dp588
g54
(dp589
g74
g75
ssg63
g583
sg56
(lp590
g424
asbag49
(g70
g51
NtRp591
(dp592
g54
(dp593
g81
g82
ssg63
g583
sg56
(lp594
S':'
asbag49
(g70
g51
NtRp595
(dp596
g54
(dp597
sg63
g583
sg56
(lp598
g49
(g50
g51
NtRp599
(dp600
g54
(dp601
g62
I3
ssg63
g595
sg56
(lp602
S''
asbasbasbasbasbasbasbag49
(g65
g51
NtRp603
(dp604
g54
(dp605
sg63
g260
sg56
(lp606
g49
(g70
g51
NtRp607
(dp608
g54
(dp609
g74
g75
ssg63
g603
sg56
(lp610
S'session_id_welcome'
p611
asbag49
(g70
g51
NtRp612
(dp613
g54
(dp614
g81
g82
ssg63
g603
sg56
(lp615
S':'
asbag49
(g70
g51
NtRp616
(dp617
g54
(dp618
sg63
g603
sg56
(lp619
g49
(g50
g51
NtRp620
(dp621
g54
(dp622
g62
I4
ssg63
g616
sg56
(lp623
S'127.0.0.1-dfebfa33-25aa-4072-bce4-08f7e89e2d04'
p624
ag49
(g58
g51
NtRp625
(dp626
g54
(dp627
g62
I3
ssg63
Nsg56
(lp628
g49
(g65
g51
NtRp629
(dp630
g54
(dp631
sg63
g625
sg56
(lp632
g49
(g70
g51
NtRp633
(dp634
g54
(dp635
g74
g75
ssg63
g629
sg56
(lp636
g298
asbag49
(g70
g51
NtRp637
(dp638
g54
(dp639
g81
g82
ssg63
g629
sg56
(lp640
S':'
asbag49
(g70
g51
NtRp641
(dp642
g54
(dp643
sg63
g629
sg56
(lp644
g49
(g50
g51
NtRp645
(dp646
g54
(dp647
g62
I3
ssg63
g641
sg56
(lp648
S''
asbasbasbag49
(g65
g51
NtRp649
(dp650
g54
(dp651
sg63
g625
sg56
(lp652
g49
(g70
g51
NtRp653
(dp654
g54
(dp655
g74
g75
ssg63
g649
sg56
(lp656
g319
asbag49
(g70
g51
NtRp657
(dp658
g54
(dp659
g81
g82
ssg63
g649
sg56
(lp660
S':'
asbag49
(g70
g51
NtRp661
(dp662
g54
(dp663
sg63
g649
sg56
(lp664
g49
(g50
g51
NtRp665
(dp666
g54
(dp667
g62
I3
ssg63
g661
sg56
(lp668
S''
asbasbasbag49
(g65
g51
NtRp669
(dp670
g54
(dp671
sg63
g625
sg56
(lp672
g49
(g70
g51
NtRp673
(dp674
g54
(dp675
g74
g75
ssg63
g669
sg56
(lp676
g340
asbag49
(g70
g51
NtRp677
(dp678
g54
(dp679
g81
g82
ssg63
g669
sg56
(lp680
S':'
asbag49
(g70
g51
NtRp681
(dp682
g54
(dp683
sg63
g669
sg56
(lp684
g49
(g50
g51
NtRp685
(dp686
g54
(dp687
g62
I3
ssg63
g681
sg56
(lp688
S''
asbasbasbag49
(g65
g51
NtRp689
(dp690
g54
(dp691
sg63
g625
sg56
(lp692
g49
(g70
g51
NtRp693
(dp694
g54
(dp695
g74
g75
ssg63
g689
sg56
(lp696
g361
asbag49
(g70
g51
NtRp697
(dp698
g54
(dp699
g81
g82
ssg63
g689
sg56
(lp700
S':'
asbag49
(g70
g51
NtRp701
(dp702
g54
(dp703
sg63
g689
sg56
(lp704
g49
(g50
g51
NtRp705
(dp706
g54
(dp707
g62
I3
ssg63
g701
sg56
(lp708
S''
asbasbasbag49
(g65
g51
NtRp709
(dp710
g54
(dp711
sg63
g625
sg56
(lp712
g49
(g70
g51
NtRp713
(dp714
g54
(dp715
g74
g75
ssg63
g709
sg56
(lp716
g382
asbag49
(g70
g51
NtRp717
(dp718
g54
(dp719
g81
g82
ssg63
g709
sg56
(lp720
S':'
asbag49
(g70
g51
NtRp721
(dp722
g54
(dp723
sg63
g709
sg56
(lp724
g49
(g50
g51
NtRp725
(dp726
g54
(dp727
g62
I3
ssg63
g721
sg56
(lp728
S''
asbasbasbag49
(g65
g51
NtRp729
(dp730
g54
(dp731
sg63
g625
sg56
(lp732
g49
(g70
g51
NtRp733
(dp734
g54
(dp735
g74
g75
ssg63
g729
sg56
(lp736
g403
asbag49
(g70
g51
NtRp737
(dp738
g54
(dp739
g81
g82
ssg63
g729
sg56
(lp740
S':'
asbag49
(g70
g51
NtRp741
(dp742
g54
(dp743
sg63
g729
sg56
(lp744
g49
(g50
g51
NtRp745
(dp746
g54
(dp747
g62
I3
ssg63
g741
sg56
(lp748
S''
asbasbasbag49
(g65
g51
NtRp749
(dp750
g54
(dp751
sg63
g625
sg56
(lp752
g49
(g70
g51
NtRp753
(dp754
g54
(dp755
g74
g75
ssg63
g749
sg56
(lp756
g424
asbag49
(g70
g51
NtRp757
(dp758
g54
(dp759
g81
g82
ssg63
g749
sg56
(lp760
S':'
asbag49
(g70
g51
NtRp761
(dp762
g54
(dp763
sg63
g749
sg56
(lp764
g49
(g50
g51
NtRp765
(dp766
g54
(dp767
g62
I3
ssg63
g761
sg56
(lp768
S''
asbasbasbasbasbasbasbasbasbasbasbag49
(g65
g51
NtRp769
(dp770
g54
(dp771
sg63
g59
sg56
(lp772
g49
(g70
g51
NtRp773
(dp774
g54
(dp775
g74
g75
ssg63
g769
sg56
(lp776
S'env'
p777
asbag49
(g70
g51
NtRp778
(dp779
g54
(dp780
g81
g82
ssg63
g769
sg56
(lp781
S':'
asbag49
(g70
g51
NtRp782
(dp783
g54
(dp784
sg63
g769
sg56
(lp785
g49
(g50
g51
NtRp786
(dp787
g54
(dp788
g62
I5
ssg63
g782
sg56
(lp789
g49
(g58
g51
NtRp790
(dp791
g54
(dp792
g62
I4
ssg63
Nsg56
(lp793
g49
(g65
g51
NtRp794
(dp795
g54
(dp796
sg63
g790
sg56
(lp797
g49
(g70
g51
NtRp798
(dp799
g54
(dp800
g74
g75
ssg63
g794
sg56
(lp801
S'app_folders'
p802
asbag49
(g70
g51
NtRp803
(dp804
g54
(dp805
g81
g82
ssg63
g794
sg56
(lp806
S':'
asbag49
(g70
g51
NtRp807
(dp808
g54
(dp809
sg63
g794
sg56
(lp810
g49
(g50
g51
NtRp811
(dp812
g54
(dp813
g62
I4
ssg63
g807
sg56
(lp814
S"set(['/Users/zamechek/Downloads/web2py/web2py.app/Contents/Resources/applications/hellow/', '/Users/zamechek/Downloads/web2py/web2py.app/Contents/Resources/applications/admin/', '/Users/zamechek/Downloads/web2py/web2py.app/Contents/Resources/applications/welcome/'])"
p815
asbasbasbag49
(g65
g51
NtRp816
(dp817
g54
(dp818
sg63
g790
sg56
(lp819
g49
(g70
g51
NtRp820
(dp821
g54
(dp822
g74
g75
ssg63
g816
sg56
(lp823
S'applications_parent'
p824
asbag49
(g70
g51
NtRp825
(dp826
g54
(dp827
g81
g82
ssg63
g816
sg56
(lp828
S':'
asbag49
(g70
g51
NtRp829
(dp830
g54
(dp831
sg63
g816
sg56
(lp832
g49
(g50
g51
NtRp833
(dp834
g54
(dp835
g62
I4
ssg63
g829
sg56
(lp836
S'/Users/zamechek/Downloads/web2py/web2py.app/Contents/Resources'
p837
asbasbasbag49
(g65
g51
NtRp838
(dp839
g54
(dp840
sg63
g790
sg56
(lp841
g49
(g70
g51
NtRp842
(dp843
g54
(dp844
g74
g75
ssg63
g838
sg56
(lp845
S'cmd_args'
p846
asbag49
(g70
g51
NtRp847
(dp848
g54
(dp849
g81
g82
ssg63
g838
sg56
(lp850
S':'
asbag49
(g70
g51
NtRp851
(dp852
g54
(dp853
sg63
g838
sg56
(lp854
g49
(g50
g51
NtRp855
(dp856
g54
(dp857
g62
I4
ssg63
g851
sg56
(lp858
g49
(g58
g51
NtRp859
(dp860
g54
(dp861
g62
I3
ssg63
Nsg56
(lp862
sbasbasbasbag49
(g65
g51
NtRp863
(dp864
g54
(dp865
sg63
g790
sg56
(lp866
g49
(g70
g51
NtRp867
(dp868
g54
(dp869
g74
g75
ssg63
g863
sg56
(lp870
S'cmd_options'
p871
asbag49
(g70
g51
NtRp872
(dp873
g54
(dp874
g81
g82
ssg63
g863
sg56
(lp875
S':'
asbag49
(g70
g51
NtRp876
(dp877
g54
(dp878
sg63
g863
sg56
(lp879
g49
(g50
g51
NtRp880
(dp881
g54
(dp882
g62
I4
ssg63
g876
sg56
(lp883
S"<Values at 0x478bf58: {'verbose': False, 'ip': '127.0.0.1', 'with_scheduler': False, 'ips': ['130.91.149.119'], 'shutdown_timeout': 5, 'taskbar': False, 'port': 8000, 'maxthreads': None, 'softcron': False, 'server_name': 'hntvlan5310374.wlan.sas.upenn.edu', 'bpython': False, 'nogui': False, 'pid_filename': 'httpserver.pid', 'extcron': False, 'runcron': False, 'run_system_tests': False, 'test': None, 'folder': '/Users/zamechek/Downloads/web2py/web2py.app/Contents/Resources', 'config': '', 'import_models': False, 'winservice': '', 'shell': None, 'run': '', 'log_filename': 'httpserver.log', 'debuglevel': 30, 'args': [''], 'socket_timeout': 5, 'ssl_ca_certificate': None, 'scheduler': None, 'profiler_filename': None, 'ssl_private_key': '', 'scheduler_groups': None, 'password': '<ask>', 'request_queue_size': 5, 'ssl_certificate': '', 'cronjob': False, 'numthreads': None, 'quiet': False, 'interfaces': None, 'minthreads': None, 'timeout': 10, 'plain': False, 'nobanner': False}>"
p884
asbasbasbag49
(g65
g51
NtRp885
(dp886
g54
(dp887
sg63
g790
sg56
(lp888
g49
(g70
g51
NtRp889
(dp890
g54
(dp891
g74
g75
ssg63
g885
sg56
(lp892
S'content_length'
p893
asbag49
(g70
g51
NtRp894
(dp895
g54
(dp896
g81
g82
ssg63
g885
sg56
(lp897
S':'
asbag49
(g70
g51
NtRp898
(dp899
g54
(dp900
sg63
g885
sg56
(lp901
g49
(g50
g51
NtRp902
(dp903
g54
(dp904
g62
I4
ssg63
g898
sg56
(lp905
S'495'
p906
asbasbasbag49
(g65
g51
NtRp907
(dp908
g54
(dp909
sg63
g790
sg56
(lp910
g49
(g70
g51
NtRp911
(dp912
g54
(dp913
g74
g75
ssg63
g907
sg56
(lp914
S'content_type'
p915
asbag49
(g70
g51
NtRp916
(dp917
g54
(dp918
g81
g82
ssg63
g907
sg56
(lp919
S':'
asbag49
(g70
g51
NtRp920
(dp921
g54
(dp922
sg63
g907
sg56
(lp923
g49
(g50
g51
NtRp924
(dp925
g54
(dp926
g62
I4
ssg63
g920
sg56
(lp927
S'multipart/form-data; boundary=----WebKitFormBoundaryXl2XXkIlAlZBLg2C'
p928
asbasbasbag49
(g65
g51
NtRp929
(dp930
g54
(dp931
sg63
g790
sg56
(lp932
g49
(g70
g51
NtRp933
(dp934
g54
(dp935
g74
g75
ssg63
g929
sg56
(lp936
S'db_sessions'
p937
asbag49
(g70
g51
NtRp938
(dp939
g54
(dp940
g81
g82
ssg63
g929
sg56
(lp941
S':'
asbag49
(g70
g51
NtRp942
(dp943
g54
(dp944
sg63
g929
sg56
(lp945
g49
(g50
g51
NtRp946
(dp947
g54
(dp948
g62
I4
ssg63
g942
sg56
(lp949
S'set([])'
p950
asbasbasbag49
(g65
g51
NtRp951
(dp952
g54
(dp953
sg63
g790
sg56
(lp954
g49
(g70
g51
NtRp955
(dp956
g54
(dp957
g74
g75
ssg63
g951
sg56
(lp958
S'debugging'
p959
asbag49
(g70
g51
NtRp960
(dp961
g54
(dp962
g81
g82
ssg63
g951
sg56
(lp963
S':'
asbag49
(g70
g51
NtRp964
(dp965
g54
(dp966
sg63
g951
sg56
(lp967
g49
(g50
g51
NtRp968
(dp969
g54
(dp970
g62
I4
ssg63
g964
sg56
(lp971
S'True'
p972
asbasbasbag49
(g65
g51
NtRp973
(dp974
g54
(dp975
sg63
g790
sg56
(lp976
g49
(g70
g51
NtRp977
(dp978
g54
(dp979
g74
g75
ssg63
g973
sg56
(lp980
S'gluon_parent'
p981
asbag49
(g70
g51
NtRp982
(dp983
g54
(dp984
g81
g82
ssg63
g973
sg56
(lp985
S':'
asbag49
(g70
g51
NtRp986
(dp987
g54
(dp988
sg63
g973
sg56
(lp989
g49
(g50
g51
NtRp990
(dp991
g54
(dp992
g62
I4
ssg63
g986
sg56
(lp993
S'/Users/zamechek/Downloads/web2py/web2py.app/Contents/Resources'
p994
asbasbasbag49
(g65
g51
NtRp995
(dp996
g54
(dp997
sg63
g790
sg56
(lp998
g49
(g70
g51
NtRp999
(dp1000
g54
(dp1001
g74
g75
ssg63
g995
sg56
(lp1002
S'http_accept'
p1003
asbag49
(g70
g51
NtRp1004
(dp1005
g54
(dp1006
g81
g82
ssg63
g995
sg56
(lp1007
S':'
asbag49
(g70
g51
NtRp1008
(dp1009
g54
(dp1010
sg63
g995
sg56
(lp1011
g49
(g50
g51
NtRp1012
(dp1013
g54
(dp1014
g62
I4
ssg63
g1008
sg56
(lp1015
S'text/html,application/xhtml+xml,application/xml;q=0.9,*/*;q=0.8'
p1016
asbasbasbag49
(g65
g51
NtRp1017
(dp1018
g54
(dp1019
sg63
g790
sg56
(lp1020
g49
(g70
g51
NtRp1021
(dp1022
g54
(dp1023
g74
g75
ssg63
g1017
sg56
(lp1024
S'http_accept_charset'
p1025
asbag49
(g70
g51
NtRp1026
(dp1027
g54
(dp1028
g81
g82
ssg63
g1017
sg56
(lp1029
S':'
asbag49
(g70
g51
NtRp1030
(dp1031
g54
(dp1032
sg63
g1017
sg56
(lp1033
g49
(g50
g51
NtRp1034
(dp1035
g54
(dp1036
g62
I4
ssg63
g1030
sg56
(lp1037
S'ISO-8859-1,utf-8;q=0.7,*;q=0.3'
p1038
asbasbasbag49
(g65
g51
NtRp1039
(dp1040
g54
(dp1041
sg63
g790
sg56
(lp1042
g49
(g70
g51
NtRp1043
(dp1044
g54
(dp1045
g74
g75
ssg63
g1039
sg56
(lp1046
S'http_accept_encoding'
p1047
asbag49
(g70
g51
NtRp1048
(dp1049
g54
(dp1050
g81
g82
ssg63
g1039
sg56
(lp1051
S':'
asbag49
(g70
g51
NtRp1052
(dp1053
g54
(dp1054
sg63
g1039
sg56
(lp1055
g49
(g50
g51
NtRp1056
(dp1057
g54
(dp1058
g62
I4
ssg63
g1052
sg56
(lp1059
S'gzip,deflate,sdch'
p1060
asbasbasbag49
(g65
g51
NtRp1061
(dp1062
g54
(dp1063
sg63
g790
sg56
(lp1064
g49
(g70
g51
NtRp1065
(dp1066
g54
(dp1067
g74
g75
ssg63
g1061
sg56
(lp1068
S'http_accept_language'
p1069
asbag49
(g70
g51
NtRp1070
(dp1071
g54
(dp1072
g81
g82
ssg63
g1061
sg56
(lp1073
S':'
asbag49
(g70
g51
NtRp1074
(dp1075
g54
(dp1076
sg63
g1061
sg56
(lp1077
g49
(g50
g51
NtRp1078
(dp1079
g54
(dp1080
g62
I4
ssg63
g1074
sg56
(lp1081
S'en-US,en;q=0.8'
p1082
asbasbasbag49
(g65
g51
NtRp1083
(dp1084
g54
(dp1085
sg63
g790
sg56
(lp1086
g49
(g70
g51
NtRp1087
(dp1088
g54
(dp1089
g74
g75
ssg63
g1083
sg56
(lp1090
S'http_cache_control'
p1091
asbag49
(g70
g51
NtRp1092
(dp1093
g54
(dp1094
g81
g82
ssg63
g1083
sg56
(lp1095
S':'
asbag49
(g70
g51
NtRp1096
(dp1097
g54
(dp1098
sg63
g1083
sg56
(lp1099
g49
(g50
g51
NtRp1100
(dp1101
g54
(dp1102
g62
I4
ssg63
g1096
sg56
(lp1103
S'max-age=0'
p1104
asbasbasbag49
(g65
g51
NtRp1105
(dp1106
g54
(dp1107
sg63
g790
sg56
(lp1108
g49
(g70
g51
NtRp1109
(dp1110
g54
(dp1111
g74
g75
ssg63
g1105
sg56
(lp1112
S'http_connection'
p1113
asbag49
(g70
g51
NtRp1114
(dp1115
g54
(dp1116
g81
g82
ssg63
g1105
sg56
(lp1117
S':'
asbag49
(g70
g51
NtRp1118
(dp1119
g54
(dp1120
sg63
g1105
sg56
(lp1121
g49
(g50
g51
NtRp1122
(dp1123
g54
(dp1124
g62
I4
ssg63
g1118
sg56
(lp1125
S'keep-alive'
p1126
asbasbasbag49
(g65
g51
NtRp1127
(dp1128
g54
(dp1129
sg63
g790
sg56
(lp1130
g49
(g70
g51
NtRp1131
(dp1132
g54
(dp1133
g74
g75
ssg63
g1127
sg56
(lp1134
S'http_content_length'
p1135
asbag49
(g70
g51
NtRp1136
(dp1137
g54
(dp1138
g81
g82
ssg63
g1127
sg56
(lp1139
S':'
asbag49
(g70
g51
NtRp1140
(dp1141
g54
(dp1142
sg63
g1127
sg56
(lp1143
g49
(g50
g51
NtRp1144
(dp1145
g54
(dp1146
g62
I4
ssg63
g1140
sg56
(lp1147
g906
asbasbasbag49
(g65
g51
NtRp1148
(dp1149
g54
(dp1150
sg63
g790
sg56
(lp1151
g49
(g70
g51
NtRp1152
(dp1153
g54
(dp1154
g74
g75
ssg63
g1148
sg56
(lp1155
S'http_content_type'
p1156
asbag49
(g70
g51
NtRp1157
(dp1158
g54
(dp1159
g81
g82
ssg63
g1148
sg56
(lp1160
S':'
asbag49
(g70
g51
NtRp1161
(dp1162
g54
(dp1163
sg63
g1148
sg56
(lp1164
g49
(g50
g51
NtRp1165
(dp1166
g54
(dp1167
g62
I4
ssg63
g1161
sg56
(lp1168
g928
asbasbasbag49
(g65
g51
NtRp1169
(dp1170
g54
(dp1171
sg63
g790
sg56
(lp1172
g49
(g70
g51
NtRp1173
(dp1174
g54
(dp1175
g74
g75
ssg63
g1169
sg56
(lp1176
S'http_cookie'
p1177
asbag49
(g70
g51
NtRp1178
(dp1179
g54
(dp1180
g81
g82
ssg63
g1169
sg56
(lp1181
S':'
asbag49
(g70
g51
NtRp1182
(dp1183
g54
(dp1184
sg63
g1169
sg56
(lp1185
g49
(g50
g51
NtRp1186
(dp1187
g54
(dp1188
g62
I4
ssg63
g1182
sg56
(lp1189
S'_define_session=BAh7CEkiD3Nlc3Npb25faWQGOgZFRkkiJTVmM2YzOTE4ZmYyNzY4ZDRjYjY5YjcyOGNkZTAxODEwBjsAVEkiEF9jc3JmX3Rva2VuBjsARkkiMVY4MTBXWE1hdGNGUGR0ZzhxeStGc3FiajlCNzB6UkpqcHZUalZJNjRFNms9BjsARkkiGXdhcmRlbi51c2VyLnVzZXIua2V5BjsAVFsISSIJVXNlcgY7AEZbBmkGSSIiJDJhJDEwJGxpeDBzN29QMk5ocFJWZUl4RXZ4WXUGOwBU--36fb82eb40ee1558fc8e56b5bce1c04bba1a6c00; _bs_session=BAh7B0kiD3Nlc3Npb25faWQGOgZFRkkiJWFhOTlmNjdkODEzYjIwNGMyNGUwMTZmNjlkMDBjMjlhBjsAVEkiEF9jc3JmX3Rva2VuBjsARkkiMUJjek16b0JSUDluYk5MekI0YlNTMklPb2Q3V3pNQzJXcHQ1enY1RDgrT3c9BjsARg%3D%3D--80cc0f5e6211d60923eda39a15903de5a280521a; _table_session=BAh7B0kiD3Nlc3Npb25faWQGOgZFRkkiJTdhZTA3MzFhMGMxM2Q4YTAxZGQ3ZTNlMDM2ODIwOWY3BjsAVEkiEF9jc3JmX3Rva2VuBjsARkkiMWxKWVRtT3hGU3dxT0tnbmJ1OG1iL3FXSW9jWVRJdnZhZHJmNTN2b1BqR2M9BjsARg%3D%3D--a8b8801fe97e379d91991be9a0d21a60f46bc09e; _usertable_session=BAh7CEkiD3Nlc3Npb25faWQGOgZFRkkiJTRmY2NiMWMyOTE1ZThhYzE1MzVlYmU3ODMxZjdhM2NmBjsAVEkiEF9jc3JmX3Rva2VuBjsARkkiMXlibkQxRk5wVVFFU05OcDVxMEQvUURSZWRJQVlRY1JwYTdoSkRucEtlYXc9BjsARkkiCmZsYXNoBjsARm86JUFjdGlvbkRpc3BhdGNoOjpGbGFzaDo6Rmxhc2hIYXNoCToKQHVzZWRvOghTZXQGOgpAaGFzaHsAOgxAY2xvc2VkRjoNQGZsYXNoZXN7BjoLbm90aWNlSSItRmllbGQgcmVsYXRpb24gd2FzIHN1Y2Nlc3NmdWxseSBjcmVhdGVkLgY7AEY6CUBub3cw--c455129d4f2ca1e085c6ad184fd200aecc0b7061; _tbls_session=BAh7B0kiD3Nlc3Npb25faWQGOgZFRkkiJWY5MmM2Mzk2ZWQ0M2ZlODZkN2E5YjMxYmViOTU4NTI2BjsAVEkiEF9jc3JmX3Rva2VuBjsARkkiMVZjemQ4UGhpZXhnaEhnOUE2alRCRmdGSXFBclViMFhwQlo5Ulg2VTRhdFk9BjsARg%3D%3D--53586c2b8499a2c56c427cd8b8e3de116331bd4d; _typel_session=BAh7CEkiD3Nlc3Npb25faWQGOgZFRkkiJWQzMjkxZGExNGY5ZTQzNzIzZTk5MWZmZTM0NDY2NTFiBjsAVEkiEF9jc3JmX3Rva2VuBjsARkkiMWM5cVg1c3pKalpQSjd3Yk5lanQ5alpjZW4zRmNOVXdQS29YNExGOXJIUWM9BjsARkkiGXdhcmRlbi51c2VyLnVzZXIua2V5BjsAVFsISSIJVXNlcgY7AEZbBmkGSSIiJDJhJDEwJEVybm5aY0RTdm9sRjRETENhdjRveGUGOwBU--df06a9ed1ab2763964f111c2534c9f2a3630c12c; _ampersand_factory_session=BAh7CUkiD3Nlc3Npb25faWQGOgZFRkkiJWI2NTFmMThjZDNkMWU4NTNhNmI4OWU1MjNhYjMyZmQ0BjsAVEkiDWluc3RhbmNlBjsARmkGSSIQX2NzcmZfdG9rZW4GOwBGSSIxTEtBZER3MFlQQUV6Nmh1NW95TG4vUTFGcFdXa1ozWTVJaUx5aXh4ZndTVT0GOwBGSSIbd2FyZGVuLnVzZXIud29ya2VyLmtleQY7AFRbCEkiC1dvcmtlcgY7AEZbBmkGSSIiJDJhJDEwJGlEdndMRmhzQXB5eE1tLnhjMFM2di4GOwBU--e6bc7e5d4e945842bb7862fd547d433b3c7bfdcb; _lang_session=BAh7B0kiD3Nlc3Npb25faWQGOgZFRkkiJTY2YzI4YTY5NDkzNzE1ZGIzYzUwNWM3ZDg2ZmY1MWNiBjsAVEkiEF9jc3JmX3Rva2VuBjsARkkiMVdVczNjYnUvY2tZaHFvMVlwLy9zemdCcFliUytKdTlUTGZ3M1RIUlI3aHc9BjsARg%3D%3D--52f16b665cb4cfc5b54cea21c7b082ab6b75b1bf; session_id_welcome=127.0.0.1-dfebfa33-25aa-4072-bce4-08f7e89e2d04; session_id_admin=127.0.0.1-bf448199-cadc-41e3-b1a7-bed302e89a3e; session_id_hellow=127.0.0.1-bbea59f2-333e-4593-a45c-2c44a5133d77'
p1190
asbasbasbag49
(g65
g51
NtRp1191
(dp1192
g54
(dp1193
sg63
g790
sg56
(lp1194
g49
(g70
g51
NtRp1195
(dp1196
g54
(dp1197
g74
g75
ssg63
g1191
sg56
(lp1198
S'http_host'
p1199
asbag49
(g70
g51
NtRp1200
(dp1201
g54
(dp1202
g81
g82
ssg63
g1191
sg56
(lp1203
S':'
asbag49
(g70
g51
NtRp1204
(dp1205
g54
(dp1206
sg63
g1191
sg56
(lp1207
g49
(g50
g51
NtRp1208
(dp1209
g54
(dp1210
g62
I4
ssg63
g1204
sg56
(lp1211
S'localhost:8887'
p1212
asbasbasbag49
(g65
g51
NtRp1213
(dp1214
g54
(dp1215
sg63
g790
sg56
(lp1216
g49
(g70
g51
NtRp1217
(dp1218
g54
(dp1219
g74
g75
ssg63
g1213
sg56
(lp1220
S'http_origin'
p1221
asbag49
(g70
g51
NtRp1222
(dp1223
g54
(dp1224
g81
g82
ssg63
g1213
sg56
(lp1225
S':'
asbag49
(g70
g51
NtRp1226
(dp1227
g54
(dp1228
sg63
g1213
sg56
(lp1229
g49
(g50
g51
NtRp1230
(dp1231
g54
(dp1232
g62
I4
ssg63
g1226
sg56
(lp1233
S'http://localhost:8887'
p1234
asbasbasbag49
(g65
g51
NtRp1235
(dp1236
g54
(dp1237
sg63
g790
sg56
(lp1238
g49
(g70
g51
NtRp1239
(dp1240
g54
(dp1241
g74
g75
ssg63
g1235
sg56
(lp1242
S'http_referer'
p1243
asbag49
(g70
g51
NtRp1244
(dp1245
g54
(dp1246
g81
g82
ssg63
g1235
sg56
(lp1247
S':'
asbag49
(g70
g51
NtRp1248
(dp1249
g54
(dp1250
sg63
g1235
sg56
(lp1251
g49
(g50
g51
NtRp1252
(dp1253
g54
(dp1254
g62
I4
ssg63
g1248
sg56
(lp1255
S'http://localhost:8887/hellow/game/show/1'
p1256
asbasbasbag49
(g65
g51
NtRp1257
(dp1258
g54
(dp1259
sg63
g790
sg56
(lp1260
g49
(g70
g51
NtRp1261
(dp1262
g54
(dp1263
g74
g75
ssg63
g1257
sg56
(lp1264
S'http_user_agent'
p1265
asbag49
(g70
g51
NtRp1266
(dp1267
g54
(dp1268
g81
g82
ssg63
g1257
sg56
(lp1269
S':'
asbag49
(g70
g51
NtRp1270
(dp1271
g54
(dp1272
sg63
g1257
sg56
(lp1273
g49
(g50
g51
NtRp1274
(dp1275
g54
(dp1276
g62
I4
ssg63
g1270
sg56
(lp1277
S'Mozilla/5.0 (Macintosh; Intel Mac OS X 10_8_3) AppleWebKit/537.22 (KHTML, like Gecko) Chrome/25.0.1364.172 Safari/537.22'
p1278
asbasbasbag49
(g65
g51
NtRp1279
(dp1280
g54
(dp1281
sg63
g790
sg56
(lp1282
g49
(g70
g51
NtRp1283
(dp1284
g54
(dp1285
g74
g75
ssg63
g1279
sg56
(lp1286
S'is_jython'
p1287
asbag49
(g70
g51
NtRp1288
(dp1289
g54
(dp1290
g81
g82
ssg63
g1279
sg56
(lp1291
S':'
asbag49
(g70
g51
NtRp1292
(dp1293
g54
(dp1294
sg63
g1279
sg56
(lp1295
g49
(g50
g51
NtRp1296
(dp1297
g54
(dp1298
g62
I4
ssg63
g1292
sg56
(lp1299
g92
asbasbasbag49
(g65
g51
NtRp1300
(dp1301
g54
(dp1302
sg63
g790
sg56
(lp1303
g49
(g70
g51
NtRp1304
(dp1305
g54
(dp1306
g74
g75
ssg63
g1300
sg56
(lp1307
S'is_pypy'
p1308
asbag49
(g70
g51
NtRp1309
(dp1310
g54
(dp1311
g81
g82
ssg63
g1300
sg56
(lp1312
S':'
asbag49
(g70
g51
NtRp1313
(dp1314
g54
(dp1315
sg63
g1300
sg56
(lp1316
g49
(g50
g51
NtRp1317
(dp1318
g54
(dp1319
g62
I4
ssg63
g1313
sg56
(lp1320
g92
asbasbasbag49
(g65
g51
NtRp1321
(dp1322
g54
(dp1323
sg63
g790
sg56
(lp1324
g49
(g70
g51
NtRp1325
(dp1326
g54
(dp1327
g74
g75
ssg63
g1321
sg56
(lp1328
S'local_hosts'
p1329
asbag49
(g70
g51
NtRp1330
(dp1331
g54
(dp1332
g81
g82
ssg63
g1321
sg56
(lp1333
S':'
asbag49
(g70
g51
NtRp1334
(dp1335
g54
(dp1336
sg63
g1321
sg56
(lp1337
g49
(g50
g51
NtRp1338
(dp1339
g54
(dp1340
g62
I4
ssg63
g1334
sg56
(lp1341
g49
(g58
g51
NtRp1342
(dp1343
g54
(dp1344
g62
I3
ssg63
Nsg56
(lp1345
g49
(g65
g51
NtRp1346
(dp1347
g54
(dp1348
sg63
g1342
sg56
(lp1349
g49
(g70
g51
NtRp1350
(dp1351
g54
(dp1352
sg63
g1346
sg56
(lp1353
g49
(g50
g51
NtRp1354
(dp1355
g54
(dp1356
g62
I3
ssg63
g1350
sg56
(lp1357
S'::1'
p1358
asbasbasbag49
(g65
g51
NtRp1359
(dp1360
g54
(dp1361
sg63
g1342
sg56
(lp1362
g49
(g70
g51
NtRp1363
(dp1364
g54
(dp1365
sg63
g1359
sg56
(lp1366
g49
(g50
g51
NtRp1367
(dp1368
g54
(dp1369
g62
I3
ssg63
g1363
sg56
(lp1370
S'130.91.149.119'
p1371
asbasbasbag49
(g65
g51
NtRp1372
(dp1373
g54
(dp1374
sg63
g1342
sg56
(lp1375
g49
(g70
g51
NtRp1376
(dp1377
g54
(dp1378
sg63
g1372
sg56
(lp1379
g49
(g50
g51
NtRp1380
(dp1381
g54
(dp1382
g62
I3
ssg63
g1376
sg56
(lp1383
S'::ffff:127.0.0.1'
p1384
asbasbasbag49
(g65
g51
NtRp1385
(dp1386
g54
(dp1387
sg63
g1342
sg56
(lp1388
g49
(g70
g51
NtRp1389
(dp1390
g54
(dp1391
sg63
g1385
sg56
(lp1392
g49
(g50
g51
NtRp1393
(dp1394
g54
(dp1395
g62
I3
ssg63
g1389
sg56
(lp1396
S'127.0.0.1'
p1397
asbasbasbag49
(g65
g51
NtRp1398
(dp1399
g54
(dp1400
sg63
g1342
sg56
(lp1401
g49
(g70
g51
NtRp1402
(dp1403
g54
(dp1404
sg63
g1398
sg56
(lp1405
g49
(g50
g51
NtRp1406
(dp1407
g54
(dp1408
g62
I3
ssg63
g1402
sg56
(lp1409
S'hntvlan5310374.wlan.sas.upenn.edu'
p1410
asbasbasbasbasbasbasbag49
(g65
g51
NtRp1411
(dp1412
g54
(dp1413
sg63
g790
sg56
(lp1414
g49
(g70
g51
NtRp1415
(dp1416
g54
(dp1417
g74
g75
ssg63
g1411
sg56
(lp1418
S'path_info'
p1419
asbag49
(g70
g51
NtRp1420
(dp1421
g54
(dp1422
g81
g82
ssg63
g1411
sg56
(lp1423
S':'
asbag49
(g70
g51
NtRp1424
(dp1425
g54
(dp1426
sg63
g1411
sg56
(lp1427
g49
(g50
g51
NtRp1428
(dp1429
g54
(dp1430
g62
I4
ssg63
g1424
sg56
(lp1431
S'/hellow/game/show/1'
p1432
asbasbasbag49
(g65
g51
NtRp1433
(dp1434
g54
(dp1435
sg63
g790
sg56
(lp1436
g49
(g70
g51
NtRp1437
(dp1438
g54
(dp1439
g74
g75
ssg63
g1433
sg56
(lp1440
S'query_string'
p1441
asbag49
(g70
g51
NtRp1442
(dp1443
g54
(dp1444
g81
g82
ssg63
g1433
sg56
(lp1445
S':'
asbag49
(g70
g51
NtRp1446
(dp1447
g54
(dp1448
sg63
g1433
sg56
(lp1449
g49
(g50
g51
NtRp1450
(dp1451
g54
(dp1452
g62
I4
ssg63
g1446
sg56
(lp1453
S''
asbasbasbag49
(g65
g51
NtRp1454
(dp1455
g54
(dp1456
sg63
g790
sg56
(lp1457
g49
(g70
g51
NtRp1458
(dp1459
g54
(dp1460
g74
g75
ssg63
g1454
sg56
(lp1461
S'remote_addr'
p1462
asbag49
(g70
g51
NtRp1463
(dp1464
g54
(dp1465
g81
g82
ssg63
g1454
sg56
(lp1466
S':'
asbag49
(g70
g51
NtRp1467
(dp1468
g54
(dp1469
sg63
g1454
sg56
(lp1470
g49
(g50
g51
NtRp1471
(dp1472
g54
(dp1473
g62
I4
ssg63
g1467
sg56
(lp1474
g216
asbasbasbag49
(g65
g51
NtRp1475
(dp1476
g54
(dp1477
sg63
g790
sg56
(lp1478
g49
(g70
g51
NtRp1479
(dp1480
g54
(dp1481
g74
g75
ssg63
g1475
sg56
(lp1482
S'remote_port'
p1483
asbag49
(g70
g51
NtRp1484
(dp1485
g54
(dp1486
g81
g82
ssg63
g1475
sg56
(lp1487
S':'
asbag49
(g70
g51
NtRp1488
(dp1489
g54
(dp1490
sg63
g1475
sg56
(lp1491
g49
(g50
g51
NtRp1492
(dp1493
g54
(dp1494
g62
I4
ssg63
g1488
sg56
(lp1495
S'59127'
p1496
asbasbasbag49
(g65
g51
NtRp1497
(dp1498
g54
(dp1499
sg63
g790
sg56
(lp1500
g49
(g70
g51
NtRp1501
(dp1502
g54
(dp1503
g74
g75
ssg63
g1497
sg56
(lp1504
S'request_method'
p1505
asbag49
(g70
g51
NtRp1506
(dp1507
g54
(dp1508
g81
g82
ssg63
g1497
sg56
(lp1509
S':'
asbag49
(g70
g51
NtRp1510
(dp1511
g54
(dp1512
sg63
g1497
sg56
(lp1513
g49
(g50
g51
NtRp1514
(dp1515
g54
(dp1516
g62
I4
ssg63
g1510
sg56
(lp1517
S'POST'
p1518
asbasbasbag49
(g65
g51
NtRp1519
(dp1520
g54
(dp1521
sg63
g790
sg56
(lp1522
g49
(g70
g51
NtRp1523
(dp1524
g54
(dp1525
g74
g75
ssg63
g1519
sg56
(lp1526
S'request_uri'
p1527
asbag49
(g70
g51
NtRp1528
(dp1529
g54
(dp1530
g81
g82
ssg63
g1519
sg56
(lp1531
S':'
asbag49
(g70
g51
NtRp1532
(dp1533
g54
(dp1534
sg63
g1519
sg56
(lp1535
g49
(g50
g51
NtRp1536
(dp1537
g54
(dp1538
g62
I4
ssg63
g1532
sg56
(lp1539
g1432
asbasbasbag49
(g65
g51
NtRp1540
(dp1541
g54
(dp1542
sg63
g790
sg56
(lp1543
g49
(g70
g51
NtRp1544
(dp1545
g54
(dp1546
g74
g75
ssg63
g1540
sg56
(lp1547
S'script_name'
p1548
asbag49
(g70
g51
NtRp1549
(dp1550
g54
(dp1551
g81
g82
ssg63
g1540
sg56
(lp1552
S':'
asbag49
(g70
g51
NtRp1553
(dp1554
g54
(dp1555
sg63
g1540
sg56
(lp1556
g49
(g50
g51
NtRp1557
(dp1558
g54
(dp1559
g62
I4
ssg63
g1553
sg56
(lp1560
S''
asbasbasbag49
(g65
g51
NtRp1561
(dp1562
g54
(dp1563
sg63
g790
sg56
(lp1564
g49
(g70
g51
NtRp1565
(dp1566
g54
(dp1567
g74
g75
ssg63
g1561
sg56
(lp1568
S'server_name'
p1569
asbag49
(g70
g51
NtRp1570
(dp1571
g54
(dp1572
g81
g82
ssg63
g1561
sg56
(lp1573
S':'
asbag49
(g70
g51
NtRp1574
(dp1575
g54
(dp1576
sg63
g1561
sg56
(lp1577
g49
(g50
g51
NtRp1578
(dp1579
g54
(dp1580
g62
I4
ssg63
g1574
sg56
(lp1581
S'hntvlan5310374.wlan.sas.upenn.edu'
p1582
asbasbasbag49
(g65
g51
NtRp1583
(dp1584
g54
(dp1585
sg63
g790
sg56
(lp1586
g49
(g70
g51
NtRp1587
(dp1588
g54
(dp1589
g74
g75
ssg63
g1583
sg56
(lp1590
S'server_port'
p1591
asbag49
(g70
g51
NtRp1592
(dp1593
g54
(dp1594
g81
g82
ssg63
g1583
sg56
(lp1595
S':'
asbag49
(g70
g51
NtRp1596
(dp1597
g54
(dp1598
sg63
g1583
sg56
(lp1599
g49
(g50
g51
NtRp1600
(dp1601
g54
(dp1602
g62
I4
ssg63
g1596
sg56
(lp1603
S'8887'
p1604
asbasbasbag49
(g65
g51
NtRp1605
(dp1606
g54
(dp1607
sg63
g790
sg56
(lp1608
g49
(g70
g51
NtRp1609
(dp1610
g54
(dp1611
g74
g75
ssg63
g1605
sg56
(lp1612
S'server_protocol'
p1613
asbag49
(g70
g51
NtRp1614
(dp1615
g54
(dp1616
g81
g82
ssg63
g1605
sg56
(lp1617
S':'
asbag49
(g70
g51
NtRp1618
(dp1619
g54
(dp1620
sg63
g1605
sg56
(lp1621
g49
(g50
g51
NtRp1622
(dp1623
g54
(dp1624
g62
I4
ssg63
g1618
sg56
(lp1625
S'HTTP/1.1'
p1626
asbasbasbag49
(g65
g51
NtRp1627
(dp1628
g54
(dp1629
sg63
g790
sg56
(lp1630
g49
(g70
g51
NtRp1631
(dp1632
g54
(dp1633
g74
g75
ssg63
g1627
sg56
(lp1634
S'server_software'
p1635
asbag49
(g70
g51
NtRp1636
(dp1637
g54
(dp1638
g81
g82
ssg63
g1627
sg56
(lp1639
S':'
asbag49
(g70
g51
NtRp1640
(dp1641
g54
(dp1642
sg63
g1627
sg56
(lp1643
g49
(g50
g51
NtRp1644
(dp1645
g54
(dp1646
g62
I4
ssg63
g1640
sg56
(lp1647
S'Rocket 1.2.6'
p1648
asbasbasbag49
(g65
g51
NtRp1649
(dp1650
g54
(dp1651
sg63
g790
sg56
(lp1652
g49
(g70
g51
NtRp1653
(dp1654
g54
(dp1655
g74
g75
ssg63
g1649
sg56
(lp1656
S'web2py_path'
p1657
asbag49
(g70
g51
NtRp1658
(dp1659
g54
(dp1660
g81
g82
ssg63
g1649
sg56
(lp1661
S':'
asbag49
(g70
g51
NtRp1662
(dp1663
g54
(dp1664
sg63
g1649
sg56
(lp1665
g49
(g50
g51
NtRp1666
(dp1667
g54
(dp1668
g62
I4
ssg63
g1662
sg56
(lp1669
g837
asbasbasbag49
(g65
g51
NtRp1670
(dp1671
g54
(dp1672
sg63
g790
sg56
(lp1673
g49
(g70
g51
NtRp1674
(dp1675
g54
(dp1676
g74
g75
ssg63
g1670
sg56
(lp1677
S'web2py_version'
p1678
asbag49
(g70
g51
NtRp1679
(dp1680
g54
(dp1681
g81
g82
ssg63
g1670
sg56
(lp1682
S':'
asbag49
(g70
g51
NtRp1683
(dp1684
g54
(dp1685
sg63
g1670
sg56
(lp1686
g49
(g50
g51
NtRp1687
(dp1688
g54
(dp1689
g62
I4
ssg63
g1683
sg56
(lp1690
g49
(g58
g51
NtRp1691
(dp1692
g54
(dp1693
g62
I3
ssg63
Nsg56
(lp1694
g49
(g65
g51
NtRp1695
(dp1696
g54
(dp1697
sg63
g1691
sg56
(lp1698
g49
(g70
g51
NtRp1699
(dp1700
g54
(dp1701
sg63
g1695
sg56
(lp1702
g49
(g50
g51
NtRp1703
(dp1704
g54
(dp1705
g62
I3
ssg63
g1699
sg56
(lp1706
S'2'
asbasbasbag49
(g65
g51
NtRp1707
(dp1708
g54
(dp1709
sg63
g1691
sg56
(lp1710
g49
(g70
g51
NtRp1711
(dp1712
g54
(dp1713
sg63
g1707
sg56
(lp1714
g49
(g50
g51
NtRp1715
(dp1716
g54
(dp1717
g62
I3
ssg63
g1711
sg56
(lp1718
S'4'
asbasbasbag49
(g65
g51
NtRp1719
(dp1720
g54
(dp1721
sg63
g1691
sg56
(lp1722
g49
(g70
g51
NtRp1723
(dp1724
g54
(dp1725
sg63
g1719
sg56
(lp1726
g49
(g50
g51
NtRp1727
(dp1728
g54
(dp1729
g62
I3
ssg63
g1723
sg56
(lp1730
S'5'
asbasbasbag49
(g65
g51
NtRp1731
(dp1732
g54
(dp1733
sg63
g1691
sg56
(lp1734
g49
(g70
g51
NtRp1735
(dp1736
g54
(dp1737
sg63
g1731
sg56
(lp1738
g49
(g50
g51
NtRp1739
(dp1740
g54
(dp1741
g62
I3
ssg63
g1735
sg56
(lp1742
S'stable'
p1743
asbasbasbag49
(g65
g51
NtRp1744
(dp1745
g54
(dp1746
sg63
g1691
sg56
(lp1747
g49
(g70
g51
NtRp1748
(dp1749
g54
(dp1750
sg63
g1744
sg56
(lp1751
g49
(g50
g51
NtRp1752
(dp1753
g54
(dp1754
g62
I3
ssg63
g1748
sg56
(lp1755
S'datetime.datetime(2013, 3, 18, 22, 46, 22)'
p1756
asbasbasbasbasbasbasbag49
(g65
g51
NtRp1757
(dp1758
g54
(dp1759
sg63
g790
sg56
(lp1760
g49
(g70
g51
NtRp1761
(dp1762
g54
(dp1763
g74
g75
ssg63
g1757
sg56
(lp1764
S'wsgi_errors'
p1765
asbag49
(g70
g51
NtRp1766
(dp1767
g54
(dp1768
g81
g82
ssg63
g1757
sg56
(lp1769
S':'
asbag49
(g70
g51
NtRp1770
(dp1771
g54
(dp1772
sg63
g1757
sg56
(lp1773
g49
(g50
g51
NtRp1774
(dp1775
g54
(dp1776
g62
I4
ssg63
g1770
sg56
(lp1777
S"<open file '<stderr>', mode 'w' at 0x540b0>"
p1778
asbasbasbag49
(g65
g51
NtRp1779
(dp1780
g54
(dp1781
sg63
g790
sg56
(lp1782
g49
(g70
g51
NtRp1783
(dp1784
g54
(dp1785
g74
g75
ssg63
g1779
sg56
(lp1786
S'wsgi_file_wrapper'
p1787
asbag49
(g70
g51
NtRp1788
(dp1789
g54
(dp1790
g81
g82
ssg63
g1779
sg56
(lp1791
S':'
asbag49
(g70
g51
NtRp1792
(dp1793
g54
(dp1794
sg63
g1779
sg56
(lp1795
g49
(g50
g51
NtRp1796
(dp1797
g54
(dp1798
g62
I4
ssg63
g1792
sg56
(lp1799
S'<class wsgiref.util.FileWrapper at 0x4761060>'
p1800
asbasbasbag49
(g65
g51
NtRp1801
(dp1802
g54
(dp1803
sg63
g790
sg56
(lp1804
g49
(g70
g51
NtRp1805
(dp1806
g54
(dp1807
g74
g75
ssg63
g1801
sg56
(lp1808
S'wsgi_input'
p1809
asbag49
(g70
g51
NtRp1810
(dp1811
g54
(dp1812
g81
g82
ssg63
g1801
sg56
(lp1813
S':'
asbag49
(g70
g51
NtRp1814
(dp1815
g54
(dp1816
sg63
g1801
sg56
(lp1817
g49
(g50
g51
NtRp1818
(dp1819
g54
(dp1820
g62
I4
ssg63
g1814
sg56
(lp1821
S'<socket._fileobject object at 0x3b8cfb0>'
p1822
asbasbasbag49
(g65
g51
NtRp1823
(dp1824
g54
(dp1825
sg63
g790
sg56
(lp1826
g49
(g70
g51
NtRp1827
(dp1828
g54
(dp1829
g74
g75
ssg63
g1823
sg56
(lp1830
S'wsgi_multiprocess'
p1831
asbag49
(g70
g51
NtRp1832
(dp1833
g54
(dp1834
g81
g82
ssg63
g1823
sg56
(lp1835
S':'
asbag49
(g70
g51
NtRp1836
(dp1837
g54
(dp1838
sg63
g1823
sg56
(lp1839
g49
(g50
g51
NtRp1840
(dp1841
g54
(dp1842
g62
I4
ssg63
g1836
sg56
(lp1843
g92
asbasbasbag49
(g65
g51
NtRp1844
(dp1845
g54
(dp1846
sg63
g790
sg56
(lp1847
g49
(g70
g51
NtRp1848
(dp1849
g54
(dp1850
g74
g75
ssg63
g1844
sg56
(lp1851
S'wsgi_multithread'
p1852
asbag49
(g70
g51
NtRp1853
(dp1854
g54
(dp1855
g81
g82
ssg63
g1844
sg56
(lp1856
S':'
asbag49
(g70
g51
NtRp1857
(dp1858
g54
(dp1859
sg63
g1844
sg56
(lp1860
g49
(g50
g51
NtRp1861
(dp1862
g54
(dp1863
g62
I4
ssg63
g1857
sg56
(lp1864
g972
asbasbasbag49
(g65
g51
NtRp1865
(dp1866
g54
(dp1867
sg63
g790
sg56
(lp1868
g49
(g70
g51
NtRp1869
(dp1870
g54
(dp1871
g74
g75
ssg63
g1865
sg56
(lp1872
S'wsgi_run_once'
p1873
asbag49
(g70
g51
NtRp1874
(dp1875
g54
(dp1876
g81
g82
ssg63
g1865
sg56
(lp1877
S':'
asbag49
(g70
g51
NtRp1878
(dp1879
g54
(dp1880
sg63
g1865
sg56
(lp1881
g49
(g50
g51
NtRp1882
(dp1883
g54
(dp1884
g62
I4
ssg63
g1878
sg56
(lp1885
g92
asbasbasbag49
(g65
g51
NtRp1886
(dp1887
g54
(dp1888
sg63
g790
sg56
(lp1889
g49
(g70
g51
NtRp1890
(dp1891
g54
(dp1892
g74
g75
ssg63
g1886
sg56
(lp1893
S'wsgi_url_scheme'
p1894
asbag49
(g70
g51
NtRp1895
(dp1896
g54
(dp1897
g81
g82
ssg63
g1886
sg56
(lp1898
S':'
asbag49
(g70
g51
NtRp1899
(dp1900
g54
(dp1901
sg63
g1886
sg56
(lp1902
g49
(g50
g51
NtRp1903
(dp1904
g54
(dp1905
g62
I4
ssg63
g1899
sg56
(lp1906
S'http'
p1907
asbasbasbag49
(g65
g51
NtRp1908
(dp1909
g54
(dp1910
sg63
g790
sg56
(lp1911
g49
(g70
g51
NtRp1912
(dp1913
g54
(dp1914
g74
g75
ssg63
g1908
sg56
(lp1915
S'wsgi_version'
p1916
asbag49
(g70
g51
NtRp1917
(dp1918
g54
(dp1919
g81
g82
ssg63
g1908
sg56
(lp1920
S':'
asbag49
(g70
g51
NtRp1921
(dp1922
g54
(dp1923
sg63
g1908
sg56
(lp1924
g49
(g50
g51
NtRp1925
(dp1926
g54
(dp1927
g62
I4
ssg63
g1921
sg56
(lp1928
g49
(g58
g51
NtRp1929
(dp1930
g54
(dp1931
g62
I3
ssg63
Nsg56
(lp1932
g49
(g65
g51
NtRp1933
(dp1934
g54
(dp1935
sg63
g1929
sg56
(lp1936
g49
(g70
g51
NtRp1937
(dp1938
g54
(dp1939
sg63
g1933
sg56
(lp1940
g49
(g50
g51
NtRp1941
(dp1942
g54
(dp1943
g62
I3
ssg63
g1937
sg56
(lp1944
S'1'
asbasbasbag49
(g65
g51
NtRp1945
(dp1946
g54
(dp1947
sg63
g1929
sg56
(lp1948
g49
(g70
g51
NtRp1949
(dp1950
g54
(dp1951
sg63
g1945
sg56
(lp1952
g49
(g50
g51
NtRp1953
(dp1954
g54
(dp1955
g62
I3
ssg63
g1949
sg56
(lp1956
S'0'
asbasbasbasbasbasbasbasbasbasbasbag49
(g65
g51
NtRp1957
(dp1958
g54
(dp1959
sg63
g59
sg56
(lp1960
g49
(g70
g51
NtRp1961
(dp1962
g54
(dp1963
g74
g75
ssg63
g1957
sg56
(lp1964
S'extension'
p1965
asbag49
(g70
g51
NtRp1966
(dp1967
g54
(dp1968
g81
g82
ssg63
g1957
sg56
(lp1969
S':'
asbag49
(g70
g51
NtRp1970
(dp1971
g54
(dp1972
sg63
g1957
sg56
(lp1973
g49
(g50
g51
NtRp1974
(dp1975
g54
(dp1976
g62
I5
ssg63
g1970
sg56
(lp1977
S'html'
p1978
asbasbasbag49
(g65
g51
NtRp1979
(dp1980
g54
(dp1981
sg63
g59
sg56
(lp1982
g49
(g70
g51
NtRp1983
(dp1984
g54
(dp1985
g74
g75
ssg63
g1979
sg56
(lp1986
S'folder'
p1987
asbag49
(g70
g51
NtRp1988
(dp1989
g54
(dp1990
g81
g82
ssg63
g1979
sg56
(lp1991
S':'
asbag49
(g70
g51
NtRp1992
(dp1993
g54
(dp1994
sg63
g1979
sg56
(lp1995
g49
(g50
g51
NtRp1996
(dp1997
g54
(dp1998
g62
I5
ssg63
g1992
sg56
(lp1999
S'/Users/zamechek/Downloads/web2py/web2py.app/Contents/Resources/applications/hellow/'
p2000
asbasbasbag49
(g65
g51
NtRp2001
(dp2002
g54
(dp2003
sg63
g59
sg56
(lp2004
g49
(g70
g51
NtRp2005
(dp2006
g54
(dp2007
g74
g75
ssg63
g2001
sg56
(lp2008
S'function'
p2009
asbag49
(g70
g51
NtRp2010
(dp2011
g54
(dp2012
g81
g82
ssg63
g2001
sg56
(lp2013
S':'
asbag49
(g70
g51
NtRp2014
(dp2015
g54
(dp2016
sg63
g2001
sg56
(lp2017
g49
(g50
g51
NtRp2018
(dp2019
g54
(dp2020
g62
I5
ssg63
g2014
sg56
(lp2021
S'show'
p2022
asbasbasbag49
(g65
g51
NtRp2023
(dp2024
g54
(dp2025
sg63
g59
sg56
(lp2026
g49
(g70
g51
NtRp2027
(dp2028
g54
(dp2029
g74
g75
ssg63
g2023
sg56
(lp2030
S'get_vars'
p2031
asbag49
(g70
g51
NtRp2032
(dp2033
g54
(dp2034
g81
g82
ssg63
g2023
sg56
(lp2035
S':'
asbag49
(g70
g51
NtRp2036
(dp2037
g54
(dp2038
sg63
g2023
sg56
(lp2039
g49
(g50
g51
NtRp2040
(dp2041
g54
(dp2042
g62
I5
ssg63
g2036
sg56
(lp2043
g49
(g58
g51
NtRp2044
(dp2045
g54
(dp2046
g62
I4
ssg63
Nsg56
(lp2047
sbasbasbasbag49
(g65
g51
NtRp2048
(dp2049
g54
(dp2050
sg63
g59
sg56
(lp2051
g49
(g70
g51
NtRp2052
(dp2053
g54
(dp2054
g74
g75
ssg63
g2048
sg56
(lp2055
S'global_settings'
p2056
asbag49
(g70
g51
NtRp2057
(dp2058
g54
(dp2059
g81
g82
ssg63
g2048
sg56
(lp2060
S':'
asbag49
(g70
g51
NtRp2061
(dp2062
g54
(dp2063
sg63
g2048
sg56
(lp2064
g49
(g50
g51
NtRp2065
(dp2066
g54
(dp2067
g62
I5
ssg63
g2061
sg56
(lp2068
g49
(g58
g51
NtRp2069
(dp2070
g54
(dp2071
g62
I4
ssg63
Nsg56
(lp2072
g49
(g65
g51
NtRp2073
(dp2074
g54
(dp2075
sg63
g2069
sg56
(lp2076
g49
(g70
g51
NtRp2077
(dp2078
g54
(dp2079
g74
g75
ssg63
g2073
sg56
(lp2080
g802
asbag49
(g70
g51
NtRp2081
(dp2082
g54
(dp2083
g81
g82
ssg63
g2073
sg56
(lp2084
S':'
asbag49
(g70
g51
NtRp2085
(dp2086
g54
(dp2087
sg63
g2073
sg56
(lp2088
g49
(g50
g51
NtRp2089
(dp2090
g54
(dp2091
g62
I4
ssg63
g2085
sg56
(lp2092
S"set(['/Users/zamechek/Downloads/web2py/web2py.app/Contents/Resources/applications/hellow/', '/Users/zamechek/Downloads/web2py/web2py.app/Contents/Resources/applications/admin/', '/Users/zamechek/Downloads/web2py/web2py.app/Contents/Resources/applications/welcome/'])"
p2093
asbasbasbag49
(g65
g51
NtRp2094
(dp2095
g54
(dp2096
sg63
g2069
sg56
(lp2097
g49
(g70
g51
NtRp2098
(dp2099
g54
(dp2100
g74
g75
ssg63
g2094
sg56
(lp2101
g824
asbag49
(g70
g51
NtRp2102
(dp2103
g54
(dp2104
g81
g82
ssg63
g2094
sg56
(lp2105
S':'
asbag49
(g70
g51
NtRp2106
(dp2107
g54
(dp2108
sg63
g2094
sg56
(lp2109
g49
(g50
g51
NtRp2110
(dp2111
g54
(dp2112
g62
I4
ssg63
g2106
sg56
(lp2113
g837
asbasbasbag49
(g65
g51
NtRp2114
(dp2115
g54
(dp2116
sg63
g2069
sg56
(lp2117
g49
(g70
g51
NtRp2118
(dp2119
g54
(dp2120
g74
g75
ssg63
g2114
sg56
(lp2121
g846
asbag49
(g70
g51
NtRp2122
(dp2123
g54
(dp2124
g81
g82
ssg63
g2114
sg56
(lp2125
S':'
asbag49
(g70
g51
NtRp2126
(dp2127
g54
(dp2128
sg63
g2114
sg56
(lp2129
g49
(g50
g51
NtRp2130
(dp2131
g54
(dp2132
g62
I4
ssg63
g2126
sg56
(lp2133
g49
(g58
g51
NtRp2134
(dp2135
g54
(dp2136
g62
I3
ssg63
Nsg56
(lp2137
sbasbasbasbag49
(g65
g51
NtRp2138
(dp2139
g54
(dp2140
sg63
g2069
sg56
(lp2141
g49
(g70
g51
NtRp2142
(dp2143
g54
(dp2144
g74
g75
ssg63
g2138
sg56
(lp2145
g871
asbag49
(g70
g51
NtRp2146
(dp2147
g54
(dp2148
g81
g82
ssg63
g2138
sg56
(lp2149
S':'
asbag49
(g70
g51
NtRp2150
(dp2151
g54
(dp2152
sg63
g2138
sg56
(lp2153
g49
(g50
g51
NtRp2154
(dp2155
g54
(dp2156
g62
I4
ssg63
g2150
sg56
(lp2157
S"<Values at 0x478bf58: {'verbose': False, 'ip': '127.0.0.1', 'with_scheduler': False, 'ips': ['130.91.149.119'], 'shutdown_timeout': 5, 'taskbar': False, 'port': 8000, 'maxthreads': None, 'softcron': False, 'server_name': 'hntvlan5310374.wlan.sas.upenn.edu', 'bpython': False, 'nogui': False, 'pid_filename': 'httpserver.pid', 'extcron': False, 'runcron': False, 'run_system_tests': False, 'test': None, 'folder': '/Users/zamechek/Downloads/web2py/web2py.app/Contents/Resources', 'config': '', 'import_models': False, 'winservice': '', 'shell': None, 'run': '', 'log_filename': 'httpserver.log', 'debuglevel': 30, 'args': [''], 'socket_timeout': 5, 'ssl_ca_certificate': None, 'scheduler': None, 'profiler_filename': None, 'ssl_private_key': '', 'scheduler_groups': None, 'password': '<ask>', 'request_queue_size': 5, 'ssl_certificate': '', 'cronjob': False, 'numthreads': None, 'quiet': False, 'interfaces': None, 'minthreads': None, 'timeout': 10, 'plain': False, 'nobanner': False}>"
p2158
asbasbasbag49
(g65
g51
NtRp2159
(dp2160
g54
(dp2161
sg63
g2069
sg56
(lp2162
g49
(g70
g51
NtRp2163
(dp2164
g54
(dp2165
g74
g75
ssg63
g2159
sg56
(lp2166
g937
asbag49
(g70
g51
NtRp2167
(dp2168
g54
(dp2169
g81
g82
ssg63
g2159
sg56
(lp2170
S':'
asbag49
(g70
g51
NtRp2171
(dp2172
g54
(dp2173
sg63
g2159
sg56
(lp2174
g49
(g50
g51
NtRp2175
(dp2176
g54
(dp2177
g62
I4
ssg63
g2171
sg56
(lp2178
S'set([])'
p2179
asbasbasbag49
(g65
g51
NtRp2180
(dp2181
g54
(dp2182
sg63
g2069
sg56
(lp2183
g49
(g70
g51
NtRp2184
(dp2185
g54
(dp2186
g74
g75
ssg63
g2180
sg56
(lp2187
g959
asbag49
(g70
g51
NtRp2188
(dp2189
g54
(dp2190
g81
g82
ssg63
g2180
sg56
(lp2191
S':'
asbag49
(g70
g51
NtRp2192
(dp2193
g54
(dp2194
sg63
g2180
sg56
(lp2195
g49
(g50
g51
NtRp2196
(dp2197
g54
(dp2198
g62
I4
ssg63
g2192
sg56
(lp2199
g972
asbasbasbag49
(g65
g51
NtRp2200
(dp2201
g54
(dp2202
sg63
g2069
sg56
(lp2203
g49
(g70
g51
NtRp2204
(dp2205
g54
(dp2206
g74
g75
ssg63
g2200
sg56
(lp2207
g981
asbag49
(g70
g51
NtRp2208
(dp2209
g54
(dp2210
g81
g82
ssg63
g2200
sg56
(lp2211
S':'
asbag49
(g70
g51
NtRp2212
(dp2213
g54
(dp2214
sg63
g2200
sg56
(lp2215
g49
(g50
g51
NtRp2216
(dp2217
g54
(dp2218
g62
I4
ssg63
g2212
sg56
(lp2219
g994
asbasbasbag49
(g65
g51
NtRp2220
(dp2221
g54
(dp2222
sg63
g2069
sg56
(lp2223
g49
(g70
g51
NtRp2224
(dp2225
g54
(dp2226
g74
g75
ssg63
g2220
sg56
(lp2227
g1287
asbag49
(g70
g51
NtRp2228
(dp2229
g54
(dp2230
g81
g82
ssg63
g2220
sg56
(lp2231
S':'
asbag49
(g70
g51
NtRp2232
(dp2233
g54
(dp2234
sg63
g2220
sg56
(lp2235
g49
(g50
g51
NtRp2236
(dp2237
g54
(dp2238
g62
I4
ssg63
g2232
sg56
(lp2239
g92
asbasbasbag49
(g65
g51
NtRp2240
(dp2241
g54
(dp2242
sg63
g2069
sg56
(lp2243
g49
(g70
g51
NtRp2244
(dp2245
g54
(dp2246
g74
g75
ssg63
g2240
sg56
(lp2247
g1308
asbag49
(g70
g51
NtRp2248
(dp2249
g54
(dp2250
g81
g82
ssg63
g2240
sg56
(lp2251
S':'
asbag49
(g70
g51
NtRp2252
(dp2253
g54
(dp2254
sg63
g2240
sg56
(lp2255
g49
(g50
g51
NtRp2256
(dp2257
g54
(dp2258
g62
I4
ssg63
g2252
sg56
(lp2259
g92
asbasbasbag49
(g65
g51
NtRp2260
(dp2261
g54
(dp2262
sg63
g2069
sg56
(lp2263
g49
(g70
g51
NtRp2264
(dp2265
g54
(dp2266
g74
g75
ssg63
g2260
sg56
(lp2267
g1329
asbag49
(g70
g51
NtRp2268
(dp2269
g54
(dp2270
g81
g82
ssg63
g2260
sg56
(lp2271
S':'
asbag49
(g70
g51
NtRp2272
(dp2273
g54
(dp2274
sg63
g2260
sg56
(lp2275
g49
(g50
g51
NtRp2276
(dp2277
g54
(dp2278
g62
I4
ssg63
g2272
sg56
(lp2279
g49
(g58
g51
NtRp2280
(dp2281
g54
(dp2282
g62
I3
ssg63
Nsg56
(lp2283
g49
(g65
g51
NtRp2284
(dp2285
g54
(dp2286
sg63
g2280
sg56
(lp2287
g49
(g70
g51
NtRp2288
(dp2289
g54
(dp2290
sg63
g2284
sg56
(lp2291
g49
(g50
g51
NtRp2292
(dp2293
g54
(dp2294
g62
I3
ssg63
g2288
sg56
(lp2295
g1358
asbasbasbag49
(g65
g51
NtRp2296
(dp2297
g54
(dp2298
sg63
g2280
sg56
(lp2299
g49
(g70
g51
NtRp2300
(dp2301
g54
(dp2302
sg63
g2296
sg56
(lp2303
g49
(g50
g51
NtRp2304
(dp2305
g54
(dp2306
g62
I3
ssg63
g2300
sg56
(lp2307
g1371
asbasbasbag49
(g65
g51
NtRp2308
(dp2309
g54
(dp2310
sg63
g2280
sg56
(lp2311
g49
(g70
g51
NtRp2312
(dp2313
g54
(dp2314
sg63
g2308
sg56
(lp2315
g49
(g50
g51
NtRp2316
(dp2317
g54
(dp2318
g62
I3
ssg63
g2312
sg56
(lp2319
g1384
asbasbasbag49
(g65
g51
NtRp2320
(dp2321
g54
(dp2322
sg63
g2280
sg56
(lp2323
g49
(g70
g51
NtRp2324
(dp2325
g54
(dp2326
sg63
g2320
sg56
(lp2327
g49
(g50
g51
NtRp2328
(dp2329
g54
(dp2330
g62
I3
ssg63
g2324
sg56
(lp2331
g1397
asbasbasbag49
(g65
g51
NtRp2332
(dp2333
g54
(dp2334
sg63
g2280
sg56
(lp2335
g49
(g70
g51
NtRp2336
(dp2337
g54
(dp2338
sg63
g2332
sg56
(lp2339
g49
(g50
g51
NtRp2340
(dp2341
g54
(dp2342
g62
I3
ssg63
g2336
sg56
(lp2343
g1410
asbasbasbasbasbasbasbag49
(g65
g51
NtRp2344
(dp2345
g54
(dp2346
sg63
g2069
sg56
(lp2347
g49
(g70
g51
NtRp2348
(dp2349
g54
(dp2350
g74
g75
ssg63
g2344
sg56
(lp2351
g1678
asbag49
(g70
g51
NtRp2352
(dp2353
g54
(dp2354
g81
g82
ssg63
g2344
sg56
(lp2355
S':'
asbag49
(g70
g51
NtRp2356
(dp2357
g54
(dp2358
sg63
g2344
sg56
(lp2359
g49
(g50
g51
NtRp2360
(dp2361
g54
(dp2362
g62
I4
ssg63
g2356
sg56
(lp2363
g49
(g58
g51
NtRp2364
(dp2365
g54
(dp2366
g62
I3
ssg63
Nsg56
(lp2367
g49
(g65
g51
NtRp2368
(dp2369
g54
(dp2370
sg63
g2364
sg56
(lp2371
g49
(g70
g51
NtRp2372
(dp2373
g54
(dp2374
sg63
g2368
sg56
(lp2375
g49
(g50
g51
NtRp2376
(dp2377
g54
(dp2378
g62
I3
ssg63
g2372
sg56
(lp2379
S'2'
asbasbasbag49
(g65
g51
NtRp2380
(dp2381
g54
(dp2382
sg63
g2364
sg56
(lp2383
g49
(g70
g51
NtRp2384
(dp2385
g54
(dp2386
sg63
g2380
sg56
(lp2387
g49
(g50
g51
NtRp2388
(dp2389
g54
(dp2390
g62
I3
ssg63
g2384
sg56
(lp2391
S'4'
asbasbasbag49
(g65
g51
NtRp2392
(dp2393
g54
(dp2394
sg63
g2364
sg56
(lp2395
g49
(g70
g51
NtRp2396
(dp2397
g54
(dp2398
sg63
g2392
sg56
(lp2399
g49
(g50
g51
NtRp2400
(dp2401
g54
(dp2402
g62
I3
ssg63
g2396
sg56
(lp2403
S'5'
asbasbasbag49
(g65
g51
NtRp2404
(dp2405
g54
(dp2406
sg63
g2364
sg56
(lp2407
g49
(g70
g51
NtRp2408
(dp2409
g54
(dp2410
sg63
g2404
sg56
(lp2411
g49
(g50
g51
NtRp2412
(dp2413
g54
(dp2414
g62
I3
ssg63
g2408
sg56
(lp2415
g1743
asbasbasbag49
(g65
g51
NtRp2416
(dp2417
g54
(dp2418
sg63
g2364
sg56
(lp2419
g49
(g70
g51
NtRp2420
(dp2421
g54
(dp2422
sg63
g2416
sg56
(lp2423
g49
(g50
g51
NtRp2424
(dp2425
g54
(dp2426
g62
I3
ssg63
g2420
sg56
(lp2427
S'datetime.datetime(2013, 3, 18, 22, 46, 22)'
p2428
asbasbasbasbasbasbasbasbasbasbasbag49
(g65
g51
NtRp2429
(dp2430
g54
(dp2431
sg63
g59
sg56
(lp2432
g49
(g70
g51
NtRp2433
(dp2434
g54
(dp2435
g74
g75
ssg63
g2429
sg56
(lp2436
S'is_https'
p2437
asbag49
(g70
g51
NtRp2438
(dp2439
g54
(dp2440
g81
g82
ssg63
g2429
sg56
(lp2441
S':'
asbag49
(g70
g51
NtRp2442
(dp2443
g54
(dp2444
sg63
g2429
sg56
(lp2445
g49
(g50
g51
NtRp2446
(dp2447
g54
(dp2448
g62
I5
ssg63
g2442
sg56
(lp2449
g92
asbasbasbag49
(g65
g51
NtRp2450
(dp2451
g54
(dp2452
sg63
g59
sg56
(lp2453
g49
(g70
g51
NtRp2454
(dp2455
g54
(dp2456
g74
g75
ssg63
g2450
sg56
(lp2457
S'is_local'
p2458
asbag49
(g70
g51
NtRp2459
(dp2460
g54
(dp2461
g81
g82
ssg63
g2450
sg56
(lp2462
S':'
asbag49
(g70
g51
NtRp2463
(dp2464
g54
(dp2465
sg63
g2450
sg56
(lp2466
g49
(g50
g51
NtRp2467
(dp2468
g54
(dp2469
g62
I5
ssg63
g2463
sg56
(lp2470
g972
asbasbasbag49
(g65
g51
NtRp2471
(dp2472
g54
(dp2473
sg63
g59
sg56
(lp2474
g49
(g70
g51
NtRp2475
(dp2476
g54
(dp2477
g74
g75
ssg63
g2471
sg56
(lp2478
S'is_restful'
p2479
asbag49
(g70
g51
NtRp2480
(dp2481
g54
(dp2482
g81
g82
ssg63
g2471
sg56
(lp2483
S':'
asbag49
(g70
g51
NtRp2484
(dp2485
g54
(dp2486
sg63
g2471
sg56
(lp2487
g49
(g50
g51
NtRp2488
(dp2489
g54
(dp2490
g62
I5
ssg63
g2484
sg56
(lp2491
g92
asbasbasbag49
(g65
g51
NtRp2492
(dp2493
g54
(dp2494
sg63
g59
sg56
(lp2495
g49
(g70
g51
NtRp2496
(dp2497
g54
(dp2498
g74
g75
ssg63
g2492
sg56
(lp2499
S'now'
p2500
asbag49
(g70
g51
NtRp2501
(dp2502
g54
(dp2503
g81
g82
ssg63
g2492
sg56
(lp2504
S':'
asbag49
(g70
g51
NtRp2505
(dp2506
g54
(dp2507
sg63
g2492
sg56
(lp2508
g49
(g50
g51
NtRp2509
(dp2510
g54
(dp2511
g62
I5
ssg63
g2505
sg56
(lp2512
S'datetime.datetime(2013, 3, 27, 16, 4, 23, 258140)'
p2513
asbasbasbag49
(g65
g51
NtRp2514
(dp2515
g54
(dp2516
sg63
g59
sg56
(lp2517
g49
(g70
g51
NtRp2518
(dp2519
g54
(dp2520
g74
g75
ssg63
g2514
sg56
(lp2521
S'post_vars'
p2522
asbag49
(g70
g51
NtRp2523
(dp2524
g54
(dp2525
g81
g82
ssg63
g2514
sg56
(lp2526
S':'
asbag49
(g70
g51
NtRp2527
(dp2528
g54
(dp2529
sg63
g2514
sg56
(lp2530
g49
(g50
g51
NtRp2531
(dp2532
g54
(dp2533
g62
I5
ssg63
g2527
sg56
(lp2534
g49
(g58
g51
NtRp2535
(dp2536
g54
(dp2537
g62
I4
ssg63
Nsg56
(lp2538
g49
(g65
g51
NtRp2539
(dp2540
g54
(dp2541
sg63
g2535
sg56
(lp2542
g49
(g70
g51
NtRp2543
(dp2544
g54
(dp2545
g74
g75
ssg63
g2539
sg56
(lp2546
S'bet'
p2547
asbag49
(g70
g51
NtRp2548
(dp2549
g54
(dp2550
g81
g82
ssg63
g2539
sg56
(lp2551
S':'
asbag49
(g70
g51
NtRp2552
(dp2553
g54
(dp2554
sg63
g2539
sg56
(lp2555
g49
(g50
g51
NtRp2556
(dp2557
g54
(dp2558
g62
I4
ssg63
g2552
sg56
(lp2559
S'33'
p2560
asbasbasbag49
(g65
g51
NtRp2561
(dp2562
g54
(dp2563
sg63
g2535
sg56
(lp2564
g49
(g70
g51
NtRp2565
(dp2566
g54
(dp2567
g74
g75
ssg63
g2561
sg56
(lp2568
S'slot'
p2569
asbag49
(g70
g51
NtRp2570
(dp2571
g54
(dp2572
g81
g82
ssg63
g2561
sg56
(lp2573
S':'
asbag49
(g70
g51
NtRp2574
(dp2575
g54
(dp2576
sg63
g2561
sg56
(lp2577
g49
(g50
g51
NtRp2578
(dp2579
g54
(dp2580
g62
I4
ssg63
g2574
sg56
(lp2581
S"<Row {'odds': 9, 'id': 9}>"
p2582
asbasbasbasbasbasbasbag49
(g65
g51
NtRp2583
(dp2584
g54
(dp2585
sg63
g59
sg56
(lp2586
g49
(g70
g51
NtRp2587
(dp2588
g54
(dp2589
g74
g75
ssg63
g2583
sg56
(lp2590
S'raw_args'
p2591
asbag49
(g70
g51
NtRp2592
(dp2593
g54
(dp2594
g81
g82
ssg63
g2583
sg56
(lp2595
S':'
asbag49
(g70
g51
NtRp2596
(dp2597
g54
(dp2598
sg63
g2583
sg56
(lp2599
g49
(g50
g51
NtRp2600
(dp2601
g54
(dp2602
g62
I5
ssg63
g2596
sg56
(lp2603
S'1'
asbasbasbag49
(g65
g51
NtRp2604
(dp2605
g54
(dp2606
sg63
g59
sg56
(lp2607
g49
(g70
g51
NtRp2608
(dp2609
g54
(dp2610
g74
g75
ssg63
g2604
sg56
(lp2611
S'raw_extension'
p2612
asbag49
(g70
g51
NtRp2613
(dp2614
g54
(dp2615
g81
g82
ssg63
g2604
sg56
(lp2616
S':'
asbag49
(g70
g51
NtRp2617
(dp2618
g54
(dp2619
sg63
g2604
sg56
(lp2620
g49
(g50
g51
NtRp2621
(dp2622
g54
(dp2623
g62
I5
ssg63
g2617
sg56
(lp2624
S'None'
p2625
asbasbasbag49
(g65
g51
NtRp2626
(dp2627
g54
(dp2628
sg63
g59
sg56
(lp2629
g49
(g70
g51
NtRp2630
(dp2631
g54
(dp2632
g74
g75
ssg63
g2626
sg56
(lp2633
S'url'
p2634
asbag49
(g70
g51
NtRp2635
(dp2636
g54
(dp2637
g81
g82
ssg63
g2626
sg56
(lp2638
S':'
asbag49
(g70
g51
NtRp2639
(dp2640
g54
(dp2641
sg63
g2626
sg56
(lp2642
g49
(g50
g51
NtRp2643
(dp2644
g54
(dp2645
g62
I5
ssg63
g2639
sg56
(lp2646
g1432
asbasbasbag49
(g65
g51
NtRp2647
(dp2648
g54
(dp2649
sg63
g59
sg56
(lp2650
g49
(g70
g51
NtRp2651
(dp2652
g54
(dp2653
g74
g75
ssg63
g2647
sg56
(lp2654
S'utcnow'
p2655
asbag49
(g70
g51
NtRp2656
(dp2657
g54
(dp2658
g81
g82
ssg63
g2647
sg56
(lp2659
S':'
asbag49
(g70
g51
NtRp2660
(dp2661
g54
(dp2662
sg63
g2647
sg56
(lp2663
g49
(g50
g51
NtRp2664
(dp2665
g54
(dp2666
g62
I5
ssg63
g2660
sg56
(lp2667
S'datetime.datetime(2013, 3, 27, 20, 4, 23, 258151)'
p2668
asbasbasbag49
(g65
g51
NtRp2669
(dp2670
g54
(dp2671
sg63
g59
sg56
(lp2672
g49
(g70
g51
NtRp2673
(dp2674
g54
(dp2675
g74
g75
ssg63
g2669
sg56
(lp2676
S'uuid'
p2677
asbag49
(g70
g51
NtRp2678
(dp2679
g54
(dp2680
g81
g82
ssg63
g2669
sg56
(lp2681
S':'
asbag49
(g70
g51
NtRp2682
(dp2683
g54
(dp2684
sg63
g2669
sg56
(lp2685
g49
(g50
g51
NtRp2686
(dp2687
g54
(dp2688
g62
I5
ssg63
g2682
sg56
(lp2689
S'hellow/127.0.0.1.2013-03-27.16-04-23.27e1434f-5e67-4a07-9930-79511c917fb3'
p2690
asbasbasbag49
(g65
g51
NtRp2691
(dp2692
g54
(dp2693
sg63
g59
sg56
(lp2694
g49
(g70
g51
NtRp2695
(dp2696
g54
(dp2697
g74
g75
ssg63
g2691
sg56
(lp2698
S'vars'
p2699
asbag49
(g70
g51
NtRp2700
(dp2701
g54
(dp2702
g81
g82
ssg63
g2691
sg56
(lp2703
S':'
asbag49
(g70
g51
NtRp2704
(dp2705
g54
(dp2706
sg63
g2691
sg56
(lp2707
g49
(g50
g51
NtRp2708
(dp2709
g54
(dp2710
g62
I5
ssg63
g2704
sg56
(lp2711
g49
(g58
g51
NtRp2712
(dp2713
g54
(dp2714
g62
I4
ssg63
Nsg56
(lp2715
g49
(g65
g51
NtRp2716
(dp2717
g54
(dp2718
sg63
g2712
sg56
(lp2719
g49
(g70
g51
NtRp2720
(dp2721
g54
(dp2722
g74
g75
ssg63
g2716
sg56
(lp2723
g2547
asbag49
(g70
g51
NtRp2724
(dp2725
g54
(dp2726
g81
g82
ssg63
g2716
sg56
(lp2727
S':'
asbag49
(g70
g51
NtRp2728
(dp2729
g54
(dp2730
sg63
g2716
sg56
(lp2731
g49
(g50
g51
NtRp2732
(dp2733
g54
(dp2734
g62
I4
ssg63
g2728
sg56
(lp2735
g2560
asbasbasbag49
(g65
g51
NtRp2736
(dp2737
g54
(dp2738
sg63
g2712
sg56
(lp2739
g49
(g70
g51
NtRp2740
(dp2741
g54
(dp2742
g74
g75
ssg63
g2736
sg56
(lp2743
g2569
asbag49
(g70
g51
NtRp2744
(dp2745
g54
(dp2746
g81
g82
ssg63
g2736
sg56
(lp2747
S':'
asbag49
(g70
g51
NtRp2748
(dp2749
g54
(dp2750
sg63
g2736
sg56
(lp2751
g49
(g50
g51
NtRp2752
(dp2753
g54
(dp2754
g62
I4
ssg63
g2748
sg56
(lp2755
g2582
asbasbasbasbasbasbasbag49
(g65
g51
NtRp2756
(dp2757
g54
(dp2758
sg63
g59
sg56
(lp2759
g49
(g70
g51
NtRp2760
(dp2761
g54
(dp2762
g74
g75
ssg63
g2756
sg56
(lp2763
S'wsgi'
p2764
asbag49
(g70
g51
NtRp2765
(dp2766
g54
(dp2767
g81
g82
ssg63
g2756
sg56
(lp2768
S':'
asbag49
(g70
g51
NtRp2769
(dp2770
g54
(dp2771
sg63
g2756
sg56
(lp2772
g49
(g50
g51
NtRp2773
(dp2774
g54
(dp2775
g62
I5
ssg63
g2769
sg56
(lp2776
g49
(g58
g51
NtRp2777
(dp2778
g54
(dp2779
g62
I4
ssg63
Nsg56
(lp2780
g49
(g65
g51
NtRp2781
(dp2782
g54
(dp2783
sg63
g2777
sg56
(lp2784
g49
(g70
g51
NtRp2785
(dp2786
g54
(dp2787
g74
g75
ssg63
g2781
sg56
(lp2788
S'environ'
p2789
asbag49
(g70
g51
NtRp2790
(dp2791
g54
(dp2792
g81
g82
ssg63
g2781
sg56
(lp2793
S':'
asbag49
(g70
g51
NtRp2794
(dp2795
g54
(dp2796
sg63
g2781
sg56
(lp2797
g49
(g50
g51
NtRp2798
(dp2799
g54
(dp2800
g62
I4
ssg63
g2794
sg56
(lp2801
g49
(g58
g51
NtRp2802
(dp2803
g54
(dp2804
g62
I3
ssg63
Nsg56
(lp2805
g49
(g65
g51
NtRp2806
(dp2807
g54
(dp2808
sg63
g2802
sg56
(lp2809
g49
(g70
g51
NtRp2810
(dp2811
g54
(dp2812
g74
g75
ssg63
g2806
sg56
(lp2813
S'CONTENT_LENGTH'
p2814
asbag49
(g70
g51
NtRp2815
(dp2816
g54
(dp2817
g81
g82
ssg63
g2806
sg56
(lp2818
S':'
asbag49
(g70
g51
NtRp2819
(dp2820
g54
(dp2821
sg63
g2806
sg56
(lp2822
g49
(g50
g51
NtRp2823
(dp2824
g54
(dp2825
g62
I3
ssg63
g2819
sg56
(lp2826
g906
asbasbasbag49
(g65
g51
NtRp2827
(dp2828
g54
(dp2829
sg63
g2802
sg56
(lp2830
g49
(g70
g51
NtRp2831
(dp2832
g54
(dp2833
g74
g75
ssg63
g2827
sg56
(lp2834
S'CONTENT_TYPE'
p2835
asbag49
(g70
g51
NtRp2836
(dp2837
g54
(dp2838
g81
g82
ssg63
g2827
sg56
(lp2839
S':'
asbag49
(g70
g51
NtRp2840
(dp2841
g54
(dp2842
sg63
g2827
sg56
(lp2843
g49
(g50
g51
NtRp2844
(dp2845
g54
(dp2846
g62
I3
ssg63
g2840
sg56
(lp2847
g928
asbasbasbag49
(g65
g51
NtRp2848
(dp2849
g54
(dp2850
sg63
g2802
sg56
(lp2851
g49
(g70
g51
NtRp2852
(dp2853
g54
(dp2854
g74
g75
ssg63
g2848
sg56
(lp2855
S'HTTP_ACCEPT'
p2856
asbag49
(g70
g51
NtRp2857
(dp2858
g54
(dp2859
g81
g82
ssg63
g2848
sg56
(lp2860
S':'
asbag49
(g70
g51
NtRp2861
(dp2862
g54
(dp2863
sg63
g2848
sg56
(lp2864
g49
(g50
g51
NtRp2865
(dp2866
g54
(dp2867
g62
I3
ssg63
g2861
sg56
(lp2868
g1016
asbasbasbag49
(g65
g51
NtRp2869
(dp2870
g54
(dp2871
sg63
g2802
sg56
(lp2872
g49
(g70
g51
NtRp2873
(dp2874
g54
(dp2875
g74
g75
ssg63
g2869
sg56
(lp2876
S'HTTP_ACCEPT_CHARSET'
p2877
asbag49
(g70
g51
NtRp2878
(dp2879
g54
(dp2880
g81
g82
ssg63
g2869
sg56
(lp2881
S':'
asbag49
(g70
g51
NtRp2882
(dp2883
g54
(dp2884
sg63
g2869
sg56
(lp2885
g49
(g50
g51
NtRp2886
(dp2887
g54
(dp2888
g62
I3
ssg63
g2882
sg56
(lp2889
g1038
asbasbasbag49
(g65
g51
NtRp2890
(dp2891
g54
(dp2892
sg63
g2802
sg56
(lp2893
g49
(g70
g51
NtRp2894
(dp2895
g54
(dp2896
g74
g75
ssg63
g2890
sg56
(lp2897
S'HTTP_ACCEPT_ENCODING'
p2898
asbag49
(g70
g51
NtRp2899
(dp2900
g54
(dp2901
g81
g82
ssg63
g2890
sg56
(lp2902
S':'
asbag49
(g70
g51
NtRp2903
(dp2904
g54
(dp2905
sg63
g2890
sg56
(lp2906
g49
(g50
g51
NtRp2907
(dp2908
g54
(dp2909
g62
I3
ssg63
g2903
sg56
(lp2910
g1060
asbasbasbag49
(g65
g51
NtRp2911
(dp2912
g54
(dp2913
sg63
g2802
sg56
(lp2914
g49
(g70
g51
NtRp2915
(dp2916
g54
(dp2917
g74
g75
ssg63
g2911
sg56
(lp2918
S'HTTP_ACCEPT_LANGUAGE'
p2919
asbag49
(g70
g51
NtRp2920
(dp2921
g54
(dp2922
g81
g82
ssg63
g2911
sg56
(lp2923
S':'
asbag49
(g70
g51
NtRp2924
(dp2925
g54
(dp2926
sg63
g2911
sg56
(lp2927
g49
(g50
g51
NtRp2928
(dp2929
g54
(dp2930
g62
I3
ssg63
g2924
sg56
(lp2931
g1082
asbasbasbag49
(g65
g51
NtRp2932
(dp2933
g54
(dp2934
sg63
g2802
sg56
(lp2935
g49
(g70
g51
NtRp2936
(dp2937
g54
(dp2938
g74
g75
ssg63
g2932
sg56
(lp2939
S'HTTP_CACHE_CONTROL'
p2940
asbag49
(g70
g51
NtRp2941
(dp2942
g54
(dp2943
g81
g82
ssg63
g2932
sg56
(lp2944
S':'
asbag49
(g70
g51
NtRp2945
(dp2946
g54
(dp2947
sg63
g2932
sg56
(lp2948
g49
(g50
g51
NtRp2949
(dp2950
g54
(dp2951
g62
I3
ssg63
g2945
sg56
(lp2952
g1104
asbasbasbag49
(g65
g51
NtRp2953
(dp2954
g54
(dp2955
sg63
g2802
sg56
(lp2956
g49
(g70
g51
NtRp2957
(dp2958
g54
(dp2959
g74
g75
ssg63
g2953
sg56
(lp2960
S'HTTP_CONNECTION'
p2961
asbag49
(g70
g51
NtRp2962
(dp2963
g54
(dp2964
g81
g82
ssg63
g2953
sg56
(lp2965
S':'
asbag49
(g70
g51
NtRp2966
(dp2967
g54
(dp2968
sg63
g2953
sg56
(lp2969
g49
(g50
g51
NtRp2970
(dp2971
g54
(dp2972
g62
I3
ssg63
g2966
sg56
(lp2973
g1126
asbasbasbag49
(g65
g51
NtRp2974
(dp2975
g54
(dp2976
sg63
g2802
sg56
(lp2977
g49
(g70
g51
NtRp2978
(dp2979
g54
(dp2980
g74
g75
ssg63
g2974
sg56
(lp2981
S'HTTP_CONTENT_LENGTH'
p2982
asbag49
(g70
g51
NtRp2983
(dp2984
g54
(dp2985
g81
g82
ssg63
g2974
sg56
(lp2986
S':'
asbag49
(g70
g51
NtRp2987
(dp2988
g54
(dp2989
sg63
g2974
sg56
(lp2990
g49
(g50
g51
NtRp2991
(dp2992
g54
(dp2993
g62
I3
ssg63
g2987
sg56
(lp2994
g906
asbasbasbag49
(g65
g51
NtRp2995
(dp2996
g54
(dp2997
sg63
g2802
sg56
(lp2998
g49
(g70
g51
NtRp2999
(dp3000
g54
(dp3001
g74
g75
ssg63
g2995
sg56
(lp3002
S'HTTP_CONTENT_TYPE'
p3003
asbag49
(g70
g51
NtRp3004
(dp3005
g54
(dp3006
g81
g82
ssg63
g2995
sg56
(lp3007
S':'
asbag49
(g70
g51
NtRp3008
(dp3009
g54
(dp3010
sg63
g2995
sg56
(lp3011
g49
(g50
g51
NtRp3012
(dp3013
g54
(dp3014
g62
I3
ssg63
g3008
sg56
(lp3015
g928
asbasbasbag49
(g65
g51
NtRp3016
(dp3017
g54
(dp3018
sg63
g2802
sg56
(lp3019
g49
(g70
g51
NtRp3020
(dp3021
g54
(dp3022
g74
g75
ssg63
g3016
sg56
(lp3023
S'HTTP_COOKIE'
p3024
asbag49
(g70
g51
NtRp3025
(dp3026
g54
(dp3027
g81
g82
ssg63
g3016
sg56
(lp3028
S':'
asbag49
(g70
g51
NtRp3029
(dp3030
g54
(dp3031
sg63
g3016
sg56
(lp3032
g49
(g50
g51
NtRp3033
(dp3034
g54
(dp3035
g62
I3
ssg63
g3029
sg56
(lp3036
g1190
asbasbasbag49
(g65
g51
NtRp3037
(dp3038
g54
(dp3039
sg63
g2802
sg56
(lp3040
g49
(g70
g51
NtRp3041
(dp3042
g54
(dp3043
g74
g75
ssg63
g3037
sg56
(lp3044
S'HTTP_HOST'
p3045
asbag49
(g70
g51
NtRp3046
(dp3047
g54
(dp3048
g81
g82
ssg63
g3037
sg56
(lp3049
S':'
asbag49
(g70
g51
NtRp3050
(dp3051
g54
(dp3052
sg63
g3037
sg56
(lp3053
g49
(g50
g51
NtRp3054
(dp3055
g54
(dp3056
g62
I3
ssg63
g3050
sg56
(lp3057
g1212
asbasbasbag49
(g65
g51
NtRp3058
(dp3059
g54
(dp3060
sg63
g2802
sg56
(lp3061
g49
(g70
g51
NtRp3062
(dp3063
g54
(dp3064
g74
g75
ssg63
g3058
sg56
(lp3065
S'HTTP_ORIGIN'
p3066
asbag49
(g70
g51
NtRp3067
(dp3068
g54
(dp3069
g81
g82
ssg63
g3058
sg56
(lp3070
S':'
asbag49
(g70
g51
NtRp3071
(dp3072
g54
(dp3073
sg63
g3058
sg56
(lp3074
g49
(g50
g51
NtRp3075
(dp3076
g54
(dp3077
g62
I3
ssg63
g3071
sg56
(lp3078
g1234
asbasbasbag49
(g65
g51
NtRp3079
(dp3080
g54
(dp3081
sg63
g2802
sg56
(lp3082
g49
(g70
g51
NtRp3083
(dp3084
g54
(dp3085
g74
g75
ssg63
g3079
sg56
(lp3086
S'HTTP_REFERER'
p3087
asbag49
(g70
g51
NtRp3088
(dp3089
g54
(dp3090
g81
g82
ssg63
g3079
sg56
(lp3091
S':'
asbag49
(g70
g51
NtRp3092
(dp3093
g54
(dp3094
sg63
g3079
sg56
(lp3095
g49
(g50
g51
NtRp3096
(dp3097
g54
(dp3098
g62
I3
ssg63
g3092
sg56
(lp3099
g1256
asbasbasbag49
(g65
g51
NtRp3100
(dp3101
g54
(dp3102
sg63
g2802
sg56
(lp3103
g49
(g70
g51
NtRp3104
(dp3105
g54
(dp3106
g74
g75
ssg63
g3100
sg56
(lp3107
S'HTTP_USER_AGENT'
p3108
asbag49
(g70
g51
NtRp3109
(dp3110
g54
(dp3111
g81
g82
ssg63
g3100
sg56
(lp3112
S':'
asbag49
(g70
g51
NtRp3113
(dp3114
g54
(dp3115
sg63
g3100
sg56
(lp3116
g49
(g50
g51
NtRp3117
(dp3118
g54
(dp3119
g62
I3
ssg63
g3113
sg56
(lp3120
g1278
asbasbasbag49
(g65
g51
NtRp3121
(dp3122
g54
(dp3123
sg63
g2802
sg56
(lp3124
g49
(g70
g51
NtRp3125
(dp3126
g54
(dp3127
g74
g75
ssg63
g3121
sg56
(lp3128
S'PATH_INFO'
p3129
asbag49
(g70
g51
NtRp3130
(dp3131
g54
(dp3132
g81
g82
ssg63
g3121
sg56
(lp3133
S':'
asbag49
(g70
g51
NtRp3134
(dp3135
g54
(dp3136
sg63
g3121
sg56
(lp3137
g49
(g50
g51
NtRp3138
(dp3139
g54
(dp3140
g62
I3
ssg63
g3134
sg56
(lp3141
g1432
asbasbasbag49
(g65
g51
NtRp3142
(dp3143
g54
(dp3144
sg63
g2802
sg56
(lp3145
g49
(g70
g51
NtRp3146
(dp3147
g54
(dp3148
g74
g75
ssg63
g3142
sg56
(lp3149
S'QUERY_STRING'
p3150
asbag49
(g70
g51
NtRp3151
(dp3152
g54
(dp3153
g81
g82
ssg63
g3142
sg56
(lp3154
S':'
asbag49
(g70
g51
NtRp3155
(dp3156
g54
(dp3157
sg63
g3142
sg56
(lp3158
g49
(g50
g51
NtRp3159
(dp3160
g54
(dp3161
g62
I3
ssg63
g3155
sg56
(lp3162
S''
asbasbasbag49
(g65
g51
NtRp3163
(dp3164
g54
(dp3165
sg63
g2802
sg56
(lp3166
g49
(g70
g51
NtRp3167
(dp3168
g54
(dp3169
g74
g75
ssg63
g3163
sg56
(lp3170
S'REMOTE_ADDR'
p3171
asbag49
(g70
g51
NtRp3172
(dp3173
g54
(dp3174
g81
g82
ssg63
g3163
sg56
(lp3175
S':'
asbag49
(g70
g51
NtRp3176
(dp3177
g54
(dp3178
sg63
g3163
sg56
(lp3179
g49
(g50
g51
NtRp3180
(dp3181
g54
(dp3182
g62
I3
ssg63
g3176
sg56
(lp3183
g216
asbasbasbag49
(g65
g51
NtRp3184
(dp3185
g54
(dp3186
sg63
g2802
sg56
(lp3187
g49
(g70
g51
NtRp3188
(dp3189
g54
(dp3190
g74
g75
ssg63
g3184
sg56
(lp3191
S'REMOTE_PORT'
p3192
asbag49
(g70
g51
NtRp3193
(dp3194
g54
(dp3195
g81
g82
ssg63
g3184
sg56
(lp3196
S':'
asbag49
(g70
g51
NtRp3197
(dp3198
g54
(dp3199
sg63
g3184
sg56
(lp3200
g49
(g50
g51
NtRp3201
(dp3202
g54
(dp3203
g62
I3
ssg63
g3197
sg56
(lp3204
g1496
asbasbasbag49
(g65
g51
NtRp3205
(dp3206
g54
(dp3207
sg63
g2802
sg56
(lp3208
g49
(g70
g51
NtRp3209
(dp3210
g54
(dp3211
g74
g75
ssg63
g3205
sg56
(lp3212
S'REQUEST_METHOD'
p3213
asbag49
(g70
g51
NtRp3214
(dp3215
g54
(dp3216
g81
g82
ssg63
g3205
sg56
(lp3217
S':'
asbag49
(g70
g51
NtRp3218
(dp3219
g54
(dp3220
sg63
g3205
sg56
(lp3221
g49
(g50
g51
NtRp3222
(dp3223
g54
(dp3224
g62
I3
ssg63
g3218
sg56
(lp3225
g1518
asbasbasbag49
(g65
g51
NtRp3226
(dp3227
g54
(dp3228
sg63
g2802
sg56
(lp3229
g49
(g70
g51
NtRp3230
(dp3231
g54
(dp3232
g74
g75
ssg63
g3226
sg56
(lp3233
S'REQUEST_URI'
p3234
asbag49
(g70
g51
NtRp3235
(dp3236
g54
(dp3237
g81
g82
ssg63
g3226
sg56
(lp3238
S':'
asbag49
(g70
g51
NtRp3239
(dp3240
g54
(dp3241
sg63
g3226
sg56
(lp3242
g49
(g50
g51
NtRp3243
(dp3244
g54
(dp3245
g62
I3
ssg63
g3239
sg56
(lp3246
g1432
asbasbasbag49
(g65
g51
NtRp3247
(dp3248
g54
(dp3249
sg63
g2802
sg56
(lp3250
g49
(g70
g51
NtRp3251
(dp3252
g54
(dp3253
g74
g75
ssg63
g3247
sg56
(lp3254
S'SCRIPT_NAME'
p3255
asbag49
(g70
g51
NtRp3256
(dp3257
g54
(dp3258
g81
g82
ssg63
g3247
sg56
(lp3259
S':'
asbag49
(g70
g51
NtRp3260
(dp3261
g54
(dp3262
sg63
g3247
sg56
(lp3263
g49
(g50
g51
NtRp3264
(dp3265
g54
(dp3266
g62
I3
ssg63
g3260
sg56
(lp3267
S''
asbasbasbag49
(g65
g51
NtRp3268
(dp3269
g54
(dp3270
sg63
g2802
sg56
(lp3271
g49
(g70
g51
NtRp3272
(dp3273
g54
(dp3274
g74
g75
ssg63
g3268
sg56
(lp3275
S'SERVER_NAME'
p3276
asbag49
(g70
g51
NtRp3277
(dp3278
g54
(dp3279
g81
g82
ssg63
g3268
sg56
(lp3280
S':'
asbag49
(g70
g51
NtRp3281
(dp3282
g54
(dp3283
sg63
g3268
sg56
(lp3284
g49
(g50
g51
NtRp3285
(dp3286
g54
(dp3287
g62
I3
ssg63
g3281
sg56
(lp3288
g1582
asbasbasbag49
(g65
g51
NtRp3289
(dp3290
g54
(dp3291
sg63
g2802
sg56
(lp3292
g49
(g70
g51
NtRp3293
(dp3294
g54
(dp3295
g74
g75
ssg63
g3289
sg56
(lp3296
S'SERVER_PORT'
p3297
asbag49
(g70
g51
NtRp3298
(dp3299
g54
(dp3300
g81
g82
ssg63
g3289
sg56
(lp3301
S':'
asbag49
(g70
g51
NtRp3302
(dp3303
g54
(dp3304
sg63
g3289
sg56
(lp3305
g49
(g50
g51
NtRp3306
(dp3307
g54
(dp3308
g62
I3
ssg63
g3302
sg56
(lp3309
g1604
asbasbasbag49
(g65
g51
NtRp3310
(dp3311
g54
(dp3312
sg63
g2802
sg56
(lp3313
g49
(g70
g51
NtRp3314
(dp3315
g54
(dp3316
g74
g75
ssg63
g3310
sg56
(lp3317
S'SERVER_PROTOCOL'
p3318
asbag49
(g70
g51
NtRp3319
(dp3320
g54
(dp3321
g81
g82
ssg63
g3310
sg56
(lp3322
S':'
asbag49
(g70
g51
NtRp3323
(dp3324
g54
(dp3325
sg63
g3310
sg56
(lp3326
g49
(g50
g51
NtRp3327
(dp3328
g54
(dp3329
g62
I3
ssg63
g3323
sg56
(lp3330
g1626
asbasbasbag49
(g65
g51
NtRp3331
(dp3332
g54
(dp3333
sg63
g2802
sg56
(lp3334
g49
(g70
g51
NtRp3335
(dp3336
g54
(dp3337
g74
g75
ssg63
g3331
sg56
(lp3338
S'SERVER_SOFTWARE'
p3339
asbag49
(g70
g51
NtRp3340
(dp3341
g54
(dp3342
g81
g82
ssg63
g3331
sg56
(lp3343
S':'
asbag49
(g70
g51
NtRp3344
(dp3345
g54
(dp3346
sg63
g3331
sg56
(lp3347
g49
(g50
g51
NtRp3348
(dp3349
g54
(dp3350
g62
I3
ssg63
g3344
sg56
(lp3351
g1648
asbasbasbag49
(g65
g51
NtRp3352
(dp3353
g54
(dp3354
sg63
g2802
sg56
(lp3355
g49
(g70
g51
NtRp3356
(dp3357
g54
(dp3358
g74
g75
ssg63
g3352
sg56
(lp3359
S'wsgi.errors'
p3360
asbag49
(g70
g51
NtRp3361
(dp3362
g54
(dp3363
g81
g82
ssg63
g3352
sg56
(lp3364
S':'
asbag49
(g70
g51
NtRp3365
(dp3366
g54
(dp3367
sg63
g3352
sg56
(lp3368
g49
(g50
g51
NtRp3369
(dp3370
g54
(dp3371
g62
I3
ssg63
g3365
sg56
(lp3372
S"<open file '<stderr>', mode 'w' at 0x540b0>"
p3373
asbasbasbag49
(g65
g51
NtRp3374
(dp3375
g54
(dp3376
sg63
g2802
sg56
(lp3377
g49
(g70
g51
NtRp3378
(dp3379
g54
(dp3380
g74
g75
ssg63
g3374
sg56
(lp3381
S'wsgi.file_wrapper'
p3382
asbag49
(g70
g51
NtRp3383
(dp3384
g54
(dp3385
g81
g82
ssg63
g3374
sg56
(lp3386
S':'
asbag49
(g70
g51
NtRp3387
(dp3388
g54
(dp3389
sg63
g3374
sg56
(lp3390
g49
(g50
g51
NtRp3391
(dp3392
g54
(dp3393
g62
I3
ssg63
g3387
sg56
(lp3394
S'<class wsgiref.util.FileWrapper at 0x4761060>'
p3395
asbasbasbag49
(g65
g51
NtRp3396
(dp3397
g54
(dp3398
sg63
g2802
sg56
(lp3399
g49
(g70
g51
NtRp3400
(dp3401
g54
(dp3402
g74
g75
ssg63
g3396
sg56
(lp3403
S'wsgi.input'
p3404
asbag49
(g70
g51
NtRp3405
(dp3406
g54
(dp3407
g81
g82
ssg63
g3396
sg56
(lp3408
S':'
asbag49
(g70
g51
NtRp3409
(dp3410
g54
(dp3411
sg63
g3396
sg56
(lp3412
g49
(g50
g51
NtRp3413
(dp3414
g54
(dp3415
g62
I3
ssg63
g3409
sg56
(lp3416
S"<open file '<fdopen>', mode 'w+b' at 0x809c848>"
p3417
asbasbasbag49
(g65
g51
NtRp3418
(dp3419
g54
(dp3420
sg63
g2802
sg56
(lp3421
g49
(g70
g51
NtRp3422
(dp3423
g54
(dp3424
g74
g75
ssg63
g3418
sg56
(lp3425
S'wsgi.multiprocess'
p3426
asbag49
(g70
g51
NtRp3427
(dp3428
g54
(dp3429
g81
g82
ssg63
g3418
sg56
(lp3430
S':'
asbag49
(g70
g51
NtRp3431
(dp3432
g54
(dp3433
sg63
g3418
sg56
(lp3434
g49
(g50
g51
NtRp3435
(dp3436
g54
(dp3437
g62
I3
ssg63
g3431
sg56
(lp3438
g92
asbasbasbag49
(g65
g51
NtRp3439
(dp3440
g54
(dp3441
sg63
g2802
sg56
(lp3442
g49
(g70
g51
NtRp3443
(dp3444
g54
(dp3445
g74
g75
ssg63
g3439
sg56
(lp3446
S'wsgi.multithread'
p3447
asbag49
(g70
g51
NtRp3448
(dp3449
g54
(dp3450
g81
g82
ssg63
g3439
sg56
(lp3451
S':'
asbag49
(g70
g51
NtRp3452
(dp3453
g54
(dp3454
sg63
g3439
sg56
(lp3455
g49
(g50
g51
NtRp3456
(dp3457
g54
(dp3458
g62
I3
ssg63
g3452
sg56
(lp3459
g972
asbasbasbag49
(g65
g51
NtRp3460
(dp3461
g54
(dp3462
sg63
g2802
sg56
(lp3463
g49
(g70
g51
NtRp3464
(dp3465
g54
(dp3466
g74
g75
ssg63
g3460
sg56
(lp3467
S'wsgi.run_once'
p3468
asbag49
(g70
g51
NtRp3469
(dp3470
g54
(dp3471
g81
g82
ssg63
g3460
sg56
(lp3472
S':'
asbag49
(g70
g51
NtRp3473
(dp3474
g54
(dp3475
sg63
g3460
sg56
(lp3476
g49
(g50
g51
NtRp3477
(dp3478
g54
(dp3479
g62
I3
ssg63
g3473
sg56
(lp3480
g92
asbasbasbag49
(g65
g51
NtRp3481
(dp3482
g54
(dp3483
sg63
g2802
sg56
(lp3484
g49
(g70
g51
NtRp3485
(dp3486
g54
(dp3487
g74
g75
ssg63
g3481
sg56
(lp3488
S'wsgi.url_scheme'
p3489
asbag49
(g70
g51
NtRp3490
(dp3491
g54
(dp3492
g81
g82
ssg63
g3481
sg56
(lp3493
S':'
asbag49
(g70
g51
NtRp3494
(dp3495
g54
(dp3496
sg63
g3481
sg56
(lp3497
g49
(g50
g51
NtRp3498
(dp3499
g54
(dp3500
g62
I3
ssg63
g3494
sg56
(lp3501
g1907
asbasbasbag49
(g65
g51
NtRp3502
(dp3503
g54
(dp3504
sg63
g2802
sg56
(lp3505
g49
(g70
g51
NtRp3506
(dp3507
g54
(dp3508
g74
g75
ssg63
g3502
sg56
(lp3509
S'wsgi.version'
p3510
asbag49
(g70
g51
NtRp3511
(dp3512
g54
(dp3513
g81
g82
ssg63
g3502
sg56
(lp3514
S':'
asbag49
(g70
g51
NtRp3515
(dp3516
g54
(dp3517
sg63
g3502
sg56
(lp3518
g49
(g50
g51
NtRp3519
(dp3520
g54
(dp3521
g62
I3
ssg63
g3515
sg56
(lp3522
S'1'
asbasbasbasbasbasbasbasbasbasbasbasbasbsS'frames'
p3523
(lp3524
(dp3525
S'file'
p3526
S'/home/mdipierro/web2py/gluon/restricted.py'
p3527
sS'dump'
p3528
(dp3529
sS'lnum'
p3530
I212
sS'lines'
p3531
(dp3532
sS'call'
p3533
S"(code='# coding: utf8\\n# try something like\\n\\ndef show():...eturn arr\\n\\nresponse._vars=response._caller(show)\\n', environment={'A': <class 'gluon.html.A'>, 'Auth': <class 'gluon.tools.Auth'>, 'B': <class 'gluon.html.B'>, 'BEAUTIFY': <class 'gluon.html.BEAUTIFY'>, 'BODY': <class 'gluon.html.BODY'>, 'BR': <class 'gluon.html.BR'>, 'BUTTON': <class 'gluon.html.BUTTON'>, 'CAT': <class 'gluon.html.CAT'>, 'CENTER': <class 'gluon.html.CENTER'>, 'CLEANUP': <class 'gluon.validators.CLEANUP'>, ...}, layer='/Users/zamechek/Downloads/web2py/web2py.app/Cont...Resources/applications/hellow/controllers/game.py')"
p3534
sS'func'
p3535
S'restricted'
p3536
sa(dp3537
g3526
S'/Users/zamechek/Downloads/web2py/web2py.app/Contents/Resources/applications/hellow/controllers/game.py'
p3538
sg3528
(dp3539
sg3530
I39
sg3531
(dp3540
I32
S''
sI33
S'def makePrettyLables(rows):'
p3541
sI34
S'        arr = []'
p3542
sI35
S'        for i in range(0, len(rows)):'
p3543
sI36
S'            arr.append("Slot " + str(i+1) + " - " + str(rows[i].odds))'
p3544
sI37
S'        return arr'
p3545
sI28
S''
sI29
S'    elif otherForm.errors:'
p3546
sI30
S"        response.flash = 'form has errors'"
p3547
sI31
S'    return otherForm'
p3548
ssg3533
S'()'
p3549
sg3535
S'<module>'
p3550
sa(dp3551
g3526
S'/home/mdipierro/web2py/gluon/globals.py'
p3552
sg3528
(dp3553
sg3530
I193
sg3531
(dp3554
sg3533
S'(f=<function show at 0x95bba30>)'
p3555
sg3535
S'<lambda>'
p3556
sa(dp3557
g3526
S'/Users/zamechek/Downloads/web2py/web2py.app/Contents/Resources/applications/hellow/controllers/game.py'
p3558
sg3528
(dp3559
sg3530
I14
sg3531
(dp3560
I9
S'    query=((db.game.id==db.game_slots.game)&(db.slot.id==db.game_slots.slot))'
p3561
sI10
S'    #game_and_slots=(db.game.id==db.game_slots.game)&(db.slot.id==db.game_slots.slot)'
p3562
sI11
S'    rows = db(query).select(db.slot.id, db.slot.odds)'
p3563
sI12
S'    #form = display_form(rows)'
p3564
sI13
S''
sI14
S'    otherForm = form_from_factory(rows, game)'
p3565
sI15
S'    return dict(name=auth_user.first_name.capitalize() + " " + auth_user.last_name.capitalize(), balance = game.balance, slots = rows, gameid = id, otherForm=otherForm)'
p3566
sI16
S''
sI17
S'def form_from_factory(rows , game):'
p3567
sI18
S''
ssg3533
S'()'
p3568
sg3535
S'show'
p3569
sa(dp3570
g3526
S'/Users/zamechek/Downloads/web2py/web2py.app/Contents/Resources/applications/hellow/controllers/game.py'
p3571
sg3528
(dp3572
sg3530
I26
sg3531
(dp3573
I21
S"        Field('slot', requires=IS_IN_SET(rows, labels=makePrettyLables(rows))))"
p3574
sI22
S'    if otherForm.process().accepted:'
p3575
sI23
S'        #id = db.game.insert(**db.client._filter_fields(form.vars))'
p3576
sI24
S'        bet = otherForm.vars.bet'
p3577
sI25
S''
sI26
S'        game.update(balance=srt(game.balance - bet))'
p3578
sI27
S"        response.flash = 'form accepted'"
p3579
sI28
S''
sI29
S'    elif otherForm.errors:'
p3580
sI30
S"        response.flash = 'form has errors'"
p3581
ssg3533
S"(rows=<Rows (3)>, game=<Row {'auth_user': 1, 'balance': 100, 'id': 1}>)"
p3582
sg3535
S'form_from_factory'
p3583
sasS'pyver'
p3584
S'Python 2.5.1: /Users/zamechek/Downloads/web2py/web2py.app/Contents/MacOS/python'
p3585
sS'session'
p3586
g49
(g50
g51
NtRp3587
(dp3588
g54
(dp3589
sg56
(lp3590
g49
(g58
g51
NtRp3591
(dp3592
g54
(dp3593
g62
I5
ssg63
Nsg56
(lp3594
g49
(g65
g51
NtRp3595
(dp3596
g54
(dp3597
sg63
g3591
sg56
(lp3598
g49
(g70
g51
NtRp3599
(dp3600
g54
(dp3601
g74
g75
ssg63
g3595
sg56
(lp3602
S'last_orderby'
p3603
asbag49
(g70
g51
NtRp3604
(dp3605
g54
(dp3606
g81
g82
ssg63
g3595
sg56
(lp3607
S':'
asbag49
(g70
g51
NtRp3608
(dp3609
g54
(dp3610
sg63
g3595
sg56
(lp3611
g49
(g50
g51
NtRp3612
(dp3613
g54
(dp3614
g62
I5
ssg63
g3608
sg56
(lp3615
S'None'
p3616
asbasbasbag49
(g65
g51
NtRp3617
(dp3618
g54
(dp3619
sg63
g3591
sg56
(lp3620
g49
(g70
g51
NtRp3621
(dp3622
g54
(dp3623
g74
g75
ssg63
g3617
sg56
(lp3624
S'last_query'
p3625
asbag49
(g70
g51
NtRp3626
(dp3627
g54
(dp3628
g81
g82
ssg63
g3617
sg56
(lp3629
S':'
asbag49
(g70
g51
NtRp3630
(dp3631
g54
(dp3632
sg63
g3617
sg56
(lp3633
g49
(g50
g51
NtRp3634
(dp3635
g54
(dp3636
g62
I5
ssg63
g3630
sg56
(lp3637
S'db.game_slots.id>0'
p3638
asbasbasbasbasbsS'etype'
p3639
S"<type 'exceptions.NameError'>"
p3640
sS'date'
p3641
S'Wed Mar 27 16:04:23 2013'
p3642
sS'response'
p3643
g49
(g50
g51
NtRp3644
(dp3645
g54
(dp3646
sg56
(lp3647
g49
(g58
g51
NtRp3648
(dp3649
g54
(dp3650
g62
I5
ssg63
Nsg56
(lp3651
g49
(g65
g51
NtRp3652
(dp3653
g54
(dp3654
sg63
g3648
sg56
(lp3655
g49
(g70
g51
NtRp3656
(dp3657
g54
(dp3658
g74
g75
ssg63
g3652
sg56
(lp3659
g159
asbag49
(g70
g51
NtRp3660
(dp3661
g54
(dp3662
g81
g82
ssg63
g3652
sg56
(lp3663
S':'
asbag49
(g70
g51
NtRp3664
(dp3665
g54
(dp3666
sg63
g3652
sg56
(lp3667
g49
(g50
g51
NtRp3668
(dp3669
g54
(dp3670
g62
I5
ssg63
g3664
sg56
(lp3671
S'<cStringIO.StringO object at 0x71d9aa0>'
p3672
asbasbasbag49
(g65
g51
NtRp3673
(dp3674
g54
(dp3675
sg63
g3648
sg56
(lp3676
g49
(g70
g51
NtRp3677
(dp3678
g54
(dp3679
g74
g75
ssg63
g3673
sg56
(lp3680
g247
asbag49
(g70
g51
NtRp3681
(dp3682
g54
(dp3683
g81
g82
ssg63
g3673
sg56
(lp3684
S':'
asbag49
(g70
g51
NtRp3685
(dp3686
g54
(dp3687
sg63
g3673
sg56
(lp3688
g49
(g50
g51
NtRp3689
(dp3690
g54
(dp3691
g62
I5
ssg63
g3685
sg56
(lp3692
g49
(g58
g51
NtRp3693
(dp3694
g54
(dp3695
g62
I4
ssg63
Nsg56
(lp3696
g49
(g65
g51
NtRp3697
(dp3698
g54
(dp3699
sg63
g3693
sg56
(lp3700
g49
(g70
g51
NtRp3701
(dp3702
g54
(dp3703
g74
g75
ssg63
g3697
sg56
(lp3704
S'session_id_hellow'
p3705
asbag49
(g70
g51
NtRp3706
(dp3707
g54
(dp3708
g81
g82
ssg63
g3697
sg56
(lp3709
S':'
asbag49
(g70
g51
NtRp3710
(dp3711
g54
(dp3712
sg63
g3697
sg56
(lp3713
g49
(g50
g51
NtRp3714
(dp3715
g54
(dp3716
g62
I4
ssg63
g3710
sg56
(lp3717
g458
ag49
(g58
g51
NtRp3718
(dp3719
g54
(dp3720
g62
I3
ssg63
Nsg56
(lp3721
g49
(g65
g51
NtRp3722
(dp3723
g54
(dp3724
sg63
g3718
sg56
(lp3725
g49
(g70
g51
NtRp3726
(dp3727
g54
(dp3728
g74
g75
ssg63
g3722
sg56
(lp3729
g298
asbag49
(g70
g51
NtRp3730
(dp3731
g54
(dp3732
g81
g82
ssg63
g3722
sg56
(lp3733
S':'
asbag49
(g70
g51
NtRp3734
(dp3735
g54
(dp3736
sg63
g3722
sg56
(lp3737
g49
(g50
g51
NtRp3738
(dp3739
g54
(dp3740
g62
I3
ssg63
g3734
sg56
(lp3741
S''
asbasbasbag49
(g65
g51
NtRp3742
(dp3743
g54
(dp3744
sg63
g3718
sg56
(lp3745
g49
(g70
g51
NtRp3746
(dp3747
g54
(dp3748
g74
g75
ssg63
g3742
sg56
(lp3749
g319
asbag49
(g70
g51
NtRp3750
(dp3751
g54
(dp3752
g81
g82
ssg63
g3742
sg56
(lp3753
S':'
asbag49
(g70
g51
NtRp3754
(dp3755
g54
(dp3756
sg63
g3742
sg56
(lp3757
g49
(g50
g51
NtRp3758
(dp3759
g54
(dp3760
g62
I3
ssg63
g3754
sg56
(lp3761
S''
asbasbasbag49
(g65
g51
NtRp3762
(dp3763
g54
(dp3764
sg63
g3718
sg56
(lp3765
g49
(g70
g51
NtRp3766
(dp3767
g54
(dp3768
g74
g75
ssg63
g3762
sg56
(lp3769
g340
asbag49
(g70
g51
NtRp3770
(dp3771
g54
(dp3772
g81
g82
ssg63
g3762
sg56
(lp3773
S':'
asbag49
(g70
g51
NtRp3774
(dp3775
g54
(dp3776
sg63
g3762
sg56
(lp3777
g49
(g50
g51
NtRp3778
(dp3779
g54
(dp3780
g62
I3
ssg63
g3774
sg56
(lp3781
S''
asbasbasbag49
(g65
g51
NtRp3782
(dp3783
g54
(dp3784
sg63
g3718
sg56
(lp3785
g49
(g70
g51
NtRp3786
(dp3787
g54
(dp3788
g74
g75
ssg63
g3782
sg56
(lp3789
g361
asbag49
(g70
g51
NtRp3790
(dp3791
g54
(dp3792
g81
g82
ssg63
g3782
sg56
(lp3793
S':'
asbag49
(g70
g51
NtRp3794
(dp3795
g54
(dp3796
sg63
g3782
sg56
(lp3797
g49
(g50
g51
NtRp3798
(dp3799
g54
(dp3800
g62
I3
ssg63
g3794
sg56
(lp3801
S''
asbasbasbag49
(g65
g51
NtRp3802
(dp3803
g54
(dp3804
sg63
g3718
sg56
(lp3805
g49
(g70
g51
NtRp3806
(dp3807
g54
(dp3808
g74
g75
ssg63
g3802
sg56
(lp3809
g382
asbag49
(g70
g51
NtRp3810
(dp3811
g54
(dp3812
g81
g82
ssg63
g3802
sg56
(lp3813
S':'
asbag49
(g70
g51
NtRp3814
(dp3815
g54
(dp3816
sg63
g3802
sg56
(lp3817
g49
(g50
g51
NtRp3818
(dp3819
g54
(dp3820
g62
I3
ssg63
g3814
sg56
(lp3821
S'/'
asbasbasbag49
(g65
g51
NtRp3822
(dp3823
g54
(dp3824
sg63
g3718
sg56
(lp3825
g49
(g70
g51
NtRp3826
(dp3827
g54
(dp3828
g74
g75
ssg63
g3822
sg56
(lp3829
g403
asbag49
(g70
g51
NtRp3830
(dp3831
g54
(dp3832
g81
g82
ssg63
g3822
sg56
(lp3833
S':'
asbag49
(g70
g51
NtRp3834
(dp3835
g54
(dp3836
sg63
g3822
sg56
(lp3837
g49
(g50
g51
NtRp3838
(dp3839
g54
(dp3840
g62
I3
ssg63
g3834
sg56
(lp3841
S''
asbasbasbag49
(g65
g51
NtRp3842
(dp3843
g54
(dp3844
sg63
g3718
sg56
(lp3845
g49
(g70
g51
NtRp3846
(dp3847
g54
(dp3848
g74
g75
ssg63
g3842
sg56
(lp3849
g424
asbag49
(g70
g51
NtRp3850
(dp3851
g54
(dp3852
g81
g82
ssg63
g3842
sg56
(lp3853
S':'
asbag49
(g70
g51
NtRp3854
(dp3855
g54
(dp3856
sg63
g3842
sg56
(lp3857
g49
(g50
g51
NtRp3858
(dp3859
g54
(dp3860
g62
I3
ssg63
g3854
sg56
(lp3861
S''
asbasbasbasbasbasbasbasbasbasbasbag49
(g65
g51
NtRp3862
(dp3863
g54
(dp3864
sg63
g3648
sg56
(lp3865
g49
(g70
g51
NtRp3866
(dp3867
g54
(dp3868
g74
g75
ssg63
g3862
sg56
(lp3869
S'delimiters'
p3870
asbag49
(g70
g51
NtRp3871
(dp3872
g54
(dp3873
g81
g82
ssg63
g3862
sg56
(lp3874
S':'
asbag49
(g70
g51
NtRp3875
(dp3876
g54
(dp3877
sg63
g3862
sg56
(lp3878
g49
(g50
g51
NtRp3879
(dp3880
g54
(dp3881
g62
I5
ssg63
g3875
sg56
(lp3882
g49
(g58
g51
NtRp3883
(dp3884
g54
(dp3885
g62
I4
ssg63
Nsg56
(lp3886
g49
(g65
g51
NtRp3887
(dp3888
g54
(dp3889
sg63
g3883
sg56
(lp3890
g49
(g70
g51
NtRp3891
(dp3892
g54
(dp3893
sg63
g3887
sg56
(lp3894
g49
(g50
g51
NtRp3895
(dp3896
g54
(dp3897
g62
I4
ssg63
g3891
sg56
(lp3898
S'{{'
p3899
asbasbasbag49
(g65
g51
NtRp3900
(dp3901
g54
(dp3902
sg63
g3883
sg56
(lp3903
g49
(g70
g51
NtRp3904
(dp3905
g54
(dp3906
sg63
g3900
sg56
(lp3907
g49
(g50
g51
NtRp3908
(dp3909
g54
(dp3910
g62
I4
ssg63
g3904
sg56
(lp3911
S'}}'
p3912
asbasbasbasbasbasbasbag49
(g65
g51
NtRp3913
(dp3914
g54
(dp3915
sg63
g3648
sg56
(lp3916
g49
(g70
g51
NtRp3917
(dp3918
g54
(dp3919
g74
g75
ssg63
g3913
sg56
(lp3920
S'files'
p3921
asbag49
(g70
g51
NtRp3922
(dp3923
g54
(dp3924
g81
g82
ssg63
g3913
sg56
(lp3925
S':'
asbag49
(g70
g51
NtRp3926
(dp3927
g54
(dp3928
sg63
g3913
sg56
(lp3929
g49
(g50
g51
NtRp3930
(dp3931
g54
(dp3932
g62
I5
ssg63
g3926
sg56
(lp3933
g49
(g58
g51
NtRp3934
(dp3935
g54
(dp3936
g62
I4
ssg63
Nsg56
(lp3937
sbasbasbasbag49
(g65
g51
NtRp3938
(dp3939
g54
(dp3940
sg63
g3648
sg56
(lp3941
g49
(g70
g51
NtRp3942
(dp3943
g54
(dp3944
g74
g75
ssg63
g3938
sg56
(lp3945
S'flash'
p3946
asbag49
(g70
g51
NtRp3947
(dp3948
g54
(dp3949
g81
g82
ssg63
g3938
sg56
(lp3950
S':'
asbag49
(g70
g51
NtRp3951
(dp3952
g54
(dp3953
sg63
g3938
sg56
(lp3954
g49
(g50
g51
NtRp3955
(dp3956
g54
(dp3957
g62
I5
ssg63
g3951
sg56
(lp3958
cgluon.languages
lazyT_unpickle
p3959
(S's\x08\x00\x00\x00Success!'
tRp3960
asbasbasbag49
(g65
g51
NtRp3961
(dp3962
g54
(dp3963
sg63
g3648
sg56
(lp3964
g49
(g70
g51
NtRp3965
(dp3966
g54
(dp3967
g74
g75
ssg63
g3961
sg56
(lp3968
S'generic_patterns'
p3969
asbag49
(g70
g51
NtRp3970
(dp3971
g54
(dp3972
g81
g82
ssg63
g3961
sg56
(lp3973
S':'
asbag49
(g70
g51
NtRp3974
(dp3975
g54
(dp3976
sg63
g3961
sg56
(lp3977
g49
(g50
g51
NtRp3978
(dp3979
g54
(dp3980
g62
I5
ssg63
g3974
sg56
(lp3981
g49
(g58
g51
NtRp3982
(dp3983
g54
(dp3984
g62
I4
ssg63
Nsg56
(lp3985
g49
(g65
g51
NtRp3986
(dp3987
g54
(dp3988
sg63
g3982
sg56
(lp3989
g49
(g70
g51
NtRp3990
(dp3991
g54
(dp3992
sg63
g3986
sg56
(lp3993
g49
(g50
g51
NtRp3994
(dp3995
g54
(dp3996
g62
I4
ssg63
g3990
sg56
(lp3997
S'*'
asbasbasbasbasbasbasbag49
(g65
g51
NtRp3998
(dp3999
g54
(dp4000
sg63
g3648
sg56
(lp4001
g49
(g70
g51
NtRp4002
(dp4003
g54
(dp4004
g74
g75
ssg63
g3998
sg56
(lp4005
S'google_analytics_id'
p4006
asbag49
(g70
g51
NtRp4007
(dp4008
g54
(dp4009
g81
g82
ssg63
g3998
sg56
(lp4010
S':'
asbag49
(g70
g51
NtRp4011
(dp4012
g54
(dp4013
sg63
g3998
sg56
(lp4014
g49
(g50
g51
NtRp4015
(dp4016
g54
(dp4017
g62
I5
ssg63
g4011
sg56
(lp4018
S'None'
p4019
asbasbasbag49
(g65
g51
NtRp4020
(dp4021
g54
(dp4022
sg63
g3648
sg56
(lp4023
g49
(g70
g51
NtRp4024
(dp4025
g54
(dp4026
g74
g75
ssg63
g4020
sg56
(lp4027
S'headers'
p4028
asbag49
(g70
g51
NtRp4029
(dp4030
g54
(dp4031
g81
g82
ssg63
g4020
sg56
(lp4032
S':'
asbag49
(g70
g51
NtRp4033
(dp4034
g54
(dp4035
sg63
g4020
sg56
(lp4036
g49
(g50
g51
NtRp4037
(dp4038
g54
(dp4039
g62
I5
ssg63
g4033
sg56
(lp4040
g49
(g58
g51
NtRp4041
(dp4042
g54
(dp4043
g62
I4
ssg63
Nsg56
(lp4044
g49
(g65
g51
NtRp4045
(dp4046
g54
(dp4047
sg63
g4041
sg56
(lp4048
g49
(g70
g51
NtRp4049
(dp4050
g54
(dp4051
g74
g75
ssg63
g4045
sg56
(lp4052
S'X-Powered-By'
p4053
asbag49
(g70
g51
NtRp4054
(dp4055
g54
(dp4056
g81
g82
ssg63
g4045
sg56
(lp4057
S':'
asbag49
(g70
g51
NtRp4058
(dp4059
g54
(dp4060
sg63
g4045
sg56
(lp4061
g49
(g50
g51
NtRp4062
(dp4063
g54
(dp4064
g62
I4
ssg63
g4058
sg56
(lp4065
S'web2py'
p4066
asbasbasbasbasbasbasbag49
(g65
g51
NtRp4067
(dp4068
g54
(dp4069
sg63
g3648
sg56
(lp4070
g49
(g70
g51
NtRp4071
(dp4072
g54
(dp4073
g74
g75
ssg63
g4067
sg56
(lp4074
S'logo'
p4075
asbag49
(g70
g51
NtRp4076
(dp4077
g54
(dp4078
g81
g82
ssg63
g4067
sg56
(lp4079
S':'
asbag49
(g70
g51
NtRp4080
(dp4081
g54
(dp4082
sg63
g4067
sg56
(lp4083
g49
(g50
g51
NtRp4084
(dp4085
g54
(dp4086
g62
I5
ssg63
g4080
sg56
(lp4087
g49
(cgluon.html
A
p4088
g51
NtRp4089
(dp4090
g54
(dp4091
S'_class'
p4092
S'brand'
p4093
sS'_href'
p4094
S'http://www.web2py.com/'
p4095
ssg63
Nsg56
(lp4096
g49
(cgluon.html
B
p4097
g51
NtRp4098
(dp4099
g54
(dp4100
sg63
g4089
sg56
(lp4101
S'web'
p4102
ag49
(cgluon.html
SPAN
p4103
g51
NtRp4104
(dp4105
g54
(dp4106
sg63
g4098
sg56
(lp4107
I2
asbaS'py'
p4108
asbacgluon.html
XML_unpickle
p4109
(S's\r\x00\x00\x00&trade;&nbsp;'
tRp4110
asbasbasbasbag49
(g65
g51
NtRp4111
(dp4112
g54
(dp4113
sg63
g3648
sg56
(lp4114
g49
(g70
g51
NtRp4115
(dp4116
g54
(dp4117
g74
g75
ssg63
g4111
sg56
(lp4118
S'menu'
p4119
asbag49
(g70
g51
NtRp4120
(dp4121
g54
(dp4122
g81
g82
ssg63
g4111
sg56
(lp4123
S':'
asbag49
(g70
g51
NtRp4124
(dp4125
g54
(dp4126
sg63
g4111
sg56
(lp4127
g49
(g50
g51
NtRp4128
(dp4129
g54
(dp4130
g62
I5
ssg63
g4124
sg56
(lp4131
g49
(g58
g51
NtRp4132
(dp4133
g54
(dp4134
g62
I4
ssg63
Nsg56
(lp4135
g49
(g65
g51
NtRp4136
(dp4137
g54
(dp4138
sg63
g4132
sg56
(lp4139
g49
(g70
g51
NtRp4140
(dp4141
g54
(dp4142
sg63
g4136
sg56
(lp4143
g49
(g50
g51
NtRp4144
(dp4145
g54
(dp4146
g62
I4
ssg63
g4140
sg56
(lp4147
g49
(g58
g51
NtRp4148
(dp4149
g54
(dp4150
g62
I3
ssg63
Nsg56
(lp4151
g49
(g65
g51
NtRp4152
(dp4153
g54
(dp4154
sg63
g4148
sg56
(lp4155
g49
(g70
g51
NtRp4156
(dp4157
g54
(dp4158
sg63
g4152
sg56
(lp4159
g49
(g50
g51
NtRp4160
(dp4161
g54
(dp4162
g62
I3
ssg63
g4156
sg56
(lp4163
g3959
(S't\x04\x00\x00\x00Home'
tRp4164
asbasbasbag49
(g65
g51
NtRp4165
(dp4166
g54
(dp4167
sg63
g4148
sg56
(lp4168
g49
(g70
g51
NtRp4169
(dp4170
g54
(dp4171
sg63
g4165
sg56
(lp4172
g49
(g50
g51
NtRp4173
(dp4174
g54
(dp4175
g62
I3
ssg63
g4169
sg56
(lp4176
g92
asbasbasbag49
(g65
g51
NtRp4177
(dp4178
g54
(dp4179
sg63
g4148
sg56
(lp4180
g49
(g70
g51
NtRp4181
(dp4182
g54
(dp4183
sg63
g4177
sg56
(lp4184
g49
(g50
g51
NtRp4185
(dp4186
g54
(dp4187
g62
I3
ssg63
g4181
sg56
(lp4188
S'/hellow/default/index'
p4189
asbasbasbag49
(g65
g51
NtRp4190
(dp4191
g54
(dp4192
sg63
g4148
sg56
(lp4193
g49
(g70
g51
NtRp4194
(dp4195
g54
(dp4196
sg63
g4190
sg56
(lp4197
g49
(g50
g51
NtRp4198
(dp4199
g54
(dp4200
g62
I3
ssg63
g4194
sg56
(lp4201
g49
(g58
g51
NtRp4202
(dp4203
g54
(dp4204
g62
I2
ssg63
Nsg56
(lp4205
sbasbasbasbasbasbasbasbag49
(g65
g51
NtRp4206
(dp4207
g54
(dp4208
sg63
g4132
sg56
(lp4209
g49
(g70
g51
NtRp4210
(dp4211
g54
(dp4212
sg63
g4206
sg56
(lp4213
g49
(g50
g51
NtRp4214
(dp4215
g54
(dp4216
g62
I4
ssg63
g4210
sg56
(lp4217
g49
(g58
g51
NtRp4218
(dp4219
g54
(dp4220
g62
I3
ssg63
Nsg56
(lp4221
g49
(g65
g51
NtRp4222
(dp4223
g54
(dp4224
sg63
g4218
sg56
(lp4225
g49
(g70
g51
NtRp4226
(dp4227
g54
(dp4228
sg63
g4222
sg56
(lp4229
g49
(g50
g51
NtRp4230
(dp4231
g54
(dp4232
g62
I3
ssg63
g4226
sg56
(lp4233
g49
(g4103
g51
NtRp4234
(dp4235
g54
(dp4236
g4092
S'highlighted'
p4237
ssg63
Nsg56
(lp4238
g4066
asbasbasbasbag49
(g65
g51
NtRp4239
(dp4240
g54
(dp4241
sg63
g4218
sg56
(lp4242
g49
(g70
g51
NtRp4243
(dp4244
g54
(dp4245
sg63
g4239
sg56
(lp4246
g49
(g50
g51
NtRp4247
(dp4248
g54
(dp4249
g62
I3
ssg63
g4243
sg56
(lp4250
g92
asbasbasbag49
(g65
g51
NtRp4251
(dp4252
g54
(dp4253
sg63
g4218
sg56
(lp4254
g49
(g70
g51
NtRp4255
(dp4256
g54
(dp4257
sg63
g4251
sg56
(lp4258
g49
(g50
g51
NtRp4259
(dp4260
g54
(dp4261
g62
I3
ssg63
g4255
sg56
(lp4262
S'http://web2py.com'
p4263
asbasbasbag49
(g65
g51
NtRp4264
(dp4265
g54
(dp4266
sg63
g4218
sg56
(lp4267
g49
(g70
g51
NtRp4268
(dp4269
g54
(dp4270
sg63
g4264
sg56
(lp4271
g49
(g50
g51
NtRp4272
(dp4273
g54
(dp4274
g62
I3
ssg63
g4268
sg56
(lp4275
g49
(g58
g51
NtRp4276
(dp4277
g54
(dp4278
g62
I2
ssg63
Nsg56
(lp4279
g49
(g65
g51
NtRp4280
(dp4281
g54
(dp4282
sg63
g4276
sg56
(lp4283
g49
(g70
g51
NtRp4284
(dp4285
g54
(dp4286
sg63
g4280
sg56
(lp4287
g49
(g50
g51
NtRp4288
(dp4289
g54
(dp4290
g62
I2
ssg63
g4284
sg56
(lp4291
g49
(g58
g51
NtRp4292
(dp4293
g54
(dp4294
g62
I1
ssg63
Nsg56
(lp4295
g49
(g65
g51
NtRp4296
(dp4297
g54
(dp4298
sg63
g4292
sg56
(lp4299
g49
(g70
g51
NtRp4300
(dp4301
g54
(dp4302
sg63
g4296
sg56
(lp4303
g49
(g50
g51
NtRp4304
(dp4305
g54
(dp4306
g62
I1
ssg63
g4300
sg56
(lp4307
g3959
(S's\x08\x00\x00\x00My Sites'
tRp4308
asbasbasbag49
(g65
g51
NtRp4309
(dp4310
g54
(dp4311
sg63
g4292
sg56
(lp4312
g49
(g70
g51
NtRp4313
(dp4314
g54
(dp4315
sg63
g4309
sg56
(lp4316
g49
(g50
g51
NtRp4317
(dp4318
g54
(dp4319
g62
I1
ssg63
g4313
sg56
(lp4320
I00
asbasbasbag49
(g65
g51
NtRp4321
(dp4322
g54
(dp4323
sg63
g4292
sg56
(lp4324
g49
(g70
g51
NtRp4325
(dp4326
g54
(dp4327
sg63
g4321
sg56
(lp4328
g49
(g50
g51
NtRp4329
(dp4330
g54
(dp4331
g62
I1
ssg63
g4325
sg56
(lp4332
S'/admin/default/site'
p4333
asbasbasbasbasbasbasbag49
(g65
g51
NtRp4334
(dp4335
g54
(dp4336
sg63
g4276
sg56
(lp4337
g49
(g70
g51
NtRp4338
(dp4339
g54
(dp4340
sg63
g4334
sg56
(lp4341
g49
(g50
g51
NtRp4342
(dp4343
g54
(dp4344
g62
I2
ssg63
g4338
sg56
(lp4345
g49
(g58
g51
NtRp4346
(dp4347
g54
(dp4348
g62
I1
ssg63
Nsg56
(lp4349
g49
(g65
g51
NtRp4350
(dp4351
g54
(dp4352
sg63
g4346
sg56
(lp4353
g49
(g70
g51
NtRp4354
(dp4355
g54
(dp4356
sg63
g4350
sg56
(lp4357
g49
(g50
g51
NtRp4358
(dp4359
g54
(dp4360
g62
I1
ssg63
g4354
sg56
(lp4361
g3959
(S's\x08\x00\x00\x00This App'
tRp4362
asbasbasbag49
(g65
g51
NtRp4363
(dp4364
g54
(dp4365
sg63
g4346
sg56
(lp4366
g49
(g70
g51
NtRp4367
(dp4368
g54
(dp4369
sg63
g4363
sg56
(lp4370
g49
(g50
g51
NtRp4371
(dp4372
g54
(dp4373
g62
I1
ssg63
g4367
sg56
(lp4374
I00
asbasbasbag49
(g65
g51
NtRp4375
(dp4376
g54
(dp4377
sg63
g4346
sg56
(lp4378
g49
(g70
g51
NtRp4379
(dp4380
g54
(dp4381
sg63
g4375
sg56
(lp4382
g49
(g50
g51
NtRp4383
(dp4384
g54
(dp4385
g62
I1
ssg63
g4379
sg56
(lp4386
S'/admin/default/design/hellow'
p4387
asbasbasbag49
(g65
g51
NtRp4388
(dp4389
g54
(dp4390
sg63
g4346
sg56
(lp4391
g49
(g70
g51
NtRp4392
(dp4393
g54
(dp4394
sg63
g4388
sg56
(lp4395
g49
(g50
g51
NtRp4396
(dp4397
g54
(dp4398
g62
I1
ssg63
g4392
sg56
(lp4399
(lp4400
(g3959
(S't\n\x00\x00\x00Controller'
tRp4401
I00
S'/admin/default/edit/hellow/controllers/game.py'
tp4402
a(g3959
(S't\x04\x00\x00\x00View'
tRp4403
I00
S'/admin/default/edit/hellow/views/game/show.html'
tp4404
a(g3959
(S't\x06\x00\x00\x00Layout'
tRp4405
I00
S'/admin/default/edit/hellow/views/layout.html'
tp4406
a(g3959
(S't\n\x00\x00\x00Stylesheet'
tRp4407
I00
S'/admin/default/edit/hellow/static/css/web2py.css'
tp4408
a(g3959
(S's\x08\x00\x00\x00DB Model'
tRp4409
I00
S'/admin/default/edit/hellow/models/db.py'
tp4410
a(g3959
(S's\n\x00\x00\x00Menu Model'
tRp4411
I00
S'/admin/default/edit/hellow/models/menu.py'
tp4412
a(g3959
(S't\x08\x00\x00\x00Database'
tRp4413
I00
S'/hellow/appadmin/index'
tp4414
a(g3959
(S't\x06\x00\x00\x00Errors'
tRp4415
I00
S'/admin/default/errors/hellow'
tp4416
a(g3959
(S't\x05\x00\x00\x00About'
tRp4417
I00
S'/admin/default/about/hellow'
tp4418
aasbasbasbasbasbasbasbag49
(g65
g51
NtRp4419
(dp4420
g54
(dp4421
sg63
g4276
sg56
(lp4422
g49
(g70
g51
NtRp4423
(dp4424
g54
(dp4425
sg63
g4419
sg56
(lp4426
g49
(g50
g51
NtRp4427
(dp4428
g54
(dp4429
g62
I2
ssg63
g4423
sg56
(lp4430
g49
(g58
g51
NtRp4431
(dp4432
g54
(dp4433
g62
I1
ssg63
Nsg56
(lp4434
g49
(g65
g51
NtRp4435
(dp4436
g54
(dp4437
sg63
g4431
sg56
(lp4438
g49
(g70
g51
NtRp4439
(dp4440
g54
(dp4441
sg63
g4435
sg56
(lp4442
g49
(g50
g51
NtRp4443
(dp4444
g54
(dp4445
g62
I1
ssg63
g4439
sg56
(lp4446
S'web2py.com'
p4447
asbasbasbag49
(g65
g51
NtRp4448
(dp4449
g54
(dp4450
sg63
g4431
sg56
(lp4451
g49
(g70
g51
NtRp4452
(dp4453
g54
(dp4454
sg63
g4448
sg56
(lp4455
g49
(g50
g51
NtRp4456
(dp4457
g54
(dp4458
g62
I1
ssg63
g4452
sg56
(lp4459
I00
asbasbasbag49
(g65
g51
NtRp4460
(dp4461
g54
(dp4462
sg63
g4431
sg56
(lp4463
g49
(g70
g51
NtRp4464
(dp4465
g54
(dp4466
sg63
g4460
sg56
(lp4467
g49
(g50
g51
NtRp4468
(dp4469
g54
(dp4470
g62
I1
ssg63
g4464
sg56
(lp4471
S'http://www.web2py.com'
p4472
asbasbasbag49
(g65
g51
NtRp4473
(dp4474
g54
(dp4475
sg63
g4431
sg56
(lp4476
g49
(g70
g51
NtRp4477
(dp4478
g54
(dp4479
sg63
g4473
sg56
(lp4480
g49
(g50
g51
NtRp4481
(dp4482
g54
(dp4483
g62
I1
ssg63
g4477
sg56
(lp4484
(lp4485
(g3959
(S't\x08\x00\x00\x00Download'
tRp4486
I00
S'http://www.web2py.com/examples/default/download'
p4487
tp4488
a(g3959
(S't\x07\x00\x00\x00Support'
tRp4489
I00
S'http://www.web2py.com/examples/default/support'
p4490
tp4491
a(g3959
(S't\x04\x00\x00\x00Demo'
tRp4492
I00
S'http://web2py.com/demo_admin'
p4493
tp4494
a(g3959
(S's\x0e\x00\x00\x00Quick Examples'
tRp4495
I00
S'http://web2py.com/examples/default/examples'
p4496
tp4497
a(g3959
(S't\x03\x00\x00\x00FAQ'
tRp4498
I00
S'http://web2py.com/AlterEgo'
p4499
tp4500
a(g3959
(S't\x06\x00\x00\x00Videos'
tRp4501
I00
S'http://www.web2py.com/examples/default/videos/'
p4502
tp4503
a(g3959
(S's\x11\x00\x00\x00Free Applications'
tRp4504
I00
S'http://web2py.com/appliances'
p4505
tp4506
a(g3959
(S't\x07\x00\x00\x00Plugins'
tRp4507
I00
S'http://web2py.com/plugins'
p4508
tp4509
a(g3959
(S't\x07\x00\x00\x00Layouts'
tRp4510
I00
S'http://web2py.com/layouts'
p4511
tp4512
a(g3959
(S't\x07\x00\x00\x00Recipes'
tRp4513
I00
S'http://web2pyslices.com/'
p4514
tp4515
a(g3959
(S't\x08\x00\x00\x00Semantic'
tRp4516
I00
S'http://web2py.com/semantic'
p4517
tp4518
aasbasbasbasbasbasbasbag49
(g65
g51
NtRp4519
(dp4520
g54
(dp4521
sg63
g4276
sg56
(lp4522
g49
(g70
g51
NtRp4523
(dp4524
g54
(dp4525
sg63
g4519
sg56
(lp4526
g49
(g50
g51
NtRp4527
(dp4528
g54
(dp4529
g62
I2
ssg63
g4523
sg56
(lp4530
g49
(g58
g51
NtRp4531
(dp4532
g54
(dp4533
g62
I1
ssg63
Nsg56
(lp4534
g49
(g65
g51
NtRp4535
(dp4536
g54
(dp4537
sg63
g4531
sg56
(lp4538
g49
(g70
g51
NtRp4539
(dp4540
g54
(dp4541
sg63
g4535
sg56
(lp4542
g49
(g50
g51
NtRp4543
(dp4544
g54
(dp4545
g62
I1
ssg63
g4539
sg56
(lp4546
g3959
(S't\r\x00\x00\x00Documentation'
tRp4547
asbasbasbag49
(g65
g51
NtRp4548
(dp4549
g54
(dp4550
sg63
g4531
sg56
(lp4551
g49
(g70
g51
NtRp4552
(dp4553
g54
(dp4554
sg63
g4548
sg56
(lp4555
g49
(g50
g51
NtRp4556
(dp4557
g54
(dp4558
g62
I1
ssg63
g4552
sg56
(lp4559
I00
asbasbasbag49
(g65
g51
NtRp4560
(dp4561
g54
(dp4562
sg63
g4531
sg56
(lp4563
g49
(g70
g51
NtRp4564
(dp4565
g54
(dp4566
sg63
g4560
sg56
(lp4567
g49
(g50
g51
NtRp4568
(dp4569
g54
(dp4570
g62
I1
ssg63
g4564
sg56
(lp4571
S'http://www.web2py.com/book'
p4572
asbasbasbag49
(g65
g51
NtRp4573
(dp4574
g54
(dp4575
sg63
g4531
sg56
(lp4576
g49
(g70
g51
NtRp4577
(dp4578
g54
(dp4579
sg63
g4573
sg56
(lp4580
g49
(g50
g51
NtRp4581
(dp4582
g54
(dp4583
g62
I1
ssg63
g4577
sg56
(lp4584
(lp4585
(g3959
(S't\x07\x00\x00\x00Preface'
tRp4586
I00
S'http://www.web2py.com/book/default/chapter/00'
p4587
tp4588
a(g3959
(S't\x0c\x00\x00\x00Introduction'
tRp4589
I00
S'http://www.web2py.com/book/default/chapter/01'
p4590
tp4591
a(g3959
(S't\x06\x00\x00\x00Python'
tRp4592
I00
S'http://www.web2py.com/book/default/chapter/02'
p4593
tp4594
a(g3959
(S't\x08\x00\x00\x00Overview'
tRp4595
I00
S'http://www.web2py.com/book/default/chapter/03'
p4596
tp4597
a(g3959
(S's\x08\x00\x00\x00The Core'
tRp4598
I00
S'http://www.web2py.com/book/default/chapter/04'
p4599
tp4600
a(g3959
(S's\t\x00\x00\x00The Views'
tRp4601
I00
S'http://www.web2py.com/book/default/chapter/05'
p4602
tp4603
a(g3959
(S't\x08\x00\x00\x00Database'
tRp4604
I00
S'http://www.web2py.com/book/default/chapter/06'
p4605
tp4606
a(g3959
(S's\x14\x00\x00\x00Forms and Validators'
tRp4607
I00
S'http://www.web2py.com/book/default/chapter/07'
p4608
tp4609
a(g3959
(S's\r\x00\x00\x00Email and SMS'
tRp4610
I00
S'http://www.web2py.com/book/default/chapter/08'
p4611
tp4612
a(g3959
(S's\x0e\x00\x00\x00Access Control'
tRp4613
I00
S'http://www.web2py.com/book/default/chapter/09'
p4614
tp4615
a(g3959
(S't\x08\x00\x00\x00Services'
tRp4616
I00
S'http://www.web2py.com/book/default/chapter/10'
p4617
tp4618
a(g3959
(S's\x0c\x00\x00\x00Ajax Recipes'
tRp4619
I00
S'http://www.web2py.com/book/default/chapter/11'
p4620
tp4621
a(g3959
(S's\x16\x00\x00\x00Components and Plugins'
tRp4622
I00
S'http://www.web2py.com/book/default/chapter/12'
p4623
tp4624
a(g3959
(S's\x12\x00\x00\x00Deployment Recipes'
tRp4625
I00
S'http://www.web2py.com/book/default/chapter/13'
p4626
tp4627
a(g3959
(S's\r\x00\x00\x00Other Recipes'
tRp4628
I00
S'http://www.web2py.com/book/default/chapter/14'
p4629
tp4630
a(g3959
(S's\r\x00\x00\x00Buy this book'
tRp4631
I00
S'http://stores.lulu.com/web2py'
p4632
tp4633
aasbasbasbasbasbasbasbag49
(g65
g51
NtRp4634
(dp4635
g54
(dp4636
sg63
g4276
sg56
(lp4637
g49
(g70
g51
NtRp4638
(dp4639
g54
(dp4640
sg63
g4634
sg56
(lp4641
g49
(g50
g51
NtRp4642
(dp4643
g54
(dp4644
g62
I2
ssg63
g4638
sg56
(lp4645
g49
(g58
g51
NtRp4646
(dp4647
g54
(dp4648
g62
I1
ssg63
Nsg56
(lp4649
g49
(g65
g51
NtRp4650
(dp4651
g54
(dp4652
sg63
g4646
sg56
(lp4653
g49
(g70
g51
NtRp4654
(dp4655
g54
(dp4656
sg63
g4650
sg56
(lp4657
g49
(g50
g51
NtRp4658
(dp4659
g54
(dp4660
g62
I1
ssg63
g4654
sg56
(lp4661
g3959
(S't\t\x00\x00\x00Community'
tRp4662
asbasbasbag49
(g65
g51
NtRp4663
(dp4664
g54
(dp4665
sg63
g4646
sg56
(lp4666
g49
(g70
g51
NtRp4667
(dp4668
g54
(dp4669
sg63
g4663
sg56
(lp4670
g49
(g50
g51
NtRp4671
(dp4672
g54
(dp4673
g62
I1
ssg63
g4667
sg56
(lp4674
I00
asbasbasbag49
(g65
g51
NtRp4675
(dp4676
g54
(dp4677
sg63
g4646
sg56
(lp4678
g49
(g70
g51
NtRp4679
(dp4680
g54
(dp4681
sg63
g4675
sg56
(lp4682
g49
(g50
g51
NtRp4683
(dp4684
g54
(dp4685
g62
I1
ssg63
g4679
sg56
(lp4686
Nasbasbasbag49
(g65
g51
NtRp4687
(dp4688
g54
(dp4689
sg63
g4646
sg56
(lp4690
g49
(g70
g51
NtRp4691
(dp4692
g54
(dp4693
sg63
g4687
sg56
(lp4694
g49
(g50
g51
NtRp4695
(dp4696
g54
(dp4697
g62
I1
ssg63
g4691
sg56
(lp4698
(lp4699
(g3959
(S't\x06\x00\x00\x00Groups'
tRp4700
I00
S'http://www.web2py.com/examples/default/usergroups'
p4701
tp4702
a(g3959
(S't\x07\x00\x00\x00Twitter'
tRp4703
I00
S'http://twitter.com/web2py'
p4704
tp4705
a(g3959
(S's\t\x00\x00\x00Live Chat'
tRp4706
I00
S'http://webchat.freenode.net/?channels=web2py'
p4707
tp4708
aasbasbasbasbasbasbasbag49
(g65
g51
NtRp4709
(dp4710
g54
(dp4711
sg63
g4276
sg56
(lp4712
g49
(g70
g51
NtRp4713
(dp4714
g54
(dp4715
sg63
g4709
sg56
(lp4716
g49
(g50
g51
NtRp4717
(dp4718
g54
(dp4719
g62
I2
ssg63
g4713
sg56
(lp4720
g49
(g58
g51
NtRp4721
(dp4722
g54
(dp4723
g62
I1
ssg63
Nsg56
(lp4724
g49
(g65
g51
NtRp4725
(dp4726
g54
(dp4727
sg63
g4721
sg56
(lp4728
g49
(g70
g51
NtRp4729
(dp4730
g54
(dp4731
sg63
g4725
sg56
(lp4732
g49
(g50
g51
NtRp4733
(dp4734
g54
(dp4735
g62
I1
ssg63
g4729
sg56
(lp4736
g3959
(S't\x07\x00\x00\x00Plugins'
tRp4737
asbasbasbag49
(g65
g51
NtRp4738
(dp4739
g54
(dp4740
sg63
g4721
sg56
(lp4741
g49
(g70
g51
NtRp4742
(dp4743
g54
(dp4744
sg63
g4738
sg56
(lp4745
g49
(g50
g51
NtRp4746
(dp4747
g54
(dp4748
g62
I1
ssg63
g4742
sg56
(lp4749
I00
asbasbasbag49
(g65
g51
NtRp4750
(dp4751
g54
(dp4752
sg63
g4721
sg56
(lp4753
g49
(g70
g51
NtRp4754
(dp4755
g54
(dp4756
sg63
g4750
sg56
(lp4757
g49
(g50
g51
NtRp4758
(dp4759
g54
(dp4760
g62
I1
ssg63
g4754
sg56
(lp4761
Nasbasbasbag49
(g65
g51
NtRp4762
(dp4763
g54
(dp4764
sg63
g4721
sg56
(lp4765
g49
(g70
g51
NtRp4766
(dp4767
g54
(dp4768
sg63
g4762
sg56
(lp4769
g49
(g50
g51
NtRp4770
(dp4771
g54
(dp4772
g62
I1
ssg63
g4766
sg56
(lp4773
(lp4774
(S'plugin_wiki'
p4775
I00
S'http://web2py.com/examples/default/download'
p4776
tp4777
a(g3959
(S's\r\x00\x00\x00Other Plugins'
tRp4778
I00
g4508
tp4779
a(g3959
(S's\x0e\x00\x00\x00Layout Plugins'
tRp4780
I00
g4511
tp4781
aasbasbasbasbasbasbasbasbasbasbasbasbasbasbasbasbasbasbasbag49
(g65
g51
NtRp4782
(dp4783
g54
(dp4784
sg63
g3648
sg56
(lp4785
g49
(g70
g51
NtRp4786
(dp4787
g54
(dp4788
g74
g75
ssg63
g4782
sg56
(lp4789
S'meta'
p4790
asbag49
(g70
g51
NtRp4791
(dp4792
g54
(dp4793
g81
g82
ssg63
g4782
sg56
(lp4794
S':'
asbag49
(g70
g51
NtRp4795
(dp4796
g54
(dp4797
sg63
g4782
sg56
(lp4798
g49
(g50
g51
NtRp4799
(dp4800
g54
(dp4801
g62
I5
ssg63
g4795
sg56
(lp4802
g49
(g58
g51
NtRp4803
(dp4804
g54
(dp4805
g62
I4
ssg63
Nsg56
(lp4806
g49
(g65
g51
NtRp4807
(dp4808
g54
(dp4809
sg63
g4803
sg56
(lp4810
g49
(g70
g51
NtRp4811
(dp4812
g54
(dp4813
g74
g75
ssg63
g4807
sg56
(lp4814
S'author'
p4815
asbag49
(g70
g51
NtRp4816
(dp4817
g54
(dp4818
g81
g82
ssg63
g4807
sg56
(lp4819
S':'
asbag49
(g70
g51
NtRp4820
(dp4821
g54
(dp4822
sg63
g4807
sg56
(lp4823
g49
(g50
g51
NtRp4824
(dp4825
g54
(dp4826
g62
I4
ssg63
g4820
sg56
(lp4827
S'Your Name <you@example.com>'
p4828
asbasbasbag49
(g65
g51
NtRp4829
(dp4830
g54
(dp4831
sg63
g4803
sg56
(lp4832
g49
(g70
g51
NtRp4833
(dp4834
g54
(dp4835
g74
g75
ssg63
g4829
sg56
(lp4836
S'description'
p4837
asbag49
(g70
g51
NtRp4838
(dp4839
g54
(dp4840
g81
g82
ssg63
g4829
sg56
(lp4841
S':'
asbag49
(g70
g51
NtRp4842
(dp4843
g54
(dp4844
sg63
g4829
sg56
(lp4845
g49
(g50
g51
NtRp4846
(dp4847
g54
(dp4848
g62
I4
ssg63
g4842
sg56
(lp4849
S'a cool new app'
p4850
asbasbasbag49
(g65
g51
NtRp4851
(dp4852
g54
(dp4853
sg63
g4803
sg56
(lp4854
g49
(g70
g51
NtRp4855
(dp4856
g54
(dp4857
g74
g75
ssg63
g4851
sg56
(lp4858
S'generator'
p4859
asbag49
(g70
g51
NtRp4860
(dp4861
g54
(dp4862
g81
g82
ssg63
g4851
sg56
(lp4863
S':'
asbag49
(g70
g51
NtRp4864
(dp4865
g54
(dp4866
sg63
g4851
sg56
(lp4867
g49
(g50
g51
NtRp4868
(dp4869
g54
(dp4870
g62
I4
ssg63
g4864
sg56
(lp4871
S'Web2py Web Framework'
p4872
asbasbasbag49
(g65
g51
NtRp4873
(dp4874
g54
(dp4875
sg63
g4803
sg56
(lp4876
g49
(g70
g51
NtRp4877
(dp4878
g54
(dp4879
g74
g75
ssg63
g4873
sg56
(lp4880
S'keywords'
p4881
asbag49
(g70
g51
NtRp4882
(dp4883
g54
(dp4884
g81
g82
ssg63
g4873
sg56
(lp4885
S':'
asbag49
(g70
g51
NtRp4886
(dp4887
g54
(dp4888
sg63
g4873
sg56
(lp4889
g49
(g50
g51
NtRp4890
(dp4891
g54
(dp4892
g62
I4
ssg63
g4886
sg56
(lp4893
S'web2py, python, framework'
p4894
asbasbasbasbasbasbasbag49
(g65
g51
NtRp4895
(dp4896
g54
(dp4897
sg63
g3648
sg56
(lp4898
g49
(g70
g51
NtRp4899
(dp4900
g54
(dp4901
g74
g75
ssg63
g4895
sg56
(lp4902
S'models_to_run'
p4903
asbag49
(g70
g51
NtRp4904
(dp4905
g54
(dp4906
g81
g82
ssg63
g4895
sg56
(lp4907
S':'
asbag49
(g70
g51
NtRp4908
(dp4909
g54
(dp4910
sg63
g4895
sg56
(lp4911
g49
(g50
g51
NtRp4912
(dp4913
g54
(dp4914
g62
I5
ssg63
g4908
sg56
(lp4915
g49
(g58
g51
NtRp4916
(dp4917
g54
(dp4918
g62
I4
ssg63
Nsg56
(lp4919
g49
(g65
g51
NtRp4920
(dp4921
g54
(dp4922
sg63
g4916
sg56
(lp4923
g49
(g70
g51
NtRp4924
(dp4925
g54
(dp4926
sg63
g4920
sg56
(lp4927
g49
(g50
g51
NtRp4928
(dp4929
g54
(dp4930
g62
I4
ssg63
g4924
sg56
(lp4931
S'^\\w+\\.py$'
p4932
asbasbasbag49
(g65
g51
NtRp4933
(dp4934
g54
(dp4935
sg63
g4916
sg56
(lp4936
g49
(g70
g51
NtRp4937
(dp4938
g54
(dp4939
sg63
g4933
sg56
(lp4940
g49
(g50
g51
NtRp4941
(dp4942
g54
(dp4943
g62
I4
ssg63
g4937
sg56
(lp4944
S'^game/\\w+\\.py$'
p4945
asbasbasbag49
(g65
g51
NtRp4946
(dp4947
g54
(dp4948
sg63
g4916
sg56
(lp4949
g49
(g70
g51
NtRp4950
(dp4951
g54
(dp4952
sg63
g4946
sg56
(lp4953
g49
(g50
g51
NtRp4954
(dp4955
g54
(dp4956
g62
I4
ssg63
g4950
sg56
(lp4957
S'^game/show/\\w+\\.py$'
p4958
asbasbasbasbasbasbasbag49
(g65
g51
NtRp4959
(dp4960
g54
(dp4961
sg63
g3648
sg56
(lp4962
g49
(g70
g51
NtRp4963
(dp4964
g54
(dp4965
g74
g75
ssg63
g4959
sg56
(lp4966
S'postprocessing'
p4967
asbag49
(g70
g51
NtRp4968
(dp4969
g54
(dp4970
g81
g82
ssg63
g4959
sg56
(lp4971
S':'
asbag49
(g70
g51
NtRp4972
(dp4973
g54
(dp4974
sg63
g4959
sg56
(lp4975
g49
(g50
g51
NtRp4976
(dp4977
g54
(dp4978
g62
I5
ssg63
g4972
sg56
(lp4979
g49
(g58
g51
NtRp4980
(dp4981
g54
(dp4982
g62
I4
ssg63
Nsg56
(lp4983
sbasbasbasbag49
(g65
g51
NtRp4984
(dp4985
g54
(dp4986
sg63
g3648
sg56
(lp4987
g49
(g70
g51
NtRp4988
(dp4989
g54
(dp4990
g74
g75
ssg63
g4984
sg56
(lp4991
S'session_cookie_expires'
p4992
asbag49
(g70
g51
NtRp4993
(dp4994
g54
(dp4995
g81
g82
ssg63
g4984
sg56
(lp4996
S':'
asbag49
(g70
g51
NtRp4997
(dp4998
g54
(dp4999
sg63
g4984
sg56
(lp5000
g49
(g50
g51
NtRp5001
(dp5002
g54
(dp5003
g62
I5
ssg63
g4997
sg56
(lp5004
S'None'
p5005
asbasbasbag49
(g65
g51
NtRp5006
(dp5007
g54
(dp5008
sg63
g3648
sg56
(lp5009
g49
(g70
g51
NtRp5010
(dp5011
g54
(dp5012
g74
g75
ssg63
g5006
sg56
(lp5013
S'session_data_name'
p5014
asbag49
(g70
g51
NtRp5015
(dp5016
g54
(dp5017
g81
g82
ssg63
g5006
sg56
(lp5018
S':'
asbag49
(g70
g51
NtRp5019
(dp5020
g54
(dp5021
sg63
g5006
sg56
(lp5022
g49
(g50
g51
NtRp5023
(dp5024
g54
(dp5025
g62
I5
ssg63
g5019
sg56
(lp5026
S'session_data_hellow'
p5027
asbasbasbag49
(g65
g51
NtRp5028
(dp5029
g54
(dp5030
sg63
g3648
sg56
(lp5031
g49
(g70
g51
NtRp5032
(dp5033
g54
(dp5034
g74
g75
ssg63
g5028
sg56
(lp5035
S'session_file'
p5036
asbag49
(g70
g51
NtRp5037
(dp5038
g54
(dp5039
g81
g82
ssg63
g5028
sg56
(lp5040
S':'
asbag49
(g70
g51
NtRp5041
(dp5042
g54
(dp5043
sg63
g5028
sg56
(lp5044
g49
(g50
g51
NtRp5045
(dp5046
g54
(dp5047
g62
I5
ssg63
g5041
sg56
(lp5048
S"<open file '/Users/zamechek/Downloads/web2py/web2py.app/Contents/Resources/applications/hellow/sessions/127.0.0.1-bbea59f2-333e-4593-a45c-2c44a5133d77', mode 'rb+' at 0x6daeec0>"
p5049
asbasbasbag49
(g65
g51
NtRp5050
(dp5051
g54
(dp5052
sg63
g3648
sg56
(lp5053
g49
(g70
g51
NtRp5054
(dp5055
g54
(dp5056
g74
g75
ssg63
g5050
sg56
(lp5057
S'session_filename'
p5058
asbag49
(g70
g51
NtRp5059
(dp5060
g54
(dp5061
g81
g82
ssg63
g5050
sg56
(lp5062
S':'
asbag49
(g70
g51
NtRp5063
(dp5064
g54
(dp5065
sg63
g5050
sg56
(lp5066
g49
(g50
g51
NtRp5067
(dp5068
g54
(dp5069
g62
I5
ssg63
g5063
sg56
(lp5070
S'/Users/zamechek/Downloads/web2py/web2py.app/Contents/Resources/applications/hellow/sessions/127.0.0.1-bbea59f2-333e-4593-a45c-2c44a5133d77'
p5071
asbasbasbag49
(g65
g51
NtRp5072
(dp5073
g54
(dp5074
sg63
g3648
sg56
(lp5075
g49
(g70
g51
NtRp5076
(dp5077
g54
(dp5078
g74
g75
ssg63
g5072
sg56
(lp5079
S'session_id'
p5080
asbag49
(g70
g51
NtRp5081
(dp5082
g54
(dp5083
g81
g82
ssg63
g5072
sg56
(lp5084
S':'
asbag49
(g70
g51
NtRp5085
(dp5086
g54
(dp5087
sg63
g5072
sg56
(lp5088
g49
(g50
g51
NtRp5089
(dp5090
g54
(dp5091
g62
I5
ssg63
g5085
sg56
(lp5092
g458
asbasbasbag49
(g65
g51
NtRp5093
(dp5094
g54
(dp5095
sg63
g3648
sg56
(lp5096
g49
(g70
g51
NtRp5097
(dp5098
g54
(dp5099
g74
g75
ssg63
g5093
sg56
(lp5100
S'session_id_name'
p5101
asbag49
(g70
g51
NtRp5102
(dp5103
g54
(dp5104
g81
g82
ssg63
g5093
sg56
(lp5105
S':'
asbag49
(g70
g51
NtRp5106
(dp5107
g54
(dp5108
sg63
g5093
sg56
(lp5109
g49
(g50
g51
NtRp5110
(dp5111
g54
(dp5112
g62
I5
ssg63
g5106
sg56
(lp5113
g3705
asbasbasbag49
(g65
g51
NtRp5114
(dp5115
g54
(dp5116
sg63
g3648
sg56
(lp5117
g49
(g70
g51
NtRp5118
(dp5119
g54
(dp5120
g74
g75
ssg63
g5114
sg56
(lp5121
S'session_locked'
p5122
asbag49
(g70
g51
NtRp5123
(dp5124
g54
(dp5125
g81
g82
ssg63
g5114
sg56
(lp5126
S':'
asbag49
(g70
g51
NtRp5127
(dp5128
g54
(dp5129
sg63
g5114
sg56
(lp5130
g49
(g50
g51
NtRp5131
(dp5132
g54
(dp5133
g62
I5
ssg63
g5127
sg56
(lp5134
g972
asbasbasbag49
(g65
g51
NtRp5135
(dp5136
g54
(dp5137
sg63
g3648
sg56
(lp5138
g49
(g70
g51
NtRp5139
(dp5140
g54
(dp5141
g74
g75
ssg63
g5135
sg56
(lp5142
S'session_new'
p5143
asbag49
(g70
g51
NtRp5144
(dp5145
g54
(dp5146
g81
g82
ssg63
g5135
sg56
(lp5147
S':'
asbag49
(g70
g51
NtRp5148
(dp5149
g54
(dp5150
sg63
g5135
sg56
(lp5151
g49
(g50
g51
NtRp5152
(dp5153
g54
(dp5154
g62
I5
ssg63
g5148
sg56
(lp5155
g92
asbasbasbag49
(g65
g51
NtRp5156
(dp5157
g54
(dp5158
sg63
g3648
sg56
(lp5159
g49
(g70
g51
NtRp5160
(dp5161
g54
(dp5162
g74
g75
ssg63
g5156
sg56
(lp5163
S'session_storage_type'
p5164
asbag49
(g70
g51
NtRp5165
(dp5166
g54
(dp5167
g81
g82
ssg63
g5156
sg56
(lp5168
S':'
asbag49
(g70
g51
NtRp5169
(dp5170
g54
(dp5171
sg63
g5156
sg56
(lp5172
g49
(g50
g51
NtRp5173
(dp5174
g54
(dp5175
g62
I5
ssg63
g5169
sg56
(lp5176
g3526
asbasbasbag49
(g65
g51
NtRp5177
(dp5178
g54
(dp5179
sg63
g3648
sg56
(lp5180
g49
(g70
g51
NtRp5181
(dp5182
g54
(dp5183
g74
g75
ssg63
g5177
sg56
(lp5184
S'status'
p5185
asbag49
(g70
g51
NtRp5186
(dp5187
g54
(dp5188
g81
g82
ssg63
g5177
sg56
(lp5189
S':'
asbag49
(g70
g51
NtRp5190
(dp5191
g54
(dp5192
sg63
g5177
sg56
(lp5193
g49
(g50
g51
NtRp5194
(dp5195
g54
(dp5196
g62
I5
ssg63
g5190
sg56
(lp5197
S'200'
p5198
asbasbasbag49
(g65
g51
NtRp5199
(dp5200
g54
(dp5201
sg63
g3648
sg56
(lp5202
g49
(g70
g51
NtRp5203
(dp5204
g54
(dp5205
g74
g75
ssg63
g5199
sg56
(lp5206
S'subtitle'
p5207
asbag49
(g70
g51
NtRp5208
(dp5209
g54
(dp5210
g81
g82
ssg63
g5199
sg56
(lp5211
S':'
asbag49
(g70
g51
NtRp5212
(dp5213
g54
(dp5214
sg63
g5199
sg56
(lp5215
g49
(g50
g51
NtRp5216
(dp5217
g54
(dp5218
g62
I5
ssg63
g5212
sg56
(lp5219
g3959
(S's\r\x00\x00\x00customize me!'
tRp5220
asbasbasbag49
(g65
g51
NtRp5221
(dp5222
g54
(dp5223
sg63
g3648
sg56
(lp5224
g49
(g70
g51
NtRp5225
(dp5226
g54
(dp5227
g74
g75
ssg63
g5221
sg56
(lp5228
S'title'
p5229
asbag49
(g70
g51
NtRp5230
(dp5231
g54
(dp5232
g81
g82
ssg63
g5221
sg56
(lp5233
S':'
asbag49
(g70
g51
NtRp5234
(dp5235
g54
(dp5236
sg63
g5221
sg56
(lp5237
g49
(g50
g51
NtRp5238
(dp5239
g54
(dp5240
g62
I5
ssg63
g5234
sg56
(lp5241
S'Hellow'
p5242
asbasbasbag49
(g65
g51
NtRp5243
(dp5244
g54
(dp5245
sg63
g3648
sg56
(lp5246
g49
(g70
g51
NtRp5247
(dp5248
g54
(dp5249
g74
g75
ssg63
g5243
sg56
(lp5250
S'view'
p5251
asbag49
(g70
g51
NtRp5252
(dp5253
g54
(dp5254
g81
g82
ssg63
g5243
sg56
(lp5255
S':'
asbag49
(g70
g51
NtRp5256
(dp5257
g54
(dp5258
sg63
g5243
sg56
(lp5259
g49
(g50
g51
NtRp5260
(dp5261
g54
(dp5262
g62
I5
ssg63
g5256
sg56
(lp5263
S'game/show.html'
p5264
asbasbasbasbasbsS'locals'
p5265
(dp5266
S'game'
p5267
S"<Row {'auth_user': 1, 'balance': 100, 'id': 1}>"
p5268
sS'rows'
p5269
S'<Rows (3)>'
p5270
sS'otherForm'
p5271
S'<gluon.sqlhtml.SQLFORM object at 0x8f59850>'
p5272
sS'bet'
p5273
S"'33'"
p5274
sssS'traceback'
p5275
S'Traceback (most recent call last):\n  File "/home/mdipierro/web2py/gluon/restricted.py", line 212, in restricted\n  File "/Users/zamechek/Downloads/web2py/web2py.app/Contents/Resources/applications/hellow/controllers/game.py", line 39, in <module>\n  File "/home/mdipierro/web2py/gluon/globals.py", line 193, in <lambda>\n  File "/Users/zamechek/Downloads/web2py/web2py.app/Contents/Resources/applications/hellow/controllers/game.py", line 14, in show\n  File "/Users/zamechek/Downloads/web2py/web2py.app/Contents/Resources/applications/hellow/controllers/game.py", line 26, in form_from_factory\nNameError: global name \'srt\' is not defined\n'
p5276
s.