(dp1
S'output'
p2
S"<type 'exceptions.AttributeError'> 'Row' object has no attribute 'odds'"
p3
sS'layer'
p4
S'/Users/zamechek/Downloads/web2py/web2py.app/Contents/Resources/applications/hellow/controllers/game.py'
p5
sS'code'
p6
S'# coding: utf8\n# try something like\nimport random\ndef show():\n    id = request.args[0]\n    game = db.game(id)\n    auth_user = (game.auth_user)\n    \n    query=((db.game.id==db.game_slots.game)&(db.slot.id==db.game_slots.slot))\n    #game_and_slots=(db.game.id==db.game_slots.game)&(db.slot.id==db.game_slots.slot)\n    rows = db(query).select(db.slot.id, db.slot.odds)\n    \n    otherForm = form_from_factory(rows, game, id)\n    return dict(name=auth_user.first_name.capitalize() + " " + auth_user.last_name.capitalize(), balance = game.balance, slots = rows, gameid = id, otherForm=otherForm)\n    \ndef form_from_factory(rows , game, id):\n    game_and_slots=db((db.game.id==db.game_slots.game)&(db.slot.id==db.game_slots.slot))\n    otherForm = SQLFORM.factory(\n        Field(\'bet\', requires=IS_NOT_EMPTY()),\n        Field(\'slot\', requires=IS_IN_DB(game_and_slots, \'slot.id\'), widget=SQLFORM.widgets.radio.widget))\n    if otherForm.process().accepted:\n        bet = int(otherForm.vars.bet)\n        currentBalance =  int(game.balance)\n        remainingBalance = isWinner(int(game.odds), bet, currentBalance)\n        \n        game.update_record(balance=str(remainingBalance))\n        \n        response.flash = \'form accepted\'\n\n    elif otherForm.errors:\n        response.flash = \'form has errors\'\n    return otherForm\n    \ndef isWinner(odds, bet, balance):\n    if(random.randint(1, 10)> odds):\n        return bet + balance\n    else:\n        return bet - balance\n\nresponse._vars=response._caller(show)\n'
p7
sS'snapshot'
p8
(dp9
S'exception'
p10
(dp11
S'__hash__'
p12
S"<method-wrapper '__hash__' of exceptions.AttributeError object at 0x6d4cfa8>"
p13
sS'__setattr__'
p14
S"<method-wrapper '__setattr__' of exceptions.AttributeError object at 0x6d4cfa8>"
p15
sS'__reduce_ex__'
p16
S'<built-in method __reduce_ex__ of exceptions.AttributeError object at 0x6d4cfa8>'
p17
sS'__getslice__'
p18
S"<method-wrapper '__getslice__' of exceptions.AttributeError object at 0x6d4cfa8>"
p19
sS'__getitem__'
p20
S"<method-wrapper '__getitem__' of exceptions.AttributeError object at 0x6d4cfa8>"
p21
sS'__setstate__'
p22
S'<built-in method __setstate__ of exceptions.AttributeError object at 0x6d4cfa8>'
p23
sS'__reduce__'
p24
S'<built-in method __reduce__ of exceptions.AttributeError object at 0x6d4cfa8>'
p25
sS'__str__'
p26
S"<method-wrapper '__str__' of exceptions.AttributeError object at 0x6d4cfa8>"
p27
sS'args'
p28
S'("\'Row\' object has no attribute \'odds\'",)'
p29
sS'__getattribute__'
p30
S"<method-wrapper '__getattribute__' of exceptions.AttributeError object at 0x6d4cfa8>"
p31
sS'__class__'
p32
S"<type 'exceptions.AttributeError'>"
p33
sS'__delattr__'
p34
S"<method-wrapper '__delattr__' of exceptions.AttributeError object at 0x6d4cfa8>"
p35
sS'__repr__'
p36
S"<method-wrapper '__repr__' of exceptions.AttributeError object at 0x6d4cfa8>"
p37
sS'__dict__'
p38
S'{}'
p39
sS'__doc__'
p40
S"'Attribute not found.'"
p41
sS'__init__'
p42
S"<method-wrapper '__init__' of exceptions.AttributeError object at 0x6d4cfa8>"
p43
sS'__new__'
p44
S'<built-in method __new__ of type object at 0x5f94a0>'
p45
ssS'evalue'
p46
S"'Row' object has no attribute 'odds'"
p47
sS'request'
p48
ccopy_reg
_reconstructor
p49
(cgluon.html
BEAUTIFY
p50
c__builtin__
object
p51
NtRp52
(dp53
S'attributes'
p54
(dp55
sS'components'
p56
(lp57
g49
(cgluon.html
TABLE
p58
g51
NtRp59
(dp60
g54
(dp61
S'level'
p62
I5
ssS'parent'
p63
Nsg56
(lp64
g49
(cgluon.html
TR
p65
g51
NtRp66
(dp67
g54
(dp68
sg63
g59
sg56
(lp69
g49
(cgluon.html
TD
p70
g51
NtRp71
(dp72
g54
(dp73
S'_style'
p74
S'font-weight:bold;vertical-align:top'
p75
ssg63
g66
sg56
(lp76
S'ajax'
p77
asbag49
(g70
g51
NtRp78
(dp79
g54
(dp80
S'_valign'
p81
S'top'
p82
ssg63
g66
sg56
(lp83
S':'
asbag49
(g70
g51
NtRp84
(dp85
g54
(dp86
sg63
g66
sg56
(lp87
g49
(g50
g51
NtRp88
(dp89
g54
(dp90
g62
I5
ssg63
g84
sg56
(lp91
S'False'
p92
asbasbasbag49
(g65
g51
NtRp93
(dp94
g54
(dp95
sg63
g59
sg56
(lp96
g49
(g70
g51
NtRp97
(dp98
g54
(dp99
g74
g75
ssg63
g93
sg56
(lp100
S'application'
p101
asbag49
(g70
g51
NtRp102
(dp103
g54
(dp104
g81
g82
ssg63
g93
sg56
(lp105
S':'
asbag49
(g70
g51
NtRp106
(dp107
g54
(dp108
sg63
g93
sg56
(lp109
g49
(g50
g51
NtRp110
(dp111
g54
(dp112
g62
I5
ssg63
g106
sg56
(lp113
S'hellow'
p114
asbasbasbag49
(g65
g51
NtRp115
(dp116
g54
(dp117
sg63
g59
sg56
(lp118
g49
(g70
g51
NtRp119
(dp120
g54
(dp121
g74
g75
ssg63
g115
sg56
(lp122
g28
asbag49
(g70
g51
NtRp123
(dp124
g54
(dp125
g81
g82
ssg63
g115
sg56
(lp126
S':'
asbag49
(g70
g51
NtRp127
(dp128
g54
(dp129
sg63
g115
sg56
(lp130
g49
(g50
g51
NtRp131
(dp132
g54
(dp133
g62
I5
ssg63
g127
sg56
(lp134
g49
(g58
g51
NtRp135
(dp136
g54
(dp137
g62
I4
ssg63
Nsg56
(lp138
g49
(g65
g51
NtRp139
(dp140
g54
(dp141
sg63
g135
sg56
(lp142
g49
(g70
g51
NtRp143
(dp144
g54
(dp145
sg63
g139
sg56
(lp146
g49
(g50
g51
NtRp147
(dp148
g54
(dp149
g62
I4
ssg63
g143
sg56
(lp150
S'1'
asbasbasbasbasbasbasbag49
(g65
g51
NtRp151
(dp152
g54
(dp153
sg63
g59
sg56
(lp154
g49
(g70
g51
NtRp155
(dp156
g54
(dp157
g74
g75
ssg63
g151
sg56
(lp158
S'body'
p159
asbag49
(g70
g51
NtRp160
(dp161
g54
(dp162
g81
g82
ssg63
g151
sg56
(lp163
S':'
asbag49
(g70
g51
NtRp164
(dp165
g54
(dp166
sg63
g151
sg56
(lp167
g49
(g50
g51
NtRp168
(dp169
g54
(dp170
g62
I5
ssg63
g164
sg56
(lp171
S"<open file '<fdopen>', mode 'w+b' at 0x9571068>"
p172
asbasbasbag49
(g65
g51
NtRp173
(dp174
g54
(dp175
sg63
g59
sg56
(lp176
g49
(g70
g51
NtRp177
(dp178
g54
(dp179
g74
g75
ssg63
g173
sg56
(lp180
S'cid'
p181
asbag49
(g70
g51
NtRp182
(dp183
g54
(dp184
g81
g82
ssg63
g173
sg56
(lp185
S':'
asbag49
(g70
g51
NtRp186
(dp187
g54
(dp188
sg63
g173
sg56
(lp189
g49
(g50
g51
NtRp190
(dp191
g54
(dp192
g62
I5
ssg63
g186
sg56
(lp193
S'None'
p194
asbasbasbag49
(g65
g51
NtRp195
(dp196
g54
(dp197
sg63
g59
sg56
(lp198
g49
(g70
g51
NtRp199
(dp200
g54
(dp201
g74
g75
ssg63
g195
sg56
(lp202
S'client'
p203
asbag49
(g70
g51
NtRp204
(dp205
g54
(dp206
g81
g82
ssg63
g195
sg56
(lp207
S':'
asbag49
(g70
g51
NtRp208
(dp209
g54
(dp210
sg63
g195
sg56
(lp211
g49
(g50
g51
NtRp212
(dp213
g54
(dp214
g62
I5
ssg63
g208
sg56
(lp215
S'127.0.0.1'
p216
asbasbasbag49
(g65
g51
NtRp217
(dp218
g54
(dp219
sg63
g59
sg56
(lp220
g49
(g70
g51
NtRp221
(dp222
g54
(dp223
g74
g75
ssg63
g217
sg56
(lp224
S'controller'
p225
asbag49
(g70
g51
NtRp226
(dp227
g54
(dp228
g81
g82
ssg63
g217
sg56
(lp229
S':'
asbag49
(g70
g51
NtRp230
(dp231
g54
(dp232
sg63
g217
sg56
(lp233
g49
(g50
g51
NtRp234
(dp235
g54
(dp236
g62
I5
ssg63
g230
sg56
(lp237
S'game'
p238
asbasbasbag49
(g65
g51
NtRp239
(dp240
g54
(dp241
sg63
g59
sg56
(lp242
g49
(g70
g51
NtRp243
(dp244
g54
(dp245
g74
g75
ssg63
g239
sg56
(lp246
S'cookies'
p247
asbag49
(g70
g51
NtRp248
(dp249
g54
(dp250
g81
g82
ssg63
g239
sg56
(lp251
S':'
asbag49
(g70
g51
NtRp252
(dp253
g54
(dp254
sg63
g239
sg56
(lp255
g49
(g50
g51
NtRp256
(dp257
g54
(dp258
g62
I5
ssg63
g252
sg56
(lp259
g49
(g58
g51
NtRp260
(dp261
g54
(dp262
g62
I4
ssg63
Nsg56
(lp263
g49
(g65
g51
NtRp264
(dp265
g54
(dp266
sg63
g260
sg56
(lp267
g49
(g70
g51
NtRp268
(dp269
g54
(dp270
g74
g75
ssg63
g264
sg56
(lp271
S'session_id_admin'
p272
asbag49
(g70
g51
NtRp273
(dp274
g54
(dp275
g81
g82
ssg63
g264
sg56
(lp276
S':'
asbag49
(g70
g51
NtRp277
(dp278
g54
(dp279
sg63
g264
sg56
(lp280
g49
(g50
g51
NtRp281
(dp282
g54
(dp283
g62
I4
ssg63
g277
sg56
(lp284
S'127.0.0.1-bf448199-cadc-41e3-b1a7-bed302e89a3e'
p285
ag49
(g58
g51
NtRp286
(dp287
g54
(dp288
g62
I3
ssg63
Nsg56
(lp289
g49
(g65
g51
NtRp290
(dp291
g54
(dp292
sg63
g286
sg56
(lp293
g49
(g70
g51
NtRp294
(dp295
g54
(dp296
g74
g75
ssg63
g290
sg56
(lp297
S'comment'
p298
asbag49
(g70
g51
NtRp299
(dp300
g54
(dp301
g81
g82
ssg63
g290
sg56
(lp302
S':'
asbag49
(g70
g51
NtRp303
(dp304
g54
(dp305
sg63
g290
sg56
(lp306
g49
(g50
g51
NtRp307
(dp308
g54
(dp309
g62
I3
ssg63
g303
sg56
(lp310
S''
asbasbasbag49
(g65
g51
NtRp311
(dp312
g54
(dp313
sg63
g286
sg56
(lp314
g49
(g70
g51
NtRp315
(dp316
g54
(dp317
g74
g75
ssg63
g311
sg56
(lp318
S'domain'
p319
asbag49
(g70
g51
NtRp320
(dp321
g54
(dp322
g81
g82
ssg63
g311
sg56
(lp323
S':'
asbag49
(g70
g51
NtRp324
(dp325
g54
(dp326
sg63
g311
sg56
(lp327
g49
(g50
g51
NtRp328
(dp329
g54
(dp330
g62
I3
ssg63
g324
sg56
(lp331
S''
asbasbasbag49
(g65
g51
NtRp332
(dp333
g54
(dp334
sg63
g286
sg56
(lp335
g49
(g70
g51
NtRp336
(dp337
g54
(dp338
g74
g75
ssg63
g332
sg56
(lp339
S'expires'
p340
asbag49
(g70
g51
NtRp341
(dp342
g54
(dp343
g81
g82
ssg63
g332
sg56
(lp344
S':'
asbag49
(g70
g51
NtRp345
(dp346
g54
(dp347
sg63
g332
sg56
(lp348
g49
(g50
g51
NtRp349
(dp350
g54
(dp351
g62
I3
ssg63
g345
sg56
(lp352
S''
asbasbasbag49
(g65
g51
NtRp353
(dp354
g54
(dp355
sg63
g286
sg56
(lp356
g49
(g70
g51
NtRp357
(dp358
g54
(dp359
g74
g75
ssg63
g353
sg56
(lp360
S'max-age'
p361
asbag49
(g70
g51
NtRp362
(dp363
g54
(dp364
g81
g82
ssg63
g353
sg56
(lp365
S':'
asbag49
(g70
g51
NtRp366
(dp367
g54
(dp368
sg63
g353
sg56
(lp369
g49
(g50
g51
NtRp370
(dp371
g54
(dp372
g62
I3
ssg63
g366
sg56
(lp373
S''
asbasbasbag49
(g65
g51
NtRp374
(dp375
g54
(dp376
sg63
g286
sg56
(lp377
g49
(g70
g51
NtRp378
(dp379
g54
(dp380
g74
g75
ssg63
g374
sg56
(lp381
S'path'
p382
asbag49
(g70
g51
NtRp383
(dp384
g54
(dp385
g81
g82
ssg63
g374
sg56
(lp386
S':'
asbag49
(g70
g51
NtRp387
(dp388
g54
(dp389
sg63
g374
sg56
(lp390
g49
(g50
g51
NtRp391
(dp392
g54
(dp393
g62
I3
ssg63
g387
sg56
(lp394
S''
asbasbasbag49
(g65
g51
NtRp395
(dp396
g54
(dp397
sg63
g286
sg56
(lp398
g49
(g70
g51
NtRp399
(dp400
g54
(dp401
g74
g75
ssg63
g395
sg56
(lp402
S'secure'
p403
asbag49
(g70
g51
NtRp404
(dp405
g54
(dp406
g81
g82
ssg63
g395
sg56
(lp407
S':'
asbag49
(g70
g51
NtRp408
(dp409
g54
(dp410
sg63
g395
sg56
(lp411
g49
(g50
g51
NtRp412
(dp413
g54
(dp414
g62
I3
ssg63
g408
sg56
(lp415
S''
asbasbasbag49
(g65
g51
NtRp416
(dp417
g54
(dp418
sg63
g286
sg56
(lp419
g49
(g70
g51
NtRp420
(dp421
g54
(dp422
g74
g75
ssg63
g416
sg56
(lp423
S'version'
p424
asbag49
(g70
g51
NtRp425
(dp426
g54
(dp427
g81
g82
ssg63
g416
sg56
(lp428
S':'
asbag49
(g70
g51
NtRp429
(dp430
g54
(dp431
sg63
g416
sg56
(lp432
g49
(g50
g51
NtRp433
(dp434
g54
(dp435
g62
I3
ssg63
g429
sg56
(lp436
S''
asbasbasbasbasbasbasbag49
(g65
g51
NtRp437
(dp438
g54
(dp439
sg63
g260
sg56
(lp440
g49
(g70
g51
NtRp441
(dp442
g54
(dp443
g74
g75
ssg63
g437
sg56
(lp444
S'session_id_hellow'
p445
asbag49
(g70
g51
NtRp446
(dp447
g54
(dp448
g81
g82
ssg63
g437
sg56
(lp449
S':'
asbag49
(g70
g51
NtRp450
(dp451
g54
(dp452
sg63
g437
sg56
(lp453
g49
(g50
g51
NtRp454
(dp455
g54
(dp456
g62
I4
ssg63
g450
sg56
(lp457
S'127.0.0.1-bbea59f2-333e-4593-a45c-2c44a5133d77'
p458
ag49
(g58
g51
NtRp459
(dp460
g54
(dp461
g62
I3
ssg63
Nsg56
(lp462
g49
(g65
g51
NtRp463
(dp464
g54
(dp465
sg63
g459
sg56
(lp466
g49
(g70
g51
NtRp467
(dp468
g54
(dp469
g74
g75
ssg63
g463
sg56
(lp470
g298
asbag49
(g70
g51
NtRp471
(dp472
g54
(dp473
g81
g82
ssg63
g463
sg56
(lp474
S':'
asbag49
(g70
g51
NtRp475
(dp476
g54
(dp477
sg63
g463
sg56
(lp478
g49
(g50
g51
NtRp479
(dp480
g54
(dp481
g62
I3
ssg63
g475
sg56
(lp482
S''
asbasbasbag49
(g65
g51
NtRp483
(dp484
g54
(dp485
sg63
g459
sg56
(lp486
g49
(g70
g51
NtRp487
(dp488
g54
(dp489
g74
g75
ssg63
g483
sg56
(lp490
g319
asbag49
(g70
g51
NtRp491
(dp492
g54
(dp493
g81
g82
ssg63
g483
sg56
(lp494
S':'
asbag49
(g70
g51
NtRp495
(dp496
g54
(dp497
sg63
g483
sg56
(lp498
g49
(g50
g51
NtRp499
(dp500
g54
(dp501
g62
I3
ssg63
g495
sg56
(lp502
S''
asbasbasbag49
(g65
g51
NtRp503
(dp504
g54
(dp505
sg63
g459
sg56
(lp506
g49
(g70
g51
NtRp507
(dp508
g54
(dp509
g74
g75
ssg63
g503
sg56
(lp510
g340
asbag49
(g70
g51
NtRp511
(dp512
g54
(dp513
g81
g82
ssg63
g503
sg56
(lp514
S':'
asbag49
(g70
g51
NtRp515
(dp516
g54
(dp517
sg63
g503
sg56
(lp518
g49
(g50
g51
NtRp519
(dp520
g54
(dp521
g62
I3
ssg63
g515
sg56
(lp522
S''
asbasbasbag49
(g65
g51
NtRp523
(dp524
g54
(dp525
sg63
g459
sg56
(lp526
g49
(g70
g51
NtRp527
(dp528
g54
(dp529
g74
g75
ssg63
g523
sg56
(lp530
g361
asbag49
(g70
g51
NtRp531
(dp532
g54
(dp533
g81
g82
ssg63
g523
sg56
(lp534
S':'
asbag49
(g70
g51
NtRp535
(dp536
g54
(dp537
sg63
g523
sg56
(lp538
g49
(g50
g51
NtRp539
(dp540
g54
(dp541
g62
I3
ssg63
g535
sg56
(lp542
S''
asbasbasbag49
(g65
g51
NtRp543
(dp544
g54
(dp545
sg63
g459
sg56
(lp546
g49
(g70
g51
NtRp547
(dp548
g54
(dp549
g74
g75
ssg63
g543
sg56
(lp550
g382
asbag49
(g70
g51
NtRp551
(dp552
g54
(dp553
g81
g82
ssg63
g543
sg56
(lp554
S':'
asbag49
(g70
g51
NtRp555
(dp556
g54
(dp557
sg63
g543
sg56
(lp558
g49
(g50
g51
NtRp559
(dp560
g54
(dp561
g62
I3
ssg63
g555
sg56
(lp562
S''
asbasbasbag49
(g65
g51
NtRp563
(dp564
g54
(dp565
sg63
g459
sg56
(lp566
g49
(g70
g51
NtRp567
(dp568
g54
(dp569
g74
g75
ssg63
g563
sg56
(lp570
g403
asbag49
(g70
g51
NtRp571
(dp572
g54
(dp573
g81
g82
ssg63
g563
sg56
(lp574
S':'
asbag49
(g70
g51
NtRp575
(dp576
g54
(dp577
sg63
g563
sg56
(lp578
g49
(g50
g51
NtRp579
(dp580
g54
(dp581
g62
I3
ssg63
g575
sg56
(lp582
S''
asbasbasbag49
(g65
g51
NtRp583
(dp584
g54
(dp585
sg63
g459
sg56
(lp586
g49
(g70
g51
NtRp587
(dp588
g54
(dp589
g74
g75
ssg63
g583
sg56
(lp590
g424
asbag49
(g70
g51
NtRp591
(dp592
g54
(dp593
g81
g82
ssg63
g583
sg56
(lp594
S':'
asbag49
(g70
g51
NtRp595
(dp596
g54
(dp597
sg63
g583
sg56
(lp598
g49
(g50
g51
NtRp599
(dp600
g54
(dp601
g62
I3
ssg63
g595
sg56
(lp602
S''
asbasbasbasbasbasbasbag49
(g65
g51
NtRp603
(dp604
g54
(dp605
sg63
g260
sg56
(lp606
g49
(g70
g51
NtRp607
(dp608
g54
(dp609
g74
g75
ssg63
g603
sg56
(lp610
S'session_id_welcome'
p611
asbag49
(g70
g51
NtRp612
(dp613
g54
(dp614
g81
g82
ssg63
g603
sg56
(lp615
S':'
asbag49
(g70
g51
NtRp616
(dp617
g54
(dp618
sg63
g603
sg56
(lp619
g49
(g50
g51
NtRp620
(dp621
g54
(dp622
g62
I4
ssg63
g616
sg56
(lp623
S'127.0.0.1-dfebfa33-25aa-4072-bce4-08f7e89e2d04'
p624
ag49
(g58
g51
NtRp625
(dp626
g54
(dp627
g62
I3
ssg63
Nsg56
(lp628
g49
(g65
g51
NtRp629
(dp630
g54
(dp631
sg63
g625
sg56
(lp632
g49
(g70
g51
NtRp633
(dp634
g54
(dp635
g74
g75
ssg63
g629
sg56
(lp636
g298
asbag49
(g70
g51
NtRp637
(dp638
g54
(dp639
g81
g82
ssg63
g629
sg56
(lp640
S':'
asbag49
(g70
g51
NtRp641
(dp642
g54
(dp643
sg63
g629
sg56
(lp644
g49
(g50
g51
NtRp645
(dp646
g54
(dp647
g62
I3
ssg63
g641
sg56
(lp648
S''
asbasbasbag49
(g65
g51
NtRp649
(dp650
g54
(dp651
sg63
g625
sg56
(lp652
g49
(g70
g51
NtRp653
(dp654
g54
(dp655
g74
g75
ssg63
g649
sg56
(lp656
g319
asbag49
(g70
g51
NtRp657
(dp658
g54
(dp659
g81
g82
ssg63
g649
sg56
(lp660
S':'
asbag49
(g70
g51
NtRp661
(dp662
g54
(dp663
sg63
g649
sg56
(lp664
g49
(g50
g51
NtRp665
(dp666
g54
(dp667
g62
I3
ssg63
g661
sg56
(lp668
S''
asbasbasbag49
(g65
g51
NtRp669
(dp670
g54
(dp671
sg63
g625
sg56
(lp672
g49
(g70
g51
NtRp673
(dp674
g54
(dp675
g74
g75
ssg63
g669
sg56
(lp676
g340
asbag49
(g70
g51
NtRp677
(dp678
g54
(dp679
g81
g82
ssg63
g669
sg56
(lp680
S':'
asbag49
(g70
g51
NtRp681
(dp682
g54
(dp683
sg63
g669
sg56
(lp684
g49
(g50
g51
NtRp685
(dp686
g54
(dp687
g62
I3
ssg63
g681
sg56
(lp688
S''
asbasbasbag49
(g65
g51
NtRp689
(dp690
g54
(dp691
sg63
g625
sg56
(lp692
g49
(g70
g51
NtRp693
(dp694
g54
(dp695
g74
g75
ssg63
g689
sg56
(lp696
g361
asbag49
(g70
g51
NtRp697
(dp698
g54
(dp699
g81
g82
ssg63
g689
sg56
(lp700
S':'
asbag49
(g70
g51
NtRp701
(dp702
g54
(dp703
sg63
g689
sg56
(lp704
g49
(g50
g51
NtRp705
(dp706
g54
(dp707
g62
I3
ssg63
g701
sg56
(lp708
S''
asbasbasbag49
(g65
g51
NtRp709
(dp710
g54
(dp711
sg63
g625
sg56
(lp712
g49
(g70
g51
NtRp713
(dp714
g54
(dp715
g74
g75
ssg63
g709
sg56
(lp716
g382
asbag49
(g70
g51
NtRp717
(dp718
g54
(dp719
g81
g82
ssg63
g709
sg56
(lp720
S':'
asbag49
(g70
g51
NtRp721
(dp722
g54
(dp723
sg63
g709
sg56
(lp724
g49
(g50
g51
NtRp725
(dp726
g54
(dp727
g62
I3
ssg63
g721
sg56
(lp728
S''
asbasbasbag49
(g65
g51
NtRp729
(dp730
g54
(dp731
sg63
g625
sg56
(lp732
g49
(g70
g51
NtRp733
(dp734
g54
(dp735
g74
g75
ssg63
g729
sg56
(lp736
g403
asbag49
(g70
g51
NtRp737
(dp738
g54
(dp739
g81
g82
ssg63
g729
sg56
(lp740
S':'
asbag49
(g70
g51
NtRp741
(dp742
g54
(dp743
sg63
g729
sg56
(lp744
g49
(g50
g51
NtRp745
(dp746
g54
(dp747
g62
I3
ssg63
g741
sg56
(lp748
S''
asbasbasbag49
(g65
g51
NtRp749
(dp750
g54
(dp751
sg63
g625
sg56
(lp752
g49
(g70
g51
NtRp753
(dp754
g54
(dp755
g74
g75
ssg63
g749
sg56
(lp756
g424
asbag49
(g70
g51
NtRp757
(dp758
g54
(dp759
g81
g82
ssg63
g749
sg56
(lp760
S':'
asbag49
(g70
g51
NtRp761
(dp762
g54
(dp763
sg63
g749
sg56
(lp764
g49
(g50
g51
NtRp765
(dp766
g54
(dp767
g62
I3
ssg63
g761
sg56
(lp768
S''
asbasbasbasbasbasbasbasbasbasbasbag49
(g65
g51
NtRp769
(dp770
g54
(dp771
sg63
g59
sg56
(lp772
g49
(g70
g51
NtRp773
(dp774
g54
(dp775
g74
g75
ssg63
g769
sg56
(lp776
S'env'
p777
asbag49
(g70
g51
NtRp778
(dp779
g54
(dp780
g81
g82
ssg63
g769
sg56
(lp781
S':'
asbag49
(g70
g51
NtRp782
(dp783
g54
(dp784
sg63
g769
sg56
(lp785
g49
(g50
g51
NtRp786
(dp787
g54
(dp788
g62
I5
ssg63
g782
sg56
(lp789
g49
(g58
g51
NtRp790
(dp791
g54
(dp792
g62
I4
ssg63
Nsg56
(lp793
g49
(g65
g51
NtRp794
(dp795
g54
(dp796
sg63
g790
sg56
(lp797
g49
(g70
g51
NtRp798
(dp799
g54
(dp800
g74
g75
ssg63
g794
sg56
(lp801
S'app_folders'
p802
asbag49
(g70
g51
NtRp803
(dp804
g54
(dp805
g81
g82
ssg63
g794
sg56
(lp806
S':'
asbag49
(g70
g51
NtRp807
(dp808
g54
(dp809
sg63
g794
sg56
(lp810
g49
(g50
g51
NtRp811
(dp812
g54
(dp813
g62
I4
ssg63
g807
sg56
(lp814
S"set(['/Users/zamechek/Downloads/web2py/web2py.app/Contents/Resources/applications/hellow/', '/Users/zamechek/Downloads/web2py/web2py.app/Contents/Resources/applications/admin/', '/Users/zamechek/Downloads/web2py/web2py.app/Contents/Resources/applications/welcome/'])"
p815
asbasbasbag49
(g65
g51
NtRp816
(dp817
g54
(dp818
sg63
g790
sg56
(lp819
g49
(g70
g51
NtRp820
(dp821
g54
(dp822
g74
g75
ssg63
g816
sg56
(lp823
S'applications_parent'
p824
asbag49
(g70
g51
NtRp825
(dp826
g54
(dp827
g81
g82
ssg63
g816
sg56
(lp828
S':'
asbag49
(g70
g51
NtRp829
(dp830
g54
(dp831
sg63
g816
sg56
(lp832
g49
(g50
g51
NtRp833
(dp834
g54
(dp835
g62
I4
ssg63
g829
sg56
(lp836
S'/Users/zamechek/Downloads/web2py/web2py.app/Contents/Resources'
p837
asbasbasbag49
(g65
g51
NtRp838
(dp839
g54
(dp840
sg63
g790
sg56
(lp841
g49
(g70
g51
NtRp842
(dp843
g54
(dp844
g74
g75
ssg63
g838
sg56
(lp845
S'cmd_args'
p846
asbag49
(g70
g51
NtRp847
(dp848
g54
(dp849
g81
g82
ssg63
g838
sg56
(lp850
S':'
asbag49
(g70
g51
NtRp851
(dp852
g54
(dp853
sg63
g838
sg56
(lp854
g49
(g50
g51
NtRp855
(dp856
g54
(dp857
g62
I4
ssg63
g851
sg56
(lp858
g49
(g58
g51
NtRp859
(dp860
g54
(dp861
g62
I3
ssg63
Nsg56
(lp862
sbasbasbasbag49
(g65
g51
NtRp863
(dp864
g54
(dp865
sg63
g790
sg56
(lp866
g49
(g70
g51
NtRp867
(dp868
g54
(dp869
g74
g75
ssg63
g863
sg56
(lp870
S'cmd_options'
p871
asbag49
(g70
g51
NtRp872
(dp873
g54
(dp874
g81
g82
ssg63
g863
sg56
(lp875
S':'
asbag49
(g70
g51
NtRp876
(dp877
g54
(dp878
sg63
g863
sg56
(lp879
g49
(g50
g51
NtRp880
(dp881
g54
(dp882
g62
I4
ssg63
g876
sg56
(lp883
S"<Values at 0x478bf58: {'verbose': False, 'ip': '127.0.0.1', 'with_scheduler': False, 'ips': ['130.91.149.119'], 'shutdown_timeout': 5, 'taskbar': False, 'port': 8000, 'maxthreads': None, 'softcron': False, 'server_name': 'hntvlan5310374.wlan.sas.upenn.edu', 'bpython': False, 'nogui': False, 'pid_filename': 'httpserver.pid', 'extcron': False, 'runcron': False, 'run_system_tests': False, 'test': None, 'folder': '/Users/zamechek/Downloads/web2py/web2py.app/Contents/Resources', 'config': '', 'import_models': False, 'winservice': '', 'shell': None, 'run': '', 'log_filename': 'httpserver.log', 'debuglevel': 30, 'args': [''], 'socket_timeout': 5, 'ssl_ca_certificate': None, 'scheduler': None, 'profiler_filename': None, 'ssl_private_key': '', 'scheduler_groups': None, 'password': '<ask>', 'request_queue_size': 5, 'ssl_certificate': '', 'cronjob': False, 'numthreads': None, 'quiet': False, 'interfaces': None, 'minthreads': None, 'timeout': 10, 'plain': False, 'nobanner': False}>"
p884
asbasbasbag49
(g65
g51
NtRp885
(dp886
g54
(dp887
sg63
g790
sg56
(lp888
g49
(g70
g51
NtRp889
(dp890
g54
(dp891
g74
g75
ssg63
g885
sg56
(lp892
S'content_length'
p893
asbag49
(g70
g51
NtRp894
(dp895
g54
(dp896
g81
g82
ssg63
g885
sg56
(lp897
S':'
asbag49
(g70
g51
NtRp898
(dp899
g54
(dp900
sg63
g885
sg56
(lp901
g49
(g50
g51
NtRp902
(dp903
g54
(dp904
g62
I4
ssg63
g898
sg56
(lp905
S'470'
p906
asbasbasbag49
(g65
g51
NtRp907
(dp908
g54
(dp909
sg63
g790
sg56
(lp910
g49
(g70
g51
NtRp911
(dp912
g54
(dp913
g74
g75
ssg63
g907
sg56
(lp914
S'content_type'
p915
asbag49
(g70
g51
NtRp916
(dp917
g54
(dp918
g81
g82
ssg63
g907
sg56
(lp919
S':'
asbag49
(g70
g51
NtRp920
(dp921
g54
(dp922
sg63
g907
sg56
(lp923
g49
(g50
g51
NtRp924
(dp925
g54
(dp926
g62
I4
ssg63
g920
sg56
(lp927
S'multipart/form-data; boundary=----WebKitFormBoundarycEmcS5TVkZlCgl5w'
p928
asbasbasbag49
(g65
g51
NtRp929
(dp930
g54
(dp931
sg63
g790
sg56
(lp932
g49
(g70
g51
NtRp933
(dp934
g54
(dp935
g74
g75
ssg63
g929
sg56
(lp936
S'db_sessions'
p937
asbag49
(g70
g51
NtRp938
(dp939
g54
(dp940
g81
g82
ssg63
g929
sg56
(lp941
S':'
asbag49
(g70
g51
NtRp942
(dp943
g54
(dp944
sg63
g929
sg56
(lp945
g49
(g50
g51
NtRp946
(dp947
g54
(dp948
g62
I4
ssg63
g942
sg56
(lp949
S'set([])'
p950
asbasbasbag49
(g65
g51
NtRp951
(dp952
g54
(dp953
sg63
g790
sg56
(lp954
g49
(g70
g51
NtRp955
(dp956
g54
(dp957
g74
g75
ssg63
g951
sg56
(lp958
S'debugging'
p959
asbag49
(g70
g51
NtRp960
(dp961
g54
(dp962
g81
g82
ssg63
g951
sg56
(lp963
S':'
asbag49
(g70
g51
NtRp964
(dp965
g54
(dp966
sg63
g951
sg56
(lp967
g49
(g50
g51
NtRp968
(dp969
g54
(dp970
g62
I4
ssg63
g964
sg56
(lp971
S'True'
p972
asbasbasbag49
(g65
g51
NtRp973
(dp974
g54
(dp975
sg63
g790
sg56
(lp976
g49
(g70
g51
NtRp977
(dp978
g54
(dp979
g74
g75
ssg63
g973
sg56
(lp980
S'gluon_parent'
p981
asbag49
(g70
g51
NtRp982
(dp983
g54
(dp984
g81
g82
ssg63
g973
sg56
(lp985
S':'
asbag49
(g70
g51
NtRp986
(dp987
g54
(dp988
sg63
g973
sg56
(lp989
g49
(g50
g51
NtRp990
(dp991
g54
(dp992
g62
I4
ssg63
g986
sg56
(lp993
S'/Users/zamechek/Downloads/web2py/web2py.app/Contents/Resources'
p994
asbasbasbag49
(g65
g51
NtRp995
(dp996
g54
(dp997
sg63
g790
sg56
(lp998
g49
(g70
g51
NtRp999
(dp1000
g54
(dp1001
g74
g75
ssg63
g995
sg56
(lp1002
S'http_accept'
p1003
asbag49
(g70
g51
NtRp1004
(dp1005
g54
(dp1006
g81
g82
ssg63
g995
sg56
(lp1007
S':'
asbag49
(g70
g51
NtRp1008
(dp1009
g54
(dp1010
sg63
g995
sg56
(lp1011
g49
(g50
g51
NtRp1012
(dp1013
g54
(dp1014
g62
I4
ssg63
g1008
sg56
(lp1015
S'text/html,application/xhtml+xml,application/xml;q=0.9,*/*;q=0.8'
p1016
asbasbasbag49
(g65
g51
NtRp1017
(dp1018
g54
(dp1019
sg63
g790
sg56
(lp1020
g49
(g70
g51
NtRp1021
(dp1022
g54
(dp1023
g74
g75
ssg63
g1017
sg56
(lp1024
S'http_accept_charset'
p1025
asbag49
(g70
g51
NtRp1026
(dp1027
g54
(dp1028
g81
g82
ssg63
g1017
sg56
(lp1029
S':'
asbag49
(g70
g51
NtRp1030
(dp1031
g54
(dp1032
sg63
g1017
sg56
(lp1033
g49
(g50
g51
NtRp1034
(dp1035
g54
(dp1036
g62
I4
ssg63
g1030
sg56
(lp1037
S'ISO-8859-1,utf-8;q=0.7,*;q=0.3'
p1038
asbasbasbag49
(g65
g51
NtRp1039
(dp1040
g54
(dp1041
sg63
g790
sg56
(lp1042
g49
(g70
g51
NtRp1043
(dp1044
g54
(dp1045
g74
g75
ssg63
g1039
sg56
(lp1046
S'http_accept_encoding'
p1047
asbag49
(g70
g51
NtRp1048
(dp1049
g54
(dp1050
g81
g82
ssg63
g1039
sg56
(lp1051
S':'
asbag49
(g70
g51
NtRp1052
(dp1053
g54
(dp1054
sg63
g1039
sg56
(lp1055
g49
(g50
g51
NtRp1056
(dp1057
g54
(dp1058
g62
I4
ssg63
g1052
sg56
(lp1059
S'gzip,deflate,sdch'
p1060
asbasbasbag49
(g65
g51
NtRp1061
(dp1062
g54
(dp1063
sg63
g790
sg56
(lp1064
g49
(g70
g51
NtRp1065
(dp1066
g54
(dp1067
g74
g75
ssg63
g1061
sg56
(lp1068
S'http_accept_language'
p1069
asbag49
(g70
g51
NtRp1070
(dp1071
g54
(dp1072
g81
g82
ssg63
g1061
sg56
(lp1073
S':'
asbag49
(g70
g51
NtRp1074
(dp1075
g54
(dp1076
sg63
g1061
sg56
(lp1077
g49
(g50
g51
NtRp1078
(dp1079
g54
(dp1080
g62
I4
ssg63
g1074
sg56
(lp1081
S'en-US,en;q=0.8'
p1082
asbasbasbag49
(g65
g51
NtRp1083
(dp1084
g54
(dp1085
sg63
g790
sg56
(lp1086
g49
(g70
g51
NtRp1087
(dp1088
g54
(dp1089
g74
g75
ssg63
g1083
sg56
(lp1090
S'http_cache_control'
p1091
asbag49
(g70
g51
NtRp1092
(dp1093
g54
(dp1094
g81
g82
ssg63
g1083
sg56
(lp1095
S':'
asbag49
(g70
g51
NtRp1096
(dp1097
g54
(dp1098
sg63
g1083
sg56
(lp1099
g49
(g50
g51
NtRp1100
(dp1101
g54
(dp1102
g62
I4
ssg63
g1096
sg56
(lp1103
S'max-age=0'
p1104
asbasbasbag49
(g65
g51
NtRp1105
(dp1106
g54
(dp1107
sg63
g790
sg56
(lp1108
g49
(g70
g51
NtRp1109
(dp1110
g54
(dp1111
g74
g75
ssg63
g1105
sg56
(lp1112
S'http_connection'
p1113
asbag49
(g70
g51
NtRp1114
(dp1115
g54
(dp1116
g81
g82
ssg63
g1105
sg56
(lp1117
S':'
asbag49
(g70
g51
NtRp1118
(dp1119
g54
(dp1120
sg63
g1105
sg56
(lp1121
g49
(g50
g51
NtRp1122
(dp1123
g54
(dp1124
g62
I4
ssg63
g1118
sg56
(lp1125
S'keep-alive'
p1126
asbasbasbag49
(g65
g51
NtRp1127
(dp1128
g54
(dp1129
sg63
g790
sg56
(lp1130
g49
(g70
g51
NtRp1131
(dp1132
g54
(dp1133
g74
g75
ssg63
g1127
sg56
(lp1134
S'http_content_length'
p1135
asbag49
(g70
g51
NtRp1136
(dp1137
g54
(dp1138
g81
g82
ssg63
g1127
sg56
(lp1139
S':'
asbag49
(g70
g51
NtRp1140
(dp1141
g54
(dp1142
sg63
g1127
sg56
(lp1143
g49
(g50
g51
NtRp1144
(dp1145
g54
(dp1146
g62
I4
ssg63
g1140
sg56
(lp1147
g906
asbasbasbag49
(g65
g51
NtRp1148
(dp1149
g54
(dp1150
sg63
g790
sg56
(lp1151
g49
(g70
g51
NtRp1152
(dp1153
g54
(dp1154
g74
g75
ssg63
g1148
sg56
(lp1155
S'http_content_type'
p1156
asbag49
(g70
g51
NtRp1157
(dp1158
g54
(dp1159
g81
g82
ssg63
g1148
sg56
(lp1160
S':'
asbag49
(g70
g51
NtRp1161
(dp1162
g54
(dp1163
sg63
g1148
sg56
(lp1164
g49
(g50
g51
NtRp1165
(dp1166
g54
(dp1167
g62
I4
ssg63
g1161
sg56
(lp1168
g928
asbasbasbag49
(g65
g51
NtRp1169
(dp1170
g54
(dp1171
sg63
g790
sg56
(lp1172
g49
(g70
g51
NtRp1173
(dp1174
g54
(dp1175
g74
g75
ssg63
g1169
sg56
(lp1176
S'http_cookie'
p1177
asbag49
(g70
g51
NtRp1178
(dp1179
g54
(dp1180
g81
g82
ssg63
g1169
sg56
(lp1181
S':'
asbag49
(g70
g51
NtRp1182
(dp1183
g54
(dp1184
sg63
g1169
sg56
(lp1185
g49
(g50
g51
NtRp1186
(dp1187
g54
(dp1188
g62
I4
ssg63
g1182
sg56
(lp1189
S'_define_session=BAh7CEkiD3Nlc3Npb25faWQGOgZFRkkiJTVmM2YzOTE4ZmYyNzY4ZDRjYjY5YjcyOGNkZTAxODEwBjsAVEkiEF9jc3JmX3Rva2VuBjsARkkiMVY4MTBXWE1hdGNGUGR0ZzhxeStGc3FiajlCNzB6UkpqcHZUalZJNjRFNms9BjsARkkiGXdhcmRlbi51c2VyLnVzZXIua2V5BjsAVFsISSIJVXNlcgY7AEZbBmkGSSIiJDJhJDEwJGxpeDBzN29QMk5ocFJWZUl4RXZ4WXUGOwBU--36fb82eb40ee1558fc8e56b5bce1c04bba1a6c00; _bs_session=BAh7B0kiD3Nlc3Npb25faWQGOgZFRkkiJWFhOTlmNjdkODEzYjIwNGMyNGUwMTZmNjlkMDBjMjlhBjsAVEkiEF9jc3JmX3Rva2VuBjsARkkiMUJjek16b0JSUDluYk5MekI0YlNTMklPb2Q3V3pNQzJXcHQ1enY1RDgrT3c9BjsARg%3D%3D--80cc0f5e6211d60923eda39a15903de5a280521a; _table_session=BAh7B0kiD3Nlc3Npb25faWQGOgZFRkkiJTdhZTA3MzFhMGMxM2Q4YTAxZGQ3ZTNlMDM2ODIwOWY3BjsAVEkiEF9jc3JmX3Rva2VuBjsARkkiMWxKWVRtT3hGU3dxT0tnbmJ1OG1iL3FXSW9jWVRJdnZhZHJmNTN2b1BqR2M9BjsARg%3D%3D--a8b8801fe97e379d91991be9a0d21a60f46bc09e; _usertable_session=BAh7CEkiD3Nlc3Npb25faWQGOgZFRkkiJTRmY2NiMWMyOTE1ZThhYzE1MzVlYmU3ODMxZjdhM2NmBjsAVEkiEF9jc3JmX3Rva2VuBjsARkkiMXlibkQxRk5wVVFFU05OcDVxMEQvUURSZWRJQVlRY1JwYTdoSkRucEtlYXc9BjsARkkiCmZsYXNoBjsARm86JUFjdGlvbkRpc3BhdGNoOjpGbGFzaDo6Rmxhc2hIYXNoCToKQHVzZWRvOghTZXQGOgpAaGFzaHsAOgxAY2xvc2VkRjoNQGZsYXNoZXN7BjoLbm90aWNlSSItRmllbGQgcmVsYXRpb24gd2FzIHN1Y2Nlc3NmdWxseSBjcmVhdGVkLgY7AEY6CUBub3cw--c455129d4f2ca1e085c6ad184fd200aecc0b7061; _tbls_session=BAh7B0kiD3Nlc3Npb25faWQGOgZFRkkiJWY5MmM2Mzk2ZWQ0M2ZlODZkN2E5YjMxYmViOTU4NTI2BjsAVEkiEF9jc3JmX3Rva2VuBjsARkkiMVZjemQ4UGhpZXhnaEhnOUE2alRCRmdGSXFBclViMFhwQlo5Ulg2VTRhdFk9BjsARg%3D%3D--53586c2b8499a2c56c427cd8b8e3de116331bd4d; _typel_session=BAh7CEkiD3Nlc3Npb25faWQGOgZFRkkiJWQzMjkxZGExNGY5ZTQzNzIzZTk5MWZmZTM0NDY2NTFiBjsAVEkiEF9jc3JmX3Rva2VuBjsARkkiMWM5cVg1c3pKalpQSjd3Yk5lanQ5alpjZW4zRmNOVXdQS29YNExGOXJIUWM9BjsARkkiGXdhcmRlbi51c2VyLnVzZXIua2V5BjsAVFsISSIJVXNlcgY7AEZbBmkGSSIiJDJhJDEwJEVybm5aY0RTdm9sRjRETENhdjRveGUGOwBU--df06a9ed1ab2763964f111c2534c9f2a3630c12c; _ampersand_factory_session=BAh7CUkiD3Nlc3Npb25faWQGOgZFRkkiJWI2NTFmMThjZDNkMWU4NTNhNmI4OWU1MjNhYjMyZmQ0BjsAVEkiDWluc3RhbmNlBjsARmkGSSIQX2NzcmZfdG9rZW4GOwBGSSIxTEtBZER3MFlQQUV6Nmh1NW95TG4vUTFGcFdXa1ozWTVJaUx5aXh4ZndTVT0GOwBGSSIbd2FyZGVuLnVzZXIud29ya2VyLmtleQY7AFRbCEkiC1dvcmtlcgY7AEZbBmkGSSIiJDJhJDEwJGlEdndMRmhzQXB5eE1tLnhjMFM2di4GOwBU--e6bc7e5d4e945842bb7862fd547d433b3c7bfdcb; _lang_session=BAh7B0kiD3Nlc3Npb25faWQGOgZFRkkiJTY2YzI4YTY5NDkzNzE1ZGIzYzUwNWM3ZDg2ZmY1MWNiBjsAVEkiEF9jc3JmX3Rva2VuBjsARkkiMVdVczNjYnUvY2tZaHFvMVlwLy9zemdCcFliUytKdTlUTGZ3M1RIUlI3aHc9BjsARg%3D%3D--52f16b665cb4cfc5b54cea21c7b082ab6b75b1bf; session_id_welcome=127.0.0.1-dfebfa33-25aa-4072-bce4-08f7e89e2d04; session_id_admin=127.0.0.1-bf448199-cadc-41e3-b1a7-bed302e89a3e; session_id_hellow=127.0.0.1-bbea59f2-333e-4593-a45c-2c44a5133d77'
p1190
asbasbasbag49
(g65
g51
NtRp1191
(dp1192
g54
(dp1193
sg63
g790
sg56
(lp1194
g49
(g70
g51
NtRp1195
(dp1196
g54
(dp1197
g74
g75
ssg63
g1191
sg56
(lp1198
S'http_host'
p1199
asbag49
(g70
g51
NtRp1200
(dp1201
g54
(dp1202
g81
g82
ssg63
g1191
sg56
(lp1203
S':'
asbag49
(g70
g51
NtRp1204
(dp1205
g54
(dp1206
sg63
g1191
sg56
(lp1207
g49
(g50
g51
NtRp1208
(dp1209
g54
(dp1210
g62
I4
ssg63
g1204
sg56
(lp1211
S'localhost:8887'
p1212
asbasbasbag49
(g65
g51
NtRp1213
(dp1214
g54
(dp1215
sg63
g790
sg56
(lp1216
g49
(g70
g51
NtRp1217
(dp1218
g54
(dp1219
g74
g75
ssg63
g1213
sg56
(lp1220
S'http_origin'
p1221
asbag49
(g70
g51
NtRp1222
(dp1223
g54
(dp1224
g81
g82
ssg63
g1213
sg56
(lp1225
S':'
asbag49
(g70
g51
NtRp1226
(dp1227
g54
(dp1228
sg63
g1213
sg56
(lp1229
g49
(g50
g51
NtRp1230
(dp1231
g54
(dp1232
g62
I4
ssg63
g1226
sg56
(lp1233
S'http://localhost:8887'
p1234
asbasbasbag49
(g65
g51
NtRp1235
(dp1236
g54
(dp1237
sg63
g790
sg56
(lp1238
g49
(g70
g51
NtRp1239
(dp1240
g54
(dp1241
g74
g75
ssg63
g1235
sg56
(lp1242
S'http_referer'
p1243
asbag49
(g70
g51
NtRp1244
(dp1245
g54
(dp1246
g81
g82
ssg63
g1235
sg56
(lp1247
S':'
asbag49
(g70
g51
NtRp1248
(dp1249
g54
(dp1250
sg63
g1235
sg56
(lp1251
g49
(g50
g51
NtRp1252
(dp1253
g54
(dp1254
g62
I4
ssg63
g1248
sg56
(lp1255
S'http://localhost:8887/hellow/game/show/1/'
p1256
asbasbasbag49
(g65
g51
NtRp1257
(dp1258
g54
(dp1259
sg63
g790
sg56
(lp1260
g49
(g70
g51
NtRp1261
(dp1262
g54
(dp1263
g74
g75
ssg63
g1257
sg56
(lp1264
S'http_user_agent'
p1265
asbag49
(g70
g51
NtRp1266
(dp1267
g54
(dp1268
g81
g82
ssg63
g1257
sg56
(lp1269
S':'
asbag49
(g70
g51
NtRp1270
(dp1271
g54
(dp1272
sg63
g1257
sg56
(lp1273
g49
(g50
g51
NtRp1274
(dp1275
g54
(dp1276
g62
I4
ssg63
g1270
sg56
(lp1277
S'Mozilla/5.0 (Macintosh; Intel Mac OS X 10_8_3) AppleWebKit/537.22 (KHTML, like Gecko) Chrome/25.0.1364.172 Safari/537.22'
p1278
asbasbasbag49
(g65
g51
NtRp1279
(dp1280
g54
(dp1281
sg63
g790
sg56
(lp1282
g49
(g70
g51
NtRp1283
(dp1284
g54
(dp1285
g74
g75
ssg63
g1279
sg56
(lp1286
S'is_jython'
p1287
asbag49
(g70
g51
NtRp1288
(dp1289
g54
(dp1290
g81
g82
ssg63
g1279
sg56
(lp1291
S':'
asbag49
(g70
g51
NtRp1292
(dp1293
g54
(dp1294
sg63
g1279
sg56
(lp1295
g49
(g50
g51
NtRp1296
(dp1297
g54
(dp1298
g62
I4
ssg63
g1292
sg56
(lp1299
g92
asbasbasbag49
(g65
g51
NtRp1300
(dp1301
g54
(dp1302
sg63
g790
sg56
(lp1303
g49
(g70
g51
NtRp1304
(dp1305
g54
(dp1306
g74
g75
ssg63
g1300
sg56
(lp1307
S'is_pypy'
p1308
asbag49
(g70
g51
NtRp1309
(dp1310
g54
(dp1311
g81
g82
ssg63
g1300
sg56
(lp1312
S':'
asbag49
(g70
g51
NtRp1313
(dp1314
g54
(dp1315
sg63
g1300
sg56
(lp1316
g49
(g50
g51
NtRp1317
(dp1318
g54
(dp1319
g62
I4
ssg63
g1313
sg56
(lp1320
g92
asbasbasbag49
(g65
g51
NtRp1321
(dp1322
g54
(dp1323
sg63
g790
sg56
(lp1324
g49
(g70
g51
NtRp1325
(dp1326
g54
(dp1327
g74
g75
ssg63
g1321
sg56
(lp1328
S'local_hosts'
p1329
asbag49
(g70
g51
NtRp1330
(dp1331
g54
(dp1332
g81
g82
ssg63
g1321
sg56
(lp1333
S':'
asbag49
(g70
g51
NtRp1334
(dp1335
g54
(dp1336
sg63
g1321
sg56
(lp1337
g49
(g50
g51
NtRp1338
(dp1339
g54
(dp1340
g62
I4
ssg63
g1334
sg56
(lp1341
g49
(g58
g51
NtRp1342
(dp1343
g54
(dp1344
g62
I3
ssg63
Nsg56
(lp1345
g49
(g65
g51
NtRp1346
(dp1347
g54
(dp1348
sg63
g1342
sg56
(lp1349
g49
(g70
g51
NtRp1350
(dp1351
g54
(dp1352
sg63
g1346
sg56
(lp1353
g49
(g50
g51
NtRp1354
(dp1355
g54
(dp1356
g62
I3
ssg63
g1350
sg56
(lp1357
S'::1'
p1358
asbasbasbag49
(g65
g51
NtRp1359
(dp1360
g54
(dp1361
sg63
g1342
sg56
(lp1362
g49
(g70
g51
NtRp1363
(dp1364
g54
(dp1365
sg63
g1359
sg56
(lp1366
g49
(g50
g51
NtRp1367
(dp1368
g54
(dp1369
g62
I3
ssg63
g1363
sg56
(lp1370
S'130.91.149.119'
p1371
asbasbasbag49
(g65
g51
NtRp1372
(dp1373
g54
(dp1374
sg63
g1342
sg56
(lp1375
g49
(g70
g51
NtRp1376
(dp1377
g54
(dp1378
sg63
g1372
sg56
(lp1379
g49
(g50
g51
NtRp1380
(dp1381
g54
(dp1382
g62
I3
ssg63
g1376
sg56
(lp1383
S'::ffff:127.0.0.1'
p1384
asbasbasbag49
(g65
g51
NtRp1385
(dp1386
g54
(dp1387
sg63
g1342
sg56
(lp1388
g49
(g70
g51
NtRp1389
(dp1390
g54
(dp1391
sg63
g1385
sg56
(lp1392
g49
(g50
g51
NtRp1393
(dp1394
g54
(dp1395
g62
I3
ssg63
g1389
sg56
(lp1396
S'127.0.0.1'
p1397
asbasbasbag49
(g65
g51
NtRp1398
(dp1399
g54
(dp1400
sg63
g1342
sg56
(lp1401
g49
(g70
g51
NtRp1402
(dp1403
g54
(dp1404
sg63
g1398
sg56
(lp1405
g49
(g50
g51
NtRp1406
(dp1407
g54
(dp1408
g62
I3
ssg63
g1402
sg56
(lp1409
S'hntvlan5310374.wlan.sas.upenn.edu'
p1410
asbasbasbasbasbasbasbag49
(g65
g51
NtRp1411
(dp1412
g54
(dp1413
sg63
g790
sg56
(lp1414
g49
(g70
g51
NtRp1415
(dp1416
g54
(dp1417
g74
g75
ssg63
g1411
sg56
(lp1418
S'path_info'
p1419
asbag49
(g70
g51
NtRp1420
(dp1421
g54
(dp1422
g81
g82
ssg63
g1411
sg56
(lp1423
S':'
asbag49
(g70
g51
NtRp1424
(dp1425
g54
(dp1426
sg63
g1411
sg56
(lp1427
g49
(g50
g51
NtRp1428
(dp1429
g54
(dp1430
g62
I4
ssg63
g1424
sg56
(lp1431
S'/hellow/game/show/1/'
p1432
asbasbasbag49
(g65
g51
NtRp1433
(dp1434
g54
(dp1435
sg63
g790
sg56
(lp1436
g49
(g70
g51
NtRp1437
(dp1438
g54
(dp1439
g74
g75
ssg63
g1433
sg56
(lp1440
S'query_string'
p1441
asbag49
(g70
g51
NtRp1442
(dp1443
g54
(dp1444
g81
g82
ssg63
g1433
sg56
(lp1445
S':'
asbag49
(g70
g51
NtRp1446
(dp1447
g54
(dp1448
sg63
g1433
sg56
(lp1449
g49
(g50
g51
NtRp1450
(dp1451
g54
(dp1452
g62
I4
ssg63
g1446
sg56
(lp1453
S''
asbasbasbag49
(g65
g51
NtRp1454
(dp1455
g54
(dp1456
sg63
g790
sg56
(lp1457
g49
(g70
g51
NtRp1458
(dp1459
g54
(dp1460
g74
g75
ssg63
g1454
sg56
(lp1461
S'remote_addr'
p1462
asbag49
(g70
g51
NtRp1463
(dp1464
g54
(dp1465
g81
g82
ssg63
g1454
sg56
(lp1466
S':'
asbag49
(g70
g51
NtRp1467
(dp1468
g54
(dp1469
sg63
g1454
sg56
(lp1470
g49
(g50
g51
NtRp1471
(dp1472
g54
(dp1473
g62
I4
ssg63
g1467
sg56
(lp1474
g216
asbasbasbag49
(g65
g51
NtRp1475
(dp1476
g54
(dp1477
sg63
g790
sg56
(lp1478
g49
(g70
g51
NtRp1479
(dp1480
g54
(dp1481
g74
g75
ssg63
g1475
sg56
(lp1482
S'remote_port'
p1483
asbag49
(g70
g51
NtRp1484
(dp1485
g54
(dp1486
g81
g82
ssg63
g1475
sg56
(lp1487
S':'
asbag49
(g70
g51
NtRp1488
(dp1489
g54
(dp1490
sg63
g1475
sg56
(lp1491
g49
(g50
g51
NtRp1492
(dp1493
g54
(dp1494
g62
I4
ssg63
g1488
sg56
(lp1495
S'60086'
p1496
asbasbasbag49
(g65
g51
NtRp1497
(dp1498
g54
(dp1499
sg63
g790
sg56
(lp1500
g49
(g70
g51
NtRp1501
(dp1502
g54
(dp1503
g74
g75
ssg63
g1497
sg56
(lp1504
S'request_method'
p1505
asbag49
(g70
g51
NtRp1506
(dp1507
g54
(dp1508
g81
g82
ssg63
g1497
sg56
(lp1509
S':'
asbag49
(g70
g51
NtRp1510
(dp1511
g54
(dp1512
sg63
g1497
sg56
(lp1513
g49
(g50
g51
NtRp1514
(dp1515
g54
(dp1516
g62
I4
ssg63
g1510
sg56
(lp1517
S'POST'
p1518
asbasbasbag49
(g65
g51
NtRp1519
(dp1520
g54
(dp1521
sg63
g790
sg56
(lp1522
g49
(g70
g51
NtRp1523
(dp1524
g54
(dp1525
g74
g75
ssg63
g1519
sg56
(lp1526
S'request_uri'
p1527
asbag49
(g70
g51
NtRp1528
(dp1529
g54
(dp1530
g81
g82
ssg63
g1519
sg56
(lp1531
S':'
asbag49
(g70
g51
NtRp1532
(dp1533
g54
(dp1534
sg63
g1519
sg56
(lp1535
g49
(g50
g51
NtRp1536
(dp1537
g54
(dp1538
g62
I4
ssg63
g1532
sg56
(lp1539
g1432
asbasbasbag49
(g65
g51
NtRp1540
(dp1541
g54
(dp1542
sg63
g790
sg56
(lp1543
g49
(g70
g51
NtRp1544
(dp1545
g54
(dp1546
g74
g75
ssg63
g1540
sg56
(lp1547
S'script_name'
p1548
asbag49
(g70
g51
NtRp1549
(dp1550
g54
(dp1551
g81
g82
ssg63
g1540
sg56
(lp1552
S':'
asbag49
(g70
g51
NtRp1553
(dp1554
g54
(dp1555
sg63
g1540
sg56
(lp1556
g49
(g50
g51
NtRp1557
(dp1558
g54
(dp1559
g62
I4
ssg63
g1553
sg56
(lp1560
S''
asbasbasbag49
(g65
g51
NtRp1561
(dp1562
g54
(dp1563
sg63
g790
sg56
(lp1564
g49
(g70
g51
NtRp1565
(dp1566
g54
(dp1567
g74
g75
ssg63
g1561
sg56
(lp1568
S'server_name'
p1569
asbag49
(g70
g51
NtRp1570
(dp1571
g54
(dp1572
g81
g82
ssg63
g1561
sg56
(lp1573
S':'
asbag49
(g70
g51
NtRp1574
(dp1575
g54
(dp1576
sg63
g1561
sg56
(lp1577
g49
(g50
g51
NtRp1578
(dp1579
g54
(dp1580
g62
I4
ssg63
g1574
sg56
(lp1581
S'hntvlan5310374.wlan.sas.upenn.edu'
p1582
asbasbasbag49
(g65
g51
NtRp1583
(dp1584
g54
(dp1585
sg63
g790
sg56
(lp1586
g49
(g70
g51
NtRp1587
(dp1588
g54
(dp1589
g74
g75
ssg63
g1583
sg56
(lp1590
S'server_port'
p1591
asbag49
(g70
g51
NtRp1592
(dp1593
g54
(dp1594
g81
g82
ssg63
g1583
sg56
(lp1595
S':'
asbag49
(g70
g51
NtRp1596
(dp1597
g54
(dp1598
sg63
g1583
sg56
(lp1599
g49
(g50
g51
NtRp1600
(dp1601
g54
(dp1602
g62
I4
ssg63
g1596
sg56
(lp1603
S'8887'
p1604
asbasbasbag49
(g65
g51
NtRp1605
(dp1606
g54
(dp1607
sg63
g790
sg56
(lp1608
g49
(g70
g51
NtRp1609
(dp1610
g54
(dp1611
g74
g75
ssg63
g1605
sg56
(lp1612
S'server_protocol'
p1613
asbag49
(g70
g51
NtRp1614
(dp1615
g54
(dp1616
g81
g82
ssg63
g1605
sg56
(lp1617
S':'
asbag49
(g70
g51
NtRp1618
(dp1619
g54
(dp1620
sg63
g1605
sg56
(lp1621
g49
(g50
g51
NtRp1622
(dp1623
g54
(dp1624
g62
I4
ssg63
g1618
sg56
(lp1625
S'HTTP/1.1'
p1626
asbasbasbag49
(g65
g51
NtRp1627
(dp1628
g54
(dp1629
sg63
g790
sg56
(lp1630
g49
(g70
g51
NtRp1631
(dp1632
g54
(dp1633
g74
g75
ssg63
g1627
sg56
(lp1634
S'server_software'
p1635
asbag49
(g70
g51
NtRp1636
(dp1637
g54
(dp1638
g81
g82
ssg63
g1627
sg56
(lp1639
S':'
asbag49
(g70
g51
NtRp1640
(dp1641
g54
(dp1642
sg63
g1627
sg56
(lp1643
g49
(g50
g51
NtRp1644
(dp1645
g54
(dp1646
g62
I4
ssg63
g1640
sg56
(lp1647
S'Rocket 1.2.6'
p1648
asbasbasbag49
(g65
g51
NtRp1649
(dp1650
g54
(dp1651
sg63
g790
sg56
(lp1652
g49
(g70
g51
NtRp1653
(dp1654
g54
(dp1655
g74
g75
ssg63
g1649
sg56
(lp1656
S'web2py_path'
p1657
asbag49
(g70
g51
NtRp1658
(dp1659
g54
(dp1660
g81
g82
ssg63
g1649
sg56
(lp1661
S':'
asbag49
(g70
g51
NtRp1662
(dp1663
g54
(dp1664
sg63
g1649
sg56
(lp1665
g49
(g50
g51
NtRp1666
(dp1667
g54
(dp1668
g62
I4
ssg63
g1662
sg56
(lp1669
g837
asbasbasbag49
(g65
g51
NtRp1670
(dp1671
g54
(dp1672
sg63
g790
sg56
(lp1673
g49
(g70
g51
NtRp1674
(dp1675
g54
(dp1676
g74
g75
ssg63
g1670
sg56
(lp1677
S'web2py_version'
p1678
asbag49
(g70
g51
NtRp1679
(dp1680
g54
(dp1681
g81
g82
ssg63
g1670
sg56
(lp1682
S':'
asbag49
(g70
g51
NtRp1683
(dp1684
g54
(dp1685
sg63
g1670
sg56
(lp1686
g49
(g50
g51
NtRp1687
(dp1688
g54
(dp1689
g62
I4
ssg63
g1683
sg56
(lp1690
g49
(g58
g51
NtRp1691
(dp1692
g54
(dp1693
g62
I3
ssg63
Nsg56
(lp1694
g49
(g65
g51
NtRp1695
(dp1696
g54
(dp1697
sg63
g1691
sg56
(lp1698
g49
(g70
g51
NtRp1699
(dp1700
g54
(dp1701
sg63
g1695
sg56
(lp1702
g49
(g50
g51
NtRp1703
(dp1704
g54
(dp1705
g62
I3
ssg63
g1699
sg56
(lp1706
S'2'
asbasbasbag49
(g65
g51
NtRp1707
(dp1708
g54
(dp1709
sg63
g1691
sg56
(lp1710
g49
(g70
g51
NtRp1711
(dp1712
g54
(dp1713
sg63
g1707
sg56
(lp1714
g49
(g50
g51
NtRp1715
(dp1716
g54
(dp1717
g62
I3
ssg63
g1711
sg56
(lp1718
S'4'
asbasbasbag49
(g65
g51
NtRp1719
(dp1720
g54
(dp1721
sg63
g1691
sg56
(lp1722
g49
(g70
g51
NtRp1723
(dp1724
g54
(dp1725
sg63
g1719
sg56
(lp1726
g49
(g50
g51
NtRp1727
(dp1728
g54
(dp1729
g62
I3
ssg63
g1723
sg56
(lp1730
S'5'
asbasbasbag49
(g65
g51
NtRp1731
(dp1732
g54
(dp1733
sg63
g1691
sg56
(lp1734
g49
(g70
g51
NtRp1735
(dp1736
g54
(dp1737
sg63
g1731
sg56
(lp1738
g49
(g50
g51
NtRp1739
(dp1740
g54
(dp1741
g62
I3
ssg63
g1735
sg56
(lp1742
S'stable'
p1743
asbasbasbag49
(g65
g51
NtRp1744
(dp1745
g54
(dp1746
sg63
g1691
sg56
(lp1747
g49
(g70
g51
NtRp1748
(dp1749
g54
(dp1750
sg63
g1744
sg56
(lp1751
g49
(g50
g51
NtRp1752
(dp1753
g54
(dp1754
g62
I3
ssg63
g1748
sg56
(lp1755
S'datetime.datetime(2013, 3, 18, 22, 46, 22)'
p1756
asbasbasbasbasbasbasbag49
(g65
g51
NtRp1757
(dp1758
g54
(dp1759
sg63
g790
sg56
(lp1760
g49
(g70
g51
NtRp1761
(dp1762
g54
(dp1763
g74
g75
ssg63
g1757
sg56
(lp1764
S'wsgi_errors'
p1765
asbag49
(g70
g51
NtRp1766
(dp1767
g54
(dp1768
g81
g82
ssg63
g1757
sg56
(lp1769
S':'
asbag49
(g70
g51
NtRp1770
(dp1771
g54
(dp1772
sg63
g1757
sg56
(lp1773
g49
(g50
g51
NtRp1774
(dp1775
g54
(dp1776
g62
I4
ssg63
g1770
sg56
(lp1777
S"<open file '<stderr>', mode 'w' at 0x540b0>"
p1778
asbasbasbag49
(g65
g51
NtRp1779
(dp1780
g54
(dp1781
sg63
g790
sg56
(lp1782
g49
(g70
g51
NtRp1783
(dp1784
g54
(dp1785
g74
g75
ssg63
g1779
sg56
(lp1786
S'wsgi_file_wrapper'
p1787
asbag49
(g70
g51
NtRp1788
(dp1789
g54
(dp1790
g81
g82
ssg63
g1779
sg56
(lp1791
S':'
asbag49
(g70
g51
NtRp1792
(dp1793
g54
(dp1794
sg63
g1779
sg56
(lp1795
g49
(g50
g51
NtRp1796
(dp1797
g54
(dp1798
g62
I4
ssg63
g1792
sg56
(lp1799
S'<class wsgiref.util.FileWrapper at 0x4761060>'
p1800
asbasbasbag49
(g65
g51
NtRp1801
(dp1802
g54
(dp1803
sg63
g790
sg56
(lp1804
g49
(g70
g51
NtRp1805
(dp1806
g54
(dp1807
g74
g75
ssg63
g1801
sg56
(lp1808
S'wsgi_input'
p1809
asbag49
(g70
g51
NtRp1810
(dp1811
g54
(dp1812
g81
g82
ssg63
g1801
sg56
(lp1813
S':'
asbag49
(g70
g51
NtRp1814
(dp1815
g54
(dp1816
sg63
g1801
sg56
(lp1817
g49
(g50
g51
NtRp1818
(dp1819
g54
(dp1820
g62
I4
ssg63
g1814
sg56
(lp1821
S'<socket._fileobject object at 0x71c8a70>'
p1822
asbasbasbag49
(g65
g51
NtRp1823
(dp1824
g54
(dp1825
sg63
g790
sg56
(lp1826
g49
(g70
g51
NtRp1827
(dp1828
g54
(dp1829
g74
g75
ssg63
g1823
sg56
(lp1830
S'wsgi_multiprocess'
p1831
asbag49
(g70
g51
NtRp1832
(dp1833
g54
(dp1834
g81
g82
ssg63
g1823
sg56
(lp1835
S':'
asbag49
(g70
g51
NtRp1836
(dp1837
g54
(dp1838
sg63
g1823
sg56
(lp1839
g49
(g50
g51
NtRp1840
(dp1841
g54
(dp1842
g62
I4
ssg63
g1836
sg56
(lp1843
g92
asbasbasbag49
(g65
g51
NtRp1844
(dp1845
g54
(dp1846
sg63
g790
sg56
(lp1847
g49
(g70
g51
NtRp1848
(dp1849
g54
(dp1850
g74
g75
ssg63
g1844
sg56
(lp1851
S'wsgi_multithread'
p1852
asbag49
(g70
g51
NtRp1853
(dp1854
g54
(dp1855
g81
g82
ssg63
g1844
sg56
(lp1856
S':'
asbag49
(g70
g51
NtRp1857
(dp1858
g54
(dp1859
sg63
g1844
sg56
(lp1860
g49
(g50
g51
NtRp1861
(dp1862
g54
(dp1863
g62
I4
ssg63
g1857
sg56
(lp1864
g972
asbasbasbag49
(g65
g51
NtRp1865
(dp1866
g54
(dp1867
sg63
g790
sg56
(lp1868
g49
(g70
g51
NtRp1869
(dp1870
g54
(dp1871
g74
g75
ssg63
g1865
sg56
(lp1872
S'wsgi_run_once'
p1873
asbag49
(g70
g51
NtRp1874
(dp1875
g54
(dp1876
g81
g82
ssg63
g1865
sg56
(lp1877
S':'
asbag49
(g70
g51
NtRp1878
(dp1879
g54
(dp1880
sg63
g1865
sg56
(lp1881
g49
(g50
g51
NtRp1882
(dp1883
g54
(dp1884
g62
I4
ssg63
g1878
sg56
(lp1885
g92
asbasbasbag49
(g65
g51
NtRp1886
(dp1887
g54
(dp1888
sg63
g790
sg56
(lp1889
g49
(g70
g51
NtRp1890
(dp1891
g54
(dp1892
g74
g75
ssg63
g1886
sg56
(lp1893
S'wsgi_url_scheme'
p1894
asbag49
(g70
g51
NtRp1895
(dp1896
g54
(dp1897
g81
g82
ssg63
g1886
sg56
(lp1898
S':'
asbag49
(g70
g51
NtRp1899
(dp1900
g54
(dp1901
sg63
g1886
sg56
(lp1902
g49
(g50
g51
NtRp1903
(dp1904
g54
(dp1905
g62
I4
ssg63
g1899
sg56
(lp1906
S'http'
p1907
asbasbasbag49
(g65
g51
NtRp1908
(dp1909
g54
(dp1910
sg63
g790
sg56
(lp1911
g49
(g70
g51
NtRp1912
(dp1913
g54
(dp1914
g74
g75
ssg63
g1908
sg56
(lp1915
S'wsgi_version'
p1916
asbag49
(g70
g51
NtRp1917
(dp1918
g54
(dp1919
g81
g82
ssg63
g1908
sg56
(lp1920
S':'
asbag49
(g70
g51
NtRp1921
(dp1922
g54
(dp1923
sg63
g1908
sg56
(lp1924
g49
(g50
g51
NtRp1925
(dp1926
g54
(dp1927
g62
I4
ssg63
g1921
sg56
(lp1928
g49
(g58
g51
NtRp1929
(dp1930
g54
(dp1931
g62
I3
ssg63
Nsg56
(lp1932
g49
(g65
g51
NtRp1933
(dp1934
g54
(dp1935
sg63
g1929
sg56
(lp1936
g49
(g70
g51
NtRp1937
(dp1938
g54
(dp1939
sg63
g1933
sg56
(lp1940
g49
(g50
g51
NtRp1941
(dp1942
g54
(dp1943
g62
I3
ssg63
g1937
sg56
(lp1944
S'1'
asbasbasbag49
(g65
g51
NtRp1945
(dp1946
g54
(dp1947
sg63
g1929
sg56
(lp1948
g49
(g70
g51
NtRp1949
(dp1950
g54
(dp1951
sg63
g1945
sg56
(lp1952
g49
(g50
g51
NtRp1953
(dp1954
g54
(dp1955
g62
I3
ssg63
g1949
sg56
(lp1956
S'0'
asbasbasbasbasbasbasbasbasbasbasbag49
(g65
g51
NtRp1957
(dp1958
g54
(dp1959
sg63
g59
sg56
(lp1960
g49
(g70
g51
NtRp1961
(dp1962
g54
(dp1963
g74
g75
ssg63
g1957
sg56
(lp1964
S'extension'
p1965
asbag49
(g70
g51
NtRp1966
(dp1967
g54
(dp1968
g81
g82
ssg63
g1957
sg56
(lp1969
S':'
asbag49
(g70
g51
NtRp1970
(dp1971
g54
(dp1972
sg63
g1957
sg56
(lp1973
g49
(g50
g51
NtRp1974
(dp1975
g54
(dp1976
g62
I5
ssg63
g1970
sg56
(lp1977
S'html'
p1978
asbasbasbag49
(g65
g51
NtRp1979
(dp1980
g54
(dp1981
sg63
g59
sg56
(lp1982
g49
(g70
g51
NtRp1983
(dp1984
g54
(dp1985
g74
g75
ssg63
g1979
sg56
(lp1986
S'folder'
p1987
asbag49
(g70
g51
NtRp1988
(dp1989
g54
(dp1990
g81
g82
ssg63
g1979
sg56
(lp1991
S':'
asbag49
(g70
g51
NtRp1992
(dp1993
g54
(dp1994
sg63
g1979
sg56
(lp1995
g49
(g50
g51
NtRp1996
(dp1997
g54
(dp1998
g62
I5
ssg63
g1992
sg56
(lp1999
S'/Users/zamechek/Downloads/web2py/web2py.app/Contents/Resources/applications/hellow/'
p2000
asbasbasbag49
(g65
g51
NtRp2001
(dp2002
g54
(dp2003
sg63
g59
sg56
(lp2004
g49
(g70
g51
NtRp2005
(dp2006
g54
(dp2007
g74
g75
ssg63
g2001
sg56
(lp2008
S'function'
p2009
asbag49
(g70
g51
NtRp2010
(dp2011
g54
(dp2012
g81
g82
ssg63
g2001
sg56
(lp2013
S':'
asbag49
(g70
g51
NtRp2014
(dp2015
g54
(dp2016
sg63
g2001
sg56
(lp2017
g49
(g50
g51
NtRp2018
(dp2019
g54
(dp2020
g62
I5
ssg63
g2014
sg56
(lp2021
S'show'
p2022
asbasbasbag49
(g65
g51
NtRp2023
(dp2024
g54
(dp2025
sg63
g59
sg56
(lp2026
g49
(g70
g51
NtRp2027
(dp2028
g54
(dp2029
g74
g75
ssg63
g2023
sg56
(lp2030
S'get_vars'
p2031
asbag49
(g70
g51
NtRp2032
(dp2033
g54
(dp2034
g81
g82
ssg63
g2023
sg56
(lp2035
S':'
asbag49
(g70
g51
NtRp2036
(dp2037
g54
(dp2038
sg63
g2023
sg56
(lp2039
g49
(g50
g51
NtRp2040
(dp2041
g54
(dp2042
g62
I5
ssg63
g2036
sg56
(lp2043
g49
(g58
g51
NtRp2044
(dp2045
g54
(dp2046
g62
I4
ssg63
Nsg56
(lp2047
sbasbasbasbag49
(g65
g51
NtRp2048
(dp2049
g54
(dp2050
sg63
g59
sg56
(lp2051
g49
(g70
g51
NtRp2052
(dp2053
g54
(dp2054
g74
g75
ssg63
g2048
sg56
(lp2055
S'global_settings'
p2056
asbag49
(g70
g51
NtRp2057
(dp2058
g54
(dp2059
g81
g82
ssg63
g2048
sg56
(lp2060
S':'
asbag49
(g70
g51
NtRp2061
(dp2062
g54
(dp2063
sg63
g2048
sg56
(lp2064
g49
(g50
g51
NtRp2065
(dp2066
g54
(dp2067
g62
I5
ssg63
g2061
sg56
(lp2068
g49
(g58
g51
NtRp2069
(dp2070
g54
(dp2071
g62
I4
ssg63
Nsg56
(lp2072
g49
(g65
g51
NtRp2073
(dp2074
g54
(dp2075
sg63
g2069
sg56
(lp2076
g49
(g70
g51
NtRp2077
(dp2078
g54
(dp2079
g74
g75
ssg63
g2073
sg56
(lp2080
g802
asbag49
(g70
g51
NtRp2081
(dp2082
g54
(dp2083
g81
g82
ssg63
g2073
sg56
(lp2084
S':'
asbag49
(g70
g51
NtRp2085
(dp2086
g54
(dp2087
sg63
g2073
sg56
(lp2088
g49
(g50
g51
NtRp2089
(dp2090
g54
(dp2091
g62
I4
ssg63
g2085
sg56
(lp2092
S"set(['/Users/zamechek/Downloads/web2py/web2py.app/Contents/Resources/applications/hellow/', '/Users/zamechek/Downloads/web2py/web2py.app/Contents/Resources/applications/admin/', '/Users/zamechek/Downloads/web2py/web2py.app/Contents/Resources/applications/welcome/'])"
p2093
asbasbasbag49
(g65
g51
NtRp2094
(dp2095
g54
(dp2096
sg63
g2069
sg56
(lp2097
g49
(g70
g51
NtRp2098
(dp2099
g54
(dp2100
g74
g75
ssg63
g2094
sg56
(lp2101
g824
asbag49
(g70
g51
NtRp2102
(dp2103
g54
(dp2104
g81
g82
ssg63
g2094
sg56
(lp2105
S':'
asbag49
(g70
g51
NtRp2106
(dp2107
g54
(dp2108
sg63
g2094
sg56
(lp2109
g49
(g50
g51
NtRp2110
(dp2111
g54
(dp2112
g62
I4
ssg63
g2106
sg56
(lp2113
g837
asbasbasbag49
(g65
g51
NtRp2114
(dp2115
g54
(dp2116
sg63
g2069
sg56
(lp2117
g49
(g70
g51
NtRp2118
(dp2119
g54
(dp2120
g74
g75
ssg63
g2114
sg56
(lp2121
g846
asbag49
(g70
g51
NtRp2122
(dp2123
g54
(dp2124
g81
g82
ssg63
g2114
sg56
(lp2125
S':'
asbag49
(g70
g51
NtRp2126
(dp2127
g54
(dp2128
sg63
g2114
sg56
(lp2129
g49
(g50
g51
NtRp2130
(dp2131
g54
(dp2132
g62
I4
ssg63
g2126
sg56
(lp2133
g49
(g58
g51
NtRp2134
(dp2135
g54
(dp2136
g62
I3
ssg63
Nsg56
(lp2137
sbasbasbasbag49
(g65
g51
NtRp2138
(dp2139
g54
(dp2140
sg63
g2069
sg56
(lp2141
g49
(g70
g51
NtRp2142
(dp2143
g54
(dp2144
g74
g75
ssg63
g2138
sg56
(lp2145
g871
asbag49
(g70
g51
NtRp2146
(dp2147
g54
(dp2148
g81
g82
ssg63
g2138
sg56
(lp2149
S':'
asbag49
(g70
g51
NtRp2150
(dp2151
g54
(dp2152
sg63
g2138
sg56
(lp2153
g49
(g50
g51
NtRp2154
(dp2155
g54
(dp2156
g62
I4
ssg63
g2150
sg56
(lp2157
S"<Values at 0x478bf58: {'verbose': False, 'ip': '127.0.0.1', 'with_scheduler': False, 'ips': ['130.91.149.119'], 'shutdown_timeout': 5, 'taskbar': False, 'port': 8000, 'maxthreads': None, 'softcron': False, 'server_name': 'hntvlan5310374.wlan.sas.upenn.edu', 'bpython': False, 'nogui': False, 'pid_filename': 'httpserver.pid', 'extcron': False, 'runcron': False, 'run_system_tests': False, 'test': None, 'folder': '/Users/zamechek/Downloads/web2py/web2py.app/Contents/Resources', 'config': '', 'import_models': False, 'winservice': '', 'shell': None, 'run': '', 'log_filename': 'httpserver.log', 'debuglevel': 30, 'args': [''], 'socket_timeout': 5, 'ssl_ca_certificate': None, 'scheduler': None, 'profiler_filename': None, 'ssl_private_key': '', 'scheduler_groups': None, 'password': '<ask>', 'request_queue_size': 5, 'ssl_certificate': '', 'cronjob': False, 'numthreads': None, 'quiet': False, 'interfaces': None, 'minthreads': None, 'timeout': 10, 'plain': False, 'nobanner': False}>"
p2158
asbasbasbag49
(g65
g51
NtRp2159
(dp2160
g54
(dp2161
sg63
g2069
sg56
(lp2162
g49
(g70
g51
NtRp2163
(dp2164
g54
(dp2165
g74
g75
ssg63
g2159
sg56
(lp2166
g937
asbag49
(g70
g51
NtRp2167
(dp2168
g54
(dp2169
g81
g82
ssg63
g2159
sg56
(lp2170
S':'
asbag49
(g70
g51
NtRp2171
(dp2172
g54
(dp2173
sg63
g2159
sg56
(lp2174
g49
(g50
g51
NtRp2175
(dp2176
g54
(dp2177
g62
I4
ssg63
g2171
sg56
(lp2178
S'set([])'
p2179
asbasbasbag49
(g65
g51
NtRp2180
(dp2181
g54
(dp2182
sg63
g2069
sg56
(lp2183
g49
(g70
g51
NtRp2184
(dp2185
g54
(dp2186
g74
g75
ssg63
g2180
sg56
(lp2187
g959
asbag49
(g70
g51
NtRp2188
(dp2189
g54
(dp2190
g81
g82
ssg63
g2180
sg56
(lp2191
S':'
asbag49
(g70
g51
NtRp2192
(dp2193
g54
(dp2194
sg63
g2180
sg56
(lp2195
g49
(g50
g51
NtRp2196
(dp2197
g54
(dp2198
g62
I4
ssg63
g2192
sg56
(lp2199
g972
asbasbasbag49
(g65
g51
NtRp2200
(dp2201
g54
(dp2202
sg63
g2069
sg56
(lp2203
g49
(g70
g51
NtRp2204
(dp2205
g54
(dp2206
g74
g75
ssg63
g2200
sg56
(lp2207
g981
asbag49
(g70
g51
NtRp2208
(dp2209
g54
(dp2210
g81
g82
ssg63
g2200
sg56
(lp2211
S':'
asbag49
(g70
g51
NtRp2212
(dp2213
g54
(dp2214
sg63
g2200
sg56
(lp2215
g49
(g50
g51
NtRp2216
(dp2217
g54
(dp2218
g62
I4
ssg63
g2212
sg56
(lp2219
g994
asbasbasbag49
(g65
g51
NtRp2220
(dp2221
g54
(dp2222
sg63
g2069
sg56
(lp2223
g49
(g70
g51
NtRp2224
(dp2225
g54
(dp2226
g74
g75
ssg63
g2220
sg56
(lp2227
g1287
asbag49
(g70
g51
NtRp2228
(dp2229
g54
(dp2230
g81
g82
ssg63
g2220
sg56
(lp2231
S':'
asbag49
(g70
g51
NtRp2232
(dp2233
g54
(dp2234
sg63
g2220
sg56
(lp2235
g49
(g50
g51
NtRp2236
(dp2237
g54
(dp2238
g62
I4
ssg63
g2232
sg56
(lp2239
g92
asbasbasbag49
(g65
g51
NtRp2240
(dp2241
g54
(dp2242
sg63
g2069
sg56
(lp2243
g49
(g70
g51
NtRp2244
(dp2245
g54
(dp2246
g74
g75
ssg63
g2240
sg56
(lp2247
g1308
asbag49
(g70
g51
NtRp2248
(dp2249
g54
(dp2250
g81
g82
ssg63
g2240
sg56
(lp2251
S':'
asbag49
(g70
g51
NtRp2252
(dp2253
g54
(dp2254
sg63
g2240
sg56
(lp2255
g49
(g50
g51
NtRp2256
(dp2257
g54
(dp2258
g62
I4
ssg63
g2252
sg56
(lp2259
g92
asbasbasbag49
(g65
g51
NtRp2260
(dp2261
g54
(dp2262
sg63
g2069
sg56
(lp2263
g49
(g70
g51
NtRp2264
(dp2265
g54
(dp2266
g74
g75
ssg63
g2260
sg56
(lp2267
g1329
asbag49
(g70
g51
NtRp2268
(dp2269
g54
(dp2270
g81
g82
ssg63
g2260
sg56
(lp2271
S':'
asbag49
(g70
g51
NtRp2272
(dp2273
g54
(dp2274
sg63
g2260
sg56
(lp2275
g49
(g50
g51
NtRp2276
(dp2277
g54
(dp2278
g62
I4
ssg63
g2272
sg56
(lp2279
g49
(g58
g51
NtRp2280
(dp2281
g54
(dp2282
g62
I3
ssg63
Nsg56
(lp2283
g49
(g65
g51
NtRp2284
(dp2285
g54
(dp2286
sg63
g2280
sg56
(lp2287
g49
(g70
g51
NtRp2288
(dp2289
g54
(dp2290
sg63
g2284
sg56
(lp2291
g49
(g50
g51
NtRp2292
(dp2293
g54
(dp2294
g62
I3
ssg63
g2288
sg56
(lp2295
g1358
asbasbasbag49
(g65
g51
NtRp2296
(dp2297
g54
(dp2298
sg63
g2280
sg56
(lp2299
g49
(g70
g51
NtRp2300
(dp2301
g54
(dp2302
sg63
g2296
sg56
(lp2303
g49
(g50
g51
NtRp2304
(dp2305
g54
(dp2306
g62
I3
ssg63
g2300
sg56
(lp2307
g1371
asbasbasbag49
(g65
g51
NtRp2308
(dp2309
g54
(dp2310
sg63
g2280
sg56
(lp2311
g49
(g70
g51
NtRp2312
(dp2313
g54
(dp2314
sg63
g2308
sg56
(lp2315
g49
(g50
g51
NtRp2316
(dp2317
g54
(dp2318
g62
I3
ssg63
g2312
sg56
(lp2319
g1384
asbasbasbag49
(g65
g51
NtRp2320
(dp2321
g54
(dp2322
sg63
g2280
sg56
(lp2323
g49
(g70
g51
NtRp2324
(dp2325
g54
(dp2326
sg63
g2320
sg56
(lp2327
g49
(g50
g51
NtRp2328
(dp2329
g54
(dp2330
g62
I3
ssg63
g2324
sg56
(lp2331
g1397
asbasbasbag49
(g65
g51
NtRp2332
(dp2333
g54
(dp2334
sg63
g2280
sg56
(lp2335
g49
(g70
g51
NtRp2336
(dp2337
g54
(dp2338
sg63
g2332
sg56
(lp2339
g49
(g50
g51
NtRp2340
(dp2341
g54
(dp2342
g62
I3
ssg63
g2336
sg56
(lp2343
g1410
asbasbasbasbasbasbasbag49
(g65
g51
NtRp2344
(dp2345
g54
(dp2346
sg63
g2069
sg56
(lp2347
g49
(g70
g51
NtRp2348
(dp2349
g54
(dp2350
g74
g75
ssg63
g2344
sg56
(lp2351
g1678
asbag49
(g70
g51
NtRp2352
(dp2353
g54
(dp2354
g81
g82
ssg63
g2344
sg56
(lp2355
S':'
asbag49
(g70
g51
NtRp2356
(dp2357
g54
(dp2358
sg63
g2344
sg56
(lp2359
g49
(g50
g51
NtRp2360
(dp2361
g54
(dp2362
g62
I4
ssg63
g2356
sg56
(lp2363
g49
(g58
g51
NtRp2364
(dp2365
g54
(dp2366
g62
I3
ssg63
Nsg56
(lp2367
g49
(g65
g51
NtRp2368
(dp2369
g54
(dp2370
sg63
g2364
sg56
(lp2371
g49
(g70
g51
NtRp2372
(dp2373
g54
(dp2374
sg63
g2368
sg56
(lp2375
g49
(g50
g51
NtRp2376
(dp2377
g54
(dp2378
g62
I3
ssg63
g2372
sg56
(lp2379
S'2'
asbasbasbag49
(g65
g51
NtRp2380
(dp2381
g54
(dp2382
sg63
g2364
sg56
(lp2383
g49
(g70
g51
NtRp2384
(dp2385
g54
(dp2386
sg63
g2380
sg56
(lp2387
g49
(g50
g51
NtRp2388
(dp2389
g54
(dp2390
g62
I3
ssg63
g2384
sg56
(lp2391
S'4'
asbasbasbag49
(g65
g51
NtRp2392
(dp2393
g54
(dp2394
sg63
g2364
sg56
(lp2395
g49
(g70
g51
NtRp2396
(dp2397
g54
(dp2398
sg63
g2392
sg56
(lp2399
g49
(g50
g51
NtRp2400
(dp2401
g54
(dp2402
g62
I3
ssg63
g2396
sg56
(lp2403
S'5'
asbasbasbag49
(g65
g51
NtRp2404
(dp2405
g54
(dp2406
sg63
g2364
sg56
(lp2407
g49
(g70
g51
NtRp2408
(dp2409
g54
(dp2410
sg63
g2404
sg56
(lp2411
g49
(g50
g51
NtRp2412
(dp2413
g54
(dp2414
g62
I3
ssg63
g2408
sg56
(lp2415
g1743
asbasbasbag49
(g65
g51
NtRp2416
(dp2417
g54
(dp2418
sg63
g2364
sg56
(lp2419
g49
(g70
g51
NtRp2420
(dp2421
g54
(dp2422
sg63
g2416
sg56
(lp2423
g49
(g50
g51
NtRp2424
(dp2425
g54
(dp2426
g62
I3
ssg63
g2420
sg56
(lp2427
S'datetime.datetime(2013, 3, 18, 22, 46, 22)'
p2428
asbasbasbasbasbasbasbasbasbasbasbag49
(g65
g51
NtRp2429
(dp2430
g54
(dp2431
sg63
g59
sg56
(lp2432
g49
(g70
g51
NtRp2433
(dp2434
g54
(dp2435
g74
g75
ssg63
g2429
sg56
(lp2436
S'is_https'
p2437
asbag49
(g70
g51
NtRp2438
(dp2439
g54
(dp2440
g81
g82
ssg63
g2429
sg56
(lp2441
S':'
asbag49
(g70
g51
NtRp2442
(dp2443
g54
(dp2444
sg63
g2429
sg56
(lp2445
g49
(g50
g51
NtRp2446
(dp2447
g54
(dp2448
g62
I5
ssg63
g2442
sg56
(lp2449
g92
asbasbasbag49
(g65
g51
NtRp2450
(dp2451
g54
(dp2452
sg63
g59
sg56
(lp2453
g49
(g70
g51
NtRp2454
(dp2455
g54
(dp2456
g74
g75
ssg63
g2450
sg56
(lp2457
S'is_local'
p2458
asbag49
(g70
g51
NtRp2459
(dp2460
g54
(dp2461
g81
g82
ssg63
g2450
sg56
(lp2462
S':'
asbag49
(g70
g51
NtRp2463
(dp2464
g54
(dp2465
sg63
g2450
sg56
(lp2466
g49
(g50
g51
NtRp2467
(dp2468
g54
(dp2469
g62
I5
ssg63
g2463
sg56
(lp2470
g972
asbasbasbag49
(g65
g51
NtRp2471
(dp2472
g54
(dp2473
sg63
g59
sg56
(lp2474
g49
(g70
g51
NtRp2475
(dp2476
g54
(dp2477
g74
g75
ssg63
g2471
sg56
(lp2478
S'is_restful'
p2479
asbag49
(g70
g51
NtRp2480
(dp2481
g54
(dp2482
g81
g82
ssg63
g2471
sg56
(lp2483
S':'
asbag49
(g70
g51
NtRp2484
(dp2485
g54
(dp2486
sg63
g2471
sg56
(lp2487
g49
(g50
g51
NtRp2488
(dp2489
g54
(dp2490
g62
I5
ssg63
g2484
sg56
(lp2491
g92
asbasbasbag49
(g65
g51
NtRp2492
(dp2493
g54
(dp2494
sg63
g59
sg56
(lp2495
g49
(g70
g51
NtRp2496
(dp2497
g54
(dp2498
g74
g75
ssg63
g2492
sg56
(lp2499
S'now'
p2500
asbag49
(g70
g51
NtRp2501
(dp2502
g54
(dp2503
g81
g82
ssg63
g2492
sg56
(lp2504
S':'
asbag49
(g70
g51
NtRp2505
(dp2506
g54
(dp2507
sg63
g2492
sg56
(lp2508
g49
(g50
g51
NtRp2509
(dp2510
g54
(dp2511
g62
I5
ssg63
g2505
sg56
(lp2512
S'datetime.datetime(2013, 3, 28, 11, 41, 58, 436012)'
p2513
asbasbasbag49
(g65
g51
NtRp2514
(dp2515
g54
(dp2516
sg63
g59
sg56
(lp2517
g49
(g70
g51
NtRp2518
(dp2519
g54
(dp2520
g74
g75
ssg63
g2514
sg56
(lp2521
S'post_vars'
p2522
asbag49
(g70
g51
NtRp2523
(dp2524
g54
(dp2525
g81
g82
ssg63
g2514
sg56
(lp2526
S':'
asbag49
(g70
g51
NtRp2527
(dp2528
g54
(dp2529
sg63
g2514
sg56
(lp2530
g49
(g50
g51
NtRp2531
(dp2532
g54
(dp2533
g62
I5
ssg63
g2527
sg56
(lp2534
g49
(g58
g51
NtRp2535
(dp2536
g54
(dp2537
g62
I4
ssg63
Nsg56
(lp2538
g49
(g65
g51
NtRp2539
(dp2540
g54
(dp2541
sg63
g2535
sg56
(lp2542
g49
(g70
g51
NtRp2543
(dp2544
g54
(dp2545
g74
g75
ssg63
g2539
sg56
(lp2546
S'bet'
p2547
asbag49
(g70
g51
NtRp2548
(dp2549
g54
(dp2550
g81
g82
ssg63
g2539
sg56
(lp2551
S':'
asbag49
(g70
g51
NtRp2552
(dp2553
g54
(dp2554
sg63
g2539
sg56
(lp2555
g49
(g50
g51
NtRp2556
(dp2557
g54
(dp2558
g62
I4
ssg63
g2552
sg56
(lp2559
S'20'
p2560
asbasbasbag49
(g65
g51
NtRp2561
(dp2562
g54
(dp2563
sg63
g2535
sg56
(lp2564
g49
(g70
g51
NtRp2565
(dp2566
g54
(dp2567
g74
g75
ssg63
g2561
sg56
(lp2568
S'slot'
p2569
asbag49
(g70
g51
NtRp2570
(dp2571
g54
(dp2572
g81
g82
ssg63
g2561
sg56
(lp2573
S':'
asbag49
(g70
g51
NtRp2574
(dp2575
g54
(dp2576
sg63
g2561
sg56
(lp2577
g49
(g50
g51
NtRp2578
(dp2579
g54
(dp2580
g62
I4
ssg63
g2574
sg56
(lp2581
S'5'
asbasbasbasbasbasbasbag49
(g65
g51
NtRp2582
(dp2583
g54
(dp2584
sg63
g59
sg56
(lp2585
g49
(g70
g51
NtRp2586
(dp2587
g54
(dp2588
g74
g75
ssg63
g2582
sg56
(lp2589
S'raw_args'
p2590
asbag49
(g70
g51
NtRp2591
(dp2592
g54
(dp2593
g81
g82
ssg63
g2582
sg56
(lp2594
S':'
asbag49
(g70
g51
NtRp2595
(dp2596
g54
(dp2597
sg63
g2582
sg56
(lp2598
g49
(g50
g51
NtRp2599
(dp2600
g54
(dp2601
g62
I5
ssg63
g2595
sg56
(lp2602
S'1'
asbasbasbag49
(g65
g51
NtRp2603
(dp2604
g54
(dp2605
sg63
g59
sg56
(lp2606
g49
(g70
g51
NtRp2607
(dp2608
g54
(dp2609
g74
g75
ssg63
g2603
sg56
(lp2610
S'raw_extension'
p2611
asbag49
(g70
g51
NtRp2612
(dp2613
g54
(dp2614
g81
g82
ssg63
g2603
sg56
(lp2615
S':'
asbag49
(g70
g51
NtRp2616
(dp2617
g54
(dp2618
sg63
g2603
sg56
(lp2619
g49
(g50
g51
NtRp2620
(dp2621
g54
(dp2622
g62
I5
ssg63
g2616
sg56
(lp2623
S'None'
p2624
asbasbasbag49
(g65
g51
NtRp2625
(dp2626
g54
(dp2627
sg63
g59
sg56
(lp2628
g49
(g70
g51
NtRp2629
(dp2630
g54
(dp2631
g74
g75
ssg63
g2625
sg56
(lp2632
S'url'
p2633
asbag49
(g70
g51
NtRp2634
(dp2635
g54
(dp2636
g81
g82
ssg63
g2625
sg56
(lp2637
S':'
asbag49
(g70
g51
NtRp2638
(dp2639
g54
(dp2640
sg63
g2625
sg56
(lp2641
g49
(g50
g51
NtRp2642
(dp2643
g54
(dp2644
g62
I5
ssg63
g2638
sg56
(lp2645
g1432
asbasbasbag49
(g65
g51
NtRp2646
(dp2647
g54
(dp2648
sg63
g59
sg56
(lp2649
g49
(g70
g51
NtRp2650
(dp2651
g54
(dp2652
g74
g75
ssg63
g2646
sg56
(lp2653
S'utcnow'
p2654
asbag49
(g70
g51
NtRp2655
(dp2656
g54
(dp2657
g81
g82
ssg63
g2646
sg56
(lp2658
S':'
asbag49
(g70
g51
NtRp2659
(dp2660
g54
(dp2661
sg63
g2646
sg56
(lp2662
g49
(g50
g51
NtRp2663
(dp2664
g54
(dp2665
g62
I5
ssg63
g2659
sg56
(lp2666
S'datetime.datetime(2013, 3, 28, 15, 41, 58, 436023)'
p2667
asbasbasbag49
(g65
g51
NtRp2668
(dp2669
g54
(dp2670
sg63
g59
sg56
(lp2671
g49
(g70
g51
NtRp2672
(dp2673
g54
(dp2674
g74
g75
ssg63
g2668
sg56
(lp2675
S'uuid'
p2676
asbag49
(g70
g51
NtRp2677
(dp2678
g54
(dp2679
g81
g82
ssg63
g2668
sg56
(lp2680
S':'
asbag49
(g70
g51
NtRp2681
(dp2682
g54
(dp2683
sg63
g2668
sg56
(lp2684
g49
(g50
g51
NtRp2685
(dp2686
g54
(dp2687
g62
I5
ssg63
g2681
sg56
(lp2688
S'hellow/127.0.0.1.2013-03-28.11-41-58.64e65b62-2652-4e4a-b435-0cfef1ada457'
p2689
asbasbasbag49
(g65
g51
NtRp2690
(dp2691
g54
(dp2692
sg63
g59
sg56
(lp2693
g49
(g70
g51
NtRp2694
(dp2695
g54
(dp2696
g74
g75
ssg63
g2690
sg56
(lp2697
S'vars'
p2698
asbag49
(g70
g51
NtRp2699
(dp2700
g54
(dp2701
g81
g82
ssg63
g2690
sg56
(lp2702
S':'
asbag49
(g70
g51
NtRp2703
(dp2704
g54
(dp2705
sg63
g2690
sg56
(lp2706
g49
(g50
g51
NtRp2707
(dp2708
g54
(dp2709
g62
I5
ssg63
g2703
sg56
(lp2710
g49
(g58
g51
NtRp2711
(dp2712
g54
(dp2713
g62
I4
ssg63
Nsg56
(lp2714
g49
(g65
g51
NtRp2715
(dp2716
g54
(dp2717
sg63
g2711
sg56
(lp2718
g49
(g70
g51
NtRp2719
(dp2720
g54
(dp2721
g74
g75
ssg63
g2715
sg56
(lp2722
g2547
asbag49
(g70
g51
NtRp2723
(dp2724
g54
(dp2725
g81
g82
ssg63
g2715
sg56
(lp2726
S':'
asbag49
(g70
g51
NtRp2727
(dp2728
g54
(dp2729
sg63
g2715
sg56
(lp2730
g49
(g50
g51
NtRp2731
(dp2732
g54
(dp2733
g62
I4
ssg63
g2727
sg56
(lp2734
g2560
asbasbasbag49
(g65
g51
NtRp2735
(dp2736
g54
(dp2737
sg63
g2711
sg56
(lp2738
g49
(g70
g51
NtRp2739
(dp2740
g54
(dp2741
g74
g75
ssg63
g2735
sg56
(lp2742
g2569
asbag49
(g70
g51
NtRp2743
(dp2744
g54
(dp2745
g81
g82
ssg63
g2735
sg56
(lp2746
S':'
asbag49
(g70
g51
NtRp2747
(dp2748
g54
(dp2749
sg63
g2735
sg56
(lp2750
g49
(g50
g51
NtRp2751
(dp2752
g54
(dp2753
g62
I4
ssg63
g2747
sg56
(lp2754
S'5'
asbasbasbasbasbasbasbag49
(g65
g51
NtRp2755
(dp2756
g54
(dp2757
sg63
g59
sg56
(lp2758
g49
(g70
g51
NtRp2759
(dp2760
g54
(dp2761
g74
g75
ssg63
g2755
sg56
(lp2762
S'wsgi'
p2763
asbag49
(g70
g51
NtRp2764
(dp2765
g54
(dp2766
g81
g82
ssg63
g2755
sg56
(lp2767
S':'
asbag49
(g70
g51
NtRp2768
(dp2769
g54
(dp2770
sg63
g2755
sg56
(lp2771
g49
(g50
g51
NtRp2772
(dp2773
g54
(dp2774
g62
I5
ssg63
g2768
sg56
(lp2775
g49
(g58
g51
NtRp2776
(dp2777
g54
(dp2778
g62
I4
ssg63
Nsg56
(lp2779
g49
(g65
g51
NtRp2780
(dp2781
g54
(dp2782
sg63
g2776
sg56
(lp2783
g49
(g70
g51
NtRp2784
(dp2785
g54
(dp2786
g74
g75
ssg63
g2780
sg56
(lp2787
S'environ'
p2788
asbag49
(g70
g51
NtRp2789
(dp2790
g54
(dp2791
g81
g82
ssg63
g2780
sg56
(lp2792
S':'
asbag49
(g70
g51
NtRp2793
(dp2794
g54
(dp2795
sg63
g2780
sg56
(lp2796
g49
(g50
g51
NtRp2797
(dp2798
g54
(dp2799
g62
I4
ssg63
g2793
sg56
(lp2800
g49
(g58
g51
NtRp2801
(dp2802
g54
(dp2803
g62
I3
ssg63
Nsg56
(lp2804
g49
(g65
g51
NtRp2805
(dp2806
g54
(dp2807
sg63
g2801
sg56
(lp2808
g49
(g70
g51
NtRp2809
(dp2810
g54
(dp2811
g74
g75
ssg63
g2805
sg56
(lp2812
S'CONTENT_LENGTH'
p2813
asbag49
(g70
g51
NtRp2814
(dp2815
g54
(dp2816
g81
g82
ssg63
g2805
sg56
(lp2817
S':'
asbag49
(g70
g51
NtRp2818
(dp2819
g54
(dp2820
sg63
g2805
sg56
(lp2821
g49
(g50
g51
NtRp2822
(dp2823
g54
(dp2824
g62
I3
ssg63
g2818
sg56
(lp2825
g906
asbasbasbag49
(g65
g51
NtRp2826
(dp2827
g54
(dp2828
sg63
g2801
sg56
(lp2829
g49
(g70
g51
NtRp2830
(dp2831
g54
(dp2832
g74
g75
ssg63
g2826
sg56
(lp2833
S'CONTENT_TYPE'
p2834
asbag49
(g70
g51
NtRp2835
(dp2836
g54
(dp2837
g81
g82
ssg63
g2826
sg56
(lp2838
S':'
asbag49
(g70
g51
NtRp2839
(dp2840
g54
(dp2841
sg63
g2826
sg56
(lp2842
g49
(g50
g51
NtRp2843
(dp2844
g54
(dp2845
g62
I3
ssg63
g2839
sg56
(lp2846
g928
asbasbasbag49
(g65
g51
NtRp2847
(dp2848
g54
(dp2849
sg63
g2801
sg56
(lp2850
g49
(g70
g51
NtRp2851
(dp2852
g54
(dp2853
g74
g75
ssg63
g2847
sg56
(lp2854
S'HTTP_ACCEPT'
p2855
asbag49
(g70
g51
NtRp2856
(dp2857
g54
(dp2858
g81
g82
ssg63
g2847
sg56
(lp2859
S':'
asbag49
(g70
g51
NtRp2860
(dp2861
g54
(dp2862
sg63
g2847
sg56
(lp2863
g49
(g50
g51
NtRp2864
(dp2865
g54
(dp2866
g62
I3
ssg63
g2860
sg56
(lp2867
g1016
asbasbasbag49
(g65
g51
NtRp2868
(dp2869
g54
(dp2870
sg63
g2801
sg56
(lp2871
g49
(g70
g51
NtRp2872
(dp2873
g54
(dp2874
g74
g75
ssg63
g2868
sg56
(lp2875
S'HTTP_ACCEPT_CHARSET'
p2876
asbag49
(g70
g51
NtRp2877
(dp2878
g54
(dp2879
g81
g82
ssg63
g2868
sg56
(lp2880
S':'
asbag49
(g70
g51
NtRp2881
(dp2882
g54
(dp2883
sg63
g2868
sg56
(lp2884
g49
(g50
g51
NtRp2885
(dp2886
g54
(dp2887
g62
I3
ssg63
g2881
sg56
(lp2888
g1038
asbasbasbag49
(g65
g51
NtRp2889
(dp2890
g54
(dp2891
sg63
g2801
sg56
(lp2892
g49
(g70
g51
NtRp2893
(dp2894
g54
(dp2895
g74
g75
ssg63
g2889
sg56
(lp2896
S'HTTP_ACCEPT_ENCODING'
p2897
asbag49
(g70
g51
NtRp2898
(dp2899
g54
(dp2900
g81
g82
ssg63
g2889
sg56
(lp2901
S':'
asbag49
(g70
g51
NtRp2902
(dp2903
g54
(dp2904
sg63
g2889
sg56
(lp2905
g49
(g50
g51
NtRp2906
(dp2907
g54
(dp2908
g62
I3
ssg63
g2902
sg56
(lp2909
g1060
asbasbasbag49
(g65
g51
NtRp2910
(dp2911
g54
(dp2912
sg63
g2801
sg56
(lp2913
g49
(g70
g51
NtRp2914
(dp2915
g54
(dp2916
g74
g75
ssg63
g2910
sg56
(lp2917
S'HTTP_ACCEPT_LANGUAGE'
p2918
asbag49
(g70
g51
NtRp2919
(dp2920
g54
(dp2921
g81
g82
ssg63
g2910
sg56
(lp2922
S':'
asbag49
(g70
g51
NtRp2923
(dp2924
g54
(dp2925
sg63
g2910
sg56
(lp2926
g49
(g50
g51
NtRp2927
(dp2928
g54
(dp2929
g62
I3
ssg63
g2923
sg56
(lp2930
g1082
asbasbasbag49
(g65
g51
NtRp2931
(dp2932
g54
(dp2933
sg63
g2801
sg56
(lp2934
g49
(g70
g51
NtRp2935
(dp2936
g54
(dp2937
g74
g75
ssg63
g2931
sg56
(lp2938
S'HTTP_CACHE_CONTROL'
p2939
asbag49
(g70
g51
NtRp2940
(dp2941
g54
(dp2942
g81
g82
ssg63
g2931
sg56
(lp2943
S':'
asbag49
(g70
g51
NtRp2944
(dp2945
g54
(dp2946
sg63
g2931
sg56
(lp2947
g49
(g50
g51
NtRp2948
(dp2949
g54
(dp2950
g62
I3
ssg63
g2944
sg56
(lp2951
g1104
asbasbasbag49
(g65
g51
NtRp2952
(dp2953
g54
(dp2954
sg63
g2801
sg56
(lp2955
g49
(g70
g51
NtRp2956
(dp2957
g54
(dp2958
g74
g75
ssg63
g2952
sg56
(lp2959
S'HTTP_CONNECTION'
p2960
asbag49
(g70
g51
NtRp2961
(dp2962
g54
(dp2963
g81
g82
ssg63
g2952
sg56
(lp2964
S':'
asbag49
(g70
g51
NtRp2965
(dp2966
g54
(dp2967
sg63
g2952
sg56
(lp2968
g49
(g50
g51
NtRp2969
(dp2970
g54
(dp2971
g62
I3
ssg63
g2965
sg56
(lp2972
g1126
asbasbasbag49
(g65
g51
NtRp2973
(dp2974
g54
(dp2975
sg63
g2801
sg56
(lp2976
g49
(g70
g51
NtRp2977
(dp2978
g54
(dp2979
g74
g75
ssg63
g2973
sg56
(lp2980
S'HTTP_CONTENT_LENGTH'
p2981
asbag49
(g70
g51
NtRp2982
(dp2983
g54
(dp2984
g81
g82
ssg63
g2973
sg56
(lp2985
S':'
asbag49
(g70
g51
NtRp2986
(dp2987
g54
(dp2988
sg63
g2973
sg56
(lp2989
g49
(g50
g51
NtRp2990
(dp2991
g54
(dp2992
g62
I3
ssg63
g2986
sg56
(lp2993
g906
asbasbasbag49
(g65
g51
NtRp2994
(dp2995
g54
(dp2996
sg63
g2801
sg56
(lp2997
g49
(g70
g51
NtRp2998
(dp2999
g54
(dp3000
g74
g75
ssg63
g2994
sg56
(lp3001
S'HTTP_CONTENT_TYPE'
p3002
asbag49
(g70
g51
NtRp3003
(dp3004
g54
(dp3005
g81
g82
ssg63
g2994
sg56
(lp3006
S':'
asbag49
(g70
g51
NtRp3007
(dp3008
g54
(dp3009
sg63
g2994
sg56
(lp3010
g49
(g50
g51
NtRp3011
(dp3012
g54
(dp3013
g62
I3
ssg63
g3007
sg56
(lp3014
g928
asbasbasbag49
(g65
g51
NtRp3015
(dp3016
g54
(dp3017
sg63
g2801
sg56
(lp3018
g49
(g70
g51
NtRp3019
(dp3020
g54
(dp3021
g74
g75
ssg63
g3015
sg56
(lp3022
S'HTTP_COOKIE'
p3023
asbag49
(g70
g51
NtRp3024
(dp3025
g54
(dp3026
g81
g82
ssg63
g3015
sg56
(lp3027
S':'
asbag49
(g70
g51
NtRp3028
(dp3029
g54
(dp3030
sg63
g3015
sg56
(lp3031
g49
(g50
g51
NtRp3032
(dp3033
g54
(dp3034
g62
I3
ssg63
g3028
sg56
(lp3035
g1190
asbasbasbag49
(g65
g51
NtRp3036
(dp3037
g54
(dp3038
sg63
g2801
sg56
(lp3039
g49
(g70
g51
NtRp3040
(dp3041
g54
(dp3042
g74
g75
ssg63
g3036
sg56
(lp3043
S'HTTP_HOST'
p3044
asbag49
(g70
g51
NtRp3045
(dp3046
g54
(dp3047
g81
g82
ssg63
g3036
sg56
(lp3048
S':'
asbag49
(g70
g51
NtRp3049
(dp3050
g54
(dp3051
sg63
g3036
sg56
(lp3052
g49
(g50
g51
NtRp3053
(dp3054
g54
(dp3055
g62
I3
ssg63
g3049
sg56
(lp3056
g1212
asbasbasbag49
(g65
g51
NtRp3057
(dp3058
g54
(dp3059
sg63
g2801
sg56
(lp3060
g49
(g70
g51
NtRp3061
(dp3062
g54
(dp3063
g74
g75
ssg63
g3057
sg56
(lp3064
S'HTTP_ORIGIN'
p3065
asbag49
(g70
g51
NtRp3066
(dp3067
g54
(dp3068
g81
g82
ssg63
g3057
sg56
(lp3069
S':'
asbag49
(g70
g51
NtRp3070
(dp3071
g54
(dp3072
sg63
g3057
sg56
(lp3073
g49
(g50
g51
NtRp3074
(dp3075
g54
(dp3076
g62
I3
ssg63
g3070
sg56
(lp3077
g1234
asbasbasbag49
(g65
g51
NtRp3078
(dp3079
g54
(dp3080
sg63
g2801
sg56
(lp3081
g49
(g70
g51
NtRp3082
(dp3083
g54
(dp3084
g74
g75
ssg63
g3078
sg56
(lp3085
S'HTTP_REFERER'
p3086
asbag49
(g70
g51
NtRp3087
(dp3088
g54
(dp3089
g81
g82
ssg63
g3078
sg56
(lp3090
S':'
asbag49
(g70
g51
NtRp3091
(dp3092
g54
(dp3093
sg63
g3078
sg56
(lp3094
g49
(g50
g51
NtRp3095
(dp3096
g54
(dp3097
g62
I3
ssg63
g3091
sg56
(lp3098
g1256
asbasbasbag49
(g65
g51
NtRp3099
(dp3100
g54
(dp3101
sg63
g2801
sg56
(lp3102
g49
(g70
g51
NtRp3103
(dp3104
g54
(dp3105
g74
g75
ssg63
g3099
sg56
(lp3106
S'HTTP_USER_AGENT'
p3107
asbag49
(g70
g51
NtRp3108
(dp3109
g54
(dp3110
g81
g82
ssg63
g3099
sg56
(lp3111
S':'
asbag49
(g70
g51
NtRp3112
(dp3113
g54
(dp3114
sg63
g3099
sg56
(lp3115
g49
(g50
g51
NtRp3116
(dp3117
g54
(dp3118
g62
I3
ssg63
g3112
sg56
(lp3119
g1278
asbasbasbag49
(g65
g51
NtRp3120
(dp3121
g54
(dp3122
sg63
g2801
sg56
(lp3123
g49
(g70
g51
NtRp3124
(dp3125
g54
(dp3126
g74
g75
ssg63
g3120
sg56
(lp3127
S'PATH_INFO'
p3128
asbag49
(g70
g51
NtRp3129
(dp3130
g54
(dp3131
g81
g82
ssg63
g3120
sg56
(lp3132
S':'
asbag49
(g70
g51
NtRp3133
(dp3134
g54
(dp3135
sg63
g3120
sg56
(lp3136
g49
(g50
g51
NtRp3137
(dp3138
g54
(dp3139
g62
I3
ssg63
g3133
sg56
(lp3140
g1432
asbasbasbag49
(g65
g51
NtRp3141
(dp3142
g54
(dp3143
sg63
g2801
sg56
(lp3144
g49
(g70
g51
NtRp3145
(dp3146
g54
(dp3147
g74
g75
ssg63
g3141
sg56
(lp3148
S'QUERY_STRING'
p3149
asbag49
(g70
g51
NtRp3150
(dp3151
g54
(dp3152
g81
g82
ssg63
g3141
sg56
(lp3153
S':'
asbag49
(g70
g51
NtRp3154
(dp3155
g54
(dp3156
sg63
g3141
sg56
(lp3157
g49
(g50
g51
NtRp3158
(dp3159
g54
(dp3160
g62
I3
ssg63
g3154
sg56
(lp3161
S''
asbasbasbag49
(g65
g51
NtRp3162
(dp3163
g54
(dp3164
sg63
g2801
sg56
(lp3165
g49
(g70
g51
NtRp3166
(dp3167
g54
(dp3168
g74
g75
ssg63
g3162
sg56
(lp3169
S'REMOTE_ADDR'
p3170
asbag49
(g70
g51
NtRp3171
(dp3172
g54
(dp3173
g81
g82
ssg63
g3162
sg56
(lp3174
S':'
asbag49
(g70
g51
NtRp3175
(dp3176
g54
(dp3177
sg63
g3162
sg56
(lp3178
g49
(g50
g51
NtRp3179
(dp3180
g54
(dp3181
g62
I3
ssg63
g3175
sg56
(lp3182
g216
asbasbasbag49
(g65
g51
NtRp3183
(dp3184
g54
(dp3185
sg63
g2801
sg56
(lp3186
g49
(g70
g51
NtRp3187
(dp3188
g54
(dp3189
g74
g75
ssg63
g3183
sg56
(lp3190
S'REMOTE_PORT'
p3191
asbag49
(g70
g51
NtRp3192
(dp3193
g54
(dp3194
g81
g82
ssg63
g3183
sg56
(lp3195
S':'
asbag49
(g70
g51
NtRp3196
(dp3197
g54
(dp3198
sg63
g3183
sg56
(lp3199
g49
(g50
g51
NtRp3200
(dp3201
g54
(dp3202
g62
I3
ssg63
g3196
sg56
(lp3203
g1496
asbasbasbag49
(g65
g51
NtRp3204
(dp3205
g54
(dp3206
sg63
g2801
sg56
(lp3207
g49
(g70
g51
NtRp3208
(dp3209
g54
(dp3210
g74
g75
ssg63
g3204
sg56
(lp3211
S'REQUEST_METHOD'
p3212
asbag49
(g70
g51
NtRp3213
(dp3214
g54
(dp3215
g81
g82
ssg63
g3204
sg56
(lp3216
S':'
asbag49
(g70
g51
NtRp3217
(dp3218
g54
(dp3219
sg63
g3204
sg56
(lp3220
g49
(g50
g51
NtRp3221
(dp3222
g54
(dp3223
g62
I3
ssg63
g3217
sg56
(lp3224
g1518
asbasbasbag49
(g65
g51
NtRp3225
(dp3226
g54
(dp3227
sg63
g2801
sg56
(lp3228
g49
(g70
g51
NtRp3229
(dp3230
g54
(dp3231
g74
g75
ssg63
g3225
sg56
(lp3232
S'REQUEST_URI'
p3233
asbag49
(g70
g51
NtRp3234
(dp3235
g54
(dp3236
g81
g82
ssg63
g3225
sg56
(lp3237
S':'
asbag49
(g70
g51
NtRp3238
(dp3239
g54
(dp3240
sg63
g3225
sg56
(lp3241
g49
(g50
g51
NtRp3242
(dp3243
g54
(dp3244
g62
I3
ssg63
g3238
sg56
(lp3245
g1432
asbasbasbag49
(g65
g51
NtRp3246
(dp3247
g54
(dp3248
sg63
g2801
sg56
(lp3249
g49
(g70
g51
NtRp3250
(dp3251
g54
(dp3252
g74
g75
ssg63
g3246
sg56
(lp3253
S'SCRIPT_NAME'
p3254
asbag49
(g70
g51
NtRp3255
(dp3256
g54
(dp3257
g81
g82
ssg63
g3246
sg56
(lp3258
S':'
asbag49
(g70
g51
NtRp3259
(dp3260
g54
(dp3261
sg63
g3246
sg56
(lp3262
g49
(g50
g51
NtRp3263
(dp3264
g54
(dp3265
g62
I3
ssg63
g3259
sg56
(lp3266
S''
asbasbasbag49
(g65
g51
NtRp3267
(dp3268
g54
(dp3269
sg63
g2801
sg56
(lp3270
g49
(g70
g51
NtRp3271
(dp3272
g54
(dp3273
g74
g75
ssg63
g3267
sg56
(lp3274
S'SERVER_NAME'
p3275
asbag49
(g70
g51
NtRp3276
(dp3277
g54
(dp3278
g81
g82
ssg63
g3267
sg56
(lp3279
S':'
asbag49
(g70
g51
NtRp3280
(dp3281
g54
(dp3282
sg63
g3267
sg56
(lp3283
g49
(g50
g51
NtRp3284
(dp3285
g54
(dp3286
g62
I3
ssg63
g3280
sg56
(lp3287
g1582
asbasbasbag49
(g65
g51
NtRp3288
(dp3289
g54
(dp3290
sg63
g2801
sg56
(lp3291
g49
(g70
g51
NtRp3292
(dp3293
g54
(dp3294
g74
g75
ssg63
g3288
sg56
(lp3295
S'SERVER_PORT'
p3296
asbag49
(g70
g51
NtRp3297
(dp3298
g54
(dp3299
g81
g82
ssg63
g3288
sg56
(lp3300
S':'
asbag49
(g70
g51
NtRp3301
(dp3302
g54
(dp3303
sg63
g3288
sg56
(lp3304
g49
(g50
g51
NtRp3305
(dp3306
g54
(dp3307
g62
I3
ssg63
g3301
sg56
(lp3308
g1604
asbasbasbag49
(g65
g51
NtRp3309
(dp3310
g54
(dp3311
sg63
g2801
sg56
(lp3312
g49
(g70
g51
NtRp3313
(dp3314
g54
(dp3315
g74
g75
ssg63
g3309
sg56
(lp3316
S'SERVER_PROTOCOL'
p3317
asbag49
(g70
g51
NtRp3318
(dp3319
g54
(dp3320
g81
g82
ssg63
g3309
sg56
(lp3321
S':'
asbag49
(g70
g51
NtRp3322
(dp3323
g54
(dp3324
sg63
g3309
sg56
(lp3325
g49
(g50
g51
NtRp3326
(dp3327
g54
(dp3328
g62
I3
ssg63
g3322
sg56
(lp3329
g1626
asbasbasbag49
(g65
g51
NtRp3330
(dp3331
g54
(dp3332
sg63
g2801
sg56
(lp3333
g49
(g70
g51
NtRp3334
(dp3335
g54
(dp3336
g74
g75
ssg63
g3330
sg56
(lp3337
S'SERVER_SOFTWARE'
p3338
asbag49
(g70
g51
NtRp3339
(dp3340
g54
(dp3341
g81
g82
ssg63
g3330
sg56
(lp3342
S':'
asbag49
(g70
g51
NtRp3343
(dp3344
g54
(dp3345
sg63
g3330
sg56
(lp3346
g49
(g50
g51
NtRp3347
(dp3348
g54
(dp3349
g62
I3
ssg63
g3343
sg56
(lp3350
g1648
asbasbasbag49
(g65
g51
NtRp3351
(dp3352
g54
(dp3353
sg63
g2801
sg56
(lp3354
g49
(g70
g51
NtRp3355
(dp3356
g54
(dp3357
g74
g75
ssg63
g3351
sg56
(lp3358
S'wsgi.errors'
p3359
asbag49
(g70
g51
NtRp3360
(dp3361
g54
(dp3362
g81
g82
ssg63
g3351
sg56
(lp3363
S':'
asbag49
(g70
g51
NtRp3364
(dp3365
g54
(dp3366
sg63
g3351
sg56
(lp3367
g49
(g50
g51
NtRp3368
(dp3369
g54
(dp3370
g62
I3
ssg63
g3364
sg56
(lp3371
S"<open file '<stderr>', mode 'w' at 0x540b0>"
p3372
asbasbasbag49
(g65
g51
NtRp3373
(dp3374
g54
(dp3375
sg63
g2801
sg56
(lp3376
g49
(g70
g51
NtRp3377
(dp3378
g54
(dp3379
g74
g75
ssg63
g3373
sg56
(lp3380
S'wsgi.file_wrapper'
p3381
asbag49
(g70
g51
NtRp3382
(dp3383
g54
(dp3384
g81
g82
ssg63
g3373
sg56
(lp3385
S':'
asbag49
(g70
g51
NtRp3386
(dp3387
g54
(dp3388
sg63
g3373
sg56
(lp3389
g49
(g50
g51
NtRp3390
(dp3391
g54
(dp3392
g62
I3
ssg63
g3386
sg56
(lp3393
S'<class wsgiref.util.FileWrapper at 0x4761060>'
p3394
asbasbasbag49
(g65
g51
NtRp3395
(dp3396
g54
(dp3397
sg63
g2801
sg56
(lp3398
g49
(g70
g51
NtRp3399
(dp3400
g54
(dp3401
g74
g75
ssg63
g3395
sg56
(lp3402
S'wsgi.input'
p3403
asbag49
(g70
g51
NtRp3404
(dp3405
g54
(dp3406
g81
g82
ssg63
g3395
sg56
(lp3407
S':'
asbag49
(g70
g51
NtRp3408
(dp3409
g54
(dp3410
sg63
g3395
sg56
(lp3411
g49
(g50
g51
NtRp3412
(dp3413
g54
(dp3414
g62
I3
ssg63
g3408
sg56
(lp3415
S"<open file '<fdopen>', mode 'w+b' at 0x9571068>"
p3416
asbasbasbag49
(g65
g51
NtRp3417
(dp3418
g54
(dp3419
sg63
g2801
sg56
(lp3420
g49
(g70
g51
NtRp3421
(dp3422
g54
(dp3423
g74
g75
ssg63
g3417
sg56
(lp3424
S'wsgi.multiprocess'
p3425
asbag49
(g70
g51
NtRp3426
(dp3427
g54
(dp3428
g81
g82
ssg63
g3417
sg56
(lp3429
S':'
asbag49
(g70
g51
NtRp3430
(dp3431
g54
(dp3432
sg63
g3417
sg56
(lp3433
g49
(g50
g51
NtRp3434
(dp3435
g54
(dp3436
g62
I3
ssg63
g3430
sg56
(lp3437
g92
asbasbasbag49
(g65
g51
NtRp3438
(dp3439
g54
(dp3440
sg63
g2801
sg56
(lp3441
g49
(g70
g51
NtRp3442
(dp3443
g54
(dp3444
g74
g75
ssg63
g3438
sg56
(lp3445
S'wsgi.multithread'
p3446
asbag49
(g70
g51
NtRp3447
(dp3448
g54
(dp3449
g81
g82
ssg63
g3438
sg56
(lp3450
S':'
asbag49
(g70
g51
NtRp3451
(dp3452
g54
(dp3453
sg63
g3438
sg56
(lp3454
g49
(g50
g51
NtRp3455
(dp3456
g54
(dp3457
g62
I3
ssg63
g3451
sg56
(lp3458
g972
asbasbasbag49
(g65
g51
NtRp3459
(dp3460
g54
(dp3461
sg63
g2801
sg56
(lp3462
g49
(g70
g51
NtRp3463
(dp3464
g54
(dp3465
g74
g75
ssg63
g3459
sg56
(lp3466
S'wsgi.run_once'
p3467
asbag49
(g70
g51
NtRp3468
(dp3469
g54
(dp3470
g81
g82
ssg63
g3459
sg56
(lp3471
S':'
asbag49
(g70
g51
NtRp3472
(dp3473
g54
(dp3474
sg63
g3459
sg56
(lp3475
g49
(g50
g51
NtRp3476
(dp3477
g54
(dp3478
g62
I3
ssg63
g3472
sg56
(lp3479
g92
asbasbasbag49
(g65
g51
NtRp3480
(dp3481
g54
(dp3482
sg63
g2801
sg56
(lp3483
g49
(g70
g51
NtRp3484
(dp3485
g54
(dp3486
g74
g75
ssg63
g3480
sg56
(lp3487
S'wsgi.url_scheme'
p3488
asbag49
(g70
g51
NtRp3489
(dp3490
g54
(dp3491
g81
g82
ssg63
g3480
sg56
(lp3492
S':'
asbag49
(g70
g51
NtRp3493
(dp3494
g54
(dp3495
sg63
g3480
sg56
(lp3496
g49
(g50
g51
NtRp3497
(dp3498
g54
(dp3499
g62
I3
ssg63
g3493
sg56
(lp3500
g1907
asbasbasbag49
(g65
g51
NtRp3501
(dp3502
g54
(dp3503
sg63
g2801
sg56
(lp3504
g49
(g70
g51
NtRp3505
(dp3506
g54
(dp3507
g74
g75
ssg63
g3501
sg56
(lp3508
S'wsgi.version'
p3509
asbag49
(g70
g51
NtRp3510
(dp3511
g54
(dp3512
g81
g82
ssg63
g3501
sg56
(lp3513
S':'
asbag49
(g70
g51
NtRp3514
(dp3515
g54
(dp3516
sg63
g3501
sg56
(lp3517
g49
(g50
g51
NtRp3518
(dp3519
g54
(dp3520
g62
I3
ssg63
g3514
sg56
(lp3521
S'1'
asbasbasbasbasbasbasbasbasbasbasbasbasbsS'frames'
p3522
(lp3523
(dp3524
S'file'
p3525
S'/home/mdipierro/web2py/gluon/restricted.py'
p3526
sS'dump'
p3527
(dp3528
sS'lnum'
p3529
I212
sS'lines'
p3530
(dp3531
sS'call'
p3532
S"(code='# coding: utf8\\n# try something like\\nimport rando...- balance\\n\\nresponse._vars=response._caller(show)\\n', environment={'A': <class 'gluon.html.A'>, 'Auth': <class 'gluon.tools.Auth'>, 'B': <class 'gluon.html.B'>, 'BEAUTIFY': <class 'gluon.html.BEAUTIFY'>, 'BODY': <class 'gluon.html.BODY'>, 'BR': <class 'gluon.html.BR'>, 'BUTTON': <class 'gluon.html.BUTTON'>, 'CAT': <class 'gluon.html.CAT'>, 'CENTER': <class 'gluon.html.CENTER'>, 'CLEANUP': <class 'gluon.validators.CLEANUP'>, ...}, layer='/Users/zamechek/Downloads/web2py/web2py.app/Cont...Resources/applications/hellow/controllers/game.py')"
p3533
sS'func'
p3534
S'restricted'
p3535
sa(dp3536
g3525
S'/Users/zamechek/Downloads/web2py/web2py.app/Contents/Resources/applications/hellow/controllers/game.py'
p3537
sg3527
(dp3538
sg3529
I40
sg3530
(dp3539
I32
S'    return otherForm'
p3540
sI33
S''
sI34
S'def isWinner(odds, bet, balance):'
p3541
sI35
S'    if(random.randint(1, 10)> odds):'
p3542
sI36
S'        return bet + balance'
p3543
sI37
S'    else:'
p3544
sI38
S'        return bet - balance'
p3545
sI29
S''
sI30
S'    elif otherForm.errors:'
p3546
sI31
S"        response.flash = 'form has errors'"
p3547
ssg3532
S'()'
p3548
sg3534
S'<module>'
p3549
sa(dp3550
g3525
S'/home/mdipierro/web2py/gluon/globals.py'
p3551
sg3527
(dp3552
sg3529
I193
sg3530
(dp3553
sg3532
S'(f=<function show at 0x95b1c70>)'
p3554
sg3534
S'<lambda>'
p3555
sa(dp3556
g3525
S'/Users/zamechek/Downloads/web2py/web2py.app/Contents/Resources/applications/hellow/controllers/game.py'
p3557
sg3527
(dp3558
sg3529
I13
sg3530
(dp3559
I8
S''
sI9
S'    query=((db.game.id==db.game_slots.game)&(db.slot.id==db.game_slots.slot))'
p3560
sI10
S'    #game_and_slots=(db.game.id==db.game_slots.game)&(db.slot.id==db.game_slots.slot)'
p3561
sI11
S'    rows = db(query).select(db.slot.id, db.slot.odds)'
p3562
sI12
S''
sI13
S'    otherForm = form_from_factory(rows, game, id)'
p3563
sI14
S'    return dict(name=auth_user.first_name.capitalize() + " " + auth_user.last_name.capitalize(), balance = game.balance, slots = rows, gameid = id, otherForm=otherForm)'
p3564
sI15
S''
sI16
S'def form_from_factory(rows , game, id):'
p3565
sI17
S'    game_and_slots=db((db.game.id==db.game_slots.game)&(db.slot.id==db.game_slots.slot))'
p3566
ssg3532
S'()'
p3567
sg3534
S'show'
p3568
sa(dp3569
g3525
S'/Users/zamechek/Downloads/web2py/web2py.app/Contents/Resources/applications/hellow/controllers/game.py'
p3570
sg3527
(dp3571
sg3529
I24
sg3530
(dp3572
I19
S"        Field('bet', requires=IS_NOT_EMPTY()),"
p3573
sI20
S"        Field('slot', requires=IS_IN_DB(game_and_slots, 'slot.id'), widget=SQLFORM.widgets.radio.widget))"
p3574
sI21
S'    if otherForm.process().accepted:'
p3575
sI22
S'        bet = int(otherForm.vars.bet)'
p3576
sI23
S'        currentBalance =  int(game.balance)'
p3577
sI24
S'        remainingBalance = isWinner(int(game.odds), bet, currentBalance)'
p3578
sI25
S''
sI26
S'        game.update_record(balance=str(remainingBalance))'
p3579
sI27
S''
sI28
S"        response.flash = 'form accepted'"
p3580
ssg3532
S"(rows=<Rows (3)>, game=<Row {'auth_user': 1, 'balance': 100, 'id': 1}>, id='1')"
p3581
sg3534
S'form_from_factory'
p3582
sasS'pyver'
p3583
S'Python 2.5.1: /Users/zamechek/Downloads/web2py/web2py.app/Contents/MacOS/python'
p3584
sS'session'
p3585
g49
(g50
g51
NtRp3586
(dp3587
g54
(dp3588
sg56
(lp3589
g49
(g58
g51
NtRp3590
(dp3591
g54
(dp3592
g62
I5
ssg63
Nsg56
(lp3593
g49
(g65
g51
NtRp3594
(dp3595
g54
(dp3596
sg63
g3590
sg56
(lp3597
g49
(g70
g51
NtRp3598
(dp3599
g54
(dp3600
g74
g75
ssg63
g3594
sg56
(lp3601
S'last_orderby'
p3602
asbag49
(g70
g51
NtRp3603
(dp3604
g54
(dp3605
g81
g82
ssg63
g3594
sg56
(lp3606
S':'
asbag49
(g70
g51
NtRp3607
(dp3608
g54
(dp3609
sg63
g3594
sg56
(lp3610
g49
(g50
g51
NtRp3611
(dp3612
g54
(dp3613
g62
I5
ssg63
g3607
sg56
(lp3614
S'None'
p3615
asbasbasbag49
(g65
g51
NtRp3616
(dp3617
g54
(dp3618
sg63
g3590
sg56
(lp3619
g49
(g70
g51
NtRp3620
(dp3621
g54
(dp3622
g74
g75
ssg63
g3616
sg56
(lp3623
S'last_query'
p3624
asbag49
(g70
g51
NtRp3625
(dp3626
g54
(dp3627
g81
g82
ssg63
g3616
sg56
(lp3628
S':'
asbag49
(g70
g51
NtRp3629
(dp3630
g54
(dp3631
sg63
g3616
sg56
(lp3632
g49
(g50
g51
NtRp3633
(dp3634
g54
(dp3635
g62
I5
ssg63
g3629
sg56
(lp3636
S'db.game_slots.id>0'
p3637
asbasbasbasbasbsS'etype'
p3638
S"<type 'exceptions.AttributeError'>"
p3639
sS'date'
p3640
S'Thu Mar 28 11:41:58 2013'
p3641
sS'response'
p3642
g49
(g50
g51
NtRp3643
(dp3644
g54
(dp3645
sg56
(lp3646
g49
(g58
g51
NtRp3647
(dp3648
g54
(dp3649
g62
I5
ssg63
Nsg56
(lp3650
g49
(g65
g51
NtRp3651
(dp3652
g54
(dp3653
sg63
g3647
sg56
(lp3654
g49
(g70
g51
NtRp3655
(dp3656
g54
(dp3657
g74
g75
ssg63
g3651
sg56
(lp3658
g159
asbag49
(g70
g51
NtRp3659
(dp3660
g54
(dp3661
g81
g82
ssg63
g3651
sg56
(lp3662
S':'
asbag49
(g70
g51
NtRp3663
(dp3664
g54
(dp3665
sg63
g3651
sg56
(lp3666
g49
(g50
g51
NtRp3667
(dp3668
g54
(dp3669
g62
I5
ssg63
g3663
sg56
(lp3670
S'<cStringIO.StringO object at 0x8f5c120>'
p3671
asbasbasbag49
(g65
g51
NtRp3672
(dp3673
g54
(dp3674
sg63
g3647
sg56
(lp3675
g49
(g70
g51
NtRp3676
(dp3677
g54
(dp3678
g74
g75
ssg63
g3672
sg56
(lp3679
g247
asbag49
(g70
g51
NtRp3680
(dp3681
g54
(dp3682
g81
g82
ssg63
g3672
sg56
(lp3683
S':'
asbag49
(g70
g51
NtRp3684
(dp3685
g54
(dp3686
sg63
g3672
sg56
(lp3687
g49
(g50
g51
NtRp3688
(dp3689
g54
(dp3690
g62
I5
ssg63
g3684
sg56
(lp3691
g49
(g58
g51
NtRp3692
(dp3693
g54
(dp3694
g62
I4
ssg63
Nsg56
(lp3695
g49
(g65
g51
NtRp3696
(dp3697
g54
(dp3698
sg63
g3692
sg56
(lp3699
g49
(g70
g51
NtRp3700
(dp3701
g54
(dp3702
g74
g75
ssg63
g3696
sg56
(lp3703
S'session_id_hellow'
p3704
asbag49
(g70
g51
NtRp3705
(dp3706
g54
(dp3707
g81
g82
ssg63
g3696
sg56
(lp3708
S':'
asbag49
(g70
g51
NtRp3709
(dp3710
g54
(dp3711
sg63
g3696
sg56
(lp3712
g49
(g50
g51
NtRp3713
(dp3714
g54
(dp3715
g62
I4
ssg63
g3709
sg56
(lp3716
g458
ag49
(g58
g51
NtRp3717
(dp3718
g54
(dp3719
g62
I3
ssg63
Nsg56
(lp3720
g49
(g65
g51
NtRp3721
(dp3722
g54
(dp3723
sg63
g3717
sg56
(lp3724
g49
(g70
g51
NtRp3725
(dp3726
g54
(dp3727
g74
g75
ssg63
g3721
sg56
(lp3728
g298
asbag49
(g70
g51
NtRp3729
(dp3730
g54
(dp3731
g81
g82
ssg63
g3721
sg56
(lp3732
S':'
asbag49
(g70
g51
NtRp3733
(dp3734
g54
(dp3735
sg63
g3721
sg56
(lp3736
g49
(g50
g51
NtRp3737
(dp3738
g54
(dp3739
g62
I3
ssg63
g3733
sg56
(lp3740
S''
asbasbasbag49
(g65
g51
NtRp3741
(dp3742
g54
(dp3743
sg63
g3717
sg56
(lp3744
g49
(g70
g51
NtRp3745
(dp3746
g54
(dp3747
g74
g75
ssg63
g3741
sg56
(lp3748
g319
asbag49
(g70
g51
NtRp3749
(dp3750
g54
(dp3751
g81
g82
ssg63
g3741
sg56
(lp3752
S':'
asbag49
(g70
g51
NtRp3753
(dp3754
g54
(dp3755
sg63
g3741
sg56
(lp3756
g49
(g50
g51
NtRp3757
(dp3758
g54
(dp3759
g62
I3
ssg63
g3753
sg56
(lp3760
S''
asbasbasbag49
(g65
g51
NtRp3761
(dp3762
g54
(dp3763
sg63
g3717
sg56
(lp3764
g49
(g70
g51
NtRp3765
(dp3766
g54
(dp3767
g74
g75
ssg63
g3761
sg56
(lp3768
g340
asbag49
(g70
g51
NtRp3769
(dp3770
g54
(dp3771
g81
g82
ssg63
g3761
sg56
(lp3772
S':'
asbag49
(g70
g51
NtRp3773
(dp3774
g54
(dp3775
sg63
g3761
sg56
(lp3776
g49
(g50
g51
NtRp3777
(dp3778
g54
(dp3779
g62
I3
ssg63
g3773
sg56
(lp3780
S''
asbasbasbag49
(g65
g51
NtRp3781
(dp3782
g54
(dp3783
sg63
g3717
sg56
(lp3784
g49
(g70
g51
NtRp3785
(dp3786
g54
(dp3787
g74
g75
ssg63
g3781
sg56
(lp3788
g361
asbag49
(g70
g51
NtRp3789
(dp3790
g54
(dp3791
g81
g82
ssg63
g3781
sg56
(lp3792
S':'
asbag49
(g70
g51
NtRp3793
(dp3794
g54
(dp3795
sg63
g3781
sg56
(lp3796
g49
(g50
g51
NtRp3797
(dp3798
g54
(dp3799
g62
I3
ssg63
g3793
sg56
(lp3800
S''
asbasbasbag49
(g65
g51
NtRp3801
(dp3802
g54
(dp3803
sg63
g3717
sg56
(lp3804
g49
(g70
g51
NtRp3805
(dp3806
g54
(dp3807
g74
g75
ssg63
g3801
sg56
(lp3808
g382
asbag49
(g70
g51
NtRp3809
(dp3810
g54
(dp3811
g81
g82
ssg63
g3801
sg56
(lp3812
S':'
asbag49
(g70
g51
NtRp3813
(dp3814
g54
(dp3815
sg63
g3801
sg56
(lp3816
g49
(g50
g51
NtRp3817
(dp3818
g54
(dp3819
g62
I3
ssg63
g3813
sg56
(lp3820
S'/'
asbasbasbag49
(g65
g51
NtRp3821
(dp3822
g54
(dp3823
sg63
g3717
sg56
(lp3824
g49
(g70
g51
NtRp3825
(dp3826
g54
(dp3827
g74
g75
ssg63
g3821
sg56
(lp3828
g403
asbag49
(g70
g51
NtRp3829
(dp3830
g54
(dp3831
g81
g82
ssg63
g3821
sg56
(lp3832
S':'
asbag49
(g70
g51
NtRp3833
(dp3834
g54
(dp3835
sg63
g3821
sg56
(lp3836
g49
(g50
g51
NtRp3837
(dp3838
g54
(dp3839
g62
I3
ssg63
g3833
sg56
(lp3840
S''
asbasbasbag49
(g65
g51
NtRp3841
(dp3842
g54
(dp3843
sg63
g3717
sg56
(lp3844
g49
(g70
g51
NtRp3845
(dp3846
g54
(dp3847
g74
g75
ssg63
g3841
sg56
(lp3848
g424
asbag49
(g70
g51
NtRp3849
(dp3850
g54
(dp3851
g81
g82
ssg63
g3841
sg56
(lp3852
S':'
asbag49
(g70
g51
NtRp3853
(dp3854
g54
(dp3855
sg63
g3841
sg56
(lp3856
g49
(g50
g51
NtRp3857
(dp3858
g54
(dp3859
g62
I3
ssg63
g3853
sg56
(lp3860
S''
asbasbasbasbasbasbasbasbasbasbasbag49
(g65
g51
NtRp3861
(dp3862
g54
(dp3863
sg63
g3647
sg56
(lp3864
g49
(g70
g51
NtRp3865
(dp3866
g54
(dp3867
g74
g75
ssg63
g3861
sg56
(lp3868
S'delimiters'
p3869
asbag49
(g70
g51
NtRp3870
(dp3871
g54
(dp3872
g81
g82
ssg63
g3861
sg56
(lp3873
S':'
asbag49
(g70
g51
NtRp3874
(dp3875
g54
(dp3876
sg63
g3861
sg56
(lp3877
g49
(g50
g51
NtRp3878
(dp3879
g54
(dp3880
g62
I5
ssg63
g3874
sg56
(lp3881
g49
(g58
g51
NtRp3882
(dp3883
g54
(dp3884
g62
I4
ssg63
Nsg56
(lp3885
g49
(g65
g51
NtRp3886
(dp3887
g54
(dp3888
sg63
g3882
sg56
(lp3889
g49
(g70
g51
NtRp3890
(dp3891
g54
(dp3892
sg63
g3886
sg56
(lp3893
g49
(g50
g51
NtRp3894
(dp3895
g54
(dp3896
g62
I4
ssg63
g3890
sg56
(lp3897
S'{{'
p3898
asbasbasbag49
(g65
g51
NtRp3899
(dp3900
g54
(dp3901
sg63
g3882
sg56
(lp3902
g49
(g70
g51
NtRp3903
(dp3904
g54
(dp3905
sg63
g3899
sg56
(lp3906
g49
(g50
g51
NtRp3907
(dp3908
g54
(dp3909
g62
I4
ssg63
g3903
sg56
(lp3910
S'}}'
p3911
asbasbasbasbasbasbasbag49
(g65
g51
NtRp3912
(dp3913
g54
(dp3914
sg63
g3647
sg56
(lp3915
g49
(g70
g51
NtRp3916
(dp3917
g54
(dp3918
g74
g75
ssg63
g3912
sg56
(lp3919
S'files'
p3920
asbag49
(g70
g51
NtRp3921
(dp3922
g54
(dp3923
g81
g82
ssg63
g3912
sg56
(lp3924
S':'
asbag49
(g70
g51
NtRp3925
(dp3926
g54
(dp3927
sg63
g3912
sg56
(lp3928
g49
(g50
g51
NtRp3929
(dp3930
g54
(dp3931
g62
I5
ssg63
g3925
sg56
(lp3932
g49
(g58
g51
NtRp3933
(dp3934
g54
(dp3935
g62
I4
ssg63
Nsg56
(lp3936
sbasbasbasbag49
(g65
g51
NtRp3937
(dp3938
g54
(dp3939
sg63
g3647
sg56
(lp3940
g49
(g70
g51
NtRp3941
(dp3942
g54
(dp3943
g74
g75
ssg63
g3937
sg56
(lp3944
S'flash'
p3945
asbag49
(g70
g51
NtRp3946
(dp3947
g54
(dp3948
g81
g82
ssg63
g3937
sg56
(lp3949
S':'
asbag49
(g70
g51
NtRp3950
(dp3951
g54
(dp3952
sg63
g3937
sg56
(lp3953
g49
(g50
g51
NtRp3954
(dp3955
g54
(dp3956
g62
I5
ssg63
g3950
sg56
(lp3957
cgluon.languages
lazyT_unpickle
p3958
(S's\x08\x00\x00\x00Success!'
tRp3959
asbasbasbag49
(g65
g51
NtRp3960
(dp3961
g54
(dp3962
sg63
g3647
sg56
(lp3963
g49
(g70
g51
NtRp3964
(dp3965
g54
(dp3966
g74
g75
ssg63
g3960
sg56
(lp3967
S'generic_patterns'
p3968
asbag49
(g70
g51
NtRp3969
(dp3970
g54
(dp3971
g81
g82
ssg63
g3960
sg56
(lp3972
S':'
asbag49
(g70
g51
NtRp3973
(dp3974
g54
(dp3975
sg63
g3960
sg56
(lp3976
g49
(g50
g51
NtRp3977
(dp3978
g54
(dp3979
g62
I5
ssg63
g3973
sg56
(lp3980
g49
(g58
g51
NtRp3981
(dp3982
g54
(dp3983
g62
I4
ssg63
Nsg56
(lp3984
g49
(g65
g51
NtRp3985
(dp3986
g54
(dp3987
sg63
g3981
sg56
(lp3988
g49
(g70
g51
NtRp3989
(dp3990
g54
(dp3991
sg63
g3985
sg56
(lp3992
g49
(g50
g51
NtRp3993
(dp3994
g54
(dp3995
g62
I4
ssg63
g3989
sg56
(lp3996
S'*'
asbasbasbasbasbasbasbag49
(g65
g51
NtRp3997
(dp3998
g54
(dp3999
sg63
g3647
sg56
(lp4000
g49
(g70
g51
NtRp4001
(dp4002
g54
(dp4003
g74
g75
ssg63
g3997
sg56
(lp4004
S'google_analytics_id'
p4005
asbag49
(g70
g51
NtRp4006
(dp4007
g54
(dp4008
g81
g82
ssg63
g3997
sg56
(lp4009
S':'
asbag49
(g70
g51
NtRp4010
(dp4011
g54
(dp4012
sg63
g3997
sg56
(lp4013
g49
(g50
g51
NtRp4014
(dp4015
g54
(dp4016
g62
I5
ssg63
g4010
sg56
(lp4017
S'None'
p4018
asbasbasbag49
(g65
g51
NtRp4019
(dp4020
g54
(dp4021
sg63
g3647
sg56
(lp4022
g49
(g70
g51
NtRp4023
(dp4024
g54
(dp4025
g74
g75
ssg63
g4019
sg56
(lp4026
S'headers'
p4027
asbag49
(g70
g51
NtRp4028
(dp4029
g54
(dp4030
g81
g82
ssg63
g4019
sg56
(lp4031
S':'
asbag49
(g70
g51
NtRp4032
(dp4033
g54
(dp4034
sg63
g4019
sg56
(lp4035
g49
(g50
g51
NtRp4036
(dp4037
g54
(dp4038
g62
I5
ssg63
g4032
sg56
(lp4039
g49
(g58
g51
NtRp4040
(dp4041
g54
(dp4042
g62
I4
ssg63
Nsg56
(lp4043
g49
(g65
g51
NtRp4044
(dp4045
g54
(dp4046
sg63
g4040
sg56
(lp4047
g49
(g70
g51
NtRp4048
(dp4049
g54
(dp4050
g74
g75
ssg63
g4044
sg56
(lp4051
S'X-Powered-By'
p4052
asbag49
(g70
g51
NtRp4053
(dp4054
g54
(dp4055
g81
g82
ssg63
g4044
sg56
(lp4056
S':'
asbag49
(g70
g51
NtRp4057
(dp4058
g54
(dp4059
sg63
g4044
sg56
(lp4060
g49
(g50
g51
NtRp4061
(dp4062
g54
(dp4063
g62
I4
ssg63
g4057
sg56
(lp4064
S'web2py'
p4065
asbasbasbasbasbasbasbag49
(g65
g51
NtRp4066
(dp4067
g54
(dp4068
sg63
g3647
sg56
(lp4069
g49
(g70
g51
NtRp4070
(dp4071
g54
(dp4072
g74
g75
ssg63
g4066
sg56
(lp4073
S'logo'
p4074
asbag49
(g70
g51
NtRp4075
(dp4076
g54
(dp4077
g81
g82
ssg63
g4066
sg56
(lp4078
S':'
asbag49
(g70
g51
NtRp4079
(dp4080
g54
(dp4081
sg63
g4066
sg56
(lp4082
g49
(g50
g51
NtRp4083
(dp4084
g54
(dp4085
g62
I5
ssg63
g4079
sg56
(lp4086
g49
(cgluon.html
A
p4087
g51
NtRp4088
(dp4089
g54
(dp4090
S'_class'
p4091
S'brand'
p4092
sS'_href'
p4093
S'http://www.web2py.com/'
p4094
ssg63
Nsg56
(lp4095
g49
(cgluon.html
B
p4096
g51
NtRp4097
(dp4098
g54
(dp4099
sg63
g4088
sg56
(lp4100
S'web'
p4101
ag49
(cgluon.html
SPAN
p4102
g51
NtRp4103
(dp4104
g54
(dp4105
sg63
g4097
sg56
(lp4106
I2
asbaS'py'
p4107
asbacgluon.html
XML_unpickle
p4108
(S's\r\x00\x00\x00&trade;&nbsp;'
tRp4109
asbasbasbasbag49
(g65
g51
NtRp4110
(dp4111
g54
(dp4112
sg63
g3647
sg56
(lp4113
g49
(g70
g51
NtRp4114
(dp4115
g54
(dp4116
g74
g75
ssg63
g4110
sg56
(lp4117
S'menu'
p4118
asbag49
(g70
g51
NtRp4119
(dp4120
g54
(dp4121
g81
g82
ssg63
g4110
sg56
(lp4122
S':'
asbag49
(g70
g51
NtRp4123
(dp4124
g54
(dp4125
sg63
g4110
sg56
(lp4126
g49
(g50
g51
NtRp4127
(dp4128
g54
(dp4129
g62
I5
ssg63
g4123
sg56
(lp4130
g49
(g58
g51
NtRp4131
(dp4132
g54
(dp4133
g62
I4
ssg63
Nsg56
(lp4134
g49
(g65
g51
NtRp4135
(dp4136
g54
(dp4137
sg63
g4131
sg56
(lp4138
g49
(g70
g51
NtRp4139
(dp4140
g54
(dp4141
sg63
g4135
sg56
(lp4142
g49
(g50
g51
NtRp4143
(dp4144
g54
(dp4145
g62
I4
ssg63
g4139
sg56
(lp4146
g49
(g58
g51
NtRp4147
(dp4148
g54
(dp4149
g62
I3
ssg63
Nsg56
(lp4150
g49
(g65
g51
NtRp4151
(dp4152
g54
(dp4153
sg63
g4147
sg56
(lp4154
g49
(g70
g51
NtRp4155
(dp4156
g54
(dp4157
sg63
g4151
sg56
(lp4158
g49
(g50
g51
NtRp4159
(dp4160
g54
(dp4161
g62
I3
ssg63
g4155
sg56
(lp4162
g3958
(S't\x04\x00\x00\x00Home'
tRp4163
asbasbasbag49
(g65
g51
NtRp4164
(dp4165
g54
(dp4166
sg63
g4147
sg56
(lp4167
g49
(g70
g51
NtRp4168
(dp4169
g54
(dp4170
sg63
g4164
sg56
(lp4171
g49
(g50
g51
NtRp4172
(dp4173
g54
(dp4174
g62
I3
ssg63
g4168
sg56
(lp4175
g92
asbasbasbag49
(g65
g51
NtRp4176
(dp4177
g54
(dp4178
sg63
g4147
sg56
(lp4179
g49
(g70
g51
NtRp4180
(dp4181
g54
(dp4182
sg63
g4176
sg56
(lp4183
g49
(g50
g51
NtRp4184
(dp4185
g54
(dp4186
g62
I3
ssg63
g4180
sg56
(lp4187
S'/hellow/default/index'
p4188
asbasbasbag49
(g65
g51
NtRp4189
(dp4190
g54
(dp4191
sg63
g4147
sg56
(lp4192
g49
(g70
g51
NtRp4193
(dp4194
g54
(dp4195
sg63
g4189
sg56
(lp4196
g49
(g50
g51
NtRp4197
(dp4198
g54
(dp4199
g62
I3
ssg63
g4193
sg56
(lp4200
g49
(g58
g51
NtRp4201
(dp4202
g54
(dp4203
g62
I2
ssg63
Nsg56
(lp4204
sbasbasbasbasbasbasbasbag49
(g65
g51
NtRp4205
(dp4206
g54
(dp4207
sg63
g4131
sg56
(lp4208
g49
(g70
g51
NtRp4209
(dp4210
g54
(dp4211
sg63
g4205
sg56
(lp4212
g49
(g50
g51
NtRp4213
(dp4214
g54
(dp4215
g62
I4
ssg63
g4209
sg56
(lp4216
g49
(g58
g51
NtRp4217
(dp4218
g54
(dp4219
g62
I3
ssg63
Nsg56
(lp4220
g49
(g65
g51
NtRp4221
(dp4222
g54
(dp4223
sg63
g4217
sg56
(lp4224
g49
(g70
g51
NtRp4225
(dp4226
g54
(dp4227
sg63
g4221
sg56
(lp4228
g49
(g50
g51
NtRp4229
(dp4230
g54
(dp4231
g62
I3
ssg63
g4225
sg56
(lp4232
g49
(g4102
g51
NtRp4233
(dp4234
g54
(dp4235
g4091
S'highlighted'
p4236
ssg63
Nsg56
(lp4237
g4065
asbasbasbasbag49
(g65
g51
NtRp4238
(dp4239
g54
(dp4240
sg63
g4217
sg56
(lp4241
g49
(g70
g51
NtRp4242
(dp4243
g54
(dp4244
sg63
g4238
sg56
(lp4245
g49
(g50
g51
NtRp4246
(dp4247
g54
(dp4248
g62
I3
ssg63
g4242
sg56
(lp4249
g92
asbasbasbag49
(g65
g51
NtRp4250
(dp4251
g54
(dp4252
sg63
g4217
sg56
(lp4253
g49
(g70
g51
NtRp4254
(dp4255
g54
(dp4256
sg63
g4250
sg56
(lp4257
g49
(g50
g51
NtRp4258
(dp4259
g54
(dp4260
g62
I3
ssg63
g4254
sg56
(lp4261
S'http://web2py.com'
p4262
asbasbasbag49
(g65
g51
NtRp4263
(dp4264
g54
(dp4265
sg63
g4217
sg56
(lp4266
g49
(g70
g51
NtRp4267
(dp4268
g54
(dp4269
sg63
g4263
sg56
(lp4270
g49
(g50
g51
NtRp4271
(dp4272
g54
(dp4273
g62
I3
ssg63
g4267
sg56
(lp4274
g49
(g58
g51
NtRp4275
(dp4276
g54
(dp4277
g62
I2
ssg63
Nsg56
(lp4278
g49
(g65
g51
NtRp4279
(dp4280
g54
(dp4281
sg63
g4275
sg56
(lp4282
g49
(g70
g51
NtRp4283
(dp4284
g54
(dp4285
sg63
g4279
sg56
(lp4286
g49
(g50
g51
NtRp4287
(dp4288
g54
(dp4289
g62
I2
ssg63
g4283
sg56
(lp4290
g49
(g58
g51
NtRp4291
(dp4292
g54
(dp4293
g62
I1
ssg63
Nsg56
(lp4294
g49
(g65
g51
NtRp4295
(dp4296
g54
(dp4297
sg63
g4291
sg56
(lp4298
g49
(g70
g51
NtRp4299
(dp4300
g54
(dp4301
sg63
g4295
sg56
(lp4302
g49
(g50
g51
NtRp4303
(dp4304
g54
(dp4305
g62
I1
ssg63
g4299
sg56
(lp4306
g3958
(S's\x08\x00\x00\x00My Sites'
tRp4307
asbasbasbag49
(g65
g51
NtRp4308
(dp4309
g54
(dp4310
sg63
g4291
sg56
(lp4311
g49
(g70
g51
NtRp4312
(dp4313
g54
(dp4314
sg63
g4308
sg56
(lp4315
g49
(g50
g51
NtRp4316
(dp4317
g54
(dp4318
g62
I1
ssg63
g4312
sg56
(lp4319
I00
asbasbasbag49
(g65
g51
NtRp4320
(dp4321
g54
(dp4322
sg63
g4291
sg56
(lp4323
g49
(g70
g51
NtRp4324
(dp4325
g54
(dp4326
sg63
g4320
sg56
(lp4327
g49
(g50
g51
NtRp4328
(dp4329
g54
(dp4330
g62
I1
ssg63
g4324
sg56
(lp4331
S'/admin/default/site'
p4332
asbasbasbasbasbasbasbag49
(g65
g51
NtRp4333
(dp4334
g54
(dp4335
sg63
g4275
sg56
(lp4336
g49
(g70
g51
NtRp4337
(dp4338
g54
(dp4339
sg63
g4333
sg56
(lp4340
g49
(g50
g51
NtRp4341
(dp4342
g54
(dp4343
g62
I2
ssg63
g4337
sg56
(lp4344
g49
(g58
g51
NtRp4345
(dp4346
g54
(dp4347
g62
I1
ssg63
Nsg56
(lp4348
g49
(g65
g51
NtRp4349
(dp4350
g54
(dp4351
sg63
g4345
sg56
(lp4352
g49
(g70
g51
NtRp4353
(dp4354
g54
(dp4355
sg63
g4349
sg56
(lp4356
g49
(g50
g51
NtRp4357
(dp4358
g54
(dp4359
g62
I1
ssg63
g4353
sg56
(lp4360
g3958
(S's\x08\x00\x00\x00This App'
tRp4361
asbasbasbag49
(g65
g51
NtRp4362
(dp4363
g54
(dp4364
sg63
g4345
sg56
(lp4365
g49
(g70
g51
NtRp4366
(dp4367
g54
(dp4368
sg63
g4362
sg56
(lp4369
g49
(g50
g51
NtRp4370
(dp4371
g54
(dp4372
g62
I1
ssg63
g4366
sg56
(lp4373
I00
asbasbasbag49
(g65
g51
NtRp4374
(dp4375
g54
(dp4376
sg63
g4345
sg56
(lp4377
g49
(g70
g51
NtRp4378
(dp4379
g54
(dp4380
sg63
g4374
sg56
(lp4381
g49
(g50
g51
NtRp4382
(dp4383
g54
(dp4384
g62
I1
ssg63
g4378
sg56
(lp4385
S'/admin/default/design/hellow'
p4386
asbasbasbag49
(g65
g51
NtRp4387
(dp4388
g54
(dp4389
sg63
g4345
sg56
(lp4390
g49
(g70
g51
NtRp4391
(dp4392
g54
(dp4393
sg63
g4387
sg56
(lp4394
g49
(g50
g51
NtRp4395
(dp4396
g54
(dp4397
g62
I1
ssg63
g4391
sg56
(lp4398
(lp4399
(g3958
(S't\n\x00\x00\x00Controller'
tRp4400
I00
S'/admin/default/edit/hellow/controllers/game.py'
tp4401
a(g3958
(S't\x04\x00\x00\x00View'
tRp4402
I00
S'/admin/default/edit/hellow/views/game/show.html'
tp4403
a(g3958
(S't\x06\x00\x00\x00Layout'
tRp4404
I00
S'/admin/default/edit/hellow/views/layout.html'
tp4405
a(g3958
(S't\n\x00\x00\x00Stylesheet'
tRp4406
I00
S'/admin/default/edit/hellow/static/css/web2py.css'
tp4407
a(g3958
(S's\x08\x00\x00\x00DB Model'
tRp4408
I00
S'/admin/default/edit/hellow/models/db.py'
tp4409
a(g3958
(S's\n\x00\x00\x00Menu Model'
tRp4410
I00
S'/admin/default/edit/hellow/models/menu.py'
tp4411
a(g3958
(S't\x08\x00\x00\x00Database'
tRp4412
I00
S'/hellow/appadmin/index'
tp4413
a(g3958
(S't\x06\x00\x00\x00Errors'
tRp4414
I00
S'/admin/default/errors/hellow'
tp4415
a(g3958
(S't\x05\x00\x00\x00About'
tRp4416
I00
S'/admin/default/about/hellow'
tp4417
aasbasbasbasbasbasbasbag49
(g65
g51
NtRp4418
(dp4419
g54
(dp4420
sg63
g4275
sg56
(lp4421
g49
(g70
g51
NtRp4422
(dp4423
g54
(dp4424
sg63
g4418
sg56
(lp4425
g49
(g50
g51
NtRp4426
(dp4427
g54
(dp4428
g62
I2
ssg63
g4422
sg56
(lp4429
g49
(g58
g51
NtRp4430
(dp4431
g54
(dp4432
g62
I1
ssg63
Nsg56
(lp4433
g49
(g65
g51
NtRp4434
(dp4435
g54
(dp4436
sg63
g4430
sg56
(lp4437
g49
(g70
g51
NtRp4438
(dp4439
g54
(dp4440
sg63
g4434
sg56
(lp4441
g49
(g50
g51
NtRp4442
(dp4443
g54
(dp4444
g62
I1
ssg63
g4438
sg56
(lp4445
S'web2py.com'
p4446
asbasbasbag49
(g65
g51
NtRp4447
(dp4448
g54
(dp4449
sg63
g4430
sg56
(lp4450
g49
(g70
g51
NtRp4451
(dp4452
g54
(dp4453
sg63
g4447
sg56
(lp4454
g49
(g50
g51
NtRp4455
(dp4456
g54
(dp4457
g62
I1
ssg63
g4451
sg56
(lp4458
I00
asbasbasbag49
(g65
g51
NtRp4459
(dp4460
g54
(dp4461
sg63
g4430
sg56
(lp4462
g49
(g70
g51
NtRp4463
(dp4464
g54
(dp4465
sg63
g4459
sg56
(lp4466
g49
(g50
g51
NtRp4467
(dp4468
g54
(dp4469
g62
I1
ssg63
g4463
sg56
(lp4470
S'http://www.web2py.com'
p4471
asbasbasbag49
(g65
g51
NtRp4472
(dp4473
g54
(dp4474
sg63
g4430
sg56
(lp4475
g49
(g70
g51
NtRp4476
(dp4477
g54
(dp4478
sg63
g4472
sg56
(lp4479
g49
(g50
g51
NtRp4480
(dp4481
g54
(dp4482
g62
I1
ssg63
g4476
sg56
(lp4483
(lp4484
(g3958
(S't\x08\x00\x00\x00Download'
tRp4485
I00
S'http://www.web2py.com/examples/default/download'
p4486
tp4487
a(g3958
(S't\x07\x00\x00\x00Support'
tRp4488
I00
S'http://www.web2py.com/examples/default/support'
p4489
tp4490
a(g3958
(S't\x04\x00\x00\x00Demo'
tRp4491
I00
S'http://web2py.com/demo_admin'
p4492
tp4493
a(g3958
(S's\x0e\x00\x00\x00Quick Examples'
tRp4494
I00
S'http://web2py.com/examples/default/examples'
p4495
tp4496
a(g3958
(S't\x03\x00\x00\x00FAQ'
tRp4497
I00
S'http://web2py.com/AlterEgo'
p4498
tp4499
a(g3958
(S't\x06\x00\x00\x00Videos'
tRp4500
I00
S'http://www.web2py.com/examples/default/videos/'
p4501
tp4502
a(g3958
(S's\x11\x00\x00\x00Free Applications'
tRp4503
I00
S'http://web2py.com/appliances'
p4504
tp4505
a(g3958
(S't\x07\x00\x00\x00Plugins'
tRp4506
I00
S'http://web2py.com/plugins'
p4507
tp4508
a(g3958
(S't\x07\x00\x00\x00Layouts'
tRp4509
I00
S'http://web2py.com/layouts'
p4510
tp4511
a(g3958
(S't\x07\x00\x00\x00Recipes'
tRp4512
I00
S'http://web2pyslices.com/'
p4513
tp4514
a(g3958
(S't\x08\x00\x00\x00Semantic'
tRp4515
I00
S'http://web2py.com/semantic'
p4516
tp4517
aasbasbasbasbasbasbasbag49
(g65
g51
NtRp4518
(dp4519
g54
(dp4520
sg63
g4275
sg56
(lp4521
g49
(g70
g51
NtRp4522
(dp4523
g54
(dp4524
sg63
g4518
sg56
(lp4525
g49
(g50
g51
NtRp4526
(dp4527
g54
(dp4528
g62
I2
ssg63
g4522
sg56
(lp4529
g49
(g58
g51
NtRp4530
(dp4531
g54
(dp4532
g62
I1
ssg63
Nsg56
(lp4533
g49
(g65
g51
NtRp4534
(dp4535
g54
(dp4536
sg63
g4530
sg56
(lp4537
g49
(g70
g51
NtRp4538
(dp4539
g54
(dp4540
sg63
g4534
sg56
(lp4541
g49
(g50
g51
NtRp4542
(dp4543
g54
(dp4544
g62
I1
ssg63
g4538
sg56
(lp4545
g3958
(S't\r\x00\x00\x00Documentation'
tRp4546
asbasbasbag49
(g65
g51
NtRp4547
(dp4548
g54
(dp4549
sg63
g4530
sg56
(lp4550
g49
(g70
g51
NtRp4551
(dp4552
g54
(dp4553
sg63
g4547
sg56
(lp4554
g49
(g50
g51
NtRp4555
(dp4556
g54
(dp4557
g62
I1
ssg63
g4551
sg56
(lp4558
I00
asbasbasbag49
(g65
g51
NtRp4559
(dp4560
g54
(dp4561
sg63
g4530
sg56
(lp4562
g49
(g70
g51
NtRp4563
(dp4564
g54
(dp4565
sg63
g4559
sg56
(lp4566
g49
(g50
g51
NtRp4567
(dp4568
g54
(dp4569
g62
I1
ssg63
g4563
sg56
(lp4570
S'http://www.web2py.com/book'
p4571
asbasbasbag49
(g65
g51
NtRp4572
(dp4573
g54
(dp4574
sg63
g4530
sg56
(lp4575
g49
(g70
g51
NtRp4576
(dp4577
g54
(dp4578
sg63
g4572
sg56
(lp4579
g49
(g50
g51
NtRp4580
(dp4581
g54
(dp4582
g62
I1
ssg63
g4576
sg56
(lp4583
(lp4584
(g3958
(S't\x07\x00\x00\x00Preface'
tRp4585
I00
S'http://www.web2py.com/book/default/chapter/00'
p4586
tp4587
a(g3958
(S't\x0c\x00\x00\x00Introduction'
tRp4588
I00
S'http://www.web2py.com/book/default/chapter/01'
p4589
tp4590
a(g3958
(S't\x06\x00\x00\x00Python'
tRp4591
I00
S'http://www.web2py.com/book/default/chapter/02'
p4592
tp4593
a(g3958
(S't\x08\x00\x00\x00Overview'
tRp4594
I00
S'http://www.web2py.com/book/default/chapter/03'
p4595
tp4596
a(g3958
(S's\x08\x00\x00\x00The Core'
tRp4597
I00
S'http://www.web2py.com/book/default/chapter/04'
p4598
tp4599
a(g3958
(S's\t\x00\x00\x00The Views'
tRp4600
I00
S'http://www.web2py.com/book/default/chapter/05'
p4601
tp4602
a(g3958
(S't\x08\x00\x00\x00Database'
tRp4603
I00
S'http://www.web2py.com/book/default/chapter/06'
p4604
tp4605
a(g3958
(S's\x14\x00\x00\x00Forms and Validators'
tRp4606
I00
S'http://www.web2py.com/book/default/chapter/07'
p4607
tp4608
a(g3958
(S's\r\x00\x00\x00Email and SMS'
tRp4609
I00
S'http://www.web2py.com/book/default/chapter/08'
p4610
tp4611
a(g3958
(S's\x0e\x00\x00\x00Access Control'
tRp4612
I00
S'http://www.web2py.com/book/default/chapter/09'
p4613
tp4614
a(g3958
(S't\x08\x00\x00\x00Services'
tRp4615
I00
S'http://www.web2py.com/book/default/chapter/10'
p4616
tp4617
a(g3958
(S's\x0c\x00\x00\x00Ajax Recipes'
tRp4618
I00
S'http://www.web2py.com/book/default/chapter/11'
p4619
tp4620
a(g3958
(S's\x16\x00\x00\x00Components and Plugins'
tRp4621
I00
S'http://www.web2py.com/book/default/chapter/12'
p4622
tp4623
a(g3958
(S's\x12\x00\x00\x00Deployment Recipes'
tRp4624
I00
S'http://www.web2py.com/book/default/chapter/13'
p4625
tp4626
a(g3958
(S's\r\x00\x00\x00Other Recipes'
tRp4627
I00
S'http://www.web2py.com/book/default/chapter/14'
p4628
tp4629
a(g3958
(S's\r\x00\x00\x00Buy this book'
tRp4630
I00
S'http://stores.lulu.com/web2py'
p4631
tp4632
aasbasbasbasbasbasbasbag49
(g65
g51
NtRp4633
(dp4634
g54
(dp4635
sg63
g4275
sg56
(lp4636
g49
(g70
g51
NtRp4637
(dp4638
g54
(dp4639
sg63
g4633
sg56
(lp4640
g49
(g50
g51
NtRp4641
(dp4642
g54
(dp4643
g62
I2
ssg63
g4637
sg56
(lp4644
g49
(g58
g51
NtRp4645
(dp4646
g54
(dp4647
g62
I1
ssg63
Nsg56
(lp4648
g49
(g65
g51
NtRp4649
(dp4650
g54
(dp4651
sg63
g4645
sg56
(lp4652
g49
(g70
g51
NtRp4653
(dp4654
g54
(dp4655
sg63
g4649
sg56
(lp4656
g49
(g50
g51
NtRp4657
(dp4658
g54
(dp4659
g62
I1
ssg63
g4653
sg56
(lp4660
g3958
(S't\t\x00\x00\x00Community'
tRp4661
asbasbasbag49
(g65
g51
NtRp4662
(dp4663
g54
(dp4664
sg63
g4645
sg56
(lp4665
g49
(g70
g51
NtRp4666
(dp4667
g54
(dp4668
sg63
g4662
sg56
(lp4669
g49
(g50
g51
NtRp4670
(dp4671
g54
(dp4672
g62
I1
ssg63
g4666
sg56
(lp4673
I00
asbasbasbag49
(g65
g51
NtRp4674
(dp4675
g54
(dp4676
sg63
g4645
sg56
(lp4677
g49
(g70
g51
NtRp4678
(dp4679
g54
(dp4680
sg63
g4674
sg56
(lp4681
g49
(g50
g51
NtRp4682
(dp4683
g54
(dp4684
g62
I1
ssg63
g4678
sg56
(lp4685
Nasbasbasbag49
(g65
g51
NtRp4686
(dp4687
g54
(dp4688
sg63
g4645
sg56
(lp4689
g49
(g70
g51
NtRp4690
(dp4691
g54
(dp4692
sg63
g4686
sg56
(lp4693
g49
(g50
g51
NtRp4694
(dp4695
g54
(dp4696
g62
I1
ssg63
g4690
sg56
(lp4697
(lp4698
(g3958
(S't\x06\x00\x00\x00Groups'
tRp4699
I00
S'http://www.web2py.com/examples/default/usergroups'
p4700
tp4701
a(g3958
(S't\x07\x00\x00\x00Twitter'
tRp4702
I00
S'http://twitter.com/web2py'
p4703
tp4704
a(g3958
(S's\t\x00\x00\x00Live Chat'
tRp4705
I00
S'http://webchat.freenode.net/?channels=web2py'
p4706
tp4707
aasbasbasbasbasbasbasbag49
(g65
g51
NtRp4708
(dp4709
g54
(dp4710
sg63
g4275
sg56
(lp4711
g49
(g70
g51
NtRp4712
(dp4713
g54
(dp4714
sg63
g4708
sg56
(lp4715
g49
(g50
g51
NtRp4716
(dp4717
g54
(dp4718
g62
I2
ssg63
g4712
sg56
(lp4719
g49
(g58
g51
NtRp4720
(dp4721
g54
(dp4722
g62
I1
ssg63
Nsg56
(lp4723
g49
(g65
g51
NtRp4724
(dp4725
g54
(dp4726
sg63
g4720
sg56
(lp4727
g49
(g70
g51
NtRp4728
(dp4729
g54
(dp4730
sg63
g4724
sg56
(lp4731
g49
(g50
g51
NtRp4732
(dp4733
g54
(dp4734
g62
I1
ssg63
g4728
sg56
(lp4735
g3958
(S't\x07\x00\x00\x00Plugins'
tRp4736
asbasbasbag49
(g65
g51
NtRp4737
(dp4738
g54
(dp4739
sg63
g4720
sg56
(lp4740
g49
(g70
g51
NtRp4741
(dp4742
g54
(dp4743
sg63
g4737
sg56
(lp4744
g49
(g50
g51
NtRp4745
(dp4746
g54
(dp4747
g62
I1
ssg63
g4741
sg56
(lp4748
I00
asbasbasbag49
(g65
g51
NtRp4749
(dp4750
g54
(dp4751
sg63
g4720
sg56
(lp4752
g49
(g70
g51
NtRp4753
(dp4754
g54
(dp4755
sg63
g4749
sg56
(lp4756
g49
(g50
g51
NtRp4757
(dp4758
g54
(dp4759
g62
I1
ssg63
g4753
sg56
(lp4760
Nasbasbasbag49
(g65
g51
NtRp4761
(dp4762
g54
(dp4763
sg63
g4720
sg56
(lp4764
g49
(g70
g51
NtRp4765
(dp4766
g54
(dp4767
sg63
g4761
sg56
(lp4768
g49
(g50
g51
NtRp4769
(dp4770
g54
(dp4771
g62
I1
ssg63
g4765
sg56
(lp4772
(lp4773
(S'plugin_wiki'
p4774
I00
S'http://web2py.com/examples/default/download'
p4775
tp4776
a(g3958
(S's\r\x00\x00\x00Other Plugins'
tRp4777
I00
g4507
tp4778
a(g3958
(S's\x0e\x00\x00\x00Layout Plugins'
tRp4779
I00
g4510
tp4780
aasbasbasbasbasbasbasbasbasbasbasbasbasbasbasbasbasbasbasbag49
(g65
g51
NtRp4781
(dp4782
g54
(dp4783
sg63
g3647
sg56
(lp4784
g49
(g70
g51
NtRp4785
(dp4786
g54
(dp4787
g74
g75
ssg63
g4781
sg56
(lp4788
S'meta'
p4789
asbag49
(g70
g51
NtRp4790
(dp4791
g54
(dp4792
g81
g82
ssg63
g4781
sg56
(lp4793
S':'
asbag49
(g70
g51
NtRp4794
(dp4795
g54
(dp4796
sg63
g4781
sg56
(lp4797
g49
(g50
g51
NtRp4798
(dp4799
g54
(dp4800
g62
I5
ssg63
g4794
sg56
(lp4801
g49
(g58
g51
NtRp4802
(dp4803
g54
(dp4804
g62
I4
ssg63
Nsg56
(lp4805
g49
(g65
g51
NtRp4806
(dp4807
g54
(dp4808
sg63
g4802
sg56
(lp4809
g49
(g70
g51
NtRp4810
(dp4811
g54
(dp4812
g74
g75
ssg63
g4806
sg56
(lp4813
S'author'
p4814
asbag49
(g70
g51
NtRp4815
(dp4816
g54
(dp4817
g81
g82
ssg63
g4806
sg56
(lp4818
S':'
asbag49
(g70
g51
NtRp4819
(dp4820
g54
(dp4821
sg63
g4806
sg56
(lp4822
g49
(g50
g51
NtRp4823
(dp4824
g54
(dp4825
g62
I4
ssg63
g4819
sg56
(lp4826
S'Your Name <you@example.com>'
p4827
asbasbasbag49
(g65
g51
NtRp4828
(dp4829
g54
(dp4830
sg63
g4802
sg56
(lp4831
g49
(g70
g51
NtRp4832
(dp4833
g54
(dp4834
g74
g75
ssg63
g4828
sg56
(lp4835
S'description'
p4836
asbag49
(g70
g51
NtRp4837
(dp4838
g54
(dp4839
g81
g82
ssg63
g4828
sg56
(lp4840
S':'
asbag49
(g70
g51
NtRp4841
(dp4842
g54
(dp4843
sg63
g4828
sg56
(lp4844
g49
(g50
g51
NtRp4845
(dp4846
g54
(dp4847
g62
I4
ssg63
g4841
sg56
(lp4848
S'a cool new app'
p4849
asbasbasbag49
(g65
g51
NtRp4850
(dp4851
g54
(dp4852
sg63
g4802
sg56
(lp4853
g49
(g70
g51
NtRp4854
(dp4855
g54
(dp4856
g74
g75
ssg63
g4850
sg56
(lp4857
S'generator'
p4858
asbag49
(g70
g51
NtRp4859
(dp4860
g54
(dp4861
g81
g82
ssg63
g4850
sg56
(lp4862
S':'
asbag49
(g70
g51
NtRp4863
(dp4864
g54
(dp4865
sg63
g4850
sg56
(lp4866
g49
(g50
g51
NtRp4867
(dp4868
g54
(dp4869
g62
I4
ssg63
g4863
sg56
(lp4870
S'Web2py Web Framework'
p4871
asbasbasbag49
(g65
g51
NtRp4872
(dp4873
g54
(dp4874
sg63
g4802
sg56
(lp4875
g49
(g70
g51
NtRp4876
(dp4877
g54
(dp4878
g74
g75
ssg63
g4872
sg56
(lp4879
S'keywords'
p4880
asbag49
(g70
g51
NtRp4881
(dp4882
g54
(dp4883
g81
g82
ssg63
g4872
sg56
(lp4884
S':'
asbag49
(g70
g51
NtRp4885
(dp4886
g54
(dp4887
sg63
g4872
sg56
(lp4888
g49
(g50
g51
NtRp4889
(dp4890
g54
(dp4891
g62
I4
ssg63
g4885
sg56
(lp4892
S'web2py, python, framework'
p4893
asbasbasbasbasbasbasbag49
(g65
g51
NtRp4894
(dp4895
g54
(dp4896
sg63
g3647
sg56
(lp4897
g49
(g70
g51
NtRp4898
(dp4899
g54
(dp4900
g74
g75
ssg63
g4894
sg56
(lp4901
S'models_to_run'
p4902
asbag49
(g70
g51
NtRp4903
(dp4904
g54
(dp4905
g81
g82
ssg63
g4894
sg56
(lp4906
S':'
asbag49
(g70
g51
NtRp4907
(dp4908
g54
(dp4909
sg63
g4894
sg56
(lp4910
g49
(g50
g51
NtRp4911
(dp4912
g54
(dp4913
g62
I5
ssg63
g4907
sg56
(lp4914
g49
(g58
g51
NtRp4915
(dp4916
g54
(dp4917
g62
I4
ssg63
Nsg56
(lp4918
g49
(g65
g51
NtRp4919
(dp4920
g54
(dp4921
sg63
g4915
sg56
(lp4922
g49
(g70
g51
NtRp4923
(dp4924
g54
(dp4925
sg63
g4919
sg56
(lp4926
g49
(g50
g51
NtRp4927
(dp4928
g54
(dp4929
g62
I4
ssg63
g4923
sg56
(lp4930
S'^\\w+\\.py$'
p4931
asbasbasbag49
(g65
g51
NtRp4932
(dp4933
g54
(dp4934
sg63
g4915
sg56
(lp4935
g49
(g70
g51
NtRp4936
(dp4937
g54
(dp4938
sg63
g4932
sg56
(lp4939
g49
(g50
g51
NtRp4940
(dp4941
g54
(dp4942
g62
I4
ssg63
g4936
sg56
(lp4943
S'^game/\\w+\\.py$'
p4944
asbasbasbag49
(g65
g51
NtRp4945
(dp4946
g54
(dp4947
sg63
g4915
sg56
(lp4948
g49
(g70
g51
NtRp4949
(dp4950
g54
(dp4951
sg63
g4945
sg56
(lp4952
g49
(g50
g51
NtRp4953
(dp4954
g54
(dp4955
g62
I4
ssg63
g4949
sg56
(lp4956
S'^game/show/\\w+\\.py$'
p4957
asbasbasbasbasbasbasbag49
(g65
g51
NtRp4958
(dp4959
g54
(dp4960
sg63
g3647
sg56
(lp4961
g49
(g70
g51
NtRp4962
(dp4963
g54
(dp4964
g74
g75
ssg63
g4958
sg56
(lp4965
S'postprocessing'
p4966
asbag49
(g70
g51
NtRp4967
(dp4968
g54
(dp4969
g81
g82
ssg63
g4958
sg56
(lp4970
S':'
asbag49
(g70
g51
NtRp4971
(dp4972
g54
(dp4973
sg63
g4958
sg56
(lp4974
g49
(g50
g51
NtRp4975
(dp4976
g54
(dp4977
g62
I5
ssg63
g4971
sg56
(lp4978
g49
(g58
g51
NtRp4979
(dp4980
g54
(dp4981
g62
I4
ssg63
Nsg56
(lp4982
sbasbasbasbag49
(g65
g51
NtRp4983
(dp4984
g54
(dp4985
sg63
g3647
sg56
(lp4986
g49
(g70
g51
NtRp4987
(dp4988
g54
(dp4989
g74
g75
ssg63
g4983
sg56
(lp4990
S'session_cookie_expires'
p4991
asbag49
(g70
g51
NtRp4992
(dp4993
g54
(dp4994
g81
g82
ssg63
g4983
sg56
(lp4995
S':'
asbag49
(g70
g51
NtRp4996
(dp4997
g54
(dp4998
sg63
g4983
sg56
(lp4999
g49
(g50
g51
NtRp5000
(dp5001
g54
(dp5002
g62
I5
ssg63
g4996
sg56
(lp5003
S'None'
p5004
asbasbasbag49
(g65
g51
NtRp5005
(dp5006
g54
(dp5007
sg63
g3647
sg56
(lp5008
g49
(g70
g51
NtRp5009
(dp5010
g54
(dp5011
g74
g75
ssg63
g5005
sg56
(lp5012
S'session_data_name'
p5013
asbag49
(g70
g51
NtRp5014
(dp5015
g54
(dp5016
g81
g82
ssg63
g5005
sg56
(lp5017
S':'
asbag49
(g70
g51
NtRp5018
(dp5019
g54
(dp5020
sg63
g5005
sg56
(lp5021
g49
(g50
g51
NtRp5022
(dp5023
g54
(dp5024
g62
I5
ssg63
g5018
sg56
(lp5025
S'session_data_hellow'
p5026
asbasbasbag49
(g65
g51
NtRp5027
(dp5028
g54
(dp5029
sg63
g3647
sg56
(lp5030
g49
(g70
g51
NtRp5031
(dp5032
g54
(dp5033
g74
g75
ssg63
g5027
sg56
(lp5034
S'session_file'
p5035
asbag49
(g70
g51
NtRp5036
(dp5037
g54
(dp5038
g81
g82
ssg63
g5027
sg56
(lp5039
S':'
asbag49
(g70
g51
NtRp5040
(dp5041
g54
(dp5042
sg63
g5027
sg56
(lp5043
g49
(g50
g51
NtRp5044
(dp5045
g54
(dp5046
g62
I5
ssg63
g5040
sg56
(lp5047
S"<open file '/Users/zamechek/Downloads/web2py/web2py.app/Contents/Resources/applications/hellow/sessions/127.0.0.1-bbea59f2-333e-4593-a45c-2c44a5133d77', mode 'rb+' at 0x7174890>"
p5048
asbasbasbag49
(g65
g51
NtRp5049
(dp5050
g54
(dp5051
sg63
g3647
sg56
(lp5052
g49
(g70
g51
NtRp5053
(dp5054
g54
(dp5055
g74
g75
ssg63
g5049
sg56
(lp5056
S'session_filename'
p5057
asbag49
(g70
g51
NtRp5058
(dp5059
g54
(dp5060
g81
g82
ssg63
g5049
sg56
(lp5061
S':'
asbag49
(g70
g51
NtRp5062
(dp5063
g54
(dp5064
sg63
g5049
sg56
(lp5065
g49
(g50
g51
NtRp5066
(dp5067
g54
(dp5068
g62
I5
ssg63
g5062
sg56
(lp5069
S'/Users/zamechek/Downloads/web2py/web2py.app/Contents/Resources/applications/hellow/sessions/127.0.0.1-bbea59f2-333e-4593-a45c-2c44a5133d77'
p5070
asbasbasbag49
(g65
g51
NtRp5071
(dp5072
g54
(dp5073
sg63
g3647
sg56
(lp5074
g49
(g70
g51
NtRp5075
(dp5076
g54
(dp5077
g74
g75
ssg63
g5071
sg56
(lp5078
S'session_id'
p5079
asbag49
(g70
g51
NtRp5080
(dp5081
g54
(dp5082
g81
g82
ssg63
g5071
sg56
(lp5083
S':'
asbag49
(g70
g51
NtRp5084
(dp5085
g54
(dp5086
sg63
g5071
sg56
(lp5087
g49
(g50
g51
NtRp5088
(dp5089
g54
(dp5090
g62
I5
ssg63
g5084
sg56
(lp5091
g458
asbasbasbag49
(g65
g51
NtRp5092
(dp5093
g54
(dp5094
sg63
g3647
sg56
(lp5095
g49
(g70
g51
NtRp5096
(dp5097
g54
(dp5098
g74
g75
ssg63
g5092
sg56
(lp5099
S'session_id_name'
p5100
asbag49
(g70
g51
NtRp5101
(dp5102
g54
(dp5103
g81
g82
ssg63
g5092
sg56
(lp5104
S':'
asbag49
(g70
g51
NtRp5105
(dp5106
g54
(dp5107
sg63
g5092
sg56
(lp5108
g49
(g50
g51
NtRp5109
(dp5110
g54
(dp5111
g62
I5
ssg63
g5105
sg56
(lp5112
g3704
asbasbasbag49
(g65
g51
NtRp5113
(dp5114
g54
(dp5115
sg63
g3647
sg56
(lp5116
g49
(g70
g51
NtRp5117
(dp5118
g54
(dp5119
g74
g75
ssg63
g5113
sg56
(lp5120
S'session_locked'
p5121
asbag49
(g70
g51
NtRp5122
(dp5123
g54
(dp5124
g81
g82
ssg63
g5113
sg56
(lp5125
S':'
asbag49
(g70
g51
NtRp5126
(dp5127
g54
(dp5128
sg63
g5113
sg56
(lp5129
g49
(g50
g51
NtRp5130
(dp5131
g54
(dp5132
g62
I5
ssg63
g5126
sg56
(lp5133
g972
asbasbasbag49
(g65
g51
NtRp5134
(dp5135
g54
(dp5136
sg63
g3647
sg56
(lp5137
g49
(g70
g51
NtRp5138
(dp5139
g54
(dp5140
g74
g75
ssg63
g5134
sg56
(lp5141
S'session_new'
p5142
asbag49
(g70
g51
NtRp5143
(dp5144
g54
(dp5145
g81
g82
ssg63
g5134
sg56
(lp5146
S':'
asbag49
(g70
g51
NtRp5147
(dp5148
g54
(dp5149
sg63
g5134
sg56
(lp5150
g49
(g50
g51
NtRp5151
(dp5152
g54
(dp5153
g62
I5
ssg63
g5147
sg56
(lp5154
g92
asbasbasbag49
(g65
g51
NtRp5155
(dp5156
g54
(dp5157
sg63
g3647
sg56
(lp5158
g49
(g70
g51
NtRp5159
(dp5160
g54
(dp5161
g74
g75
ssg63
g5155
sg56
(lp5162
S'session_storage_type'
p5163
asbag49
(g70
g51
NtRp5164
(dp5165
g54
(dp5166
g81
g82
ssg63
g5155
sg56
(lp5167
S':'
asbag49
(g70
g51
NtRp5168
(dp5169
g54
(dp5170
sg63
g5155
sg56
(lp5171
g49
(g50
g51
NtRp5172
(dp5173
g54
(dp5174
g62
I5
ssg63
g5168
sg56
(lp5175
g3525
asbasbasbag49
(g65
g51
NtRp5176
(dp5177
g54
(dp5178
sg63
g3647
sg56
(lp5179
g49
(g70
g51
NtRp5180
(dp5181
g54
(dp5182
g74
g75
ssg63
g5176
sg56
(lp5183
S'status'
p5184
asbag49
(g70
g51
NtRp5185
(dp5186
g54
(dp5187
g81
g82
ssg63
g5176
sg56
(lp5188
S':'
asbag49
(g70
g51
NtRp5189
(dp5190
g54
(dp5191
sg63
g5176
sg56
(lp5192
g49
(g50
g51
NtRp5193
(dp5194
g54
(dp5195
g62
I5
ssg63
g5189
sg56
(lp5196
S'200'
p5197
asbasbasbag49
(g65
g51
NtRp5198
(dp5199
g54
(dp5200
sg63
g3647
sg56
(lp5201
g49
(g70
g51
NtRp5202
(dp5203
g54
(dp5204
g74
g75
ssg63
g5198
sg56
(lp5205
S'subtitle'
p5206
asbag49
(g70
g51
NtRp5207
(dp5208
g54
(dp5209
g81
g82
ssg63
g5198
sg56
(lp5210
S':'
asbag49
(g70
g51
NtRp5211
(dp5212
g54
(dp5213
sg63
g5198
sg56
(lp5214
g49
(g50
g51
NtRp5215
(dp5216
g54
(dp5217
g62
I5
ssg63
g5211
sg56
(lp5218
g3958
(S's\r\x00\x00\x00customize me!'
tRp5219
asbasbasbag49
(g65
g51
NtRp5220
(dp5221
g54
(dp5222
sg63
g3647
sg56
(lp5223
g49
(g70
g51
NtRp5224
(dp5225
g54
(dp5226
g74
g75
ssg63
g5220
sg56
(lp5227
S'title'
p5228
asbag49
(g70
g51
NtRp5229
(dp5230
g54
(dp5231
g81
g82
ssg63
g5220
sg56
(lp5232
S':'
asbag49
(g70
g51
NtRp5233
(dp5234
g54
(dp5235
sg63
g5220
sg56
(lp5236
g49
(g50
g51
NtRp5237
(dp5238
g54
(dp5239
g62
I5
ssg63
g5233
sg56
(lp5240
S'Hellow'
p5241
asbasbasbag49
(g65
g51
NtRp5242
(dp5243
g54
(dp5244
sg63
g3647
sg56
(lp5245
g49
(g70
g51
NtRp5246
(dp5247
g54
(dp5248
g74
g75
ssg63
g5242
sg56
(lp5249
S'view'
p5250
asbag49
(g70
g51
NtRp5251
(dp5252
g54
(dp5253
g81
g82
ssg63
g5242
sg56
(lp5254
S':'
asbag49
(g70
g51
NtRp5255
(dp5256
g54
(dp5257
sg63
g5242
sg56
(lp5258
g49
(g50
g51
NtRp5259
(dp5260
g54
(dp5261
g62
I5
ssg63
g5255
sg56
(lp5262
S'game/show.html'
p5263
asbasbasbasbasbsS'locals'
p5264
(dp5265
S'rows'
p5266
S'<Rows (3)>'
p5267
sS'game'
p5268
S"<Row {'auth_user': 1, 'balance': 100, 'id': 1}>"
p5269
sS'game_and_slots'
p5270
S'<Set ((game.id = game_slots.game) AND (slot.id = game_slots.slot))>'
p5271
sS'otherForm'
p5272
S'<gluon.sqlhtml.SQLFORM object at 0x6db4950>'
p5273
sS'currentBalance'
p5274
S'100'
p5275
sS'id'
p5276
S"'1'"
p5277
sS'bet'
p5278
S'20'
p5279
sssS'traceback'
p5280
S'Traceback (most recent call last):\n  File "/home/mdipierro/web2py/gluon/restricted.py", line 212, in restricted\n  File "/Users/zamechek/Downloads/web2py/web2py.app/Contents/Resources/applications/hellow/controllers/game.py", line 40, in <module>\n  File "/home/mdipierro/web2py/gluon/globals.py", line 193, in <lambda>\n  File "/Users/zamechek/Downloads/web2py/web2py.app/Contents/Resources/applications/hellow/controllers/game.py", line 13, in show\n  File "/Users/zamechek/Downloads/web2py/web2py.app/Contents/Resources/applications/hellow/controllers/game.py", line 24, in form_from_factory\nAttributeError: \'Row\' object has no attribute \'odds\'\n'
p5281
s.