(dp1
S'output'
p2
S"<type 'exceptions.TypeError'> unsupported operand type(s) for +: 'bool' and 'str'"
p3
sS'layer'
p4
S'/Users/zamechek/Downloads/web2py/web2py.app/Contents/Resources/applications/hellow/controllers/slot.py'
p5
sS'code'
p6
S'# coding: utf8\n# try something like\nimport random\ndef index(): return dict(message="hello from slot.py")\n\ndef show():\n    id = request.args[0]\n    slot = db.slot(id)\n    return isWinner(slot.odd) + " "  + str(slot.odd)\n    \ndef isWinner(odd):\n    if odd > random.randint(0, 9):\n        return True\n    else: return False\n\nresponse._vars=response._caller(show)\n'
p7
sS'snapshot'
p8
(dp9
S'exception'
p10
(dp11
S'__hash__'
p12
S"<method-wrapper '__hash__' of exceptions.TypeError object at 0xa803da0>"
p13
sS'__setattr__'
p14
S"<method-wrapper '__setattr__' of exceptions.TypeError object at 0xa803da0>"
p15
sS'__reduce_ex__'
p16
S'<built-in method __reduce_ex__ of exceptions.TypeError object at 0xa803da0>'
p17
sS'__getslice__'
p18
S"<method-wrapper '__getslice__' of exceptions.TypeError object at 0xa803da0>"
p19
sS'__getitem__'
p20
S"<method-wrapper '__getitem__' of exceptions.TypeError object at 0xa803da0>"
p21
sS'__setstate__'
p22
S'<built-in method __setstate__ of exceptions.TypeError object at 0xa803da0>'
p23
sS'__reduce__'
p24
S'<built-in method __reduce__ of exceptions.TypeError object at 0xa803da0>'
p25
sS'__str__'
p26
S"<method-wrapper '__str__' of exceptions.TypeError object at 0xa803da0>"
p27
sS'args'
p28
S'("unsupported operand type(s) for +: \'bool\' and \'str\'",)'
p29
sS'__getattribute__'
p30
S"<method-wrapper '__getattribute__' of exceptions.TypeError object at 0xa803da0>"
p31
sS'__class__'
p32
S"<type 'exceptions.TypeError'>"
p33
sS'__delattr__'
p34
S"<method-wrapper '__delattr__' of exceptions.TypeError object at 0xa803da0>"
p35
sS'__repr__'
p36
S"<method-wrapper '__repr__' of exceptions.TypeError object at 0xa803da0>"
p37
sS'__dict__'
p38
S'{}'
p39
sS'__doc__'
p40
S"'Inappropriate argument type.'"
p41
sS'__init__'
p42
S"<method-wrapper '__init__' of exceptions.TypeError object at 0xa803da0>"
p43
sS'__new__'
p44
S'<built-in method __new__ of type object at 0x5fa140>'
p45
ssS'evalue'
p46
S"unsupported operand type(s) for +: 'bool' and 'str'"
p47
sS'request'
p48
ccopy_reg
_reconstructor
p49
(cgluon.html
BEAUTIFY
p50
c__builtin__
object
p51
NtRp52
(dp53
S'attributes'
p54
(dp55
sS'components'
p56
(lp57
g49
(cgluon.html
TABLE
p58
g51
NtRp59
(dp60
g54
(dp61
S'level'
p62
I5
ssS'parent'
p63
Nsg56
(lp64
g49
(cgluon.html
TR
p65
g51
NtRp66
(dp67
g54
(dp68
sg63
g59
sg56
(lp69
g49
(cgluon.html
TD
p70
g51
NtRp71
(dp72
g54
(dp73
S'_style'
p74
S'font-weight:bold;vertical-align:top'
p75
ssg63
g66
sg56
(lp76
S'ajax'
p77
asbag49
(g70
g51
NtRp78
(dp79
g54
(dp80
S'_valign'
p81
S'top'
p82
ssg63
g66
sg56
(lp83
S':'
asbag49
(g70
g51
NtRp84
(dp85
g54
(dp86
sg63
g66
sg56
(lp87
g49
(g50
g51
NtRp88
(dp89
g54
(dp90
g62
I5
ssg63
g84
sg56
(lp91
S'False'
p92
asbasbasbag49
(g65
g51
NtRp93
(dp94
g54
(dp95
sg63
g59
sg56
(lp96
g49
(g70
g51
NtRp97
(dp98
g54
(dp99
g74
g75
ssg63
g93
sg56
(lp100
S'application'
p101
asbag49
(g70
g51
NtRp102
(dp103
g54
(dp104
g81
g82
ssg63
g93
sg56
(lp105
S':'
asbag49
(g70
g51
NtRp106
(dp107
g54
(dp108
sg63
g93
sg56
(lp109
g49
(g50
g51
NtRp110
(dp111
g54
(dp112
g62
I5
ssg63
g106
sg56
(lp113
S'hellow'
p114
asbasbasbag49
(g65
g51
NtRp115
(dp116
g54
(dp117
sg63
g59
sg56
(lp118
g49
(g70
g51
NtRp119
(dp120
g54
(dp121
g74
g75
ssg63
g115
sg56
(lp122
g28
asbag49
(g70
g51
NtRp123
(dp124
g54
(dp125
g81
g82
ssg63
g115
sg56
(lp126
S':'
asbag49
(g70
g51
NtRp127
(dp128
g54
(dp129
sg63
g115
sg56
(lp130
g49
(g50
g51
NtRp131
(dp132
g54
(dp133
g62
I5
ssg63
g127
sg56
(lp134
g49
(g58
g51
NtRp135
(dp136
g54
(dp137
g62
I4
ssg63
Nsg56
(lp138
g49
(g65
g51
NtRp139
(dp140
g54
(dp141
sg63
g135
sg56
(lp142
g49
(g70
g51
NtRp143
(dp144
g54
(dp145
sg63
g139
sg56
(lp146
g49
(g50
g51
NtRp147
(dp148
g54
(dp149
g62
I4
ssg63
g143
sg56
(lp150
S'9'
asbasbasbasbasbasbasbag49
(g65
g51
NtRp151
(dp152
g54
(dp153
sg63
g59
sg56
(lp154
g49
(g70
g51
NtRp155
(dp156
g54
(dp157
g74
g75
ssg63
g151
sg56
(lp158
S'body'
p159
asbag49
(g70
g51
NtRp160
(dp161
g54
(dp162
g81
g82
ssg63
g151
sg56
(lp163
S':'
asbag49
(g70
g51
NtRp164
(dp165
g54
(dp166
sg63
g151
sg56
(lp167
g49
(g50
g51
NtRp168
(dp169
g54
(dp170
g62
I5
ssg63
g164
sg56
(lp171
S'<cStringIO.StringO object at 0xa23f3e0>'
p172
asbasbasbag49
(g65
g51
NtRp173
(dp174
g54
(dp175
sg63
g59
sg56
(lp176
g49
(g70
g51
NtRp177
(dp178
g54
(dp179
g74
g75
ssg63
g173
sg56
(lp180
S'cid'
p181
asbag49
(g70
g51
NtRp182
(dp183
g54
(dp184
g81
g82
ssg63
g173
sg56
(lp185
S':'
asbag49
(g70
g51
NtRp186
(dp187
g54
(dp188
sg63
g173
sg56
(lp189
g49
(g50
g51
NtRp190
(dp191
g54
(dp192
g62
I5
ssg63
g186
sg56
(lp193
S'None'
p194
asbasbasbag49
(g65
g51
NtRp195
(dp196
g54
(dp197
sg63
g59
sg56
(lp198
g49
(g70
g51
NtRp199
(dp200
g54
(dp201
g74
g75
ssg63
g195
sg56
(lp202
S'client'
p203
asbag49
(g70
g51
NtRp204
(dp205
g54
(dp206
g81
g82
ssg63
g195
sg56
(lp207
S':'
asbag49
(g70
g51
NtRp208
(dp209
g54
(dp210
sg63
g195
sg56
(lp211
g49
(g50
g51
NtRp212
(dp213
g54
(dp214
g62
I5
ssg63
g208
sg56
(lp215
S'127.0.0.1'
p216
asbasbasbag49
(g65
g51
NtRp217
(dp218
g54
(dp219
sg63
g59
sg56
(lp220
g49
(g70
g51
NtRp221
(dp222
g54
(dp223
g74
g75
ssg63
g217
sg56
(lp224
S'controller'
p225
asbag49
(g70
g51
NtRp226
(dp227
g54
(dp228
g81
g82
ssg63
g217
sg56
(lp229
S':'
asbag49
(g70
g51
NtRp230
(dp231
g54
(dp232
sg63
g217
sg56
(lp233
g49
(g50
g51
NtRp234
(dp235
g54
(dp236
g62
I5
ssg63
g230
sg56
(lp237
S'slot'
p238
asbasbasbag49
(g65
g51
NtRp239
(dp240
g54
(dp241
sg63
g59
sg56
(lp242
g49
(g70
g51
NtRp243
(dp244
g54
(dp245
g74
g75
ssg63
g239
sg56
(lp246
S'cookies'
p247
asbag49
(g70
g51
NtRp248
(dp249
g54
(dp250
g81
g82
ssg63
g239
sg56
(lp251
S':'
asbag49
(g70
g51
NtRp252
(dp253
g54
(dp254
sg63
g239
sg56
(lp255
g49
(g50
g51
NtRp256
(dp257
g54
(dp258
g62
I5
ssg63
g252
sg56
(lp259
g49
(g58
g51
NtRp260
(dp261
g54
(dp262
g62
I4
ssg63
Nsg56
(lp263
g49
(g65
g51
NtRp264
(dp265
g54
(dp266
sg63
g260
sg56
(lp267
g49
(g70
g51
NtRp268
(dp269
g54
(dp270
g74
g75
ssg63
g264
sg56
(lp271
S'session_data_examples'
p272
asbag49
(g70
g51
NtRp273
(dp274
g54
(dp275
g81
g82
ssg63
g264
sg56
(lp276
S':'
asbag49
(g70
g51
NtRp277
(dp278
g54
(dp279
sg63
g264
sg56
(lp280
g49
(g50
g51
NtRp281
(dp282
g54
(dp283
g62
I4
ssg63
g277
sg56
(lp284
S'6590e93a92ae056071f3d5d23c5da718:8mcaYr3jD5OS9Hm5obiuGpOS1hqNCswQLIoFlRGZYdaR8FVZ84s0w9vMAEY5L6DK8gvTZcQowujTbbDj-ns3802lRCPwkkcburTr1lmHorC9hQtD5W0yZ89O_mdlKuHPlwEItXQ5_WAFut_RTkzpuyS0nQWmuEGxVuLk0DXc0ndh8WySsXoErgPnINq0aXqKzueVqcmNBWwB7tluAV8oSQyVVnjPajiXfmT2moAb3dPnaGC3yePavU4XAXO8FVarzcdAnZ4bnTo9uMJJvT2hL9oQVbtD8YY8yMHurMAdtIpf8wcGfXNr6SjFTzpMxYtAg1tv7XdXpUPETM1Ox80jE-qsgQd_Xr1FA049-xsoxpdA4EzMUoouiTJ995NWCOJNjo6VICpuSvfOJBlnOLd8aLxueLUtuyScbkLd2jOCQIsF2aV6hhIZWDXpJwlCKPkIckeaXaaHeE4EqTZR6N0JnA=='
p285
ag49
(g58
g51
NtRp286
(dp287
g54
(dp288
g62
I3
ssg63
Nsg56
(lp289
g49
(g65
g51
NtRp290
(dp291
g54
(dp292
sg63
g286
sg56
(lp293
g49
(g70
g51
NtRp294
(dp295
g54
(dp296
g74
g75
ssg63
g290
sg56
(lp297
S'comment'
p298
asbag49
(g70
g51
NtRp299
(dp300
g54
(dp301
g81
g82
ssg63
g290
sg56
(lp302
S':'
asbag49
(g70
g51
NtRp303
(dp304
g54
(dp305
sg63
g290
sg56
(lp306
g49
(g50
g51
NtRp307
(dp308
g54
(dp309
g62
I3
ssg63
g303
sg56
(lp310
S''
asbasbasbag49
(g65
g51
NtRp311
(dp312
g54
(dp313
sg63
g286
sg56
(lp314
g49
(g70
g51
NtRp315
(dp316
g54
(dp317
g74
g75
ssg63
g311
sg56
(lp318
S'domain'
p319
asbag49
(g70
g51
NtRp320
(dp321
g54
(dp322
g81
g82
ssg63
g311
sg56
(lp323
S':'
asbag49
(g70
g51
NtRp324
(dp325
g54
(dp326
sg63
g311
sg56
(lp327
g49
(g50
g51
NtRp328
(dp329
g54
(dp330
g62
I3
ssg63
g324
sg56
(lp331
S''
asbasbasbag49
(g65
g51
NtRp332
(dp333
g54
(dp334
sg63
g286
sg56
(lp335
g49
(g70
g51
NtRp336
(dp337
g54
(dp338
g74
g75
ssg63
g332
sg56
(lp339
S'expires'
p340
asbag49
(g70
g51
NtRp341
(dp342
g54
(dp343
g81
g82
ssg63
g332
sg56
(lp344
S':'
asbag49
(g70
g51
NtRp345
(dp346
g54
(dp347
sg63
g332
sg56
(lp348
g49
(g50
g51
NtRp349
(dp350
g54
(dp351
g62
I3
ssg63
g345
sg56
(lp352
S''
asbasbasbag49
(g65
g51
NtRp353
(dp354
g54
(dp355
sg63
g286
sg56
(lp356
g49
(g70
g51
NtRp357
(dp358
g54
(dp359
g74
g75
ssg63
g353
sg56
(lp360
S'max-age'
p361
asbag49
(g70
g51
NtRp362
(dp363
g54
(dp364
g81
g82
ssg63
g353
sg56
(lp365
S':'
asbag49
(g70
g51
NtRp366
(dp367
g54
(dp368
sg63
g353
sg56
(lp369
g49
(g50
g51
NtRp370
(dp371
g54
(dp372
g62
I3
ssg63
g366
sg56
(lp373
S''
asbasbasbag49
(g65
g51
NtRp374
(dp375
g54
(dp376
sg63
g286
sg56
(lp377
g49
(g70
g51
NtRp378
(dp379
g54
(dp380
g74
g75
ssg63
g374
sg56
(lp381
S'path'
p382
asbag49
(g70
g51
NtRp383
(dp384
g54
(dp385
g81
g82
ssg63
g374
sg56
(lp386
S':'
asbag49
(g70
g51
NtRp387
(dp388
g54
(dp389
sg63
g374
sg56
(lp390
g49
(g50
g51
NtRp391
(dp392
g54
(dp393
g62
I3
ssg63
g387
sg56
(lp394
S''
asbasbasbag49
(g65
g51
NtRp395
(dp396
g54
(dp397
sg63
g286
sg56
(lp398
g49
(g70
g51
NtRp399
(dp400
g54
(dp401
g74
g75
ssg63
g395
sg56
(lp402
S'secure'
p403
asbag49
(g70
g51
NtRp404
(dp405
g54
(dp406
g81
g82
ssg63
g395
sg56
(lp407
S':'
asbag49
(g70
g51
NtRp408
(dp409
g54
(dp410
sg63
g395
sg56
(lp411
g49
(g50
g51
NtRp412
(dp413
g54
(dp414
g62
I3
ssg63
g408
sg56
(lp415
S''
asbasbasbag49
(g65
g51
NtRp416
(dp417
g54
(dp418
sg63
g286
sg56
(lp419
g49
(g70
g51
NtRp420
(dp421
g54
(dp422
g74
g75
ssg63
g416
sg56
(lp423
S'version'
p424
asbag49
(g70
g51
NtRp425
(dp426
g54
(dp427
g81
g82
ssg63
g416
sg56
(lp428
S':'
asbag49
(g70
g51
NtRp429
(dp430
g54
(dp431
sg63
g416
sg56
(lp432
g49
(g50
g51
NtRp433
(dp434
g54
(dp435
g62
I3
ssg63
g429
sg56
(lp436
S''
asbasbasbasbasbasbasbag49
(g65
g51
NtRp437
(dp438
g54
(dp439
sg63
g260
sg56
(lp440
g49
(g70
g51
NtRp441
(dp442
g54
(dp443
g74
g75
ssg63
g437
sg56
(lp444
S'session_id_admin'
p445
asbag49
(g70
g51
NtRp446
(dp447
g54
(dp448
g81
g82
ssg63
g437
sg56
(lp449
S':'
asbag49
(g70
g51
NtRp450
(dp451
g54
(dp452
sg63
g437
sg56
(lp453
g49
(g50
g51
NtRp454
(dp455
g54
(dp456
g62
I4
ssg63
g450
sg56
(lp457
S'127.0.0.1-66a1de5b-ba15-4b30-ba06-132c9e7969c1'
p458
ag49
(g58
g51
NtRp459
(dp460
g54
(dp461
g62
I3
ssg63
Nsg56
(lp462
g49
(g65
g51
NtRp463
(dp464
g54
(dp465
sg63
g459
sg56
(lp466
g49
(g70
g51
NtRp467
(dp468
g54
(dp469
g74
g75
ssg63
g463
sg56
(lp470
g298
asbag49
(g70
g51
NtRp471
(dp472
g54
(dp473
g81
g82
ssg63
g463
sg56
(lp474
S':'
asbag49
(g70
g51
NtRp475
(dp476
g54
(dp477
sg63
g463
sg56
(lp478
g49
(g50
g51
NtRp479
(dp480
g54
(dp481
g62
I3
ssg63
g475
sg56
(lp482
S''
asbasbasbag49
(g65
g51
NtRp483
(dp484
g54
(dp485
sg63
g459
sg56
(lp486
g49
(g70
g51
NtRp487
(dp488
g54
(dp489
g74
g75
ssg63
g483
sg56
(lp490
g319
asbag49
(g70
g51
NtRp491
(dp492
g54
(dp493
g81
g82
ssg63
g483
sg56
(lp494
S':'
asbag49
(g70
g51
NtRp495
(dp496
g54
(dp497
sg63
g483
sg56
(lp498
g49
(g50
g51
NtRp499
(dp500
g54
(dp501
g62
I3
ssg63
g495
sg56
(lp502
S''
asbasbasbag49
(g65
g51
NtRp503
(dp504
g54
(dp505
sg63
g459
sg56
(lp506
g49
(g70
g51
NtRp507
(dp508
g54
(dp509
g74
g75
ssg63
g503
sg56
(lp510
g340
asbag49
(g70
g51
NtRp511
(dp512
g54
(dp513
g81
g82
ssg63
g503
sg56
(lp514
S':'
asbag49
(g70
g51
NtRp515
(dp516
g54
(dp517
sg63
g503
sg56
(lp518
g49
(g50
g51
NtRp519
(dp520
g54
(dp521
g62
I3
ssg63
g515
sg56
(lp522
S''
asbasbasbag49
(g65
g51
NtRp523
(dp524
g54
(dp525
sg63
g459
sg56
(lp526
g49
(g70
g51
NtRp527
(dp528
g54
(dp529
g74
g75
ssg63
g523
sg56
(lp530
g361
asbag49
(g70
g51
NtRp531
(dp532
g54
(dp533
g81
g82
ssg63
g523
sg56
(lp534
S':'
asbag49
(g70
g51
NtRp535
(dp536
g54
(dp537
sg63
g523
sg56
(lp538
g49
(g50
g51
NtRp539
(dp540
g54
(dp541
g62
I3
ssg63
g535
sg56
(lp542
S''
asbasbasbag49
(g65
g51
NtRp543
(dp544
g54
(dp545
sg63
g459
sg56
(lp546
g49
(g70
g51
NtRp547
(dp548
g54
(dp549
g74
g75
ssg63
g543
sg56
(lp550
g382
asbag49
(g70
g51
NtRp551
(dp552
g54
(dp553
g81
g82
ssg63
g543
sg56
(lp554
S':'
asbag49
(g70
g51
NtRp555
(dp556
g54
(dp557
sg63
g543
sg56
(lp558
g49
(g50
g51
NtRp559
(dp560
g54
(dp561
g62
I3
ssg63
g555
sg56
(lp562
S''
asbasbasbag49
(g65
g51
NtRp563
(dp564
g54
(dp565
sg63
g459
sg56
(lp566
g49
(g70
g51
NtRp567
(dp568
g54
(dp569
g74
g75
ssg63
g563
sg56
(lp570
g403
asbag49
(g70
g51
NtRp571
(dp572
g54
(dp573
g81
g82
ssg63
g563
sg56
(lp574
S':'
asbag49
(g70
g51
NtRp575
(dp576
g54
(dp577
sg63
g563
sg56
(lp578
g49
(g50
g51
NtRp579
(dp580
g54
(dp581
g62
I3
ssg63
g575
sg56
(lp582
S''
asbasbasbag49
(g65
g51
NtRp583
(dp584
g54
(dp585
sg63
g459
sg56
(lp586
g49
(g70
g51
NtRp587
(dp588
g54
(dp589
g74
g75
ssg63
g583
sg56
(lp590
g424
asbag49
(g70
g51
NtRp591
(dp592
g54
(dp593
g81
g82
ssg63
g583
sg56
(lp594
S':'
asbag49
(g70
g51
NtRp595
(dp596
g54
(dp597
sg63
g583
sg56
(lp598
g49
(g50
g51
NtRp599
(dp600
g54
(dp601
g62
I3
ssg63
g595
sg56
(lp602
S''
asbasbasbasbasbasbasbag49
(g65
g51
NtRp603
(dp604
g54
(dp605
sg63
g260
sg56
(lp606
g49
(g70
g51
NtRp607
(dp608
g54
(dp609
g74
g75
ssg63
g603
sg56
(lp610
S'session_id_hellow'
p611
asbag49
(g70
g51
NtRp612
(dp613
g54
(dp614
g81
g82
ssg63
g603
sg56
(lp615
S':'
asbag49
(g70
g51
NtRp616
(dp617
g54
(dp618
sg63
g603
sg56
(lp619
g49
(g50
g51
NtRp620
(dp621
g54
(dp622
g62
I4
ssg63
g616
sg56
(lp623
S'127.0.0.1-f0c125e4-5d5e-4805-8c10-bdfc66367729'
p624
ag49
(g58
g51
NtRp625
(dp626
g54
(dp627
g62
I3
ssg63
Nsg56
(lp628
g49
(g65
g51
NtRp629
(dp630
g54
(dp631
sg63
g625
sg56
(lp632
g49
(g70
g51
NtRp633
(dp634
g54
(dp635
g74
g75
ssg63
g629
sg56
(lp636
g298
asbag49
(g70
g51
NtRp637
(dp638
g54
(dp639
g81
g82
ssg63
g629
sg56
(lp640
S':'
asbag49
(g70
g51
NtRp641
(dp642
g54
(dp643
sg63
g629
sg56
(lp644
g49
(g50
g51
NtRp645
(dp646
g54
(dp647
g62
I3
ssg63
g641
sg56
(lp648
S''
asbasbasbag49
(g65
g51
NtRp649
(dp650
g54
(dp651
sg63
g625
sg56
(lp652
g49
(g70
g51
NtRp653
(dp654
g54
(dp655
g74
g75
ssg63
g649
sg56
(lp656
g319
asbag49
(g70
g51
NtRp657
(dp658
g54
(dp659
g81
g82
ssg63
g649
sg56
(lp660
S':'
asbag49
(g70
g51
NtRp661
(dp662
g54
(dp663
sg63
g649
sg56
(lp664
g49
(g50
g51
NtRp665
(dp666
g54
(dp667
g62
I3
ssg63
g661
sg56
(lp668
S''
asbasbasbag49
(g65
g51
NtRp669
(dp670
g54
(dp671
sg63
g625
sg56
(lp672
g49
(g70
g51
NtRp673
(dp674
g54
(dp675
g74
g75
ssg63
g669
sg56
(lp676
g340
asbag49
(g70
g51
NtRp677
(dp678
g54
(dp679
g81
g82
ssg63
g669
sg56
(lp680
S':'
asbag49
(g70
g51
NtRp681
(dp682
g54
(dp683
sg63
g669
sg56
(lp684
g49
(g50
g51
NtRp685
(dp686
g54
(dp687
g62
I3
ssg63
g681
sg56
(lp688
S''
asbasbasbag49
(g65
g51
NtRp689
(dp690
g54
(dp691
sg63
g625
sg56
(lp692
g49
(g70
g51
NtRp693
(dp694
g54
(dp695
g74
g75
ssg63
g689
sg56
(lp696
g361
asbag49
(g70
g51
NtRp697
(dp698
g54
(dp699
g81
g82
ssg63
g689
sg56
(lp700
S':'
asbag49
(g70
g51
NtRp701
(dp702
g54
(dp703
sg63
g689
sg56
(lp704
g49
(g50
g51
NtRp705
(dp706
g54
(dp707
g62
I3
ssg63
g701
sg56
(lp708
S''
asbasbasbag49
(g65
g51
NtRp709
(dp710
g54
(dp711
sg63
g625
sg56
(lp712
g49
(g70
g51
NtRp713
(dp714
g54
(dp715
g74
g75
ssg63
g709
sg56
(lp716
g382
asbag49
(g70
g51
NtRp717
(dp718
g54
(dp719
g81
g82
ssg63
g709
sg56
(lp720
S':'
asbag49
(g70
g51
NtRp721
(dp722
g54
(dp723
sg63
g709
sg56
(lp724
g49
(g50
g51
NtRp725
(dp726
g54
(dp727
g62
I3
ssg63
g721
sg56
(lp728
S''
asbasbasbag49
(g65
g51
NtRp729
(dp730
g54
(dp731
sg63
g625
sg56
(lp732
g49
(g70
g51
NtRp733
(dp734
g54
(dp735
g74
g75
ssg63
g729
sg56
(lp736
g403
asbag49
(g70
g51
NtRp737
(dp738
g54
(dp739
g81
g82
ssg63
g729
sg56
(lp740
S':'
asbag49
(g70
g51
NtRp741
(dp742
g54
(dp743
sg63
g729
sg56
(lp744
g49
(g50
g51
NtRp745
(dp746
g54
(dp747
g62
I3
ssg63
g741
sg56
(lp748
S''
asbasbasbag49
(g65
g51
NtRp749
(dp750
g54
(dp751
sg63
g625
sg56
(lp752
g49
(g70
g51
NtRp753
(dp754
g54
(dp755
g74
g75
ssg63
g749
sg56
(lp756
g424
asbag49
(g70
g51
NtRp757
(dp758
g54
(dp759
g81
g82
ssg63
g749
sg56
(lp760
S':'
asbag49
(g70
g51
NtRp761
(dp762
g54
(dp763
sg63
g749
sg56
(lp764
g49
(g50
g51
NtRp765
(dp766
g54
(dp767
g62
I3
ssg63
g761
sg56
(lp768
S''
asbasbasbasbasbasbasbag49
(g65
g51
NtRp769
(dp770
g54
(dp771
sg63
g260
sg56
(lp772
g49
(g70
g51
NtRp773
(dp774
g54
(dp775
g74
g75
ssg63
g769
sg56
(lp776
S'session_id_slots'
p777
asbag49
(g70
g51
NtRp778
(dp779
g54
(dp780
g81
g82
ssg63
g769
sg56
(lp781
S':'
asbag49
(g70
g51
NtRp782
(dp783
g54
(dp784
sg63
g769
sg56
(lp785
g49
(g50
g51
NtRp786
(dp787
g54
(dp788
g62
I4
ssg63
g782
sg56
(lp789
S'127.0.0.1-c959d0b0-1e49-49e4-b6ce-60b17dcbfd08'
p790
ag49
(g58
g51
NtRp791
(dp792
g54
(dp793
g62
I3
ssg63
Nsg56
(lp794
g49
(g65
g51
NtRp795
(dp796
g54
(dp797
sg63
g791
sg56
(lp798
g49
(g70
g51
NtRp799
(dp800
g54
(dp801
g74
g75
ssg63
g795
sg56
(lp802
g298
asbag49
(g70
g51
NtRp803
(dp804
g54
(dp805
g81
g82
ssg63
g795
sg56
(lp806
S':'
asbag49
(g70
g51
NtRp807
(dp808
g54
(dp809
sg63
g795
sg56
(lp810
g49
(g50
g51
NtRp811
(dp812
g54
(dp813
g62
I3
ssg63
g807
sg56
(lp814
S''
asbasbasbag49
(g65
g51
NtRp815
(dp816
g54
(dp817
sg63
g791
sg56
(lp818
g49
(g70
g51
NtRp819
(dp820
g54
(dp821
g74
g75
ssg63
g815
sg56
(lp822
g319
asbag49
(g70
g51
NtRp823
(dp824
g54
(dp825
g81
g82
ssg63
g815
sg56
(lp826
S':'
asbag49
(g70
g51
NtRp827
(dp828
g54
(dp829
sg63
g815
sg56
(lp830
g49
(g50
g51
NtRp831
(dp832
g54
(dp833
g62
I3
ssg63
g827
sg56
(lp834
S''
asbasbasbag49
(g65
g51
NtRp835
(dp836
g54
(dp837
sg63
g791
sg56
(lp838
g49
(g70
g51
NtRp839
(dp840
g54
(dp841
g74
g75
ssg63
g835
sg56
(lp842
g340
asbag49
(g70
g51
NtRp843
(dp844
g54
(dp845
g81
g82
ssg63
g835
sg56
(lp846
S':'
asbag49
(g70
g51
NtRp847
(dp848
g54
(dp849
sg63
g835
sg56
(lp850
g49
(g50
g51
NtRp851
(dp852
g54
(dp853
g62
I3
ssg63
g847
sg56
(lp854
S''
asbasbasbag49
(g65
g51
NtRp855
(dp856
g54
(dp857
sg63
g791
sg56
(lp858
g49
(g70
g51
NtRp859
(dp860
g54
(dp861
g74
g75
ssg63
g855
sg56
(lp862
g361
asbag49
(g70
g51
NtRp863
(dp864
g54
(dp865
g81
g82
ssg63
g855
sg56
(lp866
S':'
asbag49
(g70
g51
NtRp867
(dp868
g54
(dp869
sg63
g855
sg56
(lp870
g49
(g50
g51
NtRp871
(dp872
g54
(dp873
g62
I3
ssg63
g867
sg56
(lp874
S''
asbasbasbag49
(g65
g51
NtRp875
(dp876
g54
(dp877
sg63
g791
sg56
(lp878
g49
(g70
g51
NtRp879
(dp880
g54
(dp881
g74
g75
ssg63
g875
sg56
(lp882
g382
asbag49
(g70
g51
NtRp883
(dp884
g54
(dp885
g81
g82
ssg63
g875
sg56
(lp886
S':'
asbag49
(g70
g51
NtRp887
(dp888
g54
(dp889
sg63
g875
sg56
(lp890
g49
(g50
g51
NtRp891
(dp892
g54
(dp893
g62
I3
ssg63
g887
sg56
(lp894
S''
asbasbasbag49
(g65
g51
NtRp895
(dp896
g54
(dp897
sg63
g791
sg56
(lp898
g49
(g70
g51
NtRp899
(dp900
g54
(dp901
g74
g75
ssg63
g895
sg56
(lp902
g403
asbag49
(g70
g51
NtRp903
(dp904
g54
(dp905
g81
g82
ssg63
g895
sg56
(lp906
S':'
asbag49
(g70
g51
NtRp907
(dp908
g54
(dp909
sg63
g895
sg56
(lp910
g49
(g50
g51
NtRp911
(dp912
g54
(dp913
g62
I3
ssg63
g907
sg56
(lp914
S''
asbasbasbag49
(g65
g51
NtRp915
(dp916
g54
(dp917
sg63
g791
sg56
(lp918
g49
(g70
g51
NtRp919
(dp920
g54
(dp921
g74
g75
ssg63
g915
sg56
(lp922
g424
asbag49
(g70
g51
NtRp923
(dp924
g54
(dp925
g81
g82
ssg63
g915
sg56
(lp926
S':'
asbag49
(g70
g51
NtRp927
(dp928
g54
(dp929
sg63
g915
sg56
(lp930
g49
(g50
g51
NtRp931
(dp932
g54
(dp933
g62
I3
ssg63
g927
sg56
(lp934
S''
asbasbasbasbasbasbasbag49
(g65
g51
NtRp935
(dp936
g54
(dp937
sg63
g260
sg56
(lp938
g49
(g70
g51
NtRp939
(dp940
g54
(dp941
g74
g75
ssg63
g935
sg56
(lp942
S'session_id_welcome'
p943
asbag49
(g70
g51
NtRp944
(dp945
g54
(dp946
g81
g82
ssg63
g935
sg56
(lp947
S':'
asbag49
(g70
g51
NtRp948
(dp949
g54
(dp950
sg63
g935
sg56
(lp951
g49
(g50
g51
NtRp952
(dp953
g54
(dp954
g62
I4
ssg63
g948
sg56
(lp955
S'127.0.0.1-245d6654-272e-49f5-968f-2cbd15b43359'
p956
ag49
(g58
g51
NtRp957
(dp958
g54
(dp959
g62
I3
ssg63
Nsg56
(lp960
g49
(g65
g51
NtRp961
(dp962
g54
(dp963
sg63
g957
sg56
(lp964
g49
(g70
g51
NtRp965
(dp966
g54
(dp967
g74
g75
ssg63
g961
sg56
(lp968
g298
asbag49
(g70
g51
NtRp969
(dp970
g54
(dp971
g81
g82
ssg63
g961
sg56
(lp972
S':'
asbag49
(g70
g51
NtRp973
(dp974
g54
(dp975
sg63
g961
sg56
(lp976
g49
(g50
g51
NtRp977
(dp978
g54
(dp979
g62
I3
ssg63
g973
sg56
(lp980
S''
asbasbasbag49
(g65
g51
NtRp981
(dp982
g54
(dp983
sg63
g957
sg56
(lp984
g49
(g70
g51
NtRp985
(dp986
g54
(dp987
g74
g75
ssg63
g981
sg56
(lp988
g319
asbag49
(g70
g51
NtRp989
(dp990
g54
(dp991
g81
g82
ssg63
g981
sg56
(lp992
S':'
asbag49
(g70
g51
NtRp993
(dp994
g54
(dp995
sg63
g981
sg56
(lp996
g49
(g50
g51
NtRp997
(dp998
g54
(dp999
g62
I3
ssg63
g993
sg56
(lp1000
S''
asbasbasbag49
(g65
g51
NtRp1001
(dp1002
g54
(dp1003
sg63
g957
sg56
(lp1004
g49
(g70
g51
NtRp1005
(dp1006
g54
(dp1007
g74
g75
ssg63
g1001
sg56
(lp1008
g340
asbag49
(g70
g51
NtRp1009
(dp1010
g54
(dp1011
g81
g82
ssg63
g1001
sg56
(lp1012
S':'
asbag49
(g70
g51
NtRp1013
(dp1014
g54
(dp1015
sg63
g1001
sg56
(lp1016
g49
(g50
g51
NtRp1017
(dp1018
g54
(dp1019
g62
I3
ssg63
g1013
sg56
(lp1020
S''
asbasbasbag49
(g65
g51
NtRp1021
(dp1022
g54
(dp1023
sg63
g957
sg56
(lp1024
g49
(g70
g51
NtRp1025
(dp1026
g54
(dp1027
g74
g75
ssg63
g1021
sg56
(lp1028
g361
asbag49
(g70
g51
NtRp1029
(dp1030
g54
(dp1031
g81
g82
ssg63
g1021
sg56
(lp1032
S':'
asbag49
(g70
g51
NtRp1033
(dp1034
g54
(dp1035
sg63
g1021
sg56
(lp1036
g49
(g50
g51
NtRp1037
(dp1038
g54
(dp1039
g62
I3
ssg63
g1033
sg56
(lp1040
S''
asbasbasbag49
(g65
g51
NtRp1041
(dp1042
g54
(dp1043
sg63
g957
sg56
(lp1044
g49
(g70
g51
NtRp1045
(dp1046
g54
(dp1047
g74
g75
ssg63
g1041
sg56
(lp1048
g382
asbag49
(g70
g51
NtRp1049
(dp1050
g54
(dp1051
g81
g82
ssg63
g1041
sg56
(lp1052
S':'
asbag49
(g70
g51
NtRp1053
(dp1054
g54
(dp1055
sg63
g1041
sg56
(lp1056
g49
(g50
g51
NtRp1057
(dp1058
g54
(dp1059
g62
I3
ssg63
g1053
sg56
(lp1060
S''
asbasbasbag49
(g65
g51
NtRp1061
(dp1062
g54
(dp1063
sg63
g957
sg56
(lp1064
g49
(g70
g51
NtRp1065
(dp1066
g54
(dp1067
g74
g75
ssg63
g1061
sg56
(lp1068
g403
asbag49
(g70
g51
NtRp1069
(dp1070
g54
(dp1071
g81
g82
ssg63
g1061
sg56
(lp1072
S':'
asbag49
(g70
g51
NtRp1073
(dp1074
g54
(dp1075
sg63
g1061
sg56
(lp1076
g49
(g50
g51
NtRp1077
(dp1078
g54
(dp1079
g62
I3
ssg63
g1073
sg56
(lp1080
S''
asbasbasbag49
(g65
g51
NtRp1081
(dp1082
g54
(dp1083
sg63
g957
sg56
(lp1084
g49
(g70
g51
NtRp1085
(dp1086
g54
(dp1087
g74
g75
ssg63
g1081
sg56
(lp1088
g424
asbag49
(g70
g51
NtRp1089
(dp1090
g54
(dp1091
g81
g82
ssg63
g1081
sg56
(lp1092
S':'
asbag49
(g70
g51
NtRp1093
(dp1094
g54
(dp1095
sg63
g1081
sg56
(lp1096
g49
(g50
g51
NtRp1097
(dp1098
g54
(dp1099
g62
I3
ssg63
g1093
sg56
(lp1100
S''
asbasbasbasbasbasbasbasbasbasbasbag49
(g65
g51
NtRp1101
(dp1102
g54
(dp1103
sg63
g59
sg56
(lp1104
g49
(g70
g51
NtRp1105
(dp1106
g54
(dp1107
g74
g75
ssg63
g1101
sg56
(lp1108
S'env'
p1109
asbag49
(g70
g51
NtRp1110
(dp1111
g54
(dp1112
g81
g82
ssg63
g1101
sg56
(lp1113
S':'
asbag49
(g70
g51
NtRp1114
(dp1115
g54
(dp1116
sg63
g1101
sg56
(lp1117
g49
(g50
g51
NtRp1118
(dp1119
g54
(dp1120
g62
I5
ssg63
g1114
sg56
(lp1121
g49
(g58
g51
NtRp1122
(dp1123
g54
(dp1124
g62
I4
ssg63
Nsg56
(lp1125
g49
(g65
g51
NtRp1126
(dp1127
g54
(dp1128
sg63
g1122
sg56
(lp1129
g49
(g70
g51
NtRp1130
(dp1131
g54
(dp1132
g74
g75
ssg63
g1126
sg56
(lp1133
S'app_folders'
p1134
asbag49
(g70
g51
NtRp1135
(dp1136
g54
(dp1137
g81
g82
ssg63
g1126
sg56
(lp1138
S':'
asbag49
(g70
g51
NtRp1139
(dp1140
g54
(dp1141
sg63
g1126
sg56
(lp1142
g49
(g50
g51
NtRp1143
(dp1144
g54
(dp1145
g62
I4
ssg63
g1139
sg56
(lp1146
S"set(['/Users/zamechek/Downloads/web2py/web2py.app/Contents/Resources/applications/examples/', '/Users/zamechek/Downloads/web2py/web2py.app/Contents/Resources/applications/hellow/', '/Users/zamechek/Downloads/web2py/web2py.app/Contents/Resources/applications/admin/', '/Users/zamechek/Downloads/web2py/web2py.app/Contents/Resources/applications/slots/', '/Users/zamechek/Downloads/web2py/web2py.app/Contents/Resources/applications/welcome/'])"
p1147
asbasbasbag49
(g65
g51
NtRp1148
(dp1149
g54
(dp1150
sg63
g1122
sg56
(lp1151
g49
(g70
g51
NtRp1152
(dp1153
g54
(dp1154
g74
g75
ssg63
g1148
sg56
(lp1155
S'applications_parent'
p1156
asbag49
(g70
g51
NtRp1157
(dp1158
g54
(dp1159
g81
g82
ssg63
g1148
sg56
(lp1160
S':'
asbag49
(g70
g51
NtRp1161
(dp1162
g54
(dp1163
sg63
g1148
sg56
(lp1164
g49
(g50
g51
NtRp1165
(dp1166
g54
(dp1167
g62
I4
ssg63
g1161
sg56
(lp1168
S'/Users/zamechek/Downloads/web2py/web2py.app/Contents/Resources'
p1169
asbasbasbag49
(g65
g51
NtRp1170
(dp1171
g54
(dp1172
sg63
g1122
sg56
(lp1173
g49
(g70
g51
NtRp1174
(dp1175
g54
(dp1176
g74
g75
ssg63
g1170
sg56
(lp1177
S'cmd_args'
p1178
asbag49
(g70
g51
NtRp1179
(dp1180
g54
(dp1181
g81
g82
ssg63
g1170
sg56
(lp1182
S':'
asbag49
(g70
g51
NtRp1183
(dp1184
g54
(dp1185
sg63
g1170
sg56
(lp1186
g49
(g50
g51
NtRp1187
(dp1188
g54
(dp1189
g62
I4
ssg63
g1183
sg56
(lp1190
g49
(g58
g51
NtRp1191
(dp1192
g54
(dp1193
g62
I3
ssg63
Nsg56
(lp1194
sbasbasbasbag49
(g65
g51
NtRp1195
(dp1196
g54
(dp1197
sg63
g1122
sg56
(lp1198
g49
(g70
g51
NtRp1199
(dp1200
g54
(dp1201
g74
g75
ssg63
g1195
sg56
(lp1202
S'cmd_options'
p1203
asbag49
(g70
g51
NtRp1204
(dp1205
g54
(dp1206
g81
g82
ssg63
g1195
sg56
(lp1207
S':'
asbag49
(g70
g51
NtRp1208
(dp1209
g54
(dp1210
sg63
g1195
sg56
(lp1211
g49
(g50
g51
NtRp1212
(dp1213
g54
(dp1214
g62
I4
ssg63
g1208
sg56
(lp1215
S"<Values at 0x32c8f58: {'verbose': False, 'ip': '127.0.0.1', 'with_scheduler': False, 'ips': ['130.91.151.157'], 'shutdown_timeout': 5, 'taskbar': False, 'port': 8000, 'maxthreads': None, 'softcron': False, 'server_name': 'hntvlan531.0924.wlan.wireless-pennnet.upenn.edu', 'bpython': False, 'nogui': False, 'pid_filename': 'httpserver.pid', 'extcron': False, 'runcron': False, 'run_system_tests': False, 'test': None, 'folder': '/Users/zamechek/Downloads/web2py/web2py.app/Contents/Resources', 'config': '', 'import_models': False, 'winservice': '', 'shell': None, 'run': '', 'log_filename': 'httpserver.log', 'debuglevel': 30, 'args': [''], 'socket_timeout': 5, 'ssl_ca_certificate': None, 'scheduler': None, 'profiler_filename': None, 'ssl_private_key': '', 'scheduler_groups': None, 'password': '<ask>', 'request_queue_size': 5, 'ssl_certificate': '', 'cronjob': False, 'numthreads': None, 'quiet': False, 'interfaces': None, 'minthreads': None, 'timeout': 10, 'plain': False, 'nobanner': False}>"
p1216
asbasbasbag49
(g65
g51
NtRp1217
(dp1218
g54
(dp1219
sg63
g1122
sg56
(lp1220
g49
(g70
g51
NtRp1221
(dp1222
g54
(dp1223
g74
g75
ssg63
g1217
sg56
(lp1224
S'db_sessions'
p1225
asbag49
(g70
g51
NtRp1226
(dp1227
g54
(dp1228
g81
g82
ssg63
g1217
sg56
(lp1229
S':'
asbag49
(g70
g51
NtRp1230
(dp1231
g54
(dp1232
sg63
g1217
sg56
(lp1233
g49
(g50
g51
NtRp1234
(dp1235
g54
(dp1236
g62
I4
ssg63
g1230
sg56
(lp1237
S'set([])'
p1238
asbasbasbag49
(g65
g51
NtRp1239
(dp1240
g54
(dp1241
sg63
g1122
sg56
(lp1242
g49
(g70
g51
NtRp1243
(dp1244
g54
(dp1245
g74
g75
ssg63
g1239
sg56
(lp1246
S'debugging'
p1247
asbag49
(g70
g51
NtRp1248
(dp1249
g54
(dp1250
g81
g82
ssg63
g1239
sg56
(lp1251
S':'
asbag49
(g70
g51
NtRp1252
(dp1253
g54
(dp1254
sg63
g1239
sg56
(lp1255
g49
(g50
g51
NtRp1256
(dp1257
g54
(dp1258
g62
I4
ssg63
g1252
sg56
(lp1259
S'True'
p1260
asbasbasbag49
(g65
g51
NtRp1261
(dp1262
g54
(dp1263
sg63
g1122
sg56
(lp1264
g49
(g70
g51
NtRp1265
(dp1266
g54
(dp1267
g74
g75
ssg63
g1261
sg56
(lp1268
S'gluon_parent'
p1269
asbag49
(g70
g51
NtRp1270
(dp1271
g54
(dp1272
g81
g82
ssg63
g1261
sg56
(lp1273
S':'
asbag49
(g70
g51
NtRp1274
(dp1275
g54
(dp1276
sg63
g1261
sg56
(lp1277
g49
(g50
g51
NtRp1278
(dp1279
g54
(dp1280
g62
I4
ssg63
g1274
sg56
(lp1281
S'/Users/zamechek/Downloads/web2py/web2py.app/Contents/Resources'
p1282
asbasbasbag49
(g65
g51
NtRp1283
(dp1284
g54
(dp1285
sg63
g1122
sg56
(lp1286
g49
(g70
g51
NtRp1287
(dp1288
g54
(dp1289
g74
g75
ssg63
g1283
sg56
(lp1290
S'http_accept'
p1291
asbag49
(g70
g51
NtRp1292
(dp1293
g54
(dp1294
g81
g82
ssg63
g1283
sg56
(lp1295
S':'
asbag49
(g70
g51
NtRp1296
(dp1297
g54
(dp1298
sg63
g1283
sg56
(lp1299
g49
(g50
g51
NtRp1300
(dp1301
g54
(dp1302
g62
I4
ssg63
g1296
sg56
(lp1303
S'text/html,application/xhtml+xml,application/xml;q=0.9,*/*;q=0.8'
p1304
asbasbasbag49
(g65
g51
NtRp1305
(dp1306
g54
(dp1307
sg63
g1122
sg56
(lp1308
g49
(g70
g51
NtRp1309
(dp1310
g54
(dp1311
g74
g75
ssg63
g1305
sg56
(lp1312
S'http_accept_charset'
p1313
asbag49
(g70
g51
NtRp1314
(dp1315
g54
(dp1316
g81
g82
ssg63
g1305
sg56
(lp1317
S':'
asbag49
(g70
g51
NtRp1318
(dp1319
g54
(dp1320
sg63
g1305
sg56
(lp1321
g49
(g50
g51
NtRp1322
(dp1323
g54
(dp1324
g62
I4
ssg63
g1318
sg56
(lp1325
S'ISO-8859-1,utf-8;q=0.7,*;q=0.3'
p1326
asbasbasbag49
(g65
g51
NtRp1327
(dp1328
g54
(dp1329
sg63
g1122
sg56
(lp1330
g49
(g70
g51
NtRp1331
(dp1332
g54
(dp1333
g74
g75
ssg63
g1327
sg56
(lp1334
S'http_accept_encoding'
p1335
asbag49
(g70
g51
NtRp1336
(dp1337
g54
(dp1338
g81
g82
ssg63
g1327
sg56
(lp1339
S':'
asbag49
(g70
g51
NtRp1340
(dp1341
g54
(dp1342
sg63
g1327
sg56
(lp1343
g49
(g50
g51
NtRp1344
(dp1345
g54
(dp1346
g62
I4
ssg63
g1340
sg56
(lp1347
S'gzip,deflate,sdch'
p1348
asbasbasbag49
(g65
g51
NtRp1349
(dp1350
g54
(dp1351
sg63
g1122
sg56
(lp1352
g49
(g70
g51
NtRp1353
(dp1354
g54
(dp1355
g74
g75
ssg63
g1349
sg56
(lp1356
S'http_accept_language'
p1357
asbag49
(g70
g51
NtRp1358
(dp1359
g54
(dp1360
g81
g82
ssg63
g1349
sg56
(lp1361
S':'
asbag49
(g70
g51
NtRp1362
(dp1363
g54
(dp1364
sg63
g1349
sg56
(lp1365
g49
(g50
g51
NtRp1366
(dp1367
g54
(dp1368
g62
I4
ssg63
g1362
sg56
(lp1369
S'en-US,en;q=0.8'
p1370
asbasbasbag49
(g65
g51
NtRp1371
(dp1372
g54
(dp1373
sg63
g1122
sg56
(lp1374
g49
(g70
g51
NtRp1375
(dp1376
g54
(dp1377
g74
g75
ssg63
g1371
sg56
(lp1378
S'http_cache_control'
p1379
asbag49
(g70
g51
NtRp1380
(dp1381
g54
(dp1382
g81
g82
ssg63
g1371
sg56
(lp1383
S':'
asbag49
(g70
g51
NtRp1384
(dp1385
g54
(dp1386
sg63
g1371
sg56
(lp1387
g49
(g50
g51
NtRp1388
(dp1389
g54
(dp1390
g62
I4
ssg63
g1384
sg56
(lp1391
S'max-age=0'
p1392
asbasbasbag49
(g65
g51
NtRp1393
(dp1394
g54
(dp1395
sg63
g1122
sg56
(lp1396
g49
(g70
g51
NtRp1397
(dp1398
g54
(dp1399
g74
g75
ssg63
g1393
sg56
(lp1400
S'http_connection'
p1401
asbag49
(g70
g51
NtRp1402
(dp1403
g54
(dp1404
g81
g82
ssg63
g1393
sg56
(lp1405
S':'
asbag49
(g70
g51
NtRp1406
(dp1407
g54
(dp1408
sg63
g1393
sg56
(lp1409
g49
(g50
g51
NtRp1410
(dp1411
g54
(dp1412
g62
I4
ssg63
g1406
sg56
(lp1413
S'keep-alive'
p1414
asbasbasbag49
(g65
g51
NtRp1415
(dp1416
g54
(dp1417
sg63
g1122
sg56
(lp1418
g49
(g70
g51
NtRp1419
(dp1420
g54
(dp1421
g74
g75
ssg63
g1415
sg56
(lp1422
S'http_cookie'
p1423
asbag49
(g70
g51
NtRp1424
(dp1425
g54
(dp1426
g81
g82
ssg63
g1415
sg56
(lp1427
S':'
asbag49
(g70
g51
NtRp1428
(dp1429
g54
(dp1430
sg63
g1415
sg56
(lp1431
g49
(g50
g51
NtRp1432
(dp1433
g54
(dp1434
g62
I4
ssg63
g1428
sg56
(lp1435
S'session_id_welcome=127.0.0.1-245d6654-272e-49f5-968f-2cbd15b43359; session_id_slots=127.0.0.1-c959d0b0-1e49-49e4-b6ce-60b17dcbfd08; session_data_examples="6590e93a92ae056071f3d5d23c5da718:8mcaYr3jD5OS9Hm5obiuGpOS1hqNCswQLIoFlRGZYdaR8FVZ84s0w9vMAEY5L6DK8gvTZcQowujTbbDj-ns3802lRCPwkkcburTr1lmHorC9hQtD5W0yZ89O_mdlKuHPlwEItXQ5_WAFut_RTkzpuyS0nQWmuEGxVuLk0DXc0ndh8WySsXoErgPnINq0aXqKzueVqcmNBWwB7tluAV8oSQyVVnjPajiXfmT2moAb3dPnaGC3yePavU4XAXO8FVarzcdAnZ4bnTo9uMJJvT2hL9oQVbtD8YY8yMHurMAdtIpf8wcGfXNr6SjFTzpMxYtAg1tv7XdXpUPETM1Ox80jE-qsgQd_Xr1FA049-xsoxpdA4EzMUoouiTJ995NWCOJNjo6VICpuSvfOJBlnOLd8aLxueLUtuyScbkLd2jOCQIsF2aV6hhIZWDXpJwlCKPkIckeaXaaHeE4EqTZR6N0JnA=="; session_id_hellow=127.0.0.1-f0c125e4-5d5e-4805-8c10-bdfc66367729; session_id_admin=127.0.0.1-66a1de5b-ba15-4b30-ba06-132c9e7969c1'
p1436
asbasbasbag49
(g65
g51
NtRp1437
(dp1438
g54
(dp1439
sg63
g1122
sg56
(lp1440
g49
(g70
g51
NtRp1441
(dp1442
g54
(dp1443
g74
g75
ssg63
g1437
sg56
(lp1444
S'http_host'
p1445
asbag49
(g70
g51
NtRp1446
(dp1447
g54
(dp1448
g81
g82
ssg63
g1437
sg56
(lp1449
S':'
asbag49
(g70
g51
NtRp1450
(dp1451
g54
(dp1452
sg63
g1437
sg56
(lp1453
g49
(g50
g51
NtRp1454
(dp1455
g54
(dp1456
g62
I4
ssg63
g1450
sg56
(lp1457
S'127.0.0.1:8887'
p1458
asbasbasbag49
(g65
g51
NtRp1459
(dp1460
g54
(dp1461
sg63
g1122
sg56
(lp1462
g49
(g70
g51
NtRp1463
(dp1464
g54
(dp1465
g74
g75
ssg63
g1459
sg56
(lp1466
S'http_user_agent'
p1467
asbag49
(g70
g51
NtRp1468
(dp1469
g54
(dp1470
g81
g82
ssg63
g1459
sg56
(lp1471
S':'
asbag49
(g70
g51
NtRp1472
(dp1473
g54
(dp1474
sg63
g1459
sg56
(lp1475
g49
(g50
g51
NtRp1476
(dp1477
g54
(dp1478
g62
I4
ssg63
g1472
sg56
(lp1479
S'Mozilla/5.0 (Macintosh; Intel Mac OS X 10_8_3) AppleWebKit/537.22 (KHTML, like Gecko) Chrome/25.0.1364.172 Safari/537.22'
p1480
asbasbasbag49
(g65
g51
NtRp1481
(dp1482
g54
(dp1483
sg63
g1122
sg56
(lp1484
g49
(g70
g51
NtRp1485
(dp1486
g54
(dp1487
g74
g75
ssg63
g1481
sg56
(lp1488
S'is_jython'
p1489
asbag49
(g70
g51
NtRp1490
(dp1491
g54
(dp1492
g81
g82
ssg63
g1481
sg56
(lp1493
S':'
asbag49
(g70
g51
NtRp1494
(dp1495
g54
(dp1496
sg63
g1481
sg56
(lp1497
g49
(g50
g51
NtRp1498
(dp1499
g54
(dp1500
g62
I4
ssg63
g1494
sg56
(lp1501
g92
asbasbasbag49
(g65
g51
NtRp1502
(dp1503
g54
(dp1504
sg63
g1122
sg56
(lp1505
g49
(g70
g51
NtRp1506
(dp1507
g54
(dp1508
g74
g75
ssg63
g1502
sg56
(lp1509
S'is_pypy'
p1510
asbag49
(g70
g51
NtRp1511
(dp1512
g54
(dp1513
g81
g82
ssg63
g1502
sg56
(lp1514
S':'
asbag49
(g70
g51
NtRp1515
(dp1516
g54
(dp1517
sg63
g1502
sg56
(lp1518
g49
(g50
g51
NtRp1519
(dp1520
g54
(dp1521
g62
I4
ssg63
g1515
sg56
(lp1522
g92
asbasbasbag49
(g65
g51
NtRp1523
(dp1524
g54
(dp1525
sg63
g1122
sg56
(lp1526
g49
(g70
g51
NtRp1527
(dp1528
g54
(dp1529
g74
g75
ssg63
g1523
sg56
(lp1530
S'local_hosts'
p1531
asbag49
(g70
g51
NtRp1532
(dp1533
g54
(dp1534
g81
g82
ssg63
g1523
sg56
(lp1535
S':'
asbag49
(g70
g51
NtRp1536
(dp1537
g54
(dp1538
sg63
g1523
sg56
(lp1539
g49
(g50
g51
NtRp1540
(dp1541
g54
(dp1542
g62
I4
ssg63
g1536
sg56
(lp1543
g49
(g58
g51
NtRp1544
(dp1545
g54
(dp1546
g62
I3
ssg63
Nsg56
(lp1547
g49
(g65
g51
NtRp1548
(dp1549
g54
(dp1550
sg63
g1544
sg56
(lp1551
g49
(g70
g51
NtRp1552
(dp1553
g54
(dp1554
sg63
g1548
sg56
(lp1555
g49
(g50
g51
NtRp1556
(dp1557
g54
(dp1558
g62
I3
ssg63
g1552
sg56
(lp1559
S'130.91.151.157'
p1560
asbasbasbag49
(g65
g51
NtRp1561
(dp1562
g54
(dp1563
sg63
g1544
sg56
(lp1564
g49
(g70
g51
NtRp1565
(dp1566
g54
(dp1567
sg63
g1561
sg56
(lp1568
g49
(g50
g51
NtRp1569
(dp1570
g54
(dp1571
g62
I3
ssg63
g1565
sg56
(lp1572
S'::1'
p1573
asbasbasbag49
(g65
g51
NtRp1574
(dp1575
g54
(dp1576
sg63
g1544
sg56
(lp1577
g49
(g70
g51
NtRp1578
(dp1579
g54
(dp1580
sg63
g1574
sg56
(lp1581
g49
(g50
g51
NtRp1582
(dp1583
g54
(dp1584
g62
I3
ssg63
g1578
sg56
(lp1585
S'::ffff:127.0.0.1'
p1586
asbasbasbag49
(g65
g51
NtRp1587
(dp1588
g54
(dp1589
sg63
g1544
sg56
(lp1590
g49
(g70
g51
NtRp1591
(dp1592
g54
(dp1593
sg63
g1587
sg56
(lp1594
g49
(g50
g51
NtRp1595
(dp1596
g54
(dp1597
g62
I3
ssg63
g1591
sg56
(lp1598
S'127.0.0.1'
p1599
asbasbasbag49
(g65
g51
NtRp1600
(dp1601
g54
(dp1602
sg63
g1544
sg56
(lp1603
g49
(g70
g51
NtRp1604
(dp1605
g54
(dp1606
sg63
g1600
sg56
(lp1607
g49
(g50
g51
NtRp1608
(dp1609
g54
(dp1610
g62
I3
ssg63
g1604
sg56
(lp1611
S'hntvlan531.0924.wlan.wireless-pennnet.upenn.edu'
p1612
asbasbasbasbasbasbasbag49
(g65
g51
NtRp1613
(dp1614
g54
(dp1615
sg63
g1122
sg56
(lp1616
g49
(g70
g51
NtRp1617
(dp1618
g54
(dp1619
g74
g75
ssg63
g1613
sg56
(lp1620
S'path_info'
p1621
asbag49
(g70
g51
NtRp1622
(dp1623
g54
(dp1624
g81
g82
ssg63
g1613
sg56
(lp1625
S':'
asbag49
(g70
g51
NtRp1626
(dp1627
g54
(dp1628
sg63
g1613
sg56
(lp1629
g49
(g50
g51
NtRp1630
(dp1631
g54
(dp1632
g62
I4
ssg63
g1626
sg56
(lp1633
S'/hellow/slot/show/9'
p1634
asbasbasbag49
(g65
g51
NtRp1635
(dp1636
g54
(dp1637
sg63
g1122
sg56
(lp1638
g49
(g70
g51
NtRp1639
(dp1640
g54
(dp1641
g74
g75
ssg63
g1635
sg56
(lp1642
S'query_string'
p1643
asbag49
(g70
g51
NtRp1644
(dp1645
g54
(dp1646
g81
g82
ssg63
g1635
sg56
(lp1647
S':'
asbag49
(g70
g51
NtRp1648
(dp1649
g54
(dp1650
sg63
g1635
sg56
(lp1651
g49
(g50
g51
NtRp1652
(dp1653
g54
(dp1654
g62
I4
ssg63
g1648
sg56
(lp1655
S''
asbasbasbag49
(g65
g51
NtRp1656
(dp1657
g54
(dp1658
sg63
g1122
sg56
(lp1659
g49
(g70
g51
NtRp1660
(dp1661
g54
(dp1662
g74
g75
ssg63
g1656
sg56
(lp1663
S'remote_addr'
p1664
asbag49
(g70
g51
NtRp1665
(dp1666
g54
(dp1667
g81
g82
ssg63
g1656
sg56
(lp1668
S':'
asbag49
(g70
g51
NtRp1669
(dp1670
g54
(dp1671
sg63
g1656
sg56
(lp1672
g49
(g50
g51
NtRp1673
(dp1674
g54
(dp1675
g62
I4
ssg63
g1669
sg56
(lp1676
g216
asbasbasbag49
(g65
g51
NtRp1677
(dp1678
g54
(dp1679
sg63
g1122
sg56
(lp1680
g49
(g70
g51
NtRp1681
(dp1682
g54
(dp1683
g74
g75
ssg63
g1677
sg56
(lp1684
S'remote_port'
p1685
asbag49
(g70
g51
NtRp1686
(dp1687
g54
(dp1688
g81
g82
ssg63
g1677
sg56
(lp1689
S':'
asbag49
(g70
g51
NtRp1690
(dp1691
g54
(dp1692
sg63
g1677
sg56
(lp1693
g49
(g50
g51
NtRp1694
(dp1695
g54
(dp1696
g62
I4
ssg63
g1690
sg56
(lp1697
S'64642'
p1698
asbasbasbag49
(g65
g51
NtRp1699
(dp1700
g54
(dp1701
sg63
g1122
sg56
(lp1702
g49
(g70
g51
NtRp1703
(dp1704
g54
(dp1705
g74
g75
ssg63
g1699
sg56
(lp1706
S'request_method'
p1707
asbag49
(g70
g51
NtRp1708
(dp1709
g54
(dp1710
g81
g82
ssg63
g1699
sg56
(lp1711
S':'
asbag49
(g70
g51
NtRp1712
(dp1713
g54
(dp1714
sg63
g1699
sg56
(lp1715
g49
(g50
g51
NtRp1716
(dp1717
g54
(dp1718
g62
I4
ssg63
g1712
sg56
(lp1719
S'GET'
p1720
asbasbasbag49
(g65
g51
NtRp1721
(dp1722
g54
(dp1723
sg63
g1122
sg56
(lp1724
g49
(g70
g51
NtRp1725
(dp1726
g54
(dp1727
g74
g75
ssg63
g1721
sg56
(lp1728
S'request_uri'
p1729
asbag49
(g70
g51
NtRp1730
(dp1731
g54
(dp1732
g81
g82
ssg63
g1721
sg56
(lp1733
S':'
asbag49
(g70
g51
NtRp1734
(dp1735
g54
(dp1736
sg63
g1721
sg56
(lp1737
g49
(g50
g51
NtRp1738
(dp1739
g54
(dp1740
g62
I4
ssg63
g1734
sg56
(lp1741
g1634
asbasbasbag49
(g65
g51
NtRp1742
(dp1743
g54
(dp1744
sg63
g1122
sg56
(lp1745
g49
(g70
g51
NtRp1746
(dp1747
g54
(dp1748
g74
g75
ssg63
g1742
sg56
(lp1749
S'script_name'
p1750
asbag49
(g70
g51
NtRp1751
(dp1752
g54
(dp1753
g81
g82
ssg63
g1742
sg56
(lp1754
S':'
asbag49
(g70
g51
NtRp1755
(dp1756
g54
(dp1757
sg63
g1742
sg56
(lp1758
g49
(g50
g51
NtRp1759
(dp1760
g54
(dp1761
g62
I4
ssg63
g1755
sg56
(lp1762
S''
asbasbasbag49
(g65
g51
NtRp1763
(dp1764
g54
(dp1765
sg63
g1122
sg56
(lp1766
g49
(g70
g51
NtRp1767
(dp1768
g54
(dp1769
g74
g75
ssg63
g1763
sg56
(lp1770
S'server_name'
p1771
asbag49
(g70
g51
NtRp1772
(dp1773
g54
(dp1774
g81
g82
ssg63
g1763
sg56
(lp1775
S':'
asbag49
(g70
g51
NtRp1776
(dp1777
g54
(dp1778
sg63
g1763
sg56
(lp1779
g49
(g50
g51
NtRp1780
(dp1781
g54
(dp1782
g62
I4
ssg63
g1776
sg56
(lp1783
S'hntvlan531.0924.wlan.wireless-pennnet.upenn.edu'
p1784
asbasbasbag49
(g65
g51
NtRp1785
(dp1786
g54
(dp1787
sg63
g1122
sg56
(lp1788
g49
(g70
g51
NtRp1789
(dp1790
g54
(dp1791
g74
g75
ssg63
g1785
sg56
(lp1792
S'server_port'
p1793
asbag49
(g70
g51
NtRp1794
(dp1795
g54
(dp1796
g81
g82
ssg63
g1785
sg56
(lp1797
S':'
asbag49
(g70
g51
NtRp1798
(dp1799
g54
(dp1800
sg63
g1785
sg56
(lp1801
g49
(g50
g51
NtRp1802
(dp1803
g54
(dp1804
g62
I4
ssg63
g1798
sg56
(lp1805
S'8887'
p1806
asbasbasbag49
(g65
g51
NtRp1807
(dp1808
g54
(dp1809
sg63
g1122
sg56
(lp1810
g49
(g70
g51
NtRp1811
(dp1812
g54
(dp1813
g74
g75
ssg63
g1807
sg56
(lp1814
S'server_protocol'
p1815
asbag49
(g70
g51
NtRp1816
(dp1817
g54
(dp1818
g81
g82
ssg63
g1807
sg56
(lp1819
S':'
asbag49
(g70
g51
NtRp1820
(dp1821
g54
(dp1822
sg63
g1807
sg56
(lp1823
g49
(g50
g51
NtRp1824
(dp1825
g54
(dp1826
g62
I4
ssg63
g1820
sg56
(lp1827
S'HTTP/1.1'
p1828
asbasbasbag49
(g65
g51
NtRp1829
(dp1830
g54
(dp1831
sg63
g1122
sg56
(lp1832
g49
(g70
g51
NtRp1833
(dp1834
g54
(dp1835
g74
g75
ssg63
g1829
sg56
(lp1836
S'server_software'
p1837
asbag49
(g70
g51
NtRp1838
(dp1839
g54
(dp1840
g81
g82
ssg63
g1829
sg56
(lp1841
S':'
asbag49
(g70
g51
NtRp1842
(dp1843
g54
(dp1844
sg63
g1829
sg56
(lp1845
g49
(g50
g51
NtRp1846
(dp1847
g54
(dp1848
g62
I4
ssg63
g1842
sg56
(lp1849
S'Rocket 1.2.6'
p1850
asbasbasbag49
(g65
g51
NtRp1851
(dp1852
g54
(dp1853
sg63
g1122
sg56
(lp1854
g49
(g70
g51
NtRp1855
(dp1856
g54
(dp1857
g74
g75
ssg63
g1851
sg56
(lp1858
S'web2py_path'
p1859
asbag49
(g70
g51
NtRp1860
(dp1861
g54
(dp1862
g81
g82
ssg63
g1851
sg56
(lp1863
S':'
asbag49
(g70
g51
NtRp1864
(dp1865
g54
(dp1866
sg63
g1851
sg56
(lp1867
g49
(g50
g51
NtRp1868
(dp1869
g54
(dp1870
g62
I4
ssg63
g1864
sg56
(lp1871
g1169
asbasbasbag49
(g65
g51
NtRp1872
(dp1873
g54
(dp1874
sg63
g1122
sg56
(lp1875
g49
(g70
g51
NtRp1876
(dp1877
g54
(dp1878
g74
g75
ssg63
g1872
sg56
(lp1879
S'web2py_version'
p1880
asbag49
(g70
g51
NtRp1881
(dp1882
g54
(dp1883
g81
g82
ssg63
g1872
sg56
(lp1884
S':'
asbag49
(g70
g51
NtRp1885
(dp1886
g54
(dp1887
sg63
g1872
sg56
(lp1888
g49
(g50
g51
NtRp1889
(dp1890
g54
(dp1891
g62
I4
ssg63
g1885
sg56
(lp1892
g49
(g58
g51
NtRp1893
(dp1894
g54
(dp1895
g62
I3
ssg63
Nsg56
(lp1896
g49
(g65
g51
NtRp1897
(dp1898
g54
(dp1899
sg63
g1893
sg56
(lp1900
g49
(g70
g51
NtRp1901
(dp1902
g54
(dp1903
sg63
g1897
sg56
(lp1904
g49
(g50
g51
NtRp1905
(dp1906
g54
(dp1907
g62
I3
ssg63
g1901
sg56
(lp1908
S'2'
asbasbasbag49
(g65
g51
NtRp1909
(dp1910
g54
(dp1911
sg63
g1893
sg56
(lp1912
g49
(g70
g51
NtRp1913
(dp1914
g54
(dp1915
sg63
g1909
sg56
(lp1916
g49
(g50
g51
NtRp1917
(dp1918
g54
(dp1919
g62
I3
ssg63
g1913
sg56
(lp1920
S'4'
asbasbasbag49
(g65
g51
NtRp1921
(dp1922
g54
(dp1923
sg63
g1893
sg56
(lp1924
g49
(g70
g51
NtRp1925
(dp1926
g54
(dp1927
sg63
g1921
sg56
(lp1928
g49
(g50
g51
NtRp1929
(dp1930
g54
(dp1931
g62
I3
ssg63
g1925
sg56
(lp1932
S'5'
asbasbasbag49
(g65
g51
NtRp1933
(dp1934
g54
(dp1935
sg63
g1893
sg56
(lp1936
g49
(g70
g51
NtRp1937
(dp1938
g54
(dp1939
sg63
g1933
sg56
(lp1940
g49
(g50
g51
NtRp1941
(dp1942
g54
(dp1943
g62
I3
ssg63
g1937
sg56
(lp1944
S'stable'
p1945
asbasbasbag49
(g65
g51
NtRp1946
(dp1947
g54
(dp1948
sg63
g1893
sg56
(lp1949
g49
(g70
g51
NtRp1950
(dp1951
g54
(dp1952
sg63
g1946
sg56
(lp1953
g49
(g50
g51
NtRp1954
(dp1955
g54
(dp1956
g62
I3
ssg63
g1950
sg56
(lp1957
S'datetime.datetime(2013, 3, 18, 22, 46, 22)'
p1958
asbasbasbasbasbasbasbag49
(g65
g51
NtRp1959
(dp1960
g54
(dp1961
sg63
g1122
sg56
(lp1962
g49
(g70
g51
NtRp1963
(dp1964
g54
(dp1965
g74
g75
ssg63
g1959
sg56
(lp1966
S'wsgi_errors'
p1967
asbag49
(g70
g51
NtRp1968
(dp1969
g54
(dp1970
g81
g82
ssg63
g1959
sg56
(lp1971
S':'
asbag49
(g70
g51
NtRp1972
(dp1973
g54
(dp1974
sg63
g1959
sg56
(lp1975
g49
(g50
g51
NtRp1976
(dp1977
g54
(dp1978
g62
I4
ssg63
g1972
sg56
(lp1979
S"<open file '<stderr>', mode 'w' at 0x540b0>"
p1980
asbasbasbag49
(g65
g51
NtRp1981
(dp1982
g54
(dp1983
sg63
g1122
sg56
(lp1984
g49
(g70
g51
NtRp1985
(dp1986
g54
(dp1987
g74
g75
ssg63
g1981
sg56
(lp1988
S'wsgi_file_wrapper'
p1989
asbag49
(g70
g51
NtRp1990
(dp1991
g54
(dp1992
g81
g82
ssg63
g1981
sg56
(lp1993
S':'
asbag49
(g70
g51
NtRp1994
(dp1995
g54
(dp1996
sg63
g1981
sg56
(lp1997
g49
(g50
g51
NtRp1998
(dp1999
g54
(dp2000
g62
I4
ssg63
g1994
sg56
(lp2001
S'<class wsgiref.util.FileWrapper at 0x329d060>'
p2002
asbasbasbag49
(g65
g51
NtRp2003
(dp2004
g54
(dp2005
sg63
g1122
sg56
(lp2006
g49
(g70
g51
NtRp2007
(dp2008
g54
(dp2009
g74
g75
ssg63
g2003
sg56
(lp2010
S'wsgi_input'
p2011
asbag49
(g70
g51
NtRp2012
(dp2013
g54
(dp2014
g81
g82
ssg63
g2003
sg56
(lp2015
S':'
asbag49
(g70
g51
NtRp2016
(dp2017
g54
(dp2018
sg63
g2003
sg56
(lp2019
g49
(g50
g51
NtRp2020
(dp2021
g54
(dp2022
g62
I4
ssg63
g2016
sg56
(lp2023
S'<socket._fileobject object at 0xa4dd270>'
p2024
asbasbasbag49
(g65
g51
NtRp2025
(dp2026
g54
(dp2027
sg63
g1122
sg56
(lp2028
g49
(g70
g51
NtRp2029
(dp2030
g54
(dp2031
g74
g75
ssg63
g2025
sg56
(lp2032
S'wsgi_multiprocess'
p2033
asbag49
(g70
g51
NtRp2034
(dp2035
g54
(dp2036
g81
g82
ssg63
g2025
sg56
(lp2037
S':'
asbag49
(g70
g51
NtRp2038
(dp2039
g54
(dp2040
sg63
g2025
sg56
(lp2041
g49
(g50
g51
NtRp2042
(dp2043
g54
(dp2044
g62
I4
ssg63
g2038
sg56
(lp2045
g92
asbasbasbag49
(g65
g51
NtRp2046
(dp2047
g54
(dp2048
sg63
g1122
sg56
(lp2049
g49
(g70
g51
NtRp2050
(dp2051
g54
(dp2052
g74
g75
ssg63
g2046
sg56
(lp2053
S'wsgi_multithread'
p2054
asbag49
(g70
g51
NtRp2055
(dp2056
g54
(dp2057
g81
g82
ssg63
g2046
sg56
(lp2058
S':'
asbag49
(g70
g51
NtRp2059
(dp2060
g54
(dp2061
sg63
g2046
sg56
(lp2062
g49
(g50
g51
NtRp2063
(dp2064
g54
(dp2065
g62
I4
ssg63
g2059
sg56
(lp2066
g1260
asbasbasbag49
(g65
g51
NtRp2067
(dp2068
g54
(dp2069
sg63
g1122
sg56
(lp2070
g49
(g70
g51
NtRp2071
(dp2072
g54
(dp2073
g74
g75
ssg63
g2067
sg56
(lp2074
S'wsgi_run_once'
p2075
asbag49
(g70
g51
NtRp2076
(dp2077
g54
(dp2078
g81
g82
ssg63
g2067
sg56
(lp2079
S':'
asbag49
(g70
g51
NtRp2080
(dp2081
g54
(dp2082
sg63
g2067
sg56
(lp2083
g49
(g50
g51
NtRp2084
(dp2085
g54
(dp2086
g62
I4
ssg63
g2080
sg56
(lp2087
g92
asbasbasbag49
(g65
g51
NtRp2088
(dp2089
g54
(dp2090
sg63
g1122
sg56
(lp2091
g49
(g70
g51
NtRp2092
(dp2093
g54
(dp2094
g74
g75
ssg63
g2088
sg56
(lp2095
S'wsgi_url_scheme'
p2096
asbag49
(g70
g51
NtRp2097
(dp2098
g54
(dp2099
g81
g82
ssg63
g2088
sg56
(lp2100
S':'
asbag49
(g70
g51
NtRp2101
(dp2102
g54
(dp2103
sg63
g2088
sg56
(lp2104
g49
(g50
g51
NtRp2105
(dp2106
g54
(dp2107
g62
I4
ssg63
g2101
sg56
(lp2108
S'http'
p2109
asbasbasbag49
(g65
g51
NtRp2110
(dp2111
g54
(dp2112
sg63
g1122
sg56
(lp2113
g49
(g70
g51
NtRp2114
(dp2115
g54
(dp2116
g74
g75
ssg63
g2110
sg56
(lp2117
S'wsgi_version'
p2118
asbag49
(g70
g51
NtRp2119
(dp2120
g54
(dp2121
g81
g82
ssg63
g2110
sg56
(lp2122
S':'
asbag49
(g70
g51
NtRp2123
(dp2124
g54
(dp2125
sg63
g2110
sg56
(lp2126
g49
(g50
g51
NtRp2127
(dp2128
g54
(dp2129
g62
I4
ssg63
g2123
sg56
(lp2130
g49
(g58
g51
NtRp2131
(dp2132
g54
(dp2133
g62
I3
ssg63
Nsg56
(lp2134
g49
(g65
g51
NtRp2135
(dp2136
g54
(dp2137
sg63
g2131
sg56
(lp2138
g49
(g70
g51
NtRp2139
(dp2140
g54
(dp2141
sg63
g2135
sg56
(lp2142
g49
(g50
g51
NtRp2143
(dp2144
g54
(dp2145
g62
I3
ssg63
g2139
sg56
(lp2146
S'1'
asbasbasbag49
(g65
g51
NtRp2147
(dp2148
g54
(dp2149
sg63
g2131
sg56
(lp2150
g49
(g70
g51
NtRp2151
(dp2152
g54
(dp2153
sg63
g2147
sg56
(lp2154
g49
(g50
g51
NtRp2155
(dp2156
g54
(dp2157
g62
I3
ssg63
g2151
sg56
(lp2158
S'0'
asbasbasbasbasbasbasbasbasbasbasbag49
(g65
g51
NtRp2159
(dp2160
g54
(dp2161
sg63
g59
sg56
(lp2162
g49
(g70
g51
NtRp2163
(dp2164
g54
(dp2165
g74
g75
ssg63
g2159
sg56
(lp2166
S'extension'
p2167
asbag49
(g70
g51
NtRp2168
(dp2169
g54
(dp2170
g81
g82
ssg63
g2159
sg56
(lp2171
S':'
asbag49
(g70
g51
NtRp2172
(dp2173
g54
(dp2174
sg63
g2159
sg56
(lp2175
g49
(g50
g51
NtRp2176
(dp2177
g54
(dp2178
g62
I5
ssg63
g2172
sg56
(lp2179
S'html'
p2180
asbasbasbag49
(g65
g51
NtRp2181
(dp2182
g54
(dp2183
sg63
g59
sg56
(lp2184
g49
(g70
g51
NtRp2185
(dp2186
g54
(dp2187
g74
g75
ssg63
g2181
sg56
(lp2188
S'folder'
p2189
asbag49
(g70
g51
NtRp2190
(dp2191
g54
(dp2192
g81
g82
ssg63
g2181
sg56
(lp2193
S':'
asbag49
(g70
g51
NtRp2194
(dp2195
g54
(dp2196
sg63
g2181
sg56
(lp2197
g49
(g50
g51
NtRp2198
(dp2199
g54
(dp2200
g62
I5
ssg63
g2194
sg56
(lp2201
S'/Users/zamechek/Downloads/web2py/web2py.app/Contents/Resources/applications/hellow/'
p2202
asbasbasbag49
(g65
g51
NtRp2203
(dp2204
g54
(dp2205
sg63
g59
sg56
(lp2206
g49
(g70
g51
NtRp2207
(dp2208
g54
(dp2209
g74
g75
ssg63
g2203
sg56
(lp2210
S'function'
p2211
asbag49
(g70
g51
NtRp2212
(dp2213
g54
(dp2214
g81
g82
ssg63
g2203
sg56
(lp2215
S':'
asbag49
(g70
g51
NtRp2216
(dp2217
g54
(dp2218
sg63
g2203
sg56
(lp2219
g49
(g50
g51
NtRp2220
(dp2221
g54
(dp2222
g62
I5
ssg63
g2216
sg56
(lp2223
S'show'
p2224
asbasbasbag49
(g65
g51
NtRp2225
(dp2226
g54
(dp2227
sg63
g59
sg56
(lp2228
g49
(g70
g51
NtRp2229
(dp2230
g54
(dp2231
g74
g75
ssg63
g2225
sg56
(lp2232
S'get_vars'
p2233
asbag49
(g70
g51
NtRp2234
(dp2235
g54
(dp2236
g81
g82
ssg63
g2225
sg56
(lp2237
S':'
asbag49
(g70
g51
NtRp2238
(dp2239
g54
(dp2240
sg63
g2225
sg56
(lp2241
g49
(g50
g51
NtRp2242
(dp2243
g54
(dp2244
g62
I5
ssg63
g2238
sg56
(lp2245
g49
(g58
g51
NtRp2246
(dp2247
g54
(dp2248
g62
I4
ssg63
Nsg56
(lp2249
sbasbasbasbag49
(g65
g51
NtRp2250
(dp2251
g54
(dp2252
sg63
g59
sg56
(lp2253
g49
(g70
g51
NtRp2254
(dp2255
g54
(dp2256
g74
g75
ssg63
g2250
sg56
(lp2257
S'global_settings'
p2258
asbag49
(g70
g51
NtRp2259
(dp2260
g54
(dp2261
g81
g82
ssg63
g2250
sg56
(lp2262
S':'
asbag49
(g70
g51
NtRp2263
(dp2264
g54
(dp2265
sg63
g2250
sg56
(lp2266
g49
(g50
g51
NtRp2267
(dp2268
g54
(dp2269
g62
I5
ssg63
g2263
sg56
(lp2270
g49
(g58
g51
NtRp2271
(dp2272
g54
(dp2273
g62
I4
ssg63
Nsg56
(lp2274
g49
(g65
g51
NtRp2275
(dp2276
g54
(dp2277
sg63
g2271
sg56
(lp2278
g49
(g70
g51
NtRp2279
(dp2280
g54
(dp2281
g74
g75
ssg63
g2275
sg56
(lp2282
g1134
asbag49
(g70
g51
NtRp2283
(dp2284
g54
(dp2285
g81
g82
ssg63
g2275
sg56
(lp2286
S':'
asbag49
(g70
g51
NtRp2287
(dp2288
g54
(dp2289
sg63
g2275
sg56
(lp2290
g49
(g50
g51
NtRp2291
(dp2292
g54
(dp2293
g62
I4
ssg63
g2287
sg56
(lp2294
S"set(['/Users/zamechek/Downloads/web2py/web2py.app/Contents/Resources/applications/examples/', '/Users/zamechek/Downloads/web2py/web2py.app/Contents/Resources/applications/hellow/', '/Users/zamechek/Downloads/web2py/web2py.app/Contents/Resources/applications/admin/', '/Users/zamechek/Downloads/web2py/web2py.app/Contents/Resources/applications/slots/', '/Users/zamechek/Downloads/web2py/web2py.app/Contents/Resources/applications/welcome/'])"
p2295
asbasbasbag49
(g65
g51
NtRp2296
(dp2297
g54
(dp2298
sg63
g2271
sg56
(lp2299
g49
(g70
g51
NtRp2300
(dp2301
g54
(dp2302
g74
g75
ssg63
g2296
sg56
(lp2303
g1156
asbag49
(g70
g51
NtRp2304
(dp2305
g54
(dp2306
g81
g82
ssg63
g2296
sg56
(lp2307
S':'
asbag49
(g70
g51
NtRp2308
(dp2309
g54
(dp2310
sg63
g2296
sg56
(lp2311
g49
(g50
g51
NtRp2312
(dp2313
g54
(dp2314
g62
I4
ssg63
g2308
sg56
(lp2315
g1169
asbasbasbag49
(g65
g51
NtRp2316
(dp2317
g54
(dp2318
sg63
g2271
sg56
(lp2319
g49
(g70
g51
NtRp2320
(dp2321
g54
(dp2322
g74
g75
ssg63
g2316
sg56
(lp2323
g1178
asbag49
(g70
g51
NtRp2324
(dp2325
g54
(dp2326
g81
g82
ssg63
g2316
sg56
(lp2327
S':'
asbag49
(g70
g51
NtRp2328
(dp2329
g54
(dp2330
sg63
g2316
sg56
(lp2331
g49
(g50
g51
NtRp2332
(dp2333
g54
(dp2334
g62
I4
ssg63
g2328
sg56
(lp2335
g49
(g58
g51
NtRp2336
(dp2337
g54
(dp2338
g62
I3
ssg63
Nsg56
(lp2339
sbasbasbasbag49
(g65
g51
NtRp2340
(dp2341
g54
(dp2342
sg63
g2271
sg56
(lp2343
g49
(g70
g51
NtRp2344
(dp2345
g54
(dp2346
g74
g75
ssg63
g2340
sg56
(lp2347
g1203
asbag49
(g70
g51
NtRp2348
(dp2349
g54
(dp2350
g81
g82
ssg63
g2340
sg56
(lp2351
S':'
asbag49
(g70
g51
NtRp2352
(dp2353
g54
(dp2354
sg63
g2340
sg56
(lp2355
g49
(g50
g51
NtRp2356
(dp2357
g54
(dp2358
g62
I4
ssg63
g2352
sg56
(lp2359
S"<Values at 0x32c8f58: {'verbose': False, 'ip': '127.0.0.1', 'with_scheduler': False, 'ips': ['130.91.151.157'], 'shutdown_timeout': 5, 'taskbar': False, 'port': 8000, 'maxthreads': None, 'softcron': False, 'server_name': 'hntvlan531.0924.wlan.wireless-pennnet.upenn.edu', 'bpython': False, 'nogui': False, 'pid_filename': 'httpserver.pid', 'extcron': False, 'runcron': False, 'run_system_tests': False, 'test': None, 'folder': '/Users/zamechek/Downloads/web2py/web2py.app/Contents/Resources', 'config': '', 'import_models': False, 'winservice': '', 'shell': None, 'run': '', 'log_filename': 'httpserver.log', 'debuglevel': 30, 'args': [''], 'socket_timeout': 5, 'ssl_ca_certificate': None, 'scheduler': None, 'profiler_filename': None, 'ssl_private_key': '', 'scheduler_groups': None, 'password': '<ask>', 'request_queue_size': 5, 'ssl_certificate': '', 'cronjob': False, 'numthreads': None, 'quiet': False, 'interfaces': None, 'minthreads': None, 'timeout': 10, 'plain': False, 'nobanner': False}>"
p2360
asbasbasbag49
(g65
g51
NtRp2361
(dp2362
g54
(dp2363
sg63
g2271
sg56
(lp2364
g49
(g70
g51
NtRp2365
(dp2366
g54
(dp2367
g74
g75
ssg63
g2361
sg56
(lp2368
g1225
asbag49
(g70
g51
NtRp2369
(dp2370
g54
(dp2371
g81
g82
ssg63
g2361
sg56
(lp2372
S':'
asbag49
(g70
g51
NtRp2373
(dp2374
g54
(dp2375
sg63
g2361
sg56
(lp2376
g49
(g50
g51
NtRp2377
(dp2378
g54
(dp2379
g62
I4
ssg63
g2373
sg56
(lp2380
S'set([])'
p2381
asbasbasbag49
(g65
g51
NtRp2382
(dp2383
g54
(dp2384
sg63
g2271
sg56
(lp2385
g49
(g70
g51
NtRp2386
(dp2387
g54
(dp2388
g74
g75
ssg63
g2382
sg56
(lp2389
g1247
asbag49
(g70
g51
NtRp2390
(dp2391
g54
(dp2392
g81
g82
ssg63
g2382
sg56
(lp2393
S':'
asbag49
(g70
g51
NtRp2394
(dp2395
g54
(dp2396
sg63
g2382
sg56
(lp2397
g49
(g50
g51
NtRp2398
(dp2399
g54
(dp2400
g62
I4
ssg63
g2394
sg56
(lp2401
g1260
asbasbasbag49
(g65
g51
NtRp2402
(dp2403
g54
(dp2404
sg63
g2271
sg56
(lp2405
g49
(g70
g51
NtRp2406
(dp2407
g54
(dp2408
g74
g75
ssg63
g2402
sg56
(lp2409
g1269
asbag49
(g70
g51
NtRp2410
(dp2411
g54
(dp2412
g81
g82
ssg63
g2402
sg56
(lp2413
S':'
asbag49
(g70
g51
NtRp2414
(dp2415
g54
(dp2416
sg63
g2402
sg56
(lp2417
g49
(g50
g51
NtRp2418
(dp2419
g54
(dp2420
g62
I4
ssg63
g2414
sg56
(lp2421
g1282
asbasbasbag49
(g65
g51
NtRp2422
(dp2423
g54
(dp2424
sg63
g2271
sg56
(lp2425
g49
(g70
g51
NtRp2426
(dp2427
g54
(dp2428
g74
g75
ssg63
g2422
sg56
(lp2429
g1489
asbag49
(g70
g51
NtRp2430
(dp2431
g54
(dp2432
g81
g82
ssg63
g2422
sg56
(lp2433
S':'
asbag49
(g70
g51
NtRp2434
(dp2435
g54
(dp2436
sg63
g2422
sg56
(lp2437
g49
(g50
g51
NtRp2438
(dp2439
g54
(dp2440
g62
I4
ssg63
g2434
sg56
(lp2441
g92
asbasbasbag49
(g65
g51
NtRp2442
(dp2443
g54
(dp2444
sg63
g2271
sg56
(lp2445
g49
(g70
g51
NtRp2446
(dp2447
g54
(dp2448
g74
g75
ssg63
g2442
sg56
(lp2449
g1510
asbag49
(g70
g51
NtRp2450
(dp2451
g54
(dp2452
g81
g82
ssg63
g2442
sg56
(lp2453
S':'
asbag49
(g70
g51
NtRp2454
(dp2455
g54
(dp2456
sg63
g2442
sg56
(lp2457
g49
(g50
g51
NtRp2458
(dp2459
g54
(dp2460
g62
I4
ssg63
g2454
sg56
(lp2461
g92
asbasbasbag49
(g65
g51
NtRp2462
(dp2463
g54
(dp2464
sg63
g2271
sg56
(lp2465
g49
(g70
g51
NtRp2466
(dp2467
g54
(dp2468
g74
g75
ssg63
g2462
sg56
(lp2469
g1531
asbag49
(g70
g51
NtRp2470
(dp2471
g54
(dp2472
g81
g82
ssg63
g2462
sg56
(lp2473
S':'
asbag49
(g70
g51
NtRp2474
(dp2475
g54
(dp2476
sg63
g2462
sg56
(lp2477
g49
(g50
g51
NtRp2478
(dp2479
g54
(dp2480
g62
I4
ssg63
g2474
sg56
(lp2481
g49
(g58
g51
NtRp2482
(dp2483
g54
(dp2484
g62
I3
ssg63
Nsg56
(lp2485
g49
(g65
g51
NtRp2486
(dp2487
g54
(dp2488
sg63
g2482
sg56
(lp2489
g49
(g70
g51
NtRp2490
(dp2491
g54
(dp2492
sg63
g2486
sg56
(lp2493
g49
(g50
g51
NtRp2494
(dp2495
g54
(dp2496
g62
I3
ssg63
g2490
sg56
(lp2497
g1560
asbasbasbag49
(g65
g51
NtRp2498
(dp2499
g54
(dp2500
sg63
g2482
sg56
(lp2501
g49
(g70
g51
NtRp2502
(dp2503
g54
(dp2504
sg63
g2498
sg56
(lp2505
g49
(g50
g51
NtRp2506
(dp2507
g54
(dp2508
g62
I3
ssg63
g2502
sg56
(lp2509
g1573
asbasbasbag49
(g65
g51
NtRp2510
(dp2511
g54
(dp2512
sg63
g2482
sg56
(lp2513
g49
(g70
g51
NtRp2514
(dp2515
g54
(dp2516
sg63
g2510
sg56
(lp2517
g49
(g50
g51
NtRp2518
(dp2519
g54
(dp2520
g62
I3
ssg63
g2514
sg56
(lp2521
g1586
asbasbasbag49
(g65
g51
NtRp2522
(dp2523
g54
(dp2524
sg63
g2482
sg56
(lp2525
g49
(g70
g51
NtRp2526
(dp2527
g54
(dp2528
sg63
g2522
sg56
(lp2529
g49
(g50
g51
NtRp2530
(dp2531
g54
(dp2532
g62
I3
ssg63
g2526
sg56
(lp2533
g1599
asbasbasbag49
(g65
g51
NtRp2534
(dp2535
g54
(dp2536
sg63
g2482
sg56
(lp2537
g49
(g70
g51
NtRp2538
(dp2539
g54
(dp2540
sg63
g2534
sg56
(lp2541
g49
(g50
g51
NtRp2542
(dp2543
g54
(dp2544
g62
I3
ssg63
g2538
sg56
(lp2545
g1612
asbasbasbasbasbasbasbag49
(g65
g51
NtRp2546
(dp2547
g54
(dp2548
sg63
g2271
sg56
(lp2549
g49
(g70
g51
NtRp2550
(dp2551
g54
(dp2552
g74
g75
ssg63
g2546
sg56
(lp2553
g1880
asbag49
(g70
g51
NtRp2554
(dp2555
g54
(dp2556
g81
g82
ssg63
g2546
sg56
(lp2557
S':'
asbag49
(g70
g51
NtRp2558
(dp2559
g54
(dp2560
sg63
g2546
sg56
(lp2561
g49
(g50
g51
NtRp2562
(dp2563
g54
(dp2564
g62
I4
ssg63
g2558
sg56
(lp2565
g49
(g58
g51
NtRp2566
(dp2567
g54
(dp2568
g62
I3
ssg63
Nsg56
(lp2569
g49
(g65
g51
NtRp2570
(dp2571
g54
(dp2572
sg63
g2566
sg56
(lp2573
g49
(g70
g51
NtRp2574
(dp2575
g54
(dp2576
sg63
g2570
sg56
(lp2577
g49
(g50
g51
NtRp2578
(dp2579
g54
(dp2580
g62
I3
ssg63
g2574
sg56
(lp2581
S'2'
asbasbasbag49
(g65
g51
NtRp2582
(dp2583
g54
(dp2584
sg63
g2566
sg56
(lp2585
g49
(g70
g51
NtRp2586
(dp2587
g54
(dp2588
sg63
g2582
sg56
(lp2589
g49
(g50
g51
NtRp2590
(dp2591
g54
(dp2592
g62
I3
ssg63
g2586
sg56
(lp2593
S'4'
asbasbasbag49
(g65
g51
NtRp2594
(dp2595
g54
(dp2596
sg63
g2566
sg56
(lp2597
g49
(g70
g51
NtRp2598
(dp2599
g54
(dp2600
sg63
g2594
sg56
(lp2601
g49
(g50
g51
NtRp2602
(dp2603
g54
(dp2604
g62
I3
ssg63
g2598
sg56
(lp2605
S'5'
asbasbasbag49
(g65
g51
NtRp2606
(dp2607
g54
(dp2608
sg63
g2566
sg56
(lp2609
g49
(g70
g51
NtRp2610
(dp2611
g54
(dp2612
sg63
g2606
sg56
(lp2613
g49
(g50
g51
NtRp2614
(dp2615
g54
(dp2616
g62
I3
ssg63
g2610
sg56
(lp2617
g1945
asbasbasbag49
(g65
g51
NtRp2618
(dp2619
g54
(dp2620
sg63
g2566
sg56
(lp2621
g49
(g70
g51
NtRp2622
(dp2623
g54
(dp2624
sg63
g2618
sg56
(lp2625
g49
(g50
g51
NtRp2626
(dp2627
g54
(dp2628
g62
I3
ssg63
g2622
sg56
(lp2629
S'datetime.datetime(2013, 3, 18, 22, 46, 22)'
p2630
asbasbasbasbasbasbasbasbasbasbasbag49
(g65
g51
NtRp2631
(dp2632
g54
(dp2633
sg63
g59
sg56
(lp2634
g49
(g70
g51
NtRp2635
(dp2636
g54
(dp2637
g74
g75
ssg63
g2631
sg56
(lp2638
S'is_https'
p2639
asbag49
(g70
g51
NtRp2640
(dp2641
g54
(dp2642
g81
g82
ssg63
g2631
sg56
(lp2643
S':'
asbag49
(g70
g51
NtRp2644
(dp2645
g54
(dp2646
sg63
g2631
sg56
(lp2647
g49
(g50
g51
NtRp2648
(dp2649
g54
(dp2650
g62
I5
ssg63
g2644
sg56
(lp2651
g92
asbasbasbag49
(g65
g51
NtRp2652
(dp2653
g54
(dp2654
sg63
g59
sg56
(lp2655
g49
(g70
g51
NtRp2656
(dp2657
g54
(dp2658
g74
g75
ssg63
g2652
sg56
(lp2659
S'is_local'
p2660
asbag49
(g70
g51
NtRp2661
(dp2662
g54
(dp2663
g81
g82
ssg63
g2652
sg56
(lp2664
S':'
asbag49
(g70
g51
NtRp2665
(dp2666
g54
(dp2667
sg63
g2652
sg56
(lp2668
g49
(g50
g51
NtRp2669
(dp2670
g54
(dp2671
g62
I5
ssg63
g2665
sg56
(lp2672
g1260
asbasbasbag49
(g65
g51
NtRp2673
(dp2674
g54
(dp2675
sg63
g59
sg56
(lp2676
g49
(g70
g51
NtRp2677
(dp2678
g54
(dp2679
g74
g75
ssg63
g2673
sg56
(lp2680
S'is_restful'
p2681
asbag49
(g70
g51
NtRp2682
(dp2683
g54
(dp2684
g81
g82
ssg63
g2673
sg56
(lp2685
S':'
asbag49
(g70
g51
NtRp2686
(dp2687
g54
(dp2688
sg63
g2673
sg56
(lp2689
g49
(g50
g51
NtRp2690
(dp2691
g54
(dp2692
g62
I5
ssg63
g2686
sg56
(lp2693
g92
asbasbasbag49
(g65
g51
NtRp2694
(dp2695
g54
(dp2696
sg63
g59
sg56
(lp2697
g49
(g70
g51
NtRp2698
(dp2699
g54
(dp2700
g74
g75
ssg63
g2694
sg56
(lp2701
S'now'
p2702
asbag49
(g70
g51
NtRp2703
(dp2704
g54
(dp2705
g81
g82
ssg63
g2694
sg56
(lp2706
S':'
asbag49
(g70
g51
NtRp2707
(dp2708
g54
(dp2709
sg63
g2694
sg56
(lp2710
g49
(g50
g51
NtRp2711
(dp2712
g54
(dp2713
g62
I5
ssg63
g2707
sg56
(lp2714
S'datetime.datetime(2013, 3, 25, 12, 38, 32, 707595)'
p2715
asbasbasbag49
(g65
g51
NtRp2716
(dp2717
g54
(dp2718
sg63
g59
sg56
(lp2719
g49
(g70
g51
NtRp2720
(dp2721
g54
(dp2722
g74
g75
ssg63
g2716
sg56
(lp2723
S'post_vars'
p2724
asbag49
(g70
g51
NtRp2725
(dp2726
g54
(dp2727
g81
g82
ssg63
g2716
sg56
(lp2728
S':'
asbag49
(g70
g51
NtRp2729
(dp2730
g54
(dp2731
sg63
g2716
sg56
(lp2732
g49
(g50
g51
NtRp2733
(dp2734
g54
(dp2735
g62
I5
ssg63
g2729
sg56
(lp2736
g49
(g58
g51
NtRp2737
(dp2738
g54
(dp2739
g62
I4
ssg63
Nsg56
(lp2740
sbasbasbasbag49
(g65
g51
NtRp2741
(dp2742
g54
(dp2743
sg63
g59
sg56
(lp2744
g49
(g70
g51
NtRp2745
(dp2746
g54
(dp2747
g74
g75
ssg63
g2741
sg56
(lp2748
S'raw_args'
p2749
asbag49
(g70
g51
NtRp2750
(dp2751
g54
(dp2752
g81
g82
ssg63
g2741
sg56
(lp2753
S':'
asbag49
(g70
g51
NtRp2754
(dp2755
g54
(dp2756
sg63
g2741
sg56
(lp2757
g49
(g50
g51
NtRp2758
(dp2759
g54
(dp2760
g62
I5
ssg63
g2754
sg56
(lp2761
S'9'
asbasbasbag49
(g65
g51
NtRp2762
(dp2763
g54
(dp2764
sg63
g59
sg56
(lp2765
g49
(g70
g51
NtRp2766
(dp2767
g54
(dp2768
g74
g75
ssg63
g2762
sg56
(lp2769
S'raw_extension'
p2770
asbag49
(g70
g51
NtRp2771
(dp2772
g54
(dp2773
g81
g82
ssg63
g2762
sg56
(lp2774
S':'
asbag49
(g70
g51
NtRp2775
(dp2776
g54
(dp2777
sg63
g2762
sg56
(lp2778
g49
(g50
g51
NtRp2779
(dp2780
g54
(dp2781
g62
I5
ssg63
g2775
sg56
(lp2782
S'None'
p2783
asbasbasbag49
(g65
g51
NtRp2784
(dp2785
g54
(dp2786
sg63
g59
sg56
(lp2787
g49
(g70
g51
NtRp2788
(dp2789
g54
(dp2790
g74
g75
ssg63
g2784
sg56
(lp2791
S'url'
p2792
asbag49
(g70
g51
NtRp2793
(dp2794
g54
(dp2795
g81
g82
ssg63
g2784
sg56
(lp2796
S':'
asbag49
(g70
g51
NtRp2797
(dp2798
g54
(dp2799
sg63
g2784
sg56
(lp2800
g49
(g50
g51
NtRp2801
(dp2802
g54
(dp2803
g62
I5
ssg63
g2797
sg56
(lp2804
g1634
asbasbasbag49
(g65
g51
NtRp2805
(dp2806
g54
(dp2807
sg63
g59
sg56
(lp2808
g49
(g70
g51
NtRp2809
(dp2810
g54
(dp2811
g74
g75
ssg63
g2805
sg56
(lp2812
S'utcnow'
p2813
asbag49
(g70
g51
NtRp2814
(dp2815
g54
(dp2816
g81
g82
ssg63
g2805
sg56
(lp2817
S':'
asbag49
(g70
g51
NtRp2818
(dp2819
g54
(dp2820
sg63
g2805
sg56
(lp2821
g49
(g50
g51
NtRp2822
(dp2823
g54
(dp2824
g62
I5
ssg63
g2818
sg56
(lp2825
S'datetime.datetime(2013, 3, 25, 16, 38, 32, 707607)'
p2826
asbasbasbag49
(g65
g51
NtRp2827
(dp2828
g54
(dp2829
sg63
g59
sg56
(lp2830
g49
(g70
g51
NtRp2831
(dp2832
g54
(dp2833
g74
g75
ssg63
g2827
sg56
(lp2834
S'uuid'
p2835
asbag49
(g70
g51
NtRp2836
(dp2837
g54
(dp2838
g81
g82
ssg63
g2827
sg56
(lp2839
S':'
asbag49
(g70
g51
NtRp2840
(dp2841
g54
(dp2842
sg63
g2827
sg56
(lp2843
g49
(g50
g51
NtRp2844
(dp2845
g54
(dp2846
g62
I5
ssg63
g2840
sg56
(lp2847
S'hellow/127.0.0.1.2013-03-25.12-38-32.728680c1-70b1-423b-8815-cfac88b4e26c'
p2848
asbasbasbag49
(g65
g51
NtRp2849
(dp2850
g54
(dp2851
sg63
g59
sg56
(lp2852
g49
(g70
g51
NtRp2853
(dp2854
g54
(dp2855
g74
g75
ssg63
g2849
sg56
(lp2856
S'vars'
p2857
asbag49
(g70
g51
NtRp2858
(dp2859
g54
(dp2860
g81
g82
ssg63
g2849
sg56
(lp2861
S':'
asbag49
(g70
g51
NtRp2862
(dp2863
g54
(dp2864
sg63
g2849
sg56
(lp2865
g49
(g50
g51
NtRp2866
(dp2867
g54
(dp2868
g62
I5
ssg63
g2862
sg56
(lp2869
g49
(g58
g51
NtRp2870
(dp2871
g54
(dp2872
g62
I4
ssg63
Nsg56
(lp2873
sbasbasbasbag49
(g65
g51
NtRp2874
(dp2875
g54
(dp2876
sg63
g59
sg56
(lp2877
g49
(g70
g51
NtRp2878
(dp2879
g54
(dp2880
g74
g75
ssg63
g2874
sg56
(lp2881
S'wsgi'
p2882
asbag49
(g70
g51
NtRp2883
(dp2884
g54
(dp2885
g81
g82
ssg63
g2874
sg56
(lp2886
S':'
asbag49
(g70
g51
NtRp2887
(dp2888
g54
(dp2889
sg63
g2874
sg56
(lp2890
g49
(g50
g51
NtRp2891
(dp2892
g54
(dp2893
g62
I5
ssg63
g2887
sg56
(lp2894
g49
(g58
g51
NtRp2895
(dp2896
g54
(dp2897
g62
I4
ssg63
Nsg56
(lp2898
g49
(g65
g51
NtRp2899
(dp2900
g54
(dp2901
sg63
g2895
sg56
(lp2902
g49
(g70
g51
NtRp2903
(dp2904
g54
(dp2905
g74
g75
ssg63
g2899
sg56
(lp2906
S'environ'
p2907
asbag49
(g70
g51
NtRp2908
(dp2909
g54
(dp2910
g81
g82
ssg63
g2899
sg56
(lp2911
S':'
asbag49
(g70
g51
NtRp2912
(dp2913
g54
(dp2914
sg63
g2899
sg56
(lp2915
g49
(g50
g51
NtRp2916
(dp2917
g54
(dp2918
g62
I4
ssg63
g2912
sg56
(lp2919
g49
(g58
g51
NtRp2920
(dp2921
g54
(dp2922
g62
I3
ssg63
Nsg56
(lp2923
g49
(g65
g51
NtRp2924
(dp2925
g54
(dp2926
sg63
g2920
sg56
(lp2927
g49
(g70
g51
NtRp2928
(dp2929
g54
(dp2930
g74
g75
ssg63
g2924
sg56
(lp2931
S'HTTP_ACCEPT'
p2932
asbag49
(g70
g51
NtRp2933
(dp2934
g54
(dp2935
g81
g82
ssg63
g2924
sg56
(lp2936
S':'
asbag49
(g70
g51
NtRp2937
(dp2938
g54
(dp2939
sg63
g2924
sg56
(lp2940
g49
(g50
g51
NtRp2941
(dp2942
g54
(dp2943
g62
I3
ssg63
g2937
sg56
(lp2944
g1304
asbasbasbag49
(g65
g51
NtRp2945
(dp2946
g54
(dp2947
sg63
g2920
sg56
(lp2948
g49
(g70
g51
NtRp2949
(dp2950
g54
(dp2951
g74
g75
ssg63
g2945
sg56
(lp2952
S'HTTP_ACCEPT_CHARSET'
p2953
asbag49
(g70
g51
NtRp2954
(dp2955
g54
(dp2956
g81
g82
ssg63
g2945
sg56
(lp2957
S':'
asbag49
(g70
g51
NtRp2958
(dp2959
g54
(dp2960
sg63
g2945
sg56
(lp2961
g49
(g50
g51
NtRp2962
(dp2963
g54
(dp2964
g62
I3
ssg63
g2958
sg56
(lp2965
g1326
asbasbasbag49
(g65
g51
NtRp2966
(dp2967
g54
(dp2968
sg63
g2920
sg56
(lp2969
g49
(g70
g51
NtRp2970
(dp2971
g54
(dp2972
g74
g75
ssg63
g2966
sg56
(lp2973
S'HTTP_ACCEPT_ENCODING'
p2974
asbag49
(g70
g51
NtRp2975
(dp2976
g54
(dp2977
g81
g82
ssg63
g2966
sg56
(lp2978
S':'
asbag49
(g70
g51
NtRp2979
(dp2980
g54
(dp2981
sg63
g2966
sg56
(lp2982
g49
(g50
g51
NtRp2983
(dp2984
g54
(dp2985
g62
I3
ssg63
g2979
sg56
(lp2986
g1348
asbasbasbag49
(g65
g51
NtRp2987
(dp2988
g54
(dp2989
sg63
g2920
sg56
(lp2990
g49
(g70
g51
NtRp2991
(dp2992
g54
(dp2993
g74
g75
ssg63
g2987
sg56
(lp2994
S'HTTP_ACCEPT_LANGUAGE'
p2995
asbag49
(g70
g51
NtRp2996
(dp2997
g54
(dp2998
g81
g82
ssg63
g2987
sg56
(lp2999
S':'
asbag49
(g70
g51
NtRp3000
(dp3001
g54
(dp3002
sg63
g2987
sg56
(lp3003
g49
(g50
g51
NtRp3004
(dp3005
g54
(dp3006
g62
I3
ssg63
g3000
sg56
(lp3007
g1370
asbasbasbag49
(g65
g51
NtRp3008
(dp3009
g54
(dp3010
sg63
g2920
sg56
(lp3011
g49
(g70
g51
NtRp3012
(dp3013
g54
(dp3014
g74
g75
ssg63
g3008
sg56
(lp3015
S'HTTP_CACHE_CONTROL'
p3016
asbag49
(g70
g51
NtRp3017
(dp3018
g54
(dp3019
g81
g82
ssg63
g3008
sg56
(lp3020
S':'
asbag49
(g70
g51
NtRp3021
(dp3022
g54
(dp3023
sg63
g3008
sg56
(lp3024
g49
(g50
g51
NtRp3025
(dp3026
g54
(dp3027
g62
I3
ssg63
g3021
sg56
(lp3028
g1392
asbasbasbag49
(g65
g51
NtRp3029
(dp3030
g54
(dp3031
sg63
g2920
sg56
(lp3032
g49
(g70
g51
NtRp3033
(dp3034
g54
(dp3035
g74
g75
ssg63
g3029
sg56
(lp3036
S'HTTP_CONNECTION'
p3037
asbag49
(g70
g51
NtRp3038
(dp3039
g54
(dp3040
g81
g82
ssg63
g3029
sg56
(lp3041
S':'
asbag49
(g70
g51
NtRp3042
(dp3043
g54
(dp3044
sg63
g3029
sg56
(lp3045
g49
(g50
g51
NtRp3046
(dp3047
g54
(dp3048
g62
I3
ssg63
g3042
sg56
(lp3049
g1414
asbasbasbag49
(g65
g51
NtRp3050
(dp3051
g54
(dp3052
sg63
g2920
sg56
(lp3053
g49
(g70
g51
NtRp3054
(dp3055
g54
(dp3056
g74
g75
ssg63
g3050
sg56
(lp3057
S'HTTP_COOKIE'
p3058
asbag49
(g70
g51
NtRp3059
(dp3060
g54
(dp3061
g81
g82
ssg63
g3050
sg56
(lp3062
S':'
asbag49
(g70
g51
NtRp3063
(dp3064
g54
(dp3065
sg63
g3050
sg56
(lp3066
g49
(g50
g51
NtRp3067
(dp3068
g54
(dp3069
g62
I3
ssg63
g3063
sg56
(lp3070
g1436
asbasbasbag49
(g65
g51
NtRp3071
(dp3072
g54
(dp3073
sg63
g2920
sg56
(lp3074
g49
(g70
g51
NtRp3075
(dp3076
g54
(dp3077
g74
g75
ssg63
g3071
sg56
(lp3078
S'HTTP_HOST'
p3079
asbag49
(g70
g51
NtRp3080
(dp3081
g54
(dp3082
g81
g82
ssg63
g3071
sg56
(lp3083
S':'
asbag49
(g70
g51
NtRp3084
(dp3085
g54
(dp3086
sg63
g3071
sg56
(lp3087
g49
(g50
g51
NtRp3088
(dp3089
g54
(dp3090
g62
I3
ssg63
g3084
sg56
(lp3091
g1458
asbasbasbag49
(g65
g51
NtRp3092
(dp3093
g54
(dp3094
sg63
g2920
sg56
(lp3095
g49
(g70
g51
NtRp3096
(dp3097
g54
(dp3098
g74
g75
ssg63
g3092
sg56
(lp3099
S'HTTP_USER_AGENT'
p3100
asbag49
(g70
g51
NtRp3101
(dp3102
g54
(dp3103
g81
g82
ssg63
g3092
sg56
(lp3104
S':'
asbag49
(g70
g51
NtRp3105
(dp3106
g54
(dp3107
sg63
g3092
sg56
(lp3108
g49
(g50
g51
NtRp3109
(dp3110
g54
(dp3111
g62
I3
ssg63
g3105
sg56
(lp3112
g1480
asbasbasbag49
(g65
g51
NtRp3113
(dp3114
g54
(dp3115
sg63
g2920
sg56
(lp3116
g49
(g70
g51
NtRp3117
(dp3118
g54
(dp3119
g74
g75
ssg63
g3113
sg56
(lp3120
S'PATH_INFO'
p3121
asbag49
(g70
g51
NtRp3122
(dp3123
g54
(dp3124
g81
g82
ssg63
g3113
sg56
(lp3125
S':'
asbag49
(g70
g51
NtRp3126
(dp3127
g54
(dp3128
sg63
g3113
sg56
(lp3129
g49
(g50
g51
NtRp3130
(dp3131
g54
(dp3132
g62
I3
ssg63
g3126
sg56
(lp3133
g1634
asbasbasbag49
(g65
g51
NtRp3134
(dp3135
g54
(dp3136
sg63
g2920
sg56
(lp3137
g49
(g70
g51
NtRp3138
(dp3139
g54
(dp3140
g74
g75
ssg63
g3134
sg56
(lp3141
S'QUERY_STRING'
p3142
asbag49
(g70
g51
NtRp3143
(dp3144
g54
(dp3145
g81
g82
ssg63
g3134
sg56
(lp3146
S':'
asbag49
(g70
g51
NtRp3147
(dp3148
g54
(dp3149
sg63
g3134
sg56
(lp3150
g49
(g50
g51
NtRp3151
(dp3152
g54
(dp3153
g62
I3
ssg63
g3147
sg56
(lp3154
S''
asbasbasbag49
(g65
g51
NtRp3155
(dp3156
g54
(dp3157
sg63
g2920
sg56
(lp3158
g49
(g70
g51
NtRp3159
(dp3160
g54
(dp3161
g74
g75
ssg63
g3155
sg56
(lp3162
S'REMOTE_ADDR'
p3163
asbag49
(g70
g51
NtRp3164
(dp3165
g54
(dp3166
g81
g82
ssg63
g3155
sg56
(lp3167
S':'
asbag49
(g70
g51
NtRp3168
(dp3169
g54
(dp3170
sg63
g3155
sg56
(lp3171
g49
(g50
g51
NtRp3172
(dp3173
g54
(dp3174
g62
I3
ssg63
g3168
sg56
(lp3175
g216
asbasbasbag49
(g65
g51
NtRp3176
(dp3177
g54
(dp3178
sg63
g2920
sg56
(lp3179
g49
(g70
g51
NtRp3180
(dp3181
g54
(dp3182
g74
g75
ssg63
g3176
sg56
(lp3183
S'REMOTE_PORT'
p3184
asbag49
(g70
g51
NtRp3185
(dp3186
g54
(dp3187
g81
g82
ssg63
g3176
sg56
(lp3188
S':'
asbag49
(g70
g51
NtRp3189
(dp3190
g54
(dp3191
sg63
g3176
sg56
(lp3192
g49
(g50
g51
NtRp3193
(dp3194
g54
(dp3195
g62
I3
ssg63
g3189
sg56
(lp3196
g1698
asbasbasbag49
(g65
g51
NtRp3197
(dp3198
g54
(dp3199
sg63
g2920
sg56
(lp3200
g49
(g70
g51
NtRp3201
(dp3202
g54
(dp3203
g74
g75
ssg63
g3197
sg56
(lp3204
S'REQUEST_METHOD'
p3205
asbag49
(g70
g51
NtRp3206
(dp3207
g54
(dp3208
g81
g82
ssg63
g3197
sg56
(lp3209
S':'
asbag49
(g70
g51
NtRp3210
(dp3211
g54
(dp3212
sg63
g3197
sg56
(lp3213
g49
(g50
g51
NtRp3214
(dp3215
g54
(dp3216
g62
I3
ssg63
g3210
sg56
(lp3217
g1720
asbasbasbag49
(g65
g51
NtRp3218
(dp3219
g54
(dp3220
sg63
g2920
sg56
(lp3221
g49
(g70
g51
NtRp3222
(dp3223
g54
(dp3224
g74
g75
ssg63
g3218
sg56
(lp3225
S'REQUEST_URI'
p3226
asbag49
(g70
g51
NtRp3227
(dp3228
g54
(dp3229
g81
g82
ssg63
g3218
sg56
(lp3230
S':'
asbag49
(g70
g51
NtRp3231
(dp3232
g54
(dp3233
sg63
g3218
sg56
(lp3234
g49
(g50
g51
NtRp3235
(dp3236
g54
(dp3237
g62
I3
ssg63
g3231
sg56
(lp3238
g1634
asbasbasbag49
(g65
g51
NtRp3239
(dp3240
g54
(dp3241
sg63
g2920
sg56
(lp3242
g49
(g70
g51
NtRp3243
(dp3244
g54
(dp3245
g74
g75
ssg63
g3239
sg56
(lp3246
S'SCRIPT_NAME'
p3247
asbag49
(g70
g51
NtRp3248
(dp3249
g54
(dp3250
g81
g82
ssg63
g3239
sg56
(lp3251
S':'
asbag49
(g70
g51
NtRp3252
(dp3253
g54
(dp3254
sg63
g3239
sg56
(lp3255
g49
(g50
g51
NtRp3256
(dp3257
g54
(dp3258
g62
I3
ssg63
g3252
sg56
(lp3259
S''
asbasbasbag49
(g65
g51
NtRp3260
(dp3261
g54
(dp3262
sg63
g2920
sg56
(lp3263
g49
(g70
g51
NtRp3264
(dp3265
g54
(dp3266
g74
g75
ssg63
g3260
sg56
(lp3267
S'SERVER_NAME'
p3268
asbag49
(g70
g51
NtRp3269
(dp3270
g54
(dp3271
g81
g82
ssg63
g3260
sg56
(lp3272
S':'
asbag49
(g70
g51
NtRp3273
(dp3274
g54
(dp3275
sg63
g3260
sg56
(lp3276
g49
(g50
g51
NtRp3277
(dp3278
g54
(dp3279
g62
I3
ssg63
g3273
sg56
(lp3280
g1784
asbasbasbag49
(g65
g51
NtRp3281
(dp3282
g54
(dp3283
sg63
g2920
sg56
(lp3284
g49
(g70
g51
NtRp3285
(dp3286
g54
(dp3287
g74
g75
ssg63
g3281
sg56
(lp3288
S'SERVER_PORT'
p3289
asbag49
(g70
g51
NtRp3290
(dp3291
g54
(dp3292
g81
g82
ssg63
g3281
sg56
(lp3293
S':'
asbag49
(g70
g51
NtRp3294
(dp3295
g54
(dp3296
sg63
g3281
sg56
(lp3297
g49
(g50
g51
NtRp3298
(dp3299
g54
(dp3300
g62
I3
ssg63
g3294
sg56
(lp3301
g1806
asbasbasbag49
(g65
g51
NtRp3302
(dp3303
g54
(dp3304
sg63
g2920
sg56
(lp3305
g49
(g70
g51
NtRp3306
(dp3307
g54
(dp3308
g74
g75
ssg63
g3302
sg56
(lp3309
S'SERVER_PROTOCOL'
p3310
asbag49
(g70
g51
NtRp3311
(dp3312
g54
(dp3313
g81
g82
ssg63
g3302
sg56
(lp3314
S':'
asbag49
(g70
g51
NtRp3315
(dp3316
g54
(dp3317
sg63
g3302
sg56
(lp3318
g49
(g50
g51
NtRp3319
(dp3320
g54
(dp3321
g62
I3
ssg63
g3315
sg56
(lp3322
g1828
asbasbasbag49
(g65
g51
NtRp3323
(dp3324
g54
(dp3325
sg63
g2920
sg56
(lp3326
g49
(g70
g51
NtRp3327
(dp3328
g54
(dp3329
g74
g75
ssg63
g3323
sg56
(lp3330
S'SERVER_SOFTWARE'
p3331
asbag49
(g70
g51
NtRp3332
(dp3333
g54
(dp3334
g81
g82
ssg63
g3323
sg56
(lp3335
S':'
asbag49
(g70
g51
NtRp3336
(dp3337
g54
(dp3338
sg63
g3323
sg56
(lp3339
g49
(g50
g51
NtRp3340
(dp3341
g54
(dp3342
g62
I3
ssg63
g3336
sg56
(lp3343
g1850
asbasbasbag49
(g65
g51
NtRp3344
(dp3345
g54
(dp3346
sg63
g2920
sg56
(lp3347
g49
(g70
g51
NtRp3348
(dp3349
g54
(dp3350
g74
g75
ssg63
g3344
sg56
(lp3351
S'wsgi.errors'
p3352
asbag49
(g70
g51
NtRp3353
(dp3354
g54
(dp3355
g81
g82
ssg63
g3344
sg56
(lp3356
S':'
asbag49
(g70
g51
NtRp3357
(dp3358
g54
(dp3359
sg63
g3344
sg56
(lp3360
g49
(g50
g51
NtRp3361
(dp3362
g54
(dp3363
g62
I3
ssg63
g3357
sg56
(lp3364
S"<open file '<stderr>', mode 'w' at 0x540b0>"
p3365
asbasbasbag49
(g65
g51
NtRp3366
(dp3367
g54
(dp3368
sg63
g2920
sg56
(lp3369
g49
(g70
g51
NtRp3370
(dp3371
g54
(dp3372
g74
g75
ssg63
g3366
sg56
(lp3373
S'wsgi.file_wrapper'
p3374
asbag49
(g70
g51
NtRp3375
(dp3376
g54
(dp3377
g81
g82
ssg63
g3366
sg56
(lp3378
S':'
asbag49
(g70
g51
NtRp3379
(dp3380
g54
(dp3381
sg63
g3366
sg56
(lp3382
g49
(g50
g51
NtRp3383
(dp3384
g54
(dp3385
g62
I3
ssg63
g3379
sg56
(lp3386
S'<class wsgiref.util.FileWrapper at 0x329d060>'
p3387
asbasbasbag49
(g65
g51
NtRp3388
(dp3389
g54
(dp3390
sg63
g2920
sg56
(lp3391
g49
(g70
g51
NtRp3392
(dp3393
g54
(dp3394
g74
g75
ssg63
g3388
sg56
(lp3395
S'wsgi.input'
p3396
asbag49
(g70
g51
NtRp3397
(dp3398
g54
(dp3399
g81
g82
ssg63
g3388
sg56
(lp3400
S':'
asbag49
(g70
g51
NtRp3401
(dp3402
g54
(dp3403
sg63
g3388
sg56
(lp3404
g49
(g50
g51
NtRp3405
(dp3406
g54
(dp3407
g62
I3
ssg63
g3401
sg56
(lp3408
S'<cStringIO.StringO object at 0xa23f3e0>'
p3409
asbasbasbag49
(g65
g51
NtRp3410
(dp3411
g54
(dp3412
sg63
g2920
sg56
(lp3413
g49
(g70
g51
NtRp3414
(dp3415
g54
(dp3416
g74
g75
ssg63
g3410
sg56
(lp3417
S'wsgi.multiprocess'
p3418
asbag49
(g70
g51
NtRp3419
(dp3420
g54
(dp3421
g81
g82
ssg63
g3410
sg56
(lp3422
S':'
asbag49
(g70
g51
NtRp3423
(dp3424
g54
(dp3425
sg63
g3410
sg56
(lp3426
g49
(g50
g51
NtRp3427
(dp3428
g54
(dp3429
g62
I3
ssg63
g3423
sg56
(lp3430
g92
asbasbasbag49
(g65
g51
NtRp3431
(dp3432
g54
(dp3433
sg63
g2920
sg56
(lp3434
g49
(g70
g51
NtRp3435
(dp3436
g54
(dp3437
g74
g75
ssg63
g3431
sg56
(lp3438
S'wsgi.multithread'
p3439
asbag49
(g70
g51
NtRp3440
(dp3441
g54
(dp3442
g81
g82
ssg63
g3431
sg56
(lp3443
S':'
asbag49
(g70
g51
NtRp3444
(dp3445
g54
(dp3446
sg63
g3431
sg56
(lp3447
g49
(g50
g51
NtRp3448
(dp3449
g54
(dp3450
g62
I3
ssg63
g3444
sg56
(lp3451
g1260
asbasbasbag49
(g65
g51
NtRp3452
(dp3453
g54
(dp3454
sg63
g2920
sg56
(lp3455
g49
(g70
g51
NtRp3456
(dp3457
g54
(dp3458
g74
g75
ssg63
g3452
sg56
(lp3459
S'wsgi.run_once'
p3460
asbag49
(g70
g51
NtRp3461
(dp3462
g54
(dp3463
g81
g82
ssg63
g3452
sg56
(lp3464
S':'
asbag49
(g70
g51
NtRp3465
(dp3466
g54
(dp3467
sg63
g3452
sg56
(lp3468
g49
(g50
g51
NtRp3469
(dp3470
g54
(dp3471
g62
I3
ssg63
g3465
sg56
(lp3472
g92
asbasbasbag49
(g65
g51
NtRp3473
(dp3474
g54
(dp3475
sg63
g2920
sg56
(lp3476
g49
(g70
g51
NtRp3477
(dp3478
g54
(dp3479
g74
g75
ssg63
g3473
sg56
(lp3480
S'wsgi.url_scheme'
p3481
asbag49
(g70
g51
NtRp3482
(dp3483
g54
(dp3484
g81
g82
ssg63
g3473
sg56
(lp3485
S':'
asbag49
(g70
g51
NtRp3486
(dp3487
g54
(dp3488
sg63
g3473
sg56
(lp3489
g49
(g50
g51
NtRp3490
(dp3491
g54
(dp3492
g62
I3
ssg63
g3486
sg56
(lp3493
g2109
asbasbasbag49
(g65
g51
NtRp3494
(dp3495
g54
(dp3496
sg63
g2920
sg56
(lp3497
g49
(g70
g51
NtRp3498
(dp3499
g54
(dp3500
g74
g75
ssg63
g3494
sg56
(lp3501
S'wsgi.version'
p3502
asbag49
(g70
g51
NtRp3503
(dp3504
g54
(dp3505
g81
g82
ssg63
g3494
sg56
(lp3506
S':'
asbag49
(g70
g51
NtRp3507
(dp3508
g54
(dp3509
sg63
g3494
sg56
(lp3510
g49
(g50
g51
NtRp3511
(dp3512
g54
(dp3513
g62
I3
ssg63
g3507
sg56
(lp3514
S'1'
asbasbasbasbasbasbasbasbasbasbasbasbasbsS'frames'
p3515
(lp3516
(dp3517
S'file'
p3518
S'/home/mdipierro/web2py/gluon/restricted.py'
p3519
sS'dump'
p3520
(dp3521
sS'lnum'
p3522
I212
sS'lines'
p3523
(dp3524
sS'call'
p3525
S"(code='# coding: utf8\\n# try something like\\nimport rando...urn False\\n\\nresponse._vars=response._caller(show)\\n', environment={'A': <class 'gluon.html.A'>, 'Auth': <class 'gluon.tools.Auth'>, 'B': <class 'gluon.html.B'>, 'BEAUTIFY': <class 'gluon.html.BEAUTIFY'>, 'BODY': <class 'gluon.html.BODY'>, 'BR': <class 'gluon.html.BR'>, 'BUTTON': <class 'gluon.html.BUTTON'>, 'CAT': <class 'gluon.html.CAT'>, 'CENTER': <class 'gluon.html.CENTER'>, 'CLEANUP': <class 'gluon.validators.CLEANUP'>, ...}, layer='/Users/zamechek/Downloads/web2py/web2py.app/Cont...Resources/applications/hellow/controllers/slot.py')"
p3526
sS'func'
p3527
S'restricted'
p3528
sa(dp3529
g3518
S'/Users/zamechek/Downloads/web2py/web2py.app/Contents/Resources/applications/hellow/controllers/slot.py'
p3530
sg3520
(dp3531
sg3522
I16
sg3523
(dp3532
I5
S''
sI6
S'def show():'
p3533
sI7
S'    id = request.args[0]'
p3534
sI8
S'    slot = db.slot(id)'
p3535
sI9
S'    return isWinner(slot.odd) + " "  + str(slot.odd)'
p3536
sI10
S''
sI11
S'def isWinner(odd):'
p3537
sI12
S'    if odd > random.randint(0, 9):'
p3538
sI13
S'        return True'
p3539
sI14
S'    else: return False'
p3540
ssg3525
S'()'
p3541
sg3527
S'<module>'
p3542
sa(dp3543
g3518
S'/home/mdipierro/web2py/gluon/globals.py'
p3544
sg3520
(dp3545
sg3522
I193
sg3523
(dp3546
sg3525
S'(f=<function show at 0x864c830>)'
p3547
sg3527
S'<lambda>'
p3548
sa(dp3549
g3518
S'/Users/zamechek/Downloads/web2py/web2py.app/Contents/Resources/applications/hellow/controllers/slot.py'
p3550
sg3520
(dp3551
sg3522
I9
sg3523
(dp3552
I4
S'def index(): return dict(message="hello from slot.py")'
p3553
sI5
S''
sI6
S'def show():'
p3554
sI7
S'    id = request.args[0]'
p3555
sI8
S'    slot = db.slot(id)'
p3556
sI9
S'    return isWinner(slot.odd) + " "  + str(slot.odd)'
p3557
sI10
S''
sI11
S'def isWinner(odd):'
p3558
sI12
S'    if odd > random.randint(0, 9):'
p3559
sI13
S'        return True'
p3560
ssg3525
S'()'
p3561
sg3527
S'show'
p3562
sasS'pyver'
p3563
S'Python 2.5.1: /Users/zamechek/Downloads/web2py/web2py.app/Contents/MacOS/python'
p3564
sS'session'
p3565
g49
(g50
g51
NtRp3566
(dp3567
g54
(dp3568
sg56
(lp3569
g49
(g58
g51
NtRp3570
(dp3571
g54
(dp3572
g62
I5
ssg63
Nsg56
(lp3573
g49
(g65
g51
NtRp3574
(dp3575
g54
(dp3576
sg63
g3570
sg56
(lp3577
g49
(g70
g51
NtRp3578
(dp3579
g54
(dp3580
g74
g75
ssg63
g3574
sg56
(lp3581
S'last_orderby'
p3582
asbag49
(g70
g51
NtRp3583
(dp3584
g54
(dp3585
g81
g82
ssg63
g3574
sg56
(lp3586
S':'
asbag49
(g70
g51
NtRp3587
(dp3588
g54
(dp3589
sg63
g3574
sg56
(lp3590
g49
(g50
g51
NtRp3591
(dp3592
g54
(dp3593
g62
I5
ssg63
g3587
sg56
(lp3594
S'None'
p3595
asbasbasbag49
(g65
g51
NtRp3596
(dp3597
g54
(dp3598
sg63
g3570
sg56
(lp3599
g49
(g70
g51
NtRp3600
(dp3601
g54
(dp3602
g74
g75
ssg63
g3596
sg56
(lp3603
S'last_query'
p3604
asbag49
(g70
g51
NtRp3605
(dp3606
g54
(dp3607
g81
g82
ssg63
g3596
sg56
(lp3608
S':'
asbag49
(g70
g51
NtRp3609
(dp3610
g54
(dp3611
sg63
g3596
sg56
(lp3612
g49
(g50
g51
NtRp3613
(dp3614
g54
(dp3615
g62
I5
ssg63
g3609
sg56
(lp3616
S'db.slot.id>0'
p3617
asbasbasbasbasbsS'etype'
p3618
S"<type 'exceptions.TypeError'>"
p3619
sS'date'
p3620
S'Mon Mar 25 12:38:32 2013'
p3621
sS'response'
p3622
g49
(g50
g51
NtRp3623
(dp3624
g54
(dp3625
sg56
(lp3626
g49
(g58
g51
NtRp3627
(dp3628
g54
(dp3629
g62
I5
ssg63
Nsg56
(lp3630
g49
(g65
g51
NtRp3631
(dp3632
g54
(dp3633
sg63
g3627
sg56
(lp3634
g49
(g70
g51
NtRp3635
(dp3636
g54
(dp3637
g74
g75
ssg63
g3631
sg56
(lp3638
g159
asbag49
(g70
g51
NtRp3639
(dp3640
g54
(dp3641
g81
g82
ssg63
g3631
sg56
(lp3642
S':'
asbag49
(g70
g51
NtRp3643
(dp3644
g54
(dp3645
sg63
g3631
sg56
(lp3646
g49
(g50
g51
NtRp3647
(dp3648
g54
(dp3649
g62
I5
ssg63
g3643
sg56
(lp3650
S'<cStringIO.StringO object at 0xaa332a0>'
p3651
asbasbasbag49
(g65
g51
NtRp3652
(dp3653
g54
(dp3654
sg63
g3627
sg56
(lp3655
g49
(g70
g51
NtRp3656
(dp3657
g54
(dp3658
g74
g75
ssg63
g3652
sg56
(lp3659
g247
asbag49
(g70
g51
NtRp3660
(dp3661
g54
(dp3662
g81
g82
ssg63
g3652
sg56
(lp3663
S':'
asbag49
(g70
g51
NtRp3664
(dp3665
g54
(dp3666
sg63
g3652
sg56
(lp3667
g49
(g50
g51
NtRp3668
(dp3669
g54
(dp3670
g62
I5
ssg63
g3664
sg56
(lp3671
g49
(g58
g51
NtRp3672
(dp3673
g54
(dp3674
g62
I4
ssg63
Nsg56
(lp3675
g49
(g65
g51
NtRp3676
(dp3677
g54
(dp3678
sg63
g3672
sg56
(lp3679
g49
(g70
g51
NtRp3680
(dp3681
g54
(dp3682
g74
g75
ssg63
g3676
sg56
(lp3683
S'session_id_hellow'
p3684
asbag49
(g70
g51
NtRp3685
(dp3686
g54
(dp3687
g81
g82
ssg63
g3676
sg56
(lp3688
S':'
asbag49
(g70
g51
NtRp3689
(dp3690
g54
(dp3691
sg63
g3676
sg56
(lp3692
g49
(g50
g51
NtRp3693
(dp3694
g54
(dp3695
g62
I4
ssg63
g3689
sg56
(lp3696
g624
ag49
(g58
g51
NtRp3697
(dp3698
g54
(dp3699
g62
I3
ssg63
Nsg56
(lp3700
g49
(g65
g51
NtRp3701
(dp3702
g54
(dp3703
sg63
g3697
sg56
(lp3704
g49
(g70
g51
NtRp3705
(dp3706
g54
(dp3707
g74
g75
ssg63
g3701
sg56
(lp3708
g298
asbag49
(g70
g51
NtRp3709
(dp3710
g54
(dp3711
g81
g82
ssg63
g3701
sg56
(lp3712
S':'
asbag49
(g70
g51
NtRp3713
(dp3714
g54
(dp3715
sg63
g3701
sg56
(lp3716
g49
(g50
g51
NtRp3717
(dp3718
g54
(dp3719
g62
I3
ssg63
g3713
sg56
(lp3720
S''
asbasbasbag49
(g65
g51
NtRp3721
(dp3722
g54
(dp3723
sg63
g3697
sg56
(lp3724
g49
(g70
g51
NtRp3725
(dp3726
g54
(dp3727
g74
g75
ssg63
g3721
sg56
(lp3728
g319
asbag49
(g70
g51
NtRp3729
(dp3730
g54
(dp3731
g81
g82
ssg63
g3721
sg56
(lp3732
S':'
asbag49
(g70
g51
NtRp3733
(dp3734
g54
(dp3735
sg63
g3721
sg56
(lp3736
g49
(g50
g51
NtRp3737
(dp3738
g54
(dp3739
g62
I3
ssg63
g3733
sg56
(lp3740
S''
asbasbasbag49
(g65
g51
NtRp3741
(dp3742
g54
(dp3743
sg63
g3697
sg56
(lp3744
g49
(g70
g51
NtRp3745
(dp3746
g54
(dp3747
g74
g75
ssg63
g3741
sg56
(lp3748
g340
asbag49
(g70
g51
NtRp3749
(dp3750
g54
(dp3751
g81
g82
ssg63
g3741
sg56
(lp3752
S':'
asbag49
(g70
g51
NtRp3753
(dp3754
g54
(dp3755
sg63
g3741
sg56
(lp3756
g49
(g50
g51
NtRp3757
(dp3758
g54
(dp3759
g62
I3
ssg63
g3753
sg56
(lp3760
S''
asbasbasbag49
(g65
g51
NtRp3761
(dp3762
g54
(dp3763
sg63
g3697
sg56
(lp3764
g49
(g70
g51
NtRp3765
(dp3766
g54
(dp3767
g74
g75
ssg63
g3761
sg56
(lp3768
g361
asbag49
(g70
g51
NtRp3769
(dp3770
g54
(dp3771
g81
g82
ssg63
g3761
sg56
(lp3772
S':'
asbag49
(g70
g51
NtRp3773
(dp3774
g54
(dp3775
sg63
g3761
sg56
(lp3776
g49
(g50
g51
NtRp3777
(dp3778
g54
(dp3779
g62
I3
ssg63
g3773
sg56
(lp3780
S''
asbasbasbag49
(g65
g51
NtRp3781
(dp3782
g54
(dp3783
sg63
g3697
sg56
(lp3784
g49
(g70
g51
NtRp3785
(dp3786
g54
(dp3787
g74
g75
ssg63
g3781
sg56
(lp3788
g382
asbag49
(g70
g51
NtRp3789
(dp3790
g54
(dp3791
g81
g82
ssg63
g3781
sg56
(lp3792
S':'
asbag49
(g70
g51
NtRp3793
(dp3794
g54
(dp3795
sg63
g3781
sg56
(lp3796
g49
(g50
g51
NtRp3797
(dp3798
g54
(dp3799
g62
I3
ssg63
g3793
sg56
(lp3800
S'/'
asbasbasbag49
(g65
g51
NtRp3801
(dp3802
g54
(dp3803
sg63
g3697
sg56
(lp3804
g49
(g70
g51
NtRp3805
(dp3806
g54
(dp3807
g74
g75
ssg63
g3801
sg56
(lp3808
g403
asbag49
(g70
g51
NtRp3809
(dp3810
g54
(dp3811
g81
g82
ssg63
g3801
sg56
(lp3812
S':'
asbag49
(g70
g51
NtRp3813
(dp3814
g54
(dp3815
sg63
g3801
sg56
(lp3816
g49
(g50
g51
NtRp3817
(dp3818
g54
(dp3819
g62
I3
ssg63
g3813
sg56
(lp3820
S''
asbasbasbag49
(g65
g51
NtRp3821
(dp3822
g54
(dp3823
sg63
g3697
sg56
(lp3824
g49
(g70
g51
NtRp3825
(dp3826
g54
(dp3827
g74
g75
ssg63
g3821
sg56
(lp3828
g424
asbag49
(g70
g51
NtRp3829
(dp3830
g54
(dp3831
g81
g82
ssg63
g3821
sg56
(lp3832
S':'
asbag49
(g70
g51
NtRp3833
(dp3834
g54
(dp3835
sg63
g3821
sg56
(lp3836
g49
(g50
g51
NtRp3837
(dp3838
g54
(dp3839
g62
I3
ssg63
g3833
sg56
(lp3840
S''
asbasbasbasbasbasbasbasbasbasbasbag49
(g65
g51
NtRp3841
(dp3842
g54
(dp3843
sg63
g3627
sg56
(lp3844
g49
(g70
g51
NtRp3845
(dp3846
g54
(dp3847
g74
g75
ssg63
g3841
sg56
(lp3848
S'delimiters'
p3849
asbag49
(g70
g51
NtRp3850
(dp3851
g54
(dp3852
g81
g82
ssg63
g3841
sg56
(lp3853
S':'
asbag49
(g70
g51
NtRp3854
(dp3855
g54
(dp3856
sg63
g3841
sg56
(lp3857
g49
(g50
g51
NtRp3858
(dp3859
g54
(dp3860
g62
I5
ssg63
g3854
sg56
(lp3861
g49
(g58
g51
NtRp3862
(dp3863
g54
(dp3864
g62
I4
ssg63
Nsg56
(lp3865
g49
(g65
g51
NtRp3866
(dp3867
g54
(dp3868
sg63
g3862
sg56
(lp3869
g49
(g70
g51
NtRp3870
(dp3871
g54
(dp3872
sg63
g3866
sg56
(lp3873
g49
(g50
g51
NtRp3874
(dp3875
g54
(dp3876
g62
I4
ssg63
g3870
sg56
(lp3877
S'{{'
p3878
asbasbasbag49
(g65
g51
NtRp3879
(dp3880
g54
(dp3881
sg63
g3862
sg56
(lp3882
g49
(g70
g51
NtRp3883
(dp3884
g54
(dp3885
sg63
g3879
sg56
(lp3886
g49
(g50
g51
NtRp3887
(dp3888
g54
(dp3889
g62
I4
ssg63
g3883
sg56
(lp3890
S'}}'
p3891
asbasbasbasbasbasbasbag49
(g65
g51
NtRp3892
(dp3893
g54
(dp3894
sg63
g3627
sg56
(lp3895
g49
(g70
g51
NtRp3896
(dp3897
g54
(dp3898
g74
g75
ssg63
g3892
sg56
(lp3899
S'files'
p3900
asbag49
(g70
g51
NtRp3901
(dp3902
g54
(dp3903
g81
g82
ssg63
g3892
sg56
(lp3904
S':'
asbag49
(g70
g51
NtRp3905
(dp3906
g54
(dp3907
sg63
g3892
sg56
(lp3908
g49
(g50
g51
NtRp3909
(dp3910
g54
(dp3911
g62
I5
ssg63
g3905
sg56
(lp3912
g49
(g58
g51
NtRp3913
(dp3914
g54
(dp3915
g62
I4
ssg63
Nsg56
(lp3916
sbasbasbasbag49
(g65
g51
NtRp3917
(dp3918
g54
(dp3919
sg63
g3627
sg56
(lp3920
g49
(g70
g51
NtRp3921
(dp3922
g54
(dp3923
g74
g75
ssg63
g3917
sg56
(lp3924
S'flash'
p3925
asbag49
(g70
g51
NtRp3926
(dp3927
g54
(dp3928
g81
g82
ssg63
g3917
sg56
(lp3929
S':'
asbag49
(g70
g51
NtRp3930
(dp3931
g54
(dp3932
sg63
g3917
sg56
(lp3933
g49
(g50
g51
NtRp3934
(dp3935
g54
(dp3936
g62
I5
ssg63
g3930
sg56
(lp3937
S''
asbasbasbag49
(g65
g51
NtRp3938
(dp3939
g54
(dp3940
sg63
g3627
sg56
(lp3941
g49
(g70
g51
NtRp3942
(dp3943
g54
(dp3944
g74
g75
ssg63
g3938
sg56
(lp3945
S'generic_patterns'
p3946
asbag49
(g70
g51
NtRp3947
(dp3948
g54
(dp3949
g81
g82
ssg63
g3938
sg56
(lp3950
S':'
asbag49
(g70
g51
NtRp3951
(dp3952
g54
(dp3953
sg63
g3938
sg56
(lp3954
g49
(g50
g51
NtRp3955
(dp3956
g54
(dp3957
g62
I5
ssg63
g3951
sg56
(lp3958
g49
(g58
g51
NtRp3959
(dp3960
g54
(dp3961
g62
I4
ssg63
Nsg56
(lp3962
g49
(g65
g51
NtRp3963
(dp3964
g54
(dp3965
sg63
g3959
sg56
(lp3966
g49
(g70
g51
NtRp3967
(dp3968
g54
(dp3969
sg63
g3963
sg56
(lp3970
g49
(g50
g51
NtRp3971
(dp3972
g54
(dp3973
g62
I4
ssg63
g3967
sg56
(lp3974
S'*'
asbasbasbasbasbasbasbag49
(g65
g51
NtRp3975
(dp3976
g54
(dp3977
sg63
g3627
sg56
(lp3978
g49
(g70
g51
NtRp3979
(dp3980
g54
(dp3981
g74
g75
ssg63
g3975
sg56
(lp3982
S'google_analytics_id'
p3983
asbag49
(g70
g51
NtRp3984
(dp3985
g54
(dp3986
g81
g82
ssg63
g3975
sg56
(lp3987
S':'
asbag49
(g70
g51
NtRp3988
(dp3989
g54
(dp3990
sg63
g3975
sg56
(lp3991
g49
(g50
g51
NtRp3992
(dp3993
g54
(dp3994
g62
I5
ssg63
g3988
sg56
(lp3995
S'None'
p3996
asbasbasbag49
(g65
g51
NtRp3997
(dp3998
g54
(dp3999
sg63
g3627
sg56
(lp4000
g49
(g70
g51
NtRp4001
(dp4002
g54
(dp4003
g74
g75
ssg63
g3997
sg56
(lp4004
S'headers'
p4005
asbag49
(g70
g51
NtRp4006
(dp4007
g54
(dp4008
g81
g82
ssg63
g3997
sg56
(lp4009
S':'
asbag49
(g70
g51
NtRp4010
(dp4011
g54
(dp4012
sg63
g3997
sg56
(lp4013
g49
(g50
g51
NtRp4014
(dp4015
g54
(dp4016
g62
I5
ssg63
g4010
sg56
(lp4017
g49
(g58
g51
NtRp4018
(dp4019
g54
(dp4020
g62
I4
ssg63
Nsg56
(lp4021
g49
(g65
g51
NtRp4022
(dp4023
g54
(dp4024
sg63
g4018
sg56
(lp4025
g49
(g70
g51
NtRp4026
(dp4027
g54
(dp4028
g74
g75
ssg63
g4022
sg56
(lp4029
S'X-Powered-By'
p4030
asbag49
(g70
g51
NtRp4031
(dp4032
g54
(dp4033
g81
g82
ssg63
g4022
sg56
(lp4034
S':'
asbag49
(g70
g51
NtRp4035
(dp4036
g54
(dp4037
sg63
g4022
sg56
(lp4038
g49
(g50
g51
NtRp4039
(dp4040
g54
(dp4041
g62
I4
ssg63
g4035
sg56
(lp4042
S'web2py'
p4043
asbasbasbasbasbasbasbag49
(g65
g51
NtRp4044
(dp4045
g54
(dp4046
sg63
g3627
sg56
(lp4047
g49
(g70
g51
NtRp4048
(dp4049
g54
(dp4050
g74
g75
ssg63
g4044
sg56
(lp4051
S'logo'
p4052
asbag49
(g70
g51
NtRp4053
(dp4054
g54
(dp4055
g81
g82
ssg63
g4044
sg56
(lp4056
S':'
asbag49
(g70
g51
NtRp4057
(dp4058
g54
(dp4059
sg63
g4044
sg56
(lp4060
g49
(g50
g51
NtRp4061
(dp4062
g54
(dp4063
g62
I5
ssg63
g4057
sg56
(lp4064
g49
(cgluon.html
A
p4065
g51
NtRp4066
(dp4067
g54
(dp4068
S'_class'
p4069
S'brand'
p4070
sS'_href'
p4071
S'http://www.web2py.com/'
p4072
ssg63
Nsg56
(lp4073
g49
(cgluon.html
B
p4074
g51
NtRp4075
(dp4076
g54
(dp4077
sg63
g4066
sg56
(lp4078
S'web'
p4079
ag49
(cgluon.html
SPAN
p4080
g51
NtRp4081
(dp4082
g54
(dp4083
sg63
g4075
sg56
(lp4084
I2
asbaS'py'
p4085
asbacgluon.html
XML_unpickle
p4086
(S's\r\x00\x00\x00&trade;&nbsp;'
tRp4087
asbasbasbasbag49
(g65
g51
NtRp4088
(dp4089
g54
(dp4090
sg63
g3627
sg56
(lp4091
g49
(g70
g51
NtRp4092
(dp4093
g54
(dp4094
g74
g75
ssg63
g4088
sg56
(lp4095
S'menu'
p4096
asbag49
(g70
g51
NtRp4097
(dp4098
g54
(dp4099
g81
g82
ssg63
g4088
sg56
(lp4100
S':'
asbag49
(g70
g51
NtRp4101
(dp4102
g54
(dp4103
sg63
g4088
sg56
(lp4104
g49
(g50
g51
NtRp4105
(dp4106
g54
(dp4107
g62
I5
ssg63
g4101
sg56
(lp4108
g49
(g58
g51
NtRp4109
(dp4110
g54
(dp4111
g62
I4
ssg63
Nsg56
(lp4112
g49
(g65
g51
NtRp4113
(dp4114
g54
(dp4115
sg63
g4109
sg56
(lp4116
g49
(g70
g51
NtRp4117
(dp4118
g54
(dp4119
sg63
g4113
sg56
(lp4120
g49
(g50
g51
NtRp4121
(dp4122
g54
(dp4123
g62
I4
ssg63
g4117
sg56
(lp4124
g49
(g58
g51
NtRp4125
(dp4126
g54
(dp4127
g62
I3
ssg63
Nsg56
(lp4128
g49
(g65
g51
NtRp4129
(dp4130
g54
(dp4131
sg63
g4125
sg56
(lp4132
g49
(g70
g51
NtRp4133
(dp4134
g54
(dp4135
sg63
g4129
sg56
(lp4136
g49
(g50
g51
NtRp4137
(dp4138
g54
(dp4139
g62
I3
ssg63
g4133
sg56
(lp4140
cgluon.languages
lazyT_unpickle
p4141
(S't\x04\x00\x00\x00Home'
tRp4142
asbasbasbag49
(g65
g51
NtRp4143
(dp4144
g54
(dp4145
sg63
g4125
sg56
(lp4146
g49
(g70
g51
NtRp4147
(dp4148
g54
(dp4149
sg63
g4143
sg56
(lp4150
g49
(g50
g51
NtRp4151
(dp4152
g54
(dp4153
g62
I3
ssg63
g4147
sg56
(lp4154
g92
asbasbasbag49
(g65
g51
NtRp4155
(dp4156
g54
(dp4157
sg63
g4125
sg56
(lp4158
g49
(g70
g51
NtRp4159
(dp4160
g54
(dp4161
sg63
g4155
sg56
(lp4162
g49
(g50
g51
NtRp4163
(dp4164
g54
(dp4165
g62
I3
ssg63
g4159
sg56
(lp4166
S'/hellow/default/index'
p4167
asbasbasbag49
(g65
g51
NtRp4168
(dp4169
g54
(dp4170
sg63
g4125
sg56
(lp4171
g49
(g70
g51
NtRp4172
(dp4173
g54
(dp4174
sg63
g4168
sg56
(lp4175
g49
(g50
g51
NtRp4176
(dp4177
g54
(dp4178
g62
I3
ssg63
g4172
sg56
(lp4179
g49
(g58
g51
NtRp4180
(dp4181
g54
(dp4182
g62
I2
ssg63
Nsg56
(lp4183
sbasbasbasbasbasbasbasbag49
(g65
g51
NtRp4184
(dp4185
g54
(dp4186
sg63
g4109
sg56
(lp4187
g49
(g70
g51
NtRp4188
(dp4189
g54
(dp4190
sg63
g4184
sg56
(lp4191
g49
(g50
g51
NtRp4192
(dp4193
g54
(dp4194
g62
I4
ssg63
g4188
sg56
(lp4195
g49
(g58
g51
NtRp4196
(dp4197
g54
(dp4198
g62
I3
ssg63
Nsg56
(lp4199
g49
(g65
g51
NtRp4200
(dp4201
g54
(dp4202
sg63
g4196
sg56
(lp4203
g49
(g70
g51
NtRp4204
(dp4205
g54
(dp4206
sg63
g4200
sg56
(lp4207
g49
(g50
g51
NtRp4208
(dp4209
g54
(dp4210
g62
I3
ssg63
g4204
sg56
(lp4211
g49
(g4080
g51
NtRp4212
(dp4213
g54
(dp4214
g4069
S'highlighted'
p4215
ssg63
Nsg56
(lp4216
g4043
asbasbasbasbag49
(g65
g51
NtRp4217
(dp4218
g54
(dp4219
sg63
g4196
sg56
(lp4220
g49
(g70
g51
NtRp4221
(dp4222
g54
(dp4223
sg63
g4217
sg56
(lp4224
g49
(g50
g51
NtRp4225
(dp4226
g54
(dp4227
g62
I3
ssg63
g4221
sg56
(lp4228
g92
asbasbasbag49
(g65
g51
NtRp4229
(dp4230
g54
(dp4231
sg63
g4196
sg56
(lp4232
g49
(g70
g51
NtRp4233
(dp4234
g54
(dp4235
sg63
g4229
sg56
(lp4236
g49
(g50
g51
NtRp4237
(dp4238
g54
(dp4239
g62
I3
ssg63
g4233
sg56
(lp4240
S'http://web2py.com'
p4241
asbasbasbag49
(g65
g51
NtRp4242
(dp4243
g54
(dp4244
sg63
g4196
sg56
(lp4245
g49
(g70
g51
NtRp4246
(dp4247
g54
(dp4248
sg63
g4242
sg56
(lp4249
g49
(g50
g51
NtRp4250
(dp4251
g54
(dp4252
g62
I3
ssg63
g4246
sg56
(lp4253
g49
(g58
g51
NtRp4254
(dp4255
g54
(dp4256
g62
I2
ssg63
Nsg56
(lp4257
g49
(g65
g51
NtRp4258
(dp4259
g54
(dp4260
sg63
g4254
sg56
(lp4261
g49
(g70
g51
NtRp4262
(dp4263
g54
(dp4264
sg63
g4258
sg56
(lp4265
g49
(g50
g51
NtRp4266
(dp4267
g54
(dp4268
g62
I2
ssg63
g4262
sg56
(lp4269
g49
(g58
g51
NtRp4270
(dp4271
g54
(dp4272
g62
I1
ssg63
Nsg56
(lp4273
g49
(g65
g51
NtRp4274
(dp4275
g54
(dp4276
sg63
g4270
sg56
(lp4277
g49
(g70
g51
NtRp4278
(dp4279
g54
(dp4280
sg63
g4274
sg56
(lp4281
g49
(g50
g51
NtRp4282
(dp4283
g54
(dp4284
g62
I1
ssg63
g4278
sg56
(lp4285
g4141
(S's\x08\x00\x00\x00My Sites'
tRp4286
asbasbasbag49
(g65
g51
NtRp4287
(dp4288
g54
(dp4289
sg63
g4270
sg56
(lp4290
g49
(g70
g51
NtRp4291
(dp4292
g54
(dp4293
sg63
g4287
sg56
(lp4294
g49
(g50
g51
NtRp4295
(dp4296
g54
(dp4297
g62
I1
ssg63
g4291
sg56
(lp4298
I00
asbasbasbag49
(g65
g51
NtRp4299
(dp4300
g54
(dp4301
sg63
g4270
sg56
(lp4302
g49
(g70
g51
NtRp4303
(dp4304
g54
(dp4305
sg63
g4299
sg56
(lp4306
g49
(g50
g51
NtRp4307
(dp4308
g54
(dp4309
g62
I1
ssg63
g4303
sg56
(lp4310
S'/admin/default/site'
p4311
asbasbasbasbasbasbasbag49
(g65
g51
NtRp4312
(dp4313
g54
(dp4314
sg63
g4254
sg56
(lp4315
g49
(g70
g51
NtRp4316
(dp4317
g54
(dp4318
sg63
g4312
sg56
(lp4319
g49
(g50
g51
NtRp4320
(dp4321
g54
(dp4322
g62
I2
ssg63
g4316
sg56
(lp4323
g49
(g58
g51
NtRp4324
(dp4325
g54
(dp4326
g62
I1
ssg63
Nsg56
(lp4327
g49
(g65
g51
NtRp4328
(dp4329
g54
(dp4330
sg63
g4324
sg56
(lp4331
g49
(g70
g51
NtRp4332
(dp4333
g54
(dp4334
sg63
g4328
sg56
(lp4335
g49
(g50
g51
NtRp4336
(dp4337
g54
(dp4338
g62
I1
ssg63
g4332
sg56
(lp4339
g4141
(S's\x08\x00\x00\x00This App'
tRp4340
asbasbasbag49
(g65
g51
NtRp4341
(dp4342
g54
(dp4343
sg63
g4324
sg56
(lp4344
g49
(g70
g51
NtRp4345
(dp4346
g54
(dp4347
sg63
g4341
sg56
(lp4348
g49
(g50
g51
NtRp4349
(dp4350
g54
(dp4351
g62
I1
ssg63
g4345
sg56
(lp4352
I00
asbasbasbag49
(g65
g51
NtRp4353
(dp4354
g54
(dp4355
sg63
g4324
sg56
(lp4356
g49
(g70
g51
NtRp4357
(dp4358
g54
(dp4359
sg63
g4353
sg56
(lp4360
g49
(g50
g51
NtRp4361
(dp4362
g54
(dp4363
g62
I1
ssg63
g4357
sg56
(lp4364
S'/admin/default/design/hellow'
p4365
asbasbasbag49
(g65
g51
NtRp4366
(dp4367
g54
(dp4368
sg63
g4324
sg56
(lp4369
g49
(g70
g51
NtRp4370
(dp4371
g54
(dp4372
sg63
g4366
sg56
(lp4373
g49
(g50
g51
NtRp4374
(dp4375
g54
(dp4376
g62
I1
ssg63
g4370
sg56
(lp4377
(lp4378
(g4141
(S't\n\x00\x00\x00Controller'
tRp4379
I00
S'/admin/default/edit/hellow/controllers/slot.py'
tp4380
a(g4141
(S't\x04\x00\x00\x00View'
tRp4381
I00
S'/admin/default/edit/hellow/views/slot/show.html'
tp4382
a(g4141
(S't\x06\x00\x00\x00Layout'
tRp4383
I00
S'/admin/default/edit/hellow/views/layout.html'
tp4384
a(g4141
(S't\n\x00\x00\x00Stylesheet'
tRp4385
I00
S'/admin/default/edit/hellow/static/css/web2py.css'
tp4386
a(g4141
(S's\x08\x00\x00\x00DB Model'
tRp4387
I00
S'/admin/default/edit/hellow/models/db.py'
tp4388
a(g4141
(S's\n\x00\x00\x00Menu Model'
tRp4389
I00
S'/admin/default/edit/hellow/models/menu.py'
tp4390
a(g4141
(S't\x08\x00\x00\x00Database'
tRp4391
I00
S'/hellow/appadmin/index'
tp4392
a(g4141
(S't\x06\x00\x00\x00Errors'
tRp4393
I00
S'/admin/default/errors/hellow'
tp4394
a(g4141
(S't\x05\x00\x00\x00About'
tRp4395
I00
S'/admin/default/about/hellow'
tp4396
aasbasbasbasbasbasbasbag49
(g65
g51
NtRp4397
(dp4398
g54
(dp4399
sg63
g4254
sg56
(lp4400
g49
(g70
g51
NtRp4401
(dp4402
g54
(dp4403
sg63
g4397
sg56
(lp4404
g49
(g50
g51
NtRp4405
(dp4406
g54
(dp4407
g62
I2
ssg63
g4401
sg56
(lp4408
g49
(g58
g51
NtRp4409
(dp4410
g54
(dp4411
g62
I1
ssg63
Nsg56
(lp4412
g49
(g65
g51
NtRp4413
(dp4414
g54
(dp4415
sg63
g4409
sg56
(lp4416
g49
(g70
g51
NtRp4417
(dp4418
g54
(dp4419
sg63
g4413
sg56
(lp4420
g49
(g50
g51
NtRp4421
(dp4422
g54
(dp4423
g62
I1
ssg63
g4417
sg56
(lp4424
S'web2py.com'
p4425
asbasbasbag49
(g65
g51
NtRp4426
(dp4427
g54
(dp4428
sg63
g4409
sg56
(lp4429
g49
(g70
g51
NtRp4430
(dp4431
g54
(dp4432
sg63
g4426
sg56
(lp4433
g49
(g50
g51
NtRp4434
(dp4435
g54
(dp4436
g62
I1
ssg63
g4430
sg56
(lp4437
I00
asbasbasbag49
(g65
g51
NtRp4438
(dp4439
g54
(dp4440
sg63
g4409
sg56
(lp4441
g49
(g70
g51
NtRp4442
(dp4443
g54
(dp4444
sg63
g4438
sg56
(lp4445
g49
(g50
g51
NtRp4446
(dp4447
g54
(dp4448
g62
I1
ssg63
g4442
sg56
(lp4449
S'http://www.web2py.com'
p4450
asbasbasbag49
(g65
g51
NtRp4451
(dp4452
g54
(dp4453
sg63
g4409
sg56
(lp4454
g49
(g70
g51
NtRp4455
(dp4456
g54
(dp4457
sg63
g4451
sg56
(lp4458
g49
(g50
g51
NtRp4459
(dp4460
g54
(dp4461
g62
I1
ssg63
g4455
sg56
(lp4462
(lp4463
(g4141
(S't\x08\x00\x00\x00Download'
tRp4464
I00
S'http://www.web2py.com/examples/default/download'
p4465
tp4466
a(g4141
(S't\x07\x00\x00\x00Support'
tRp4467
I00
S'http://www.web2py.com/examples/default/support'
p4468
tp4469
a(g4141
(S't\x04\x00\x00\x00Demo'
tRp4470
I00
S'http://web2py.com/demo_admin'
p4471
tp4472
a(g4141
(S's\x0e\x00\x00\x00Quick Examples'
tRp4473
I00
S'http://web2py.com/examples/default/examples'
p4474
tp4475
a(g4141
(S't\x03\x00\x00\x00FAQ'
tRp4476
I00
S'http://web2py.com/AlterEgo'
p4477
tp4478
a(g4141
(S't\x06\x00\x00\x00Videos'
tRp4479
I00
S'http://www.web2py.com/examples/default/videos/'
p4480
tp4481
a(g4141
(S's\x11\x00\x00\x00Free Applications'
tRp4482
I00
S'http://web2py.com/appliances'
p4483
tp4484
a(g4141
(S't\x07\x00\x00\x00Plugins'
tRp4485
I00
S'http://web2py.com/plugins'
p4486
tp4487
a(g4141
(S't\x07\x00\x00\x00Layouts'
tRp4488
I00
S'http://web2py.com/layouts'
p4489
tp4490
a(g4141
(S't\x07\x00\x00\x00Recipes'
tRp4491
I00
S'http://web2pyslices.com/'
p4492
tp4493
a(g4141
(S't\x08\x00\x00\x00Semantic'
tRp4494
I00
S'http://web2py.com/semantic'
p4495
tp4496
aasbasbasbasbasbasbasbag49
(g65
g51
NtRp4497
(dp4498
g54
(dp4499
sg63
g4254
sg56
(lp4500
g49
(g70
g51
NtRp4501
(dp4502
g54
(dp4503
sg63
g4497
sg56
(lp4504
g49
(g50
g51
NtRp4505
(dp4506
g54
(dp4507
g62
I2
ssg63
g4501
sg56
(lp4508
g49
(g58
g51
NtRp4509
(dp4510
g54
(dp4511
g62
I1
ssg63
Nsg56
(lp4512
g49
(g65
g51
NtRp4513
(dp4514
g54
(dp4515
sg63
g4509
sg56
(lp4516
g49
(g70
g51
NtRp4517
(dp4518
g54
(dp4519
sg63
g4513
sg56
(lp4520
g49
(g50
g51
NtRp4521
(dp4522
g54
(dp4523
g62
I1
ssg63
g4517
sg56
(lp4524
g4141
(S't\r\x00\x00\x00Documentation'
tRp4525
asbasbasbag49
(g65
g51
NtRp4526
(dp4527
g54
(dp4528
sg63
g4509
sg56
(lp4529
g49
(g70
g51
NtRp4530
(dp4531
g54
(dp4532
sg63
g4526
sg56
(lp4533
g49
(g50
g51
NtRp4534
(dp4535
g54
(dp4536
g62
I1
ssg63
g4530
sg56
(lp4537
I00
asbasbasbag49
(g65
g51
NtRp4538
(dp4539
g54
(dp4540
sg63
g4509
sg56
(lp4541
g49
(g70
g51
NtRp4542
(dp4543
g54
(dp4544
sg63
g4538
sg56
(lp4545
g49
(g50
g51
NtRp4546
(dp4547
g54
(dp4548
g62
I1
ssg63
g4542
sg56
(lp4549
S'http://www.web2py.com/book'
p4550
asbasbasbag49
(g65
g51
NtRp4551
(dp4552
g54
(dp4553
sg63
g4509
sg56
(lp4554
g49
(g70
g51
NtRp4555
(dp4556
g54
(dp4557
sg63
g4551
sg56
(lp4558
g49
(g50
g51
NtRp4559
(dp4560
g54
(dp4561
g62
I1
ssg63
g4555
sg56
(lp4562
(lp4563
(g4141
(S't\x07\x00\x00\x00Preface'
tRp4564
I00
S'http://www.web2py.com/book/default/chapter/00'
p4565
tp4566
a(g4141
(S't\x0c\x00\x00\x00Introduction'
tRp4567
I00
S'http://www.web2py.com/book/default/chapter/01'
p4568
tp4569
a(g4141
(S't\x06\x00\x00\x00Python'
tRp4570
I00
S'http://www.web2py.com/book/default/chapter/02'
p4571
tp4572
a(g4141
(S't\x08\x00\x00\x00Overview'
tRp4573
I00
S'http://www.web2py.com/book/default/chapter/03'
p4574
tp4575
a(g4141
(S's\x08\x00\x00\x00The Core'
tRp4576
I00
S'http://www.web2py.com/book/default/chapter/04'
p4577
tp4578
a(g4141
(S's\t\x00\x00\x00The Views'
tRp4579
I00
S'http://www.web2py.com/book/default/chapter/05'
p4580
tp4581
a(g4141
(S't\x08\x00\x00\x00Database'
tRp4582
I00
S'http://www.web2py.com/book/default/chapter/06'
p4583
tp4584
a(g4141
(S's\x14\x00\x00\x00Forms and Validators'
tRp4585
I00
S'http://www.web2py.com/book/default/chapter/07'
p4586
tp4587
a(g4141
(S's\r\x00\x00\x00Email and SMS'
tRp4588
I00
S'http://www.web2py.com/book/default/chapter/08'
p4589
tp4590
a(g4141
(S's\x0e\x00\x00\x00Access Control'
tRp4591
I00
S'http://www.web2py.com/book/default/chapter/09'
p4592
tp4593
a(g4141
(S't\x08\x00\x00\x00Services'
tRp4594
I00
S'http://www.web2py.com/book/default/chapter/10'
p4595
tp4596
a(g4141
(S's\x0c\x00\x00\x00Ajax Recipes'
tRp4597
I00
S'http://www.web2py.com/book/default/chapter/11'
p4598
tp4599
a(g4141
(S's\x16\x00\x00\x00Components and Plugins'
tRp4600
I00
S'http://www.web2py.com/book/default/chapter/12'
p4601
tp4602
a(g4141
(S's\x12\x00\x00\x00Deployment Recipes'
tRp4603
I00
S'http://www.web2py.com/book/default/chapter/13'
p4604
tp4605
a(g4141
(S's\r\x00\x00\x00Other Recipes'
tRp4606
I00
S'http://www.web2py.com/book/default/chapter/14'
p4607
tp4608
a(g4141
(S's\r\x00\x00\x00Buy this book'
tRp4609
I00
S'http://stores.lulu.com/web2py'
p4610
tp4611
aasbasbasbasbasbasbasbag49
(g65
g51
NtRp4612
(dp4613
g54
(dp4614
sg63
g4254
sg56
(lp4615
g49
(g70
g51
NtRp4616
(dp4617
g54
(dp4618
sg63
g4612
sg56
(lp4619
g49
(g50
g51
NtRp4620
(dp4621
g54
(dp4622
g62
I2
ssg63
g4616
sg56
(lp4623
g49
(g58
g51
NtRp4624
(dp4625
g54
(dp4626
g62
I1
ssg63
Nsg56
(lp4627
g49
(g65
g51
NtRp4628
(dp4629
g54
(dp4630
sg63
g4624
sg56
(lp4631
g49
(g70
g51
NtRp4632
(dp4633
g54
(dp4634
sg63
g4628
sg56
(lp4635
g49
(g50
g51
NtRp4636
(dp4637
g54
(dp4638
g62
I1
ssg63
g4632
sg56
(lp4639
g4141
(S't\t\x00\x00\x00Community'
tRp4640
asbasbasbag49
(g65
g51
NtRp4641
(dp4642
g54
(dp4643
sg63
g4624
sg56
(lp4644
g49
(g70
g51
NtRp4645
(dp4646
g54
(dp4647
sg63
g4641
sg56
(lp4648
g49
(g50
g51
NtRp4649
(dp4650
g54
(dp4651
g62
I1
ssg63
g4645
sg56
(lp4652
I00
asbasbasbag49
(g65
g51
NtRp4653
(dp4654
g54
(dp4655
sg63
g4624
sg56
(lp4656
g49
(g70
g51
NtRp4657
(dp4658
g54
(dp4659
sg63
g4653
sg56
(lp4660
g49
(g50
g51
NtRp4661
(dp4662
g54
(dp4663
g62
I1
ssg63
g4657
sg56
(lp4664
Nasbasbasbag49
(g65
g51
NtRp4665
(dp4666
g54
(dp4667
sg63
g4624
sg56
(lp4668
g49
(g70
g51
NtRp4669
(dp4670
g54
(dp4671
sg63
g4665
sg56
(lp4672
g49
(g50
g51
NtRp4673
(dp4674
g54
(dp4675
g62
I1
ssg63
g4669
sg56
(lp4676
(lp4677
(g4141
(S't\x06\x00\x00\x00Groups'
tRp4678
I00
S'http://www.web2py.com/examples/default/usergroups'
p4679
tp4680
a(g4141
(S't\x07\x00\x00\x00Twitter'
tRp4681
I00
S'http://twitter.com/web2py'
p4682
tp4683
a(g4141
(S's\t\x00\x00\x00Live Chat'
tRp4684
I00
S'http://webchat.freenode.net/?channels=web2py'
p4685
tp4686
aasbasbasbasbasbasbasbag49
(g65
g51
NtRp4687
(dp4688
g54
(dp4689
sg63
g4254
sg56
(lp4690
g49
(g70
g51
NtRp4691
(dp4692
g54
(dp4693
sg63
g4687
sg56
(lp4694
g49
(g50
g51
NtRp4695
(dp4696
g54
(dp4697
g62
I2
ssg63
g4691
sg56
(lp4698
g49
(g58
g51
NtRp4699
(dp4700
g54
(dp4701
g62
I1
ssg63
Nsg56
(lp4702
g49
(g65
g51
NtRp4703
(dp4704
g54
(dp4705
sg63
g4699
sg56
(lp4706
g49
(g70
g51
NtRp4707
(dp4708
g54
(dp4709
sg63
g4703
sg56
(lp4710
g49
(g50
g51
NtRp4711
(dp4712
g54
(dp4713
g62
I1
ssg63
g4707
sg56
(lp4714
g4141
(S't\x07\x00\x00\x00Plugins'
tRp4715
asbasbasbag49
(g65
g51
NtRp4716
(dp4717
g54
(dp4718
sg63
g4699
sg56
(lp4719
g49
(g70
g51
NtRp4720
(dp4721
g54
(dp4722
sg63
g4716
sg56
(lp4723
g49
(g50
g51
NtRp4724
(dp4725
g54
(dp4726
g62
I1
ssg63
g4720
sg56
(lp4727
I00
asbasbasbag49
(g65
g51
NtRp4728
(dp4729
g54
(dp4730
sg63
g4699
sg56
(lp4731
g49
(g70
g51
NtRp4732
(dp4733
g54
(dp4734
sg63
g4728
sg56
(lp4735
g49
(g50
g51
NtRp4736
(dp4737
g54
(dp4738
g62
I1
ssg63
g4732
sg56
(lp4739
Nasbasbasbag49
(g65
g51
NtRp4740
(dp4741
g54
(dp4742
sg63
g4699
sg56
(lp4743
g49
(g70
g51
NtRp4744
(dp4745
g54
(dp4746
sg63
g4740
sg56
(lp4747
g49
(g50
g51
NtRp4748
(dp4749
g54
(dp4750
g62
I1
ssg63
g4744
sg56
(lp4751
(lp4752
(S'plugin_wiki'
p4753
I00
S'http://web2py.com/examples/default/download'
p4754
tp4755
a(g4141
(S's\r\x00\x00\x00Other Plugins'
tRp4756
I00
g4486
tp4757
a(g4141
(S's\x0e\x00\x00\x00Layout Plugins'
tRp4758
I00
g4489
tp4759
aasbasbasbasbasbasbasbasbasbasbasbasbasbasbasbasbasbasbasbag49
(g65
g51
NtRp4760
(dp4761
g54
(dp4762
sg63
g3627
sg56
(lp4763
g49
(g70
g51
NtRp4764
(dp4765
g54
(dp4766
g74
g75
ssg63
g4760
sg56
(lp4767
S'meta'
p4768
asbag49
(g70
g51
NtRp4769
(dp4770
g54
(dp4771
g81
g82
ssg63
g4760
sg56
(lp4772
S':'
asbag49
(g70
g51
NtRp4773
(dp4774
g54
(dp4775
sg63
g4760
sg56
(lp4776
g49
(g50
g51
NtRp4777
(dp4778
g54
(dp4779
g62
I5
ssg63
g4773
sg56
(lp4780
g49
(g58
g51
NtRp4781
(dp4782
g54
(dp4783
g62
I4
ssg63
Nsg56
(lp4784
g49
(g65
g51
NtRp4785
(dp4786
g54
(dp4787
sg63
g4781
sg56
(lp4788
g49
(g70
g51
NtRp4789
(dp4790
g54
(dp4791
g74
g75
ssg63
g4785
sg56
(lp4792
S'author'
p4793
asbag49
(g70
g51
NtRp4794
(dp4795
g54
(dp4796
g81
g82
ssg63
g4785
sg56
(lp4797
S':'
asbag49
(g70
g51
NtRp4798
(dp4799
g54
(dp4800
sg63
g4785
sg56
(lp4801
g49
(g50
g51
NtRp4802
(dp4803
g54
(dp4804
g62
I4
ssg63
g4798
sg56
(lp4805
S'Your Name <you@example.com>'
p4806
asbasbasbag49
(g65
g51
NtRp4807
(dp4808
g54
(dp4809
sg63
g4781
sg56
(lp4810
g49
(g70
g51
NtRp4811
(dp4812
g54
(dp4813
g74
g75
ssg63
g4807
sg56
(lp4814
S'description'
p4815
asbag49
(g70
g51
NtRp4816
(dp4817
g54
(dp4818
g81
g82
ssg63
g4807
sg56
(lp4819
S':'
asbag49
(g70
g51
NtRp4820
(dp4821
g54
(dp4822
sg63
g4807
sg56
(lp4823
g49
(g50
g51
NtRp4824
(dp4825
g54
(dp4826
g62
I4
ssg63
g4820
sg56
(lp4827
S'a cool new app'
p4828
asbasbasbag49
(g65
g51
NtRp4829
(dp4830
g54
(dp4831
sg63
g4781
sg56
(lp4832
g49
(g70
g51
NtRp4833
(dp4834
g54
(dp4835
g74
g75
ssg63
g4829
sg56
(lp4836
S'generator'
p4837
asbag49
(g70
g51
NtRp4838
(dp4839
g54
(dp4840
g81
g82
ssg63
g4829
sg56
(lp4841
S':'
asbag49
(g70
g51
NtRp4842
(dp4843
g54
(dp4844
sg63
g4829
sg56
(lp4845
g49
(g50
g51
NtRp4846
(dp4847
g54
(dp4848
g62
I4
ssg63
g4842
sg56
(lp4849
S'Web2py Web Framework'
p4850
asbasbasbag49
(g65
g51
NtRp4851
(dp4852
g54
(dp4853
sg63
g4781
sg56
(lp4854
g49
(g70
g51
NtRp4855
(dp4856
g54
(dp4857
g74
g75
ssg63
g4851
sg56
(lp4858
S'keywords'
p4859
asbag49
(g70
g51
NtRp4860
(dp4861
g54
(dp4862
g81
g82
ssg63
g4851
sg56
(lp4863
S':'
asbag49
(g70
g51
NtRp4864
(dp4865
g54
(dp4866
sg63
g4851
sg56
(lp4867
g49
(g50
g51
NtRp4868
(dp4869
g54
(dp4870
g62
I4
ssg63
g4864
sg56
(lp4871
S'web2py, python, framework'
p4872
asbasbasbasbasbasbasbag49
(g65
g51
NtRp4873
(dp4874
g54
(dp4875
sg63
g3627
sg56
(lp4876
g49
(g70
g51
NtRp4877
(dp4878
g54
(dp4879
g74
g75
ssg63
g4873
sg56
(lp4880
S'models_to_run'
p4881
asbag49
(g70
g51
NtRp4882
(dp4883
g54
(dp4884
g81
g82
ssg63
g4873
sg56
(lp4885
S':'
asbag49
(g70
g51
NtRp4886
(dp4887
g54
(dp4888
sg63
g4873
sg56
(lp4889
g49
(g50
g51
NtRp4890
(dp4891
g54
(dp4892
g62
I5
ssg63
g4886
sg56
(lp4893
g49
(g58
g51
NtRp4894
(dp4895
g54
(dp4896
g62
I4
ssg63
Nsg56
(lp4897
g49
(g65
g51
NtRp4898
(dp4899
g54
(dp4900
sg63
g4894
sg56
(lp4901
g49
(g70
g51
NtRp4902
(dp4903
g54
(dp4904
sg63
g4898
sg56
(lp4905
g49
(g50
g51
NtRp4906
(dp4907
g54
(dp4908
g62
I4
ssg63
g4902
sg56
(lp4909
S'^\\w+\\.py$'
p4910
asbasbasbag49
(g65
g51
NtRp4911
(dp4912
g54
(dp4913
sg63
g4894
sg56
(lp4914
g49
(g70
g51
NtRp4915
(dp4916
g54
(dp4917
sg63
g4911
sg56
(lp4918
g49
(g50
g51
NtRp4919
(dp4920
g54
(dp4921
g62
I4
ssg63
g4915
sg56
(lp4922
S'^slot/\\w+\\.py$'
p4923
asbasbasbag49
(g65
g51
NtRp4924
(dp4925
g54
(dp4926
sg63
g4894
sg56
(lp4927
g49
(g70
g51
NtRp4928
(dp4929
g54
(dp4930
sg63
g4924
sg56
(lp4931
g49
(g50
g51
NtRp4932
(dp4933
g54
(dp4934
g62
I4
ssg63
g4928
sg56
(lp4935
S'^slot/show/\\w+\\.py$'
p4936
asbasbasbasbasbasbasbag49
(g65
g51
NtRp4937
(dp4938
g54
(dp4939
sg63
g3627
sg56
(lp4940
g49
(g70
g51
NtRp4941
(dp4942
g54
(dp4943
g74
g75
ssg63
g4937
sg56
(lp4944
S'postprocessing'
p4945
asbag49
(g70
g51
NtRp4946
(dp4947
g54
(dp4948
g81
g82
ssg63
g4937
sg56
(lp4949
S':'
asbag49
(g70
g51
NtRp4950
(dp4951
g54
(dp4952
sg63
g4937
sg56
(lp4953
g49
(g50
g51
NtRp4954
(dp4955
g54
(dp4956
g62
I5
ssg63
g4950
sg56
(lp4957
g49
(g58
g51
NtRp4958
(dp4959
g54
(dp4960
g62
I4
ssg63
Nsg56
(lp4961
sbasbasbasbag49
(g65
g51
NtRp4962
(dp4963
g54
(dp4964
sg63
g3627
sg56
(lp4965
g49
(g70
g51
NtRp4966
(dp4967
g54
(dp4968
g74
g75
ssg63
g4962
sg56
(lp4969
S'session_cookie_expires'
p4970
asbag49
(g70
g51
NtRp4971
(dp4972
g54
(dp4973
g81
g82
ssg63
g4962
sg56
(lp4974
S':'
asbag49
(g70
g51
NtRp4975
(dp4976
g54
(dp4977
sg63
g4962
sg56
(lp4978
g49
(g50
g51
NtRp4979
(dp4980
g54
(dp4981
g62
I5
ssg63
g4975
sg56
(lp4982
S'None'
p4983
asbasbasbag49
(g65
g51
NtRp4984
(dp4985
g54
(dp4986
sg63
g3627
sg56
(lp4987
g49
(g70
g51
NtRp4988
(dp4989
g54
(dp4990
g74
g75
ssg63
g4984
sg56
(lp4991
S'session_data_name'
p4992
asbag49
(g70
g51
NtRp4993
(dp4994
g54
(dp4995
g81
g82
ssg63
g4984
sg56
(lp4996
S':'
asbag49
(g70
g51
NtRp4997
(dp4998
g54
(dp4999
sg63
g4984
sg56
(lp5000
g49
(g50
g51
NtRp5001
(dp5002
g54
(dp5003
g62
I5
ssg63
g4997
sg56
(lp5004
S'session_data_hellow'
p5005
asbasbasbag49
(g65
g51
NtRp5006
(dp5007
g54
(dp5008
sg63
g3627
sg56
(lp5009
g49
(g70
g51
NtRp5010
(dp5011
g54
(dp5012
g74
g75
ssg63
g5006
sg56
(lp5013
S'session_file'
p5014
asbag49
(g70
g51
NtRp5015
(dp5016
g54
(dp5017
g81
g82
ssg63
g5006
sg56
(lp5018
S':'
asbag49
(g70
g51
NtRp5019
(dp5020
g54
(dp5021
sg63
g5006
sg56
(lp5022
g49
(g50
g51
NtRp5023
(dp5024
g54
(dp5025
g62
I5
ssg63
g5019
sg56
(lp5026
S"<open file '/Users/zamechek/Downloads/web2py/web2py.app/Contents/Resources/applications/hellow/sessions/127.0.0.1-f0c125e4-5d5e-4805-8c10-bdfc66367729', mode 'rb+' at 0xa4529f8>"
p5027
asbasbasbag49
(g65
g51
NtRp5028
(dp5029
g54
(dp5030
sg63
g3627
sg56
(lp5031
g49
(g70
g51
NtRp5032
(dp5033
g54
(dp5034
g74
g75
ssg63
g5028
sg56
(lp5035
S'session_filename'
p5036
asbag49
(g70
g51
NtRp5037
(dp5038
g54
(dp5039
g81
g82
ssg63
g5028
sg56
(lp5040
S':'
asbag49
(g70
g51
NtRp5041
(dp5042
g54
(dp5043
sg63
g5028
sg56
(lp5044
g49
(g50
g51
NtRp5045
(dp5046
g54
(dp5047
g62
I5
ssg63
g5041
sg56
(lp5048
S'/Users/zamechek/Downloads/web2py/web2py.app/Contents/Resources/applications/hellow/sessions/127.0.0.1-f0c125e4-5d5e-4805-8c10-bdfc66367729'
p5049
asbasbasbag49
(g65
g51
NtRp5050
(dp5051
g54
(dp5052
sg63
g3627
sg56
(lp5053
g49
(g70
g51
NtRp5054
(dp5055
g54
(dp5056
g74
g75
ssg63
g5050
sg56
(lp5057
S'session_id'
p5058
asbag49
(g70
g51
NtRp5059
(dp5060
g54
(dp5061
g81
g82
ssg63
g5050
sg56
(lp5062
S':'
asbag49
(g70
g51
NtRp5063
(dp5064
g54
(dp5065
sg63
g5050
sg56
(lp5066
g49
(g50
g51
NtRp5067
(dp5068
g54
(dp5069
g62
I5
ssg63
g5063
sg56
(lp5070
g624
asbasbasbag49
(g65
g51
NtRp5071
(dp5072
g54
(dp5073
sg63
g3627
sg56
(lp5074
g49
(g70
g51
NtRp5075
(dp5076
g54
(dp5077
g74
g75
ssg63
g5071
sg56
(lp5078
S'session_id_name'
p5079
asbag49
(g70
g51
NtRp5080
(dp5081
g54
(dp5082
g81
g82
ssg63
g5071
sg56
(lp5083
S':'
asbag49
(g70
g51
NtRp5084
(dp5085
g54
(dp5086
sg63
g5071
sg56
(lp5087
g49
(g50
g51
NtRp5088
(dp5089
g54
(dp5090
g62
I5
ssg63
g5084
sg56
(lp5091
g3684
asbasbasbag49
(g65
g51
NtRp5092
(dp5093
g54
(dp5094
sg63
g3627
sg56
(lp5095
g49
(g70
g51
NtRp5096
(dp5097
g54
(dp5098
g74
g75
ssg63
g5092
sg56
(lp5099
S'session_locked'
p5100
asbag49
(g70
g51
NtRp5101
(dp5102
g54
(dp5103
g81
g82
ssg63
g5092
sg56
(lp5104
S':'
asbag49
(g70
g51
NtRp5105
(dp5106
g54
(dp5107
sg63
g5092
sg56
(lp5108
g49
(g50
g51
NtRp5109
(dp5110
g54
(dp5111
g62
I5
ssg63
g5105
sg56
(lp5112
g1260
asbasbasbag49
(g65
g51
NtRp5113
(dp5114
g54
(dp5115
sg63
g3627
sg56
(lp5116
g49
(g70
g51
NtRp5117
(dp5118
g54
(dp5119
g74
g75
ssg63
g5113
sg56
(lp5120
S'session_new'
p5121
asbag49
(g70
g51
NtRp5122
(dp5123
g54
(dp5124
g81
g82
ssg63
g5113
sg56
(lp5125
S':'
asbag49
(g70
g51
NtRp5126
(dp5127
g54
(dp5128
sg63
g5113
sg56
(lp5129
g49
(g50
g51
NtRp5130
(dp5131
g54
(dp5132
g62
I5
ssg63
g5126
sg56
(lp5133
g92
asbasbasbag49
(g65
g51
NtRp5134
(dp5135
g54
(dp5136
sg63
g3627
sg56
(lp5137
g49
(g70
g51
NtRp5138
(dp5139
g54
(dp5140
g74
g75
ssg63
g5134
sg56
(lp5141
S'session_storage_type'
p5142
asbag49
(g70
g51
NtRp5143
(dp5144
g54
(dp5145
g81
g82
ssg63
g5134
sg56
(lp5146
S':'
asbag49
(g70
g51
NtRp5147
(dp5148
g54
(dp5149
sg63
g5134
sg56
(lp5150
g49
(g50
g51
NtRp5151
(dp5152
g54
(dp5153
g62
I5
ssg63
g5147
sg56
(lp5154
g3518
asbasbasbag49
(g65
g51
NtRp5155
(dp5156
g54
(dp5157
sg63
g3627
sg56
(lp5158
g49
(g70
g51
NtRp5159
(dp5160
g54
(dp5161
g74
g75
ssg63
g5155
sg56
(lp5162
S'status'
p5163
asbag49
(g70
g51
NtRp5164
(dp5165
g54
(dp5166
g81
g82
ssg63
g5155
sg56
(lp5167
S':'
asbag49
(g70
g51
NtRp5168
(dp5169
g54
(dp5170
sg63
g5155
sg56
(lp5171
g49
(g50
g51
NtRp5172
(dp5173
g54
(dp5174
g62
I5
ssg63
g5168
sg56
(lp5175
S'200'
p5176
asbasbasbag49
(g65
g51
NtRp5177
(dp5178
g54
(dp5179
sg63
g3627
sg56
(lp5180
g49
(g70
g51
NtRp5181
(dp5182
g54
(dp5183
g74
g75
ssg63
g5177
sg56
(lp5184
S'subtitle'
p5185
asbag49
(g70
g51
NtRp5186
(dp5187
g54
(dp5188
g81
g82
ssg63
g5177
sg56
(lp5189
S':'
asbag49
(g70
g51
NtRp5190
(dp5191
g54
(dp5192
sg63
g5177
sg56
(lp5193
g49
(g50
g51
NtRp5194
(dp5195
g54
(dp5196
g62
I5
ssg63
g5190
sg56
(lp5197
g4141
(S's\r\x00\x00\x00customize me!'
tRp5198
asbasbasbag49
(g65
g51
NtRp5199
(dp5200
g54
(dp5201
sg63
g3627
sg56
(lp5202
g49
(g70
g51
NtRp5203
(dp5204
g54
(dp5205
g74
g75
ssg63
g5199
sg56
(lp5206
S'title'
p5207
asbag49
(g70
g51
NtRp5208
(dp5209
g54
(dp5210
g81
g82
ssg63
g5199
sg56
(lp5211
S':'
asbag49
(g70
g51
NtRp5212
(dp5213
g54
(dp5214
sg63
g5199
sg56
(lp5215
g49
(g50
g51
NtRp5216
(dp5217
g54
(dp5218
g62
I5
ssg63
g5212
sg56
(lp5219
S'Hellow'
p5220
asbasbasbag49
(g65
g51
NtRp5221
(dp5222
g54
(dp5223
sg63
g3627
sg56
(lp5224
g49
(g70
g51
NtRp5225
(dp5226
g54
(dp5227
g74
g75
ssg63
g5221
sg56
(lp5228
S'view'
p5229
asbag49
(g70
g51
NtRp5230
(dp5231
g54
(dp5232
g81
g82
ssg63
g5221
sg56
(lp5233
S':'
asbag49
(g70
g51
NtRp5234
(dp5235
g54
(dp5236
sg63
g5221
sg56
(lp5237
g49
(g50
g51
NtRp5238
(dp5239
g54
(dp5240
g62
I5
ssg63
g5234
sg56
(lp5241
S'slot/show.html'
p5242
asbasbasbasbasbsS'locals'
p5243
(dp5244
S'slot'
p5245
S"<Row {'odd': 9, 'id': 9}>"
p5246
sS'id'
p5247
S"'9'"
p5248
sssS'traceback'
p5249
S'Traceback (most recent call last):\n  File "/home/mdipierro/web2py/gluon/restricted.py", line 212, in restricted\n  File "/Users/zamechek/Downloads/web2py/web2py.app/Contents/Resources/applications/hellow/controllers/slot.py", line 16, in <module>\n  File "/home/mdipierro/web2py/gluon/globals.py", line 193, in <lambda>\n  File "/Users/zamechek/Downloads/web2py/web2py.app/Contents/Resources/applications/hellow/controllers/slot.py", line 9, in show\nTypeError: unsupported operand type(s) for +: \'bool\' and \'str\'\n'
p5250
s.