(dp1
S'output'
p2
S"<type 'exceptions.SyntaxError'> Field: unknown field type: DECIMAL for odds"
p3
sS'layer'
p4
S'/Users/zamechek/Downloads/web2py/web2py.app/Contents/Resources/applications/hellow/models/slot.py'
p5
sS'code'
p6
S'# coding: utf8\ndbOBJECT = DAL(\'sqlite://storage.sqlite\',pool_size=1,check_reserved=[\'all\'])\ndbOBJECT.define_table("slots",\n      SQLField("odds", "DECIMAL", notnull=True, default=None))\n'
p7
sS'snapshot'
p8
(dp9
S'exception'
p10
(dp11
S'__getslice__'
p12
S"<method-wrapper '__getslice__' of exceptions.SyntaxError object at 0xa4574b0>"
p13
sS'text'
p14
S'None'
p15
sS'__str__'
p16
S"<method-wrapper '__str__' of exceptions.SyntaxError object at 0xa4574b0>"
p17
sS'__reduce__'
p18
S'<built-in method __reduce__ of exceptions.SyntaxError object at 0xa4574b0>'
p19
sS'__dict__'
p20
S'{}'
p21
sS'__init__'
p22
S"<method-wrapper '__init__' of exceptions.SyntaxError object at 0xa4574b0>"
p23
sS'__setattr__'
p24
S"<method-wrapper '__setattr__' of exceptions.SyntaxError object at 0xa4574b0>"
p25
sS'__reduce_ex__'
p26
S'<built-in method __reduce_ex__ of exceptions.SyntaxError object at 0xa4574b0>'
p27
sS'__new__'
p28
S'<built-in method __new__ of type object at 0x5f9320>'
p29
sS'__class__'
p30
S"<type 'exceptions.SyntaxError'>"
p31
sS'filename'
p32
S'None'
p33
sS'lineno'
p34
S'None'
p35
sS'msg'
p36
S"'Field: unknown field type: DECIMAL for odds'"
p37
sS'__doc__'
p38
S"'Invalid syntax.'"
p39
sS'__getitem__'
p40
S"<method-wrapper '__getitem__' of exceptions.SyntaxError object at 0xa4574b0>"
p41
sS'__setstate__'
p42
S'<built-in method __setstate__ of exceptions.SyntaxError object at 0xa4574b0>'
p43
sS'__getattribute__'
p44
S"<method-wrapper '__getattribute__' of exceptions.SyntaxError object at 0xa4574b0>"
p45
sS'print_file_and_line'
p46
S'None'
p47
sS'args'
p48
S"('Field: unknown field type: DECIMAL for odds',)"
p49
sS'offset'
p50
S'None'
p51
sS'__delattr__'
p52
S"<method-wrapper '__delattr__' of exceptions.SyntaxError object at 0xa4574b0>"
p53
sS'__repr__'
p54
S"<method-wrapper '__repr__' of exceptions.SyntaxError object at 0xa4574b0>"
p55
sS'__hash__'
p56
S"<method-wrapper '__hash__' of exceptions.SyntaxError object at 0xa4574b0>"
p57
ssS'evalue'
p58
S'Field: unknown field type: DECIMAL for odds'
p59
sS'request'
p60
ccopy_reg
_reconstructor
p61
(cgluon.html
BEAUTIFY
p62
c__builtin__
object
p63
NtRp64
(dp65
S'attributes'
p66
(dp67
sS'components'
p68
(lp69
g61
(cgluon.html
TABLE
p70
g63
NtRp71
(dp72
g66
(dp73
S'level'
p74
I5
ssS'parent'
p75
Nsg68
(lp76
g61
(cgluon.html
TR
p77
g63
NtRp78
(dp79
g66
(dp80
sg75
g71
sg68
(lp81
g61
(cgluon.html
TD
p82
g63
NtRp83
(dp84
g66
(dp85
S'_style'
p86
S'font-weight:bold;vertical-align:top'
p87
ssg75
g78
sg68
(lp88
S'ajax'
p89
asbag61
(g82
g63
NtRp90
(dp91
g66
(dp92
S'_valign'
p93
S'top'
p94
ssg75
g78
sg68
(lp95
S':'
asbag61
(g82
g63
NtRp96
(dp97
g66
(dp98
sg75
g78
sg68
(lp99
g61
(g62
g63
NtRp100
(dp101
g66
(dp102
g74
I5
ssg75
g96
sg68
(lp103
S'False'
p104
asbasbasbag61
(g77
g63
NtRp105
(dp106
g66
(dp107
sg75
g71
sg68
(lp108
g61
(g82
g63
NtRp109
(dp110
g66
(dp111
g86
g87
ssg75
g105
sg68
(lp112
S'application'
p113
asbag61
(g82
g63
NtRp114
(dp115
g66
(dp116
g93
g94
ssg75
g105
sg68
(lp117
S':'
asbag61
(g82
g63
NtRp118
(dp119
g66
(dp120
sg75
g105
sg68
(lp121
g61
(g62
g63
NtRp122
(dp123
g66
(dp124
g74
I5
ssg75
g118
sg68
(lp125
S'hellow'
p126
asbasbasbag61
(g77
g63
NtRp127
(dp128
g66
(dp129
sg75
g71
sg68
(lp130
g61
(g82
g63
NtRp131
(dp132
g66
(dp133
g86
g87
ssg75
g127
sg68
(lp134
g48
asbag61
(g82
g63
NtRp135
(dp136
g66
(dp137
g93
g94
ssg75
g127
sg68
(lp138
S':'
asbag61
(g82
g63
NtRp139
(dp140
g66
(dp141
sg75
g127
sg68
(lp142
g61
(g62
g63
NtRp143
(dp144
g66
(dp145
g74
I5
ssg75
g139
sg68
(lp146
g61
(g70
g63
NtRp147
(dp148
g66
(dp149
g74
I4
ssg75
Nsg68
(lp150
sbasbasbasbag61
(g77
g63
NtRp151
(dp152
g66
(dp153
sg75
g71
sg68
(lp154
g61
(g82
g63
NtRp155
(dp156
g66
(dp157
g86
g87
ssg75
g151
sg68
(lp158
S'body'
p159
asbag61
(g82
g63
NtRp160
(dp161
g66
(dp162
g93
g94
ssg75
g151
sg68
(lp163
S':'
asbag61
(g82
g63
NtRp164
(dp165
g66
(dp166
sg75
g151
sg68
(lp167
g61
(g62
g63
NtRp168
(dp169
g66
(dp170
g74
I5
ssg75
g164
sg68
(lp171
S'<cStringIO.StringO object at 0xa9566a0>'
p172
asbasbasbag61
(g77
g63
NtRp173
(dp174
g66
(dp175
sg75
g71
sg68
(lp176
g61
(g82
g63
NtRp177
(dp178
g66
(dp179
g86
g87
ssg75
g173
sg68
(lp180
S'cid'
p181
asbag61
(g82
g63
NtRp182
(dp183
g66
(dp184
g93
g94
ssg75
g173
sg68
(lp185
S':'
asbag61
(g82
g63
NtRp186
(dp187
g66
(dp188
sg75
g173
sg68
(lp189
g61
(g62
g63
NtRp190
(dp191
g66
(dp192
g74
I5
ssg75
g186
sg68
(lp193
S'None'
p194
asbasbasbag61
(g77
g63
NtRp195
(dp196
g66
(dp197
sg75
g71
sg68
(lp198
g61
(g82
g63
NtRp199
(dp200
g66
(dp201
g86
g87
ssg75
g195
sg68
(lp202
S'client'
p203
asbag61
(g82
g63
NtRp204
(dp205
g66
(dp206
g93
g94
ssg75
g195
sg68
(lp207
S':'
asbag61
(g82
g63
NtRp208
(dp209
g66
(dp210
sg75
g195
sg68
(lp211
g61
(g62
g63
NtRp212
(dp213
g66
(dp214
g74
I5
ssg75
g208
sg68
(lp215
S'127.0.0.1'
p216
asbasbasbag61
(g77
g63
NtRp217
(dp218
g66
(dp219
sg75
g71
sg68
(lp220
g61
(g82
g63
NtRp221
(dp222
g66
(dp223
g86
g87
ssg75
g217
sg68
(lp224
S'controller'
p225
asbag61
(g82
g63
NtRp226
(dp227
g66
(dp228
g93
g94
ssg75
g217
sg68
(lp229
S':'
asbag61
(g82
g63
NtRp230
(dp231
g66
(dp232
sg75
g217
sg68
(lp233
g61
(g62
g63
NtRp234
(dp235
g66
(dp236
g74
I5
ssg75
g230
sg68
(lp237
S'appadmin'
p238
asbasbasbag61
(g77
g63
NtRp239
(dp240
g66
(dp241
sg75
g71
sg68
(lp242
g61
(g82
g63
NtRp243
(dp244
g66
(dp245
g86
g87
ssg75
g239
sg68
(lp246
S'cookies'
p247
asbag61
(g82
g63
NtRp248
(dp249
g66
(dp250
g93
g94
ssg75
g239
sg68
(lp251
S':'
asbag61
(g82
g63
NtRp252
(dp253
g66
(dp254
sg75
g239
sg68
(lp255
g61
(g62
g63
NtRp256
(dp257
g66
(dp258
g74
I5
ssg75
g252
sg68
(lp259
g61
(g70
g63
NtRp260
(dp261
g66
(dp262
g74
I4
ssg75
Nsg68
(lp263
g61
(g77
g63
NtRp264
(dp265
g66
(dp266
sg75
g260
sg68
(lp267
g61
(g82
g63
NtRp268
(dp269
g66
(dp270
g86
g87
ssg75
g264
sg68
(lp271
S'session_data_examples'
p272
asbag61
(g82
g63
NtRp273
(dp274
g66
(dp275
g93
g94
ssg75
g264
sg68
(lp276
S':'
asbag61
(g82
g63
NtRp277
(dp278
g66
(dp279
sg75
g264
sg68
(lp280
g61
(g62
g63
NtRp281
(dp282
g66
(dp283
g74
I4
ssg75
g277
sg68
(lp284
S'6590e93a92ae056071f3d5d23c5da718:8mcaYr3jD5OS9Hm5obiuGpOS1hqNCswQLIoFlRGZYdaR8FVZ84s0w9vMAEY5L6DK8gvTZcQowujTbbDj-ns3802lRCPwkkcburTr1lmHorC9hQtD5W0yZ89O_mdlKuHPlwEItXQ5_WAFut_RTkzpuyS0nQWmuEGxVuLk0DXc0ndh8WySsXoErgPnINq0aXqKzueVqcmNBWwB7tluAV8oSQyVVnjPajiXfmT2moAb3dPnaGC3yePavU4XAXO8FVarzcdAnZ4bnTo9uMJJvT2hL9oQVbtD8YY8yMHurMAdtIpf8wcGfXNr6SjFTzpMxYtAg1tv7XdXpUPETM1Ox80jE-qsgQd_Xr1FA049-xsoxpdA4EzMUoouiTJ995NWCOJNjo6VICpuSvfOJBlnOLd8aLxueLUtuyScbkLd2jOCQIsF2aV6hhIZWDXpJwlCKPkIckeaXaaHeE4EqTZR6N0JnA=='
p285
ag61
(g70
g63
NtRp286
(dp287
g66
(dp288
g74
I3
ssg75
Nsg68
(lp289
g61
(g77
g63
NtRp290
(dp291
g66
(dp292
sg75
g286
sg68
(lp293
g61
(g82
g63
NtRp294
(dp295
g66
(dp296
g86
g87
ssg75
g290
sg68
(lp297
S'comment'
p298
asbag61
(g82
g63
NtRp299
(dp300
g66
(dp301
g93
g94
ssg75
g290
sg68
(lp302
S':'
asbag61
(g82
g63
NtRp303
(dp304
g66
(dp305
sg75
g290
sg68
(lp306
g61
(g62
g63
NtRp307
(dp308
g66
(dp309
g74
I3
ssg75
g303
sg68
(lp310
S''
asbasbasbag61
(g77
g63
NtRp311
(dp312
g66
(dp313
sg75
g286
sg68
(lp314
g61
(g82
g63
NtRp315
(dp316
g66
(dp317
g86
g87
ssg75
g311
sg68
(lp318
S'domain'
p319
asbag61
(g82
g63
NtRp320
(dp321
g66
(dp322
g93
g94
ssg75
g311
sg68
(lp323
S':'
asbag61
(g82
g63
NtRp324
(dp325
g66
(dp326
sg75
g311
sg68
(lp327
g61
(g62
g63
NtRp328
(dp329
g66
(dp330
g74
I3
ssg75
g324
sg68
(lp331
S''
asbasbasbag61
(g77
g63
NtRp332
(dp333
g66
(dp334
sg75
g286
sg68
(lp335
g61
(g82
g63
NtRp336
(dp337
g66
(dp338
g86
g87
ssg75
g332
sg68
(lp339
S'expires'
p340
asbag61
(g82
g63
NtRp341
(dp342
g66
(dp343
g93
g94
ssg75
g332
sg68
(lp344
S':'
asbag61
(g82
g63
NtRp345
(dp346
g66
(dp347
sg75
g332
sg68
(lp348
g61
(g62
g63
NtRp349
(dp350
g66
(dp351
g74
I3
ssg75
g345
sg68
(lp352
S''
asbasbasbag61
(g77
g63
NtRp353
(dp354
g66
(dp355
sg75
g286
sg68
(lp356
g61
(g82
g63
NtRp357
(dp358
g66
(dp359
g86
g87
ssg75
g353
sg68
(lp360
S'max-age'
p361
asbag61
(g82
g63
NtRp362
(dp363
g66
(dp364
g93
g94
ssg75
g353
sg68
(lp365
S':'
asbag61
(g82
g63
NtRp366
(dp367
g66
(dp368
sg75
g353
sg68
(lp369
g61
(g62
g63
NtRp370
(dp371
g66
(dp372
g74
I3
ssg75
g366
sg68
(lp373
S''
asbasbasbag61
(g77
g63
NtRp374
(dp375
g66
(dp376
sg75
g286
sg68
(lp377
g61
(g82
g63
NtRp378
(dp379
g66
(dp380
g86
g87
ssg75
g374
sg68
(lp381
S'path'
p382
asbag61
(g82
g63
NtRp383
(dp384
g66
(dp385
g93
g94
ssg75
g374
sg68
(lp386
S':'
asbag61
(g82
g63
NtRp387
(dp388
g66
(dp389
sg75
g374
sg68
(lp390
g61
(g62
g63
NtRp391
(dp392
g66
(dp393
g74
I3
ssg75
g387
sg68
(lp394
S''
asbasbasbag61
(g77
g63
NtRp395
(dp396
g66
(dp397
sg75
g286
sg68
(lp398
g61
(g82
g63
NtRp399
(dp400
g66
(dp401
g86
g87
ssg75
g395
sg68
(lp402
S'secure'
p403
asbag61
(g82
g63
NtRp404
(dp405
g66
(dp406
g93
g94
ssg75
g395
sg68
(lp407
S':'
asbag61
(g82
g63
NtRp408
(dp409
g66
(dp410
sg75
g395
sg68
(lp411
g61
(g62
g63
NtRp412
(dp413
g66
(dp414
g74
I3
ssg75
g408
sg68
(lp415
S''
asbasbasbag61
(g77
g63
NtRp416
(dp417
g66
(dp418
sg75
g286
sg68
(lp419
g61
(g82
g63
NtRp420
(dp421
g66
(dp422
g86
g87
ssg75
g416
sg68
(lp423
S'version'
p424
asbag61
(g82
g63
NtRp425
(dp426
g66
(dp427
g93
g94
ssg75
g416
sg68
(lp428
S':'
asbag61
(g82
g63
NtRp429
(dp430
g66
(dp431
sg75
g416
sg68
(lp432
g61
(g62
g63
NtRp433
(dp434
g66
(dp435
g74
I3
ssg75
g429
sg68
(lp436
S''
asbasbasbasbasbasbasbag61
(g77
g63
NtRp437
(dp438
g66
(dp439
sg75
g260
sg68
(lp440
g61
(g82
g63
NtRp441
(dp442
g66
(dp443
g86
g87
ssg75
g437
sg68
(lp444
S'session_id_admin'
p445
asbag61
(g82
g63
NtRp446
(dp447
g66
(dp448
g93
g94
ssg75
g437
sg68
(lp449
S':'
asbag61
(g82
g63
NtRp450
(dp451
g66
(dp452
sg75
g437
sg68
(lp453
g61
(g62
g63
NtRp454
(dp455
g66
(dp456
g74
I4
ssg75
g450
sg68
(lp457
S'127.0.0.1-66a1de5b-ba15-4b30-ba06-132c9e7969c1'
p458
ag61
(g70
g63
NtRp459
(dp460
g66
(dp461
g74
I3
ssg75
Nsg68
(lp462
g61
(g77
g63
NtRp463
(dp464
g66
(dp465
sg75
g459
sg68
(lp466
g61
(g82
g63
NtRp467
(dp468
g66
(dp469
g86
g87
ssg75
g463
sg68
(lp470
g298
asbag61
(g82
g63
NtRp471
(dp472
g66
(dp473
g93
g94
ssg75
g463
sg68
(lp474
S':'
asbag61
(g82
g63
NtRp475
(dp476
g66
(dp477
sg75
g463
sg68
(lp478
g61
(g62
g63
NtRp479
(dp480
g66
(dp481
g74
I3
ssg75
g475
sg68
(lp482
S''
asbasbasbag61
(g77
g63
NtRp483
(dp484
g66
(dp485
sg75
g459
sg68
(lp486
g61
(g82
g63
NtRp487
(dp488
g66
(dp489
g86
g87
ssg75
g483
sg68
(lp490
g319
asbag61
(g82
g63
NtRp491
(dp492
g66
(dp493
g93
g94
ssg75
g483
sg68
(lp494
S':'
asbag61
(g82
g63
NtRp495
(dp496
g66
(dp497
sg75
g483
sg68
(lp498
g61
(g62
g63
NtRp499
(dp500
g66
(dp501
g74
I3
ssg75
g495
sg68
(lp502
S''
asbasbasbag61
(g77
g63
NtRp503
(dp504
g66
(dp505
sg75
g459
sg68
(lp506
g61
(g82
g63
NtRp507
(dp508
g66
(dp509
g86
g87
ssg75
g503
sg68
(lp510
g340
asbag61
(g82
g63
NtRp511
(dp512
g66
(dp513
g93
g94
ssg75
g503
sg68
(lp514
S':'
asbag61
(g82
g63
NtRp515
(dp516
g66
(dp517
sg75
g503
sg68
(lp518
g61
(g62
g63
NtRp519
(dp520
g66
(dp521
g74
I3
ssg75
g515
sg68
(lp522
S''
asbasbasbag61
(g77
g63
NtRp523
(dp524
g66
(dp525
sg75
g459
sg68
(lp526
g61
(g82
g63
NtRp527
(dp528
g66
(dp529
g86
g87
ssg75
g523
sg68
(lp530
g361
asbag61
(g82
g63
NtRp531
(dp532
g66
(dp533
g93
g94
ssg75
g523
sg68
(lp534
S':'
asbag61
(g82
g63
NtRp535
(dp536
g66
(dp537
sg75
g523
sg68
(lp538
g61
(g62
g63
NtRp539
(dp540
g66
(dp541
g74
I3
ssg75
g535
sg68
(lp542
S''
asbasbasbag61
(g77
g63
NtRp543
(dp544
g66
(dp545
sg75
g459
sg68
(lp546
g61
(g82
g63
NtRp547
(dp548
g66
(dp549
g86
g87
ssg75
g543
sg68
(lp550
g382
asbag61
(g82
g63
NtRp551
(dp552
g66
(dp553
g93
g94
ssg75
g543
sg68
(lp554
S':'
asbag61
(g82
g63
NtRp555
(dp556
g66
(dp557
sg75
g543
sg68
(lp558
g61
(g62
g63
NtRp559
(dp560
g66
(dp561
g74
I3
ssg75
g555
sg68
(lp562
S''
asbasbasbag61
(g77
g63
NtRp563
(dp564
g66
(dp565
sg75
g459
sg68
(lp566
g61
(g82
g63
NtRp567
(dp568
g66
(dp569
g86
g87
ssg75
g563
sg68
(lp570
g403
asbag61
(g82
g63
NtRp571
(dp572
g66
(dp573
g93
g94
ssg75
g563
sg68
(lp574
S':'
asbag61
(g82
g63
NtRp575
(dp576
g66
(dp577
sg75
g563
sg68
(lp578
g61
(g62
g63
NtRp579
(dp580
g66
(dp581
g74
I3
ssg75
g575
sg68
(lp582
S''
asbasbasbag61
(g77
g63
NtRp583
(dp584
g66
(dp585
sg75
g459
sg68
(lp586
g61
(g82
g63
NtRp587
(dp588
g66
(dp589
g86
g87
ssg75
g583
sg68
(lp590
g424
asbag61
(g82
g63
NtRp591
(dp592
g66
(dp593
g93
g94
ssg75
g583
sg68
(lp594
S':'
asbag61
(g82
g63
NtRp595
(dp596
g66
(dp597
sg75
g583
sg68
(lp598
g61
(g62
g63
NtRp599
(dp600
g66
(dp601
g74
I3
ssg75
g595
sg68
(lp602
S''
asbasbasbasbasbasbasbag61
(g77
g63
NtRp603
(dp604
g66
(dp605
sg75
g260
sg68
(lp606
g61
(g82
g63
NtRp607
(dp608
g66
(dp609
g86
g87
ssg75
g603
sg68
(lp610
S'session_id_hellow'
p611
asbag61
(g82
g63
NtRp612
(dp613
g66
(dp614
g93
g94
ssg75
g603
sg68
(lp615
S':'
asbag61
(g82
g63
NtRp616
(dp617
g66
(dp618
sg75
g603
sg68
(lp619
g61
(g62
g63
NtRp620
(dp621
g66
(dp622
g74
I4
ssg75
g616
sg68
(lp623
S'127.0.0.1-f0c125e4-5d5e-4805-8c10-bdfc66367729'
p624
ag61
(g70
g63
NtRp625
(dp626
g66
(dp627
g74
I3
ssg75
Nsg68
(lp628
g61
(g77
g63
NtRp629
(dp630
g66
(dp631
sg75
g625
sg68
(lp632
g61
(g82
g63
NtRp633
(dp634
g66
(dp635
g86
g87
ssg75
g629
sg68
(lp636
g298
asbag61
(g82
g63
NtRp637
(dp638
g66
(dp639
g93
g94
ssg75
g629
sg68
(lp640
S':'
asbag61
(g82
g63
NtRp641
(dp642
g66
(dp643
sg75
g629
sg68
(lp644
g61
(g62
g63
NtRp645
(dp646
g66
(dp647
g74
I3
ssg75
g641
sg68
(lp648
S''
asbasbasbag61
(g77
g63
NtRp649
(dp650
g66
(dp651
sg75
g625
sg68
(lp652
g61
(g82
g63
NtRp653
(dp654
g66
(dp655
g86
g87
ssg75
g649
sg68
(lp656
g319
asbag61
(g82
g63
NtRp657
(dp658
g66
(dp659
g93
g94
ssg75
g649
sg68
(lp660
S':'
asbag61
(g82
g63
NtRp661
(dp662
g66
(dp663
sg75
g649
sg68
(lp664
g61
(g62
g63
NtRp665
(dp666
g66
(dp667
g74
I3
ssg75
g661
sg68
(lp668
S''
asbasbasbag61
(g77
g63
NtRp669
(dp670
g66
(dp671
sg75
g625
sg68
(lp672
g61
(g82
g63
NtRp673
(dp674
g66
(dp675
g86
g87
ssg75
g669
sg68
(lp676
g340
asbag61
(g82
g63
NtRp677
(dp678
g66
(dp679
g93
g94
ssg75
g669
sg68
(lp680
S':'
asbag61
(g82
g63
NtRp681
(dp682
g66
(dp683
sg75
g669
sg68
(lp684
g61
(g62
g63
NtRp685
(dp686
g66
(dp687
g74
I3
ssg75
g681
sg68
(lp688
S''
asbasbasbag61
(g77
g63
NtRp689
(dp690
g66
(dp691
sg75
g625
sg68
(lp692
g61
(g82
g63
NtRp693
(dp694
g66
(dp695
g86
g87
ssg75
g689
sg68
(lp696
g361
asbag61
(g82
g63
NtRp697
(dp698
g66
(dp699
g93
g94
ssg75
g689
sg68
(lp700
S':'
asbag61
(g82
g63
NtRp701
(dp702
g66
(dp703
sg75
g689
sg68
(lp704
g61
(g62
g63
NtRp705
(dp706
g66
(dp707
g74
I3
ssg75
g701
sg68
(lp708
S''
asbasbasbag61
(g77
g63
NtRp709
(dp710
g66
(dp711
sg75
g625
sg68
(lp712
g61
(g82
g63
NtRp713
(dp714
g66
(dp715
g86
g87
ssg75
g709
sg68
(lp716
g382
asbag61
(g82
g63
NtRp717
(dp718
g66
(dp719
g93
g94
ssg75
g709
sg68
(lp720
S':'
asbag61
(g82
g63
NtRp721
(dp722
g66
(dp723
sg75
g709
sg68
(lp724
g61
(g62
g63
NtRp725
(dp726
g66
(dp727
g74
I3
ssg75
g721
sg68
(lp728
S''
asbasbasbag61
(g77
g63
NtRp729
(dp730
g66
(dp731
sg75
g625
sg68
(lp732
g61
(g82
g63
NtRp733
(dp734
g66
(dp735
g86
g87
ssg75
g729
sg68
(lp736
g403
asbag61
(g82
g63
NtRp737
(dp738
g66
(dp739
g93
g94
ssg75
g729
sg68
(lp740
S':'
asbag61
(g82
g63
NtRp741
(dp742
g66
(dp743
sg75
g729
sg68
(lp744
g61
(g62
g63
NtRp745
(dp746
g66
(dp747
g74
I3
ssg75
g741
sg68
(lp748
S''
asbasbasbag61
(g77
g63
NtRp749
(dp750
g66
(dp751
sg75
g625
sg68
(lp752
g61
(g82
g63
NtRp753
(dp754
g66
(dp755
g86
g87
ssg75
g749
sg68
(lp756
g424
asbag61
(g82
g63
NtRp757
(dp758
g66
(dp759
g93
g94
ssg75
g749
sg68
(lp760
S':'
asbag61
(g82
g63
NtRp761
(dp762
g66
(dp763
sg75
g749
sg68
(lp764
g61
(g62
g63
NtRp765
(dp766
g66
(dp767
g74
I3
ssg75
g761
sg68
(lp768
S''
asbasbasbasbasbasbasbag61
(g77
g63
NtRp769
(dp770
g66
(dp771
sg75
g260
sg68
(lp772
g61
(g82
g63
NtRp773
(dp774
g66
(dp775
g86
g87
ssg75
g769
sg68
(lp776
S'session_id_slots'
p777
asbag61
(g82
g63
NtRp778
(dp779
g66
(dp780
g93
g94
ssg75
g769
sg68
(lp781
S':'
asbag61
(g82
g63
NtRp782
(dp783
g66
(dp784
sg75
g769
sg68
(lp785
g61
(g62
g63
NtRp786
(dp787
g66
(dp788
g74
I4
ssg75
g782
sg68
(lp789
S'127.0.0.1-c959d0b0-1e49-49e4-b6ce-60b17dcbfd08'
p790
ag61
(g70
g63
NtRp791
(dp792
g66
(dp793
g74
I3
ssg75
Nsg68
(lp794
g61
(g77
g63
NtRp795
(dp796
g66
(dp797
sg75
g791
sg68
(lp798
g61
(g82
g63
NtRp799
(dp800
g66
(dp801
g86
g87
ssg75
g795
sg68
(lp802
g298
asbag61
(g82
g63
NtRp803
(dp804
g66
(dp805
g93
g94
ssg75
g795
sg68
(lp806
S':'
asbag61
(g82
g63
NtRp807
(dp808
g66
(dp809
sg75
g795
sg68
(lp810
g61
(g62
g63
NtRp811
(dp812
g66
(dp813
g74
I3
ssg75
g807
sg68
(lp814
S''
asbasbasbag61
(g77
g63
NtRp815
(dp816
g66
(dp817
sg75
g791
sg68
(lp818
g61
(g82
g63
NtRp819
(dp820
g66
(dp821
g86
g87
ssg75
g815
sg68
(lp822
g319
asbag61
(g82
g63
NtRp823
(dp824
g66
(dp825
g93
g94
ssg75
g815
sg68
(lp826
S':'
asbag61
(g82
g63
NtRp827
(dp828
g66
(dp829
sg75
g815
sg68
(lp830
g61
(g62
g63
NtRp831
(dp832
g66
(dp833
g74
I3
ssg75
g827
sg68
(lp834
S''
asbasbasbag61
(g77
g63
NtRp835
(dp836
g66
(dp837
sg75
g791
sg68
(lp838
g61
(g82
g63
NtRp839
(dp840
g66
(dp841
g86
g87
ssg75
g835
sg68
(lp842
g340
asbag61
(g82
g63
NtRp843
(dp844
g66
(dp845
g93
g94
ssg75
g835
sg68
(lp846
S':'
asbag61
(g82
g63
NtRp847
(dp848
g66
(dp849
sg75
g835
sg68
(lp850
g61
(g62
g63
NtRp851
(dp852
g66
(dp853
g74
I3
ssg75
g847
sg68
(lp854
S''
asbasbasbag61
(g77
g63
NtRp855
(dp856
g66
(dp857
sg75
g791
sg68
(lp858
g61
(g82
g63
NtRp859
(dp860
g66
(dp861
g86
g87
ssg75
g855
sg68
(lp862
g361
asbag61
(g82
g63
NtRp863
(dp864
g66
(dp865
g93
g94
ssg75
g855
sg68
(lp866
S':'
asbag61
(g82
g63
NtRp867
(dp868
g66
(dp869
sg75
g855
sg68
(lp870
g61
(g62
g63
NtRp871
(dp872
g66
(dp873
g74
I3
ssg75
g867
sg68
(lp874
S''
asbasbasbag61
(g77
g63
NtRp875
(dp876
g66
(dp877
sg75
g791
sg68
(lp878
g61
(g82
g63
NtRp879
(dp880
g66
(dp881
g86
g87
ssg75
g875
sg68
(lp882
g382
asbag61
(g82
g63
NtRp883
(dp884
g66
(dp885
g93
g94
ssg75
g875
sg68
(lp886
S':'
asbag61
(g82
g63
NtRp887
(dp888
g66
(dp889
sg75
g875
sg68
(lp890
g61
(g62
g63
NtRp891
(dp892
g66
(dp893
g74
I3
ssg75
g887
sg68
(lp894
S''
asbasbasbag61
(g77
g63
NtRp895
(dp896
g66
(dp897
sg75
g791
sg68
(lp898
g61
(g82
g63
NtRp899
(dp900
g66
(dp901
g86
g87
ssg75
g895
sg68
(lp902
g403
asbag61
(g82
g63
NtRp903
(dp904
g66
(dp905
g93
g94
ssg75
g895
sg68
(lp906
S':'
asbag61
(g82
g63
NtRp907
(dp908
g66
(dp909
sg75
g895
sg68
(lp910
g61
(g62
g63
NtRp911
(dp912
g66
(dp913
g74
I3
ssg75
g907
sg68
(lp914
S''
asbasbasbag61
(g77
g63
NtRp915
(dp916
g66
(dp917
sg75
g791
sg68
(lp918
g61
(g82
g63
NtRp919
(dp920
g66
(dp921
g86
g87
ssg75
g915
sg68
(lp922
g424
asbag61
(g82
g63
NtRp923
(dp924
g66
(dp925
g93
g94
ssg75
g915
sg68
(lp926
S':'
asbag61
(g82
g63
NtRp927
(dp928
g66
(dp929
sg75
g915
sg68
(lp930
g61
(g62
g63
NtRp931
(dp932
g66
(dp933
g74
I3
ssg75
g927
sg68
(lp934
S''
asbasbasbasbasbasbasbag61
(g77
g63
NtRp935
(dp936
g66
(dp937
sg75
g260
sg68
(lp938
g61
(g82
g63
NtRp939
(dp940
g66
(dp941
g86
g87
ssg75
g935
sg68
(lp942
S'session_id_welcome'
p943
asbag61
(g82
g63
NtRp944
(dp945
g66
(dp946
g93
g94
ssg75
g935
sg68
(lp947
S':'
asbag61
(g82
g63
NtRp948
(dp949
g66
(dp950
sg75
g935
sg68
(lp951
g61
(g62
g63
NtRp952
(dp953
g66
(dp954
g74
I4
ssg75
g948
sg68
(lp955
S'127.0.0.1-245d6654-272e-49f5-968f-2cbd15b43359'
p956
ag61
(g70
g63
NtRp957
(dp958
g66
(dp959
g74
I3
ssg75
Nsg68
(lp960
g61
(g77
g63
NtRp961
(dp962
g66
(dp963
sg75
g957
sg68
(lp964
g61
(g82
g63
NtRp965
(dp966
g66
(dp967
g86
g87
ssg75
g961
sg68
(lp968
g298
asbag61
(g82
g63
NtRp969
(dp970
g66
(dp971
g93
g94
ssg75
g961
sg68
(lp972
S':'
asbag61
(g82
g63
NtRp973
(dp974
g66
(dp975
sg75
g961
sg68
(lp976
g61
(g62
g63
NtRp977
(dp978
g66
(dp979
g74
I3
ssg75
g973
sg68
(lp980
S''
asbasbasbag61
(g77
g63
NtRp981
(dp982
g66
(dp983
sg75
g957
sg68
(lp984
g61
(g82
g63
NtRp985
(dp986
g66
(dp987
g86
g87
ssg75
g981
sg68
(lp988
g319
asbag61
(g82
g63
NtRp989
(dp990
g66
(dp991
g93
g94
ssg75
g981
sg68
(lp992
S':'
asbag61
(g82
g63
NtRp993
(dp994
g66
(dp995
sg75
g981
sg68
(lp996
g61
(g62
g63
NtRp997
(dp998
g66
(dp999
g74
I3
ssg75
g993
sg68
(lp1000
S''
asbasbasbag61
(g77
g63
NtRp1001
(dp1002
g66
(dp1003
sg75
g957
sg68
(lp1004
g61
(g82
g63
NtRp1005
(dp1006
g66
(dp1007
g86
g87
ssg75
g1001
sg68
(lp1008
g340
asbag61
(g82
g63
NtRp1009
(dp1010
g66
(dp1011
g93
g94
ssg75
g1001
sg68
(lp1012
S':'
asbag61
(g82
g63
NtRp1013
(dp1014
g66
(dp1015
sg75
g1001
sg68
(lp1016
g61
(g62
g63
NtRp1017
(dp1018
g66
(dp1019
g74
I3
ssg75
g1013
sg68
(lp1020
S''
asbasbasbag61
(g77
g63
NtRp1021
(dp1022
g66
(dp1023
sg75
g957
sg68
(lp1024
g61
(g82
g63
NtRp1025
(dp1026
g66
(dp1027
g86
g87
ssg75
g1021
sg68
(lp1028
g361
asbag61
(g82
g63
NtRp1029
(dp1030
g66
(dp1031
g93
g94
ssg75
g1021
sg68
(lp1032
S':'
asbag61
(g82
g63
NtRp1033
(dp1034
g66
(dp1035
sg75
g1021
sg68
(lp1036
g61
(g62
g63
NtRp1037
(dp1038
g66
(dp1039
g74
I3
ssg75
g1033
sg68
(lp1040
S''
asbasbasbag61
(g77
g63
NtRp1041
(dp1042
g66
(dp1043
sg75
g957
sg68
(lp1044
g61
(g82
g63
NtRp1045
(dp1046
g66
(dp1047
g86
g87
ssg75
g1041
sg68
(lp1048
g382
asbag61
(g82
g63
NtRp1049
(dp1050
g66
(dp1051
g93
g94
ssg75
g1041
sg68
(lp1052
S':'
asbag61
(g82
g63
NtRp1053
(dp1054
g66
(dp1055
sg75
g1041
sg68
(lp1056
g61
(g62
g63
NtRp1057
(dp1058
g66
(dp1059
g74
I3
ssg75
g1053
sg68
(lp1060
S''
asbasbasbag61
(g77
g63
NtRp1061
(dp1062
g66
(dp1063
sg75
g957
sg68
(lp1064
g61
(g82
g63
NtRp1065
(dp1066
g66
(dp1067
g86
g87
ssg75
g1061
sg68
(lp1068
g403
asbag61
(g82
g63
NtRp1069
(dp1070
g66
(dp1071
g93
g94
ssg75
g1061
sg68
(lp1072
S':'
asbag61
(g82
g63
NtRp1073
(dp1074
g66
(dp1075
sg75
g1061
sg68
(lp1076
g61
(g62
g63
NtRp1077
(dp1078
g66
(dp1079
g74
I3
ssg75
g1073
sg68
(lp1080
S''
asbasbasbag61
(g77
g63
NtRp1081
(dp1082
g66
(dp1083
sg75
g957
sg68
(lp1084
g61
(g82
g63
NtRp1085
(dp1086
g66
(dp1087
g86
g87
ssg75
g1081
sg68
(lp1088
g424
asbag61
(g82
g63
NtRp1089
(dp1090
g66
(dp1091
g93
g94
ssg75
g1081
sg68
(lp1092
S':'
asbag61
(g82
g63
NtRp1093
(dp1094
g66
(dp1095
sg75
g1081
sg68
(lp1096
g61
(g62
g63
NtRp1097
(dp1098
g66
(dp1099
g74
I3
ssg75
g1093
sg68
(lp1100
S''
asbasbasbasbasbasbasbasbasbasbasbag61
(g77
g63
NtRp1101
(dp1102
g66
(dp1103
sg75
g71
sg68
(lp1104
g61
(g82
g63
NtRp1105
(dp1106
g66
(dp1107
g86
g87
ssg75
g1101
sg68
(lp1108
S'env'
p1109
asbag61
(g82
g63
NtRp1110
(dp1111
g66
(dp1112
g93
g94
ssg75
g1101
sg68
(lp1113
S':'
asbag61
(g82
g63
NtRp1114
(dp1115
g66
(dp1116
sg75
g1101
sg68
(lp1117
g61
(g62
g63
NtRp1118
(dp1119
g66
(dp1120
g74
I5
ssg75
g1114
sg68
(lp1121
g61
(g70
g63
NtRp1122
(dp1123
g66
(dp1124
g74
I4
ssg75
Nsg68
(lp1125
g61
(g77
g63
NtRp1126
(dp1127
g66
(dp1128
sg75
g1122
sg68
(lp1129
g61
(g82
g63
NtRp1130
(dp1131
g66
(dp1132
g86
g87
ssg75
g1126
sg68
(lp1133
S'app_folders'
p1134
asbag61
(g82
g63
NtRp1135
(dp1136
g66
(dp1137
g93
g94
ssg75
g1126
sg68
(lp1138
S':'
asbag61
(g82
g63
NtRp1139
(dp1140
g66
(dp1141
sg75
g1126
sg68
(lp1142
g61
(g62
g63
NtRp1143
(dp1144
g66
(dp1145
g74
I4
ssg75
g1139
sg68
(lp1146
S"set(['/Users/zamechek/Downloads/web2py/web2py.app/Contents/Resources/applications/examples/', '/Users/zamechek/Downloads/web2py/web2py.app/Contents/Resources/applications/hellow/', '/Users/zamechek/Downloads/web2py/web2py.app/Contents/Resources/applications/admin/', '/Users/zamechek/Downloads/web2py/web2py.app/Contents/Resources/applications/slots/', '/Users/zamechek/Downloads/web2py/web2py.app/Contents/Resources/applications/welcome/'])"
p1147
asbasbasbag61
(g77
g63
NtRp1148
(dp1149
g66
(dp1150
sg75
g1122
sg68
(lp1151
g61
(g82
g63
NtRp1152
(dp1153
g66
(dp1154
g86
g87
ssg75
g1148
sg68
(lp1155
S'applications_parent'
p1156
asbag61
(g82
g63
NtRp1157
(dp1158
g66
(dp1159
g93
g94
ssg75
g1148
sg68
(lp1160
S':'
asbag61
(g82
g63
NtRp1161
(dp1162
g66
(dp1163
sg75
g1148
sg68
(lp1164
g61
(g62
g63
NtRp1165
(dp1166
g66
(dp1167
g74
I4
ssg75
g1161
sg68
(lp1168
S'/Users/zamechek/Downloads/web2py/web2py.app/Contents/Resources'
p1169
asbasbasbag61
(g77
g63
NtRp1170
(dp1171
g66
(dp1172
sg75
g1122
sg68
(lp1173
g61
(g82
g63
NtRp1174
(dp1175
g66
(dp1176
g86
g87
ssg75
g1170
sg68
(lp1177
S'cmd_args'
p1178
asbag61
(g82
g63
NtRp1179
(dp1180
g66
(dp1181
g93
g94
ssg75
g1170
sg68
(lp1182
S':'
asbag61
(g82
g63
NtRp1183
(dp1184
g66
(dp1185
sg75
g1170
sg68
(lp1186
g61
(g62
g63
NtRp1187
(dp1188
g66
(dp1189
g74
I4
ssg75
g1183
sg68
(lp1190
g61
(g70
g63
NtRp1191
(dp1192
g66
(dp1193
g74
I3
ssg75
Nsg68
(lp1194
sbasbasbasbag61
(g77
g63
NtRp1195
(dp1196
g66
(dp1197
sg75
g1122
sg68
(lp1198
g61
(g82
g63
NtRp1199
(dp1200
g66
(dp1201
g86
g87
ssg75
g1195
sg68
(lp1202
S'cmd_options'
p1203
asbag61
(g82
g63
NtRp1204
(dp1205
g66
(dp1206
g93
g94
ssg75
g1195
sg68
(lp1207
S':'
asbag61
(g82
g63
NtRp1208
(dp1209
g66
(dp1210
sg75
g1195
sg68
(lp1211
g61
(g62
g63
NtRp1212
(dp1213
g66
(dp1214
g74
I4
ssg75
g1208
sg68
(lp1215
S"<Values at 0x32c8f58: {'verbose': False, 'ip': '127.0.0.1', 'with_scheduler': False, 'ips': ['130.91.151.157'], 'shutdown_timeout': 5, 'taskbar': False, 'port': 8000, 'maxthreads': None, 'softcron': False, 'server_name': 'hntvlan531.0924.wlan.wireless-pennnet.upenn.edu', 'bpython': False, 'nogui': False, 'pid_filename': 'httpserver.pid', 'extcron': False, 'runcron': False, 'run_system_tests': False, 'test': None, 'folder': '/Users/zamechek/Downloads/web2py/web2py.app/Contents/Resources', 'config': '', 'import_models': False, 'winservice': '', 'shell': None, 'run': '', 'log_filename': 'httpserver.log', 'debuglevel': 30, 'args': [''], 'socket_timeout': 5, 'ssl_ca_certificate': None, 'scheduler': None, 'profiler_filename': None, 'ssl_private_key': '', 'scheduler_groups': None, 'password': '<ask>', 'request_queue_size': 5, 'ssl_certificate': '', 'cronjob': False, 'numthreads': None, 'quiet': False, 'interfaces': None, 'minthreads': None, 'timeout': 10, 'plain': False, 'nobanner': False}>"
p1216
asbasbasbag61
(g77
g63
NtRp1217
(dp1218
g66
(dp1219
sg75
g1122
sg68
(lp1220
g61
(g82
g63
NtRp1221
(dp1222
g66
(dp1223
g86
g87
ssg75
g1217
sg68
(lp1224
S'db_sessions'
p1225
asbag61
(g82
g63
NtRp1226
(dp1227
g66
(dp1228
g93
g94
ssg75
g1217
sg68
(lp1229
S':'
asbag61
(g82
g63
NtRp1230
(dp1231
g66
(dp1232
sg75
g1217
sg68
(lp1233
g61
(g62
g63
NtRp1234
(dp1235
g66
(dp1236
g74
I4
ssg75
g1230
sg68
(lp1237
S'set([])'
p1238
asbasbasbag61
(g77
g63
NtRp1239
(dp1240
g66
(dp1241
sg75
g1122
sg68
(lp1242
g61
(g82
g63
NtRp1243
(dp1244
g66
(dp1245
g86
g87
ssg75
g1239
sg68
(lp1246
S'debugging'
p1247
asbag61
(g82
g63
NtRp1248
(dp1249
g66
(dp1250
g93
g94
ssg75
g1239
sg68
(lp1251
S':'
asbag61
(g82
g63
NtRp1252
(dp1253
g66
(dp1254
sg75
g1239
sg68
(lp1255
g61
(g62
g63
NtRp1256
(dp1257
g66
(dp1258
g74
I4
ssg75
g1252
sg68
(lp1259
S'True'
p1260
asbasbasbag61
(g77
g63
NtRp1261
(dp1262
g66
(dp1263
sg75
g1122
sg68
(lp1264
g61
(g82
g63
NtRp1265
(dp1266
g66
(dp1267
g86
g87
ssg75
g1261
sg68
(lp1268
S'gluon_parent'
p1269
asbag61
(g82
g63
NtRp1270
(dp1271
g66
(dp1272
g93
g94
ssg75
g1261
sg68
(lp1273
S':'
asbag61
(g82
g63
NtRp1274
(dp1275
g66
(dp1276
sg75
g1261
sg68
(lp1277
g61
(g62
g63
NtRp1278
(dp1279
g66
(dp1280
g74
I4
ssg75
g1274
sg68
(lp1281
S'/Users/zamechek/Downloads/web2py/web2py.app/Contents/Resources'
p1282
asbasbasbag61
(g77
g63
NtRp1283
(dp1284
g66
(dp1285
sg75
g1122
sg68
(lp1286
g61
(g82
g63
NtRp1287
(dp1288
g66
(dp1289
g86
g87
ssg75
g1283
sg68
(lp1290
S'http_accept'
p1291
asbag61
(g82
g63
NtRp1292
(dp1293
g66
(dp1294
g93
g94
ssg75
g1283
sg68
(lp1295
S':'
asbag61
(g82
g63
NtRp1296
(dp1297
g66
(dp1298
sg75
g1283
sg68
(lp1299
g61
(g62
g63
NtRp1300
(dp1301
g66
(dp1302
g74
I4
ssg75
g1296
sg68
(lp1303
S'text/html,application/xhtml+xml,application/xml;q=0.9,*/*;q=0.8'
p1304
asbasbasbag61
(g77
g63
NtRp1305
(dp1306
g66
(dp1307
sg75
g1122
sg68
(lp1308
g61
(g82
g63
NtRp1309
(dp1310
g66
(dp1311
g86
g87
ssg75
g1305
sg68
(lp1312
S'http_accept_charset'
p1313
asbag61
(g82
g63
NtRp1314
(dp1315
g66
(dp1316
g93
g94
ssg75
g1305
sg68
(lp1317
S':'
asbag61
(g82
g63
NtRp1318
(dp1319
g66
(dp1320
sg75
g1305
sg68
(lp1321
g61
(g62
g63
NtRp1322
(dp1323
g66
(dp1324
g74
I4
ssg75
g1318
sg68
(lp1325
S'ISO-8859-1,utf-8;q=0.7,*;q=0.3'
p1326
asbasbasbag61
(g77
g63
NtRp1327
(dp1328
g66
(dp1329
sg75
g1122
sg68
(lp1330
g61
(g82
g63
NtRp1331
(dp1332
g66
(dp1333
g86
g87
ssg75
g1327
sg68
(lp1334
S'http_accept_encoding'
p1335
asbag61
(g82
g63
NtRp1336
(dp1337
g66
(dp1338
g93
g94
ssg75
g1327
sg68
(lp1339
S':'
asbag61
(g82
g63
NtRp1340
(dp1341
g66
(dp1342
sg75
g1327
sg68
(lp1343
g61
(g62
g63
NtRp1344
(dp1345
g66
(dp1346
g74
I4
ssg75
g1340
sg68
(lp1347
S'gzip,deflate,sdch'
p1348
asbasbasbag61
(g77
g63
NtRp1349
(dp1350
g66
(dp1351
sg75
g1122
sg68
(lp1352
g61
(g82
g63
NtRp1353
(dp1354
g66
(dp1355
g86
g87
ssg75
g1349
sg68
(lp1356
S'http_accept_language'
p1357
asbag61
(g82
g63
NtRp1358
(dp1359
g66
(dp1360
g93
g94
ssg75
g1349
sg68
(lp1361
S':'
asbag61
(g82
g63
NtRp1362
(dp1363
g66
(dp1364
sg75
g1349
sg68
(lp1365
g61
(g62
g63
NtRp1366
(dp1367
g66
(dp1368
g74
I4
ssg75
g1362
sg68
(lp1369
S'en-US,en;q=0.8'
p1370
asbasbasbag61
(g77
g63
NtRp1371
(dp1372
g66
(dp1373
sg75
g1122
sg68
(lp1374
g61
(g82
g63
NtRp1375
(dp1376
g66
(dp1377
g86
g87
ssg75
g1371
sg68
(lp1378
S'http_connection'
p1379
asbag61
(g82
g63
NtRp1380
(dp1381
g66
(dp1382
g93
g94
ssg75
g1371
sg68
(lp1383
S':'
asbag61
(g82
g63
NtRp1384
(dp1385
g66
(dp1386
sg75
g1371
sg68
(lp1387
g61
(g62
g63
NtRp1388
(dp1389
g66
(dp1390
g74
I4
ssg75
g1384
sg68
(lp1391
S'keep-alive'
p1392
asbasbasbag61
(g77
g63
NtRp1393
(dp1394
g66
(dp1395
sg75
g1122
sg68
(lp1396
g61
(g82
g63
NtRp1397
(dp1398
g66
(dp1399
g86
g87
ssg75
g1393
sg68
(lp1400
S'http_cookie'
p1401
asbag61
(g82
g63
NtRp1402
(dp1403
g66
(dp1404
g93
g94
ssg75
g1393
sg68
(lp1405
S':'
asbag61
(g82
g63
NtRp1406
(dp1407
g66
(dp1408
sg75
g1393
sg68
(lp1409
g61
(g62
g63
NtRp1410
(dp1411
g66
(dp1412
g74
I4
ssg75
g1406
sg68
(lp1413
S'session_id_welcome=127.0.0.1-245d6654-272e-49f5-968f-2cbd15b43359; session_id_slots=127.0.0.1-c959d0b0-1e49-49e4-b6ce-60b17dcbfd08; session_data_examples="6590e93a92ae056071f3d5d23c5da718:8mcaYr3jD5OS9Hm5obiuGpOS1hqNCswQLIoFlRGZYdaR8FVZ84s0w9vMAEY5L6DK8gvTZcQowujTbbDj-ns3802lRCPwkkcburTr1lmHorC9hQtD5W0yZ89O_mdlKuHPlwEItXQ5_WAFut_RTkzpuyS0nQWmuEGxVuLk0DXc0ndh8WySsXoErgPnINq0aXqKzueVqcmNBWwB7tluAV8oSQyVVnjPajiXfmT2moAb3dPnaGC3yePavU4XAXO8FVarzcdAnZ4bnTo9uMJJvT2hL9oQVbtD8YY8yMHurMAdtIpf8wcGfXNr6SjFTzpMxYtAg1tv7XdXpUPETM1Ox80jE-qsgQd_Xr1FA049-xsoxpdA4EzMUoouiTJ995NWCOJNjo6VICpuSvfOJBlnOLd8aLxueLUtuyScbkLd2jOCQIsF2aV6hhIZWDXpJwlCKPkIckeaXaaHeE4EqTZR6N0JnA=="; session_id_hellow=127.0.0.1-f0c125e4-5d5e-4805-8c10-bdfc66367729; session_id_admin=127.0.0.1-66a1de5b-ba15-4b30-ba06-132c9e7969c1'
p1414
asbasbasbag61
(g77
g63
NtRp1415
(dp1416
g66
(dp1417
sg75
g1122
sg68
(lp1418
g61
(g82
g63
NtRp1419
(dp1420
g66
(dp1421
g86
g87
ssg75
g1415
sg68
(lp1422
S'http_host'
p1423
asbag61
(g82
g63
NtRp1424
(dp1425
g66
(dp1426
g93
g94
ssg75
g1415
sg68
(lp1427
S':'
asbag61
(g82
g63
NtRp1428
(dp1429
g66
(dp1430
sg75
g1415
sg68
(lp1431
g61
(g62
g63
NtRp1432
(dp1433
g66
(dp1434
g74
I4
ssg75
g1428
sg68
(lp1435
S'127.0.0.1:8887'
p1436
asbasbasbag61
(g77
g63
NtRp1437
(dp1438
g66
(dp1439
sg75
g1122
sg68
(lp1440
g61
(g82
g63
NtRp1441
(dp1442
g66
(dp1443
g86
g87
ssg75
g1437
sg68
(lp1444
S'http_referer'
p1445
asbag61
(g82
g63
NtRp1446
(dp1447
g66
(dp1448
g93
g94
ssg75
g1437
sg68
(lp1449
S':'
asbag61
(g82
g63
NtRp1450
(dp1451
g66
(dp1452
sg75
g1437
sg68
(lp1453
g61
(g62
g63
NtRp1454
(dp1455
g66
(dp1456
g74
I4
ssg75
g1450
sg68
(lp1457
S'http://127.0.0.1:8887/admin/default/design/hellow'
p1458
asbasbasbag61
(g77
g63
NtRp1459
(dp1460
g66
(dp1461
sg75
g1122
sg68
(lp1462
g61
(g82
g63
NtRp1463
(dp1464
g66
(dp1465
g86
g87
ssg75
g1459
sg68
(lp1466
S'http_user_agent'
p1467
asbag61
(g82
g63
NtRp1468
(dp1469
g66
(dp1470
g93
g94
ssg75
g1459
sg68
(lp1471
S':'
asbag61
(g82
g63
NtRp1472
(dp1473
g66
(dp1474
sg75
g1459
sg68
(lp1475
g61
(g62
g63
NtRp1476
(dp1477
g66
(dp1478
g74
I4
ssg75
g1472
sg68
(lp1479
S'Mozilla/5.0 (Macintosh; Intel Mac OS X 10_8_3) AppleWebKit/537.22 (KHTML, like Gecko) Chrome/25.0.1364.172 Safari/537.22'
p1480
asbasbasbag61
(g77
g63
NtRp1481
(dp1482
g66
(dp1483
sg75
g1122
sg68
(lp1484
g61
(g82
g63
NtRp1485
(dp1486
g66
(dp1487
g86
g87
ssg75
g1481
sg68
(lp1488
S'is_jython'
p1489
asbag61
(g82
g63
NtRp1490
(dp1491
g66
(dp1492
g93
g94
ssg75
g1481
sg68
(lp1493
S':'
asbag61
(g82
g63
NtRp1494
(dp1495
g66
(dp1496
sg75
g1481
sg68
(lp1497
g61
(g62
g63
NtRp1498
(dp1499
g66
(dp1500
g74
I4
ssg75
g1494
sg68
(lp1501
g104
asbasbasbag61
(g77
g63
NtRp1502
(dp1503
g66
(dp1504
sg75
g1122
sg68
(lp1505
g61
(g82
g63
NtRp1506
(dp1507
g66
(dp1508
g86
g87
ssg75
g1502
sg68
(lp1509
S'is_pypy'
p1510
asbag61
(g82
g63
NtRp1511
(dp1512
g66
(dp1513
g93
g94
ssg75
g1502
sg68
(lp1514
S':'
asbag61
(g82
g63
NtRp1515
(dp1516
g66
(dp1517
sg75
g1502
sg68
(lp1518
g61
(g62
g63
NtRp1519
(dp1520
g66
(dp1521
g74
I4
ssg75
g1515
sg68
(lp1522
g104
asbasbasbag61
(g77
g63
NtRp1523
(dp1524
g66
(dp1525
sg75
g1122
sg68
(lp1526
g61
(g82
g63
NtRp1527
(dp1528
g66
(dp1529
g86
g87
ssg75
g1523
sg68
(lp1530
S'local_hosts'
p1531
asbag61
(g82
g63
NtRp1532
(dp1533
g66
(dp1534
g93
g94
ssg75
g1523
sg68
(lp1535
S':'
asbag61
(g82
g63
NtRp1536
(dp1537
g66
(dp1538
sg75
g1523
sg68
(lp1539
g61
(g62
g63
NtRp1540
(dp1541
g66
(dp1542
g74
I4
ssg75
g1536
sg68
(lp1543
g61
(g70
g63
NtRp1544
(dp1545
g66
(dp1546
g74
I3
ssg75
Nsg68
(lp1547
g61
(g77
g63
NtRp1548
(dp1549
g66
(dp1550
sg75
g1544
sg68
(lp1551
g61
(g82
g63
NtRp1552
(dp1553
g66
(dp1554
sg75
g1548
sg68
(lp1555
g61
(g62
g63
NtRp1556
(dp1557
g66
(dp1558
g74
I3
ssg75
g1552
sg68
(lp1559
S'130.91.151.157'
p1560
asbasbasbag61
(g77
g63
NtRp1561
(dp1562
g66
(dp1563
sg75
g1544
sg68
(lp1564
g61
(g82
g63
NtRp1565
(dp1566
g66
(dp1567
sg75
g1561
sg68
(lp1568
g61
(g62
g63
NtRp1569
(dp1570
g66
(dp1571
g74
I3
ssg75
g1565
sg68
(lp1572
S'::1'
p1573
asbasbasbag61
(g77
g63
NtRp1574
(dp1575
g66
(dp1576
sg75
g1544
sg68
(lp1577
g61
(g82
g63
NtRp1578
(dp1579
g66
(dp1580
sg75
g1574
sg68
(lp1581
g61
(g62
g63
NtRp1582
(dp1583
g66
(dp1584
g74
I3
ssg75
g1578
sg68
(lp1585
S'::ffff:127.0.0.1'
p1586
asbasbasbag61
(g77
g63
NtRp1587
(dp1588
g66
(dp1589
sg75
g1544
sg68
(lp1590
g61
(g82
g63
NtRp1591
(dp1592
g66
(dp1593
sg75
g1587
sg68
(lp1594
g61
(g62
g63
NtRp1595
(dp1596
g66
(dp1597
g74
I3
ssg75
g1591
sg68
(lp1598
S'127.0.0.1'
p1599
asbasbasbag61
(g77
g63
NtRp1600
(dp1601
g66
(dp1602
sg75
g1544
sg68
(lp1603
g61
(g82
g63
NtRp1604
(dp1605
g66
(dp1606
sg75
g1600
sg68
(lp1607
g61
(g62
g63
NtRp1608
(dp1609
g66
(dp1610
g74
I3
ssg75
g1604
sg68
(lp1611
S'hntvlan531.0924.wlan.wireless-pennnet.upenn.edu'
p1612
asbasbasbasbasbasbasbag61
(g77
g63
NtRp1613
(dp1614
g66
(dp1615
sg75
g1122
sg68
(lp1616
g61
(g82
g63
NtRp1617
(dp1618
g66
(dp1619
g86
g87
ssg75
g1613
sg68
(lp1620
S'path_info'
p1621
asbag61
(g82
g63
NtRp1622
(dp1623
g66
(dp1624
g93
g94
ssg75
g1613
sg68
(lp1625
S':'
asbag61
(g82
g63
NtRp1626
(dp1627
g66
(dp1628
sg75
g1613
sg68
(lp1629
g61
(g62
g63
NtRp1630
(dp1631
g66
(dp1632
g74
I4
ssg75
g1626
sg68
(lp1633
S'/hellow/appadmin/index'
p1634
asbasbasbag61
(g77
g63
NtRp1635
(dp1636
g66
(dp1637
sg75
g1122
sg68
(lp1638
g61
(g82
g63
NtRp1639
(dp1640
g66
(dp1641
g86
g87
ssg75
g1635
sg68
(lp1642
S'query_string'
p1643
asbag61
(g82
g63
NtRp1644
(dp1645
g66
(dp1646
g93
g94
ssg75
g1635
sg68
(lp1647
S':'
asbag61
(g82
g63
NtRp1648
(dp1649
g66
(dp1650
sg75
g1635
sg68
(lp1651
g61
(g62
g63
NtRp1652
(dp1653
g66
(dp1654
g74
I4
ssg75
g1648
sg68
(lp1655
S''
asbasbasbag61
(g77
g63
NtRp1656
(dp1657
g66
(dp1658
sg75
g1122
sg68
(lp1659
g61
(g82
g63
NtRp1660
(dp1661
g66
(dp1662
g86
g87
ssg75
g1656
sg68
(lp1663
S'remote_addr'
p1664
asbag61
(g82
g63
NtRp1665
(dp1666
g66
(dp1667
g93
g94
ssg75
g1656
sg68
(lp1668
S':'
asbag61
(g82
g63
NtRp1669
(dp1670
g66
(dp1671
sg75
g1656
sg68
(lp1672
g61
(g62
g63
NtRp1673
(dp1674
g66
(dp1675
g74
I4
ssg75
g1669
sg68
(lp1676
g216
asbasbasbag61
(g77
g63
NtRp1677
(dp1678
g66
(dp1679
sg75
g1122
sg68
(lp1680
g61
(g82
g63
NtRp1681
(dp1682
g66
(dp1683
g86
g87
ssg75
g1677
sg68
(lp1684
S'remote_port'
p1685
asbag61
(g82
g63
NtRp1686
(dp1687
g66
(dp1688
g93
g94
ssg75
g1677
sg68
(lp1689
S':'
asbag61
(g82
g63
NtRp1690
(dp1691
g66
(dp1692
sg75
g1677
sg68
(lp1693
g61
(g62
g63
NtRp1694
(dp1695
g66
(dp1696
g74
I4
ssg75
g1690
sg68
(lp1697
S'63718'
p1698
asbasbasbag61
(g77
g63
NtRp1699
(dp1700
g66
(dp1701
sg75
g1122
sg68
(lp1702
g61
(g82
g63
NtRp1703
(dp1704
g66
(dp1705
g86
g87
ssg75
g1699
sg68
(lp1706
S'request_method'
p1707
asbag61
(g82
g63
NtRp1708
(dp1709
g66
(dp1710
g93
g94
ssg75
g1699
sg68
(lp1711
S':'
asbag61
(g82
g63
NtRp1712
(dp1713
g66
(dp1714
sg75
g1699
sg68
(lp1715
g61
(g62
g63
NtRp1716
(dp1717
g66
(dp1718
g74
I4
ssg75
g1712
sg68
(lp1719
S'GET'
p1720
asbasbasbag61
(g77
g63
NtRp1721
(dp1722
g66
(dp1723
sg75
g1122
sg68
(lp1724
g61
(g82
g63
NtRp1725
(dp1726
g66
(dp1727
g86
g87
ssg75
g1721
sg68
(lp1728
S'request_uri'
p1729
asbag61
(g82
g63
NtRp1730
(dp1731
g66
(dp1732
g93
g94
ssg75
g1721
sg68
(lp1733
S':'
asbag61
(g82
g63
NtRp1734
(dp1735
g66
(dp1736
sg75
g1721
sg68
(lp1737
g61
(g62
g63
NtRp1738
(dp1739
g66
(dp1740
g74
I4
ssg75
g1734
sg68
(lp1741
g1634
asbasbasbag61
(g77
g63
NtRp1742
(dp1743
g66
(dp1744
sg75
g1122
sg68
(lp1745
g61
(g82
g63
NtRp1746
(dp1747
g66
(dp1748
g86
g87
ssg75
g1742
sg68
(lp1749
S'script_name'
p1750
asbag61
(g82
g63
NtRp1751
(dp1752
g66
(dp1753
g93
g94
ssg75
g1742
sg68
(lp1754
S':'
asbag61
(g82
g63
NtRp1755
(dp1756
g66
(dp1757
sg75
g1742
sg68
(lp1758
g61
(g62
g63
NtRp1759
(dp1760
g66
(dp1761
g74
I4
ssg75
g1755
sg68
(lp1762
S''
asbasbasbag61
(g77
g63
NtRp1763
(dp1764
g66
(dp1765
sg75
g1122
sg68
(lp1766
g61
(g82
g63
NtRp1767
(dp1768
g66
(dp1769
g86
g87
ssg75
g1763
sg68
(lp1770
S'server_name'
p1771
asbag61
(g82
g63
NtRp1772
(dp1773
g66
(dp1774
g93
g94
ssg75
g1763
sg68
(lp1775
S':'
asbag61
(g82
g63
NtRp1776
(dp1777
g66
(dp1778
sg75
g1763
sg68
(lp1779
g61
(g62
g63
NtRp1780
(dp1781
g66
(dp1782
g74
I4
ssg75
g1776
sg68
(lp1783
S'hntvlan531.0924.wlan.wireless-pennnet.upenn.edu'
p1784
asbasbasbag61
(g77
g63
NtRp1785
(dp1786
g66
(dp1787
sg75
g1122
sg68
(lp1788
g61
(g82
g63
NtRp1789
(dp1790
g66
(dp1791
g86
g87
ssg75
g1785
sg68
(lp1792
S'server_port'
p1793
asbag61
(g82
g63
NtRp1794
(dp1795
g66
(dp1796
g93
g94
ssg75
g1785
sg68
(lp1797
S':'
asbag61
(g82
g63
NtRp1798
(dp1799
g66
(dp1800
sg75
g1785
sg68
(lp1801
g61
(g62
g63
NtRp1802
(dp1803
g66
(dp1804
g74
I4
ssg75
g1798
sg68
(lp1805
S'8887'
p1806
asbasbasbag61
(g77
g63
NtRp1807
(dp1808
g66
(dp1809
sg75
g1122
sg68
(lp1810
g61
(g82
g63
NtRp1811
(dp1812
g66
(dp1813
g86
g87
ssg75
g1807
sg68
(lp1814
S'server_protocol'
p1815
asbag61
(g82
g63
NtRp1816
(dp1817
g66
(dp1818
g93
g94
ssg75
g1807
sg68
(lp1819
S':'
asbag61
(g82
g63
NtRp1820
(dp1821
g66
(dp1822
sg75
g1807
sg68
(lp1823
g61
(g62
g63
NtRp1824
(dp1825
g66
(dp1826
g74
I4
ssg75
g1820
sg68
(lp1827
S'HTTP/1.1'
p1828
asbasbasbag61
(g77
g63
NtRp1829
(dp1830
g66
(dp1831
sg75
g1122
sg68
(lp1832
g61
(g82
g63
NtRp1833
(dp1834
g66
(dp1835
g86
g87
ssg75
g1829
sg68
(lp1836
S'server_software'
p1837
asbag61
(g82
g63
NtRp1838
(dp1839
g66
(dp1840
g93
g94
ssg75
g1829
sg68
(lp1841
S':'
asbag61
(g82
g63
NtRp1842
(dp1843
g66
(dp1844
sg75
g1829
sg68
(lp1845
g61
(g62
g63
NtRp1846
(dp1847
g66
(dp1848
g74
I4
ssg75
g1842
sg68
(lp1849
S'Rocket 1.2.6'
p1850
asbasbasbag61
(g77
g63
NtRp1851
(dp1852
g66
(dp1853
sg75
g1122
sg68
(lp1854
g61
(g82
g63
NtRp1855
(dp1856
g66
(dp1857
g86
g87
ssg75
g1851
sg68
(lp1858
S'web2py_path'
p1859
asbag61
(g82
g63
NtRp1860
(dp1861
g66
(dp1862
g93
g94
ssg75
g1851
sg68
(lp1863
S':'
asbag61
(g82
g63
NtRp1864
(dp1865
g66
(dp1866
sg75
g1851
sg68
(lp1867
g61
(g62
g63
NtRp1868
(dp1869
g66
(dp1870
g74
I4
ssg75
g1864
sg68
(lp1871
g1169
asbasbasbag61
(g77
g63
NtRp1872
(dp1873
g66
(dp1874
sg75
g1122
sg68
(lp1875
g61
(g82
g63
NtRp1876
(dp1877
g66
(dp1878
g86
g87
ssg75
g1872
sg68
(lp1879
S'web2py_version'
p1880
asbag61
(g82
g63
NtRp1881
(dp1882
g66
(dp1883
g93
g94
ssg75
g1872
sg68
(lp1884
S':'
asbag61
(g82
g63
NtRp1885
(dp1886
g66
(dp1887
sg75
g1872
sg68
(lp1888
g61
(g62
g63
NtRp1889
(dp1890
g66
(dp1891
g74
I4
ssg75
g1885
sg68
(lp1892
g61
(g70
g63
NtRp1893
(dp1894
g66
(dp1895
g74
I3
ssg75
Nsg68
(lp1896
g61
(g77
g63
NtRp1897
(dp1898
g66
(dp1899
sg75
g1893
sg68
(lp1900
g61
(g82
g63
NtRp1901
(dp1902
g66
(dp1903
sg75
g1897
sg68
(lp1904
g61
(g62
g63
NtRp1905
(dp1906
g66
(dp1907
g74
I3
ssg75
g1901
sg68
(lp1908
S'2'
asbasbasbag61
(g77
g63
NtRp1909
(dp1910
g66
(dp1911
sg75
g1893
sg68
(lp1912
g61
(g82
g63
NtRp1913
(dp1914
g66
(dp1915
sg75
g1909
sg68
(lp1916
g61
(g62
g63
NtRp1917
(dp1918
g66
(dp1919
g74
I3
ssg75
g1913
sg68
(lp1920
S'4'
asbasbasbag61
(g77
g63
NtRp1921
(dp1922
g66
(dp1923
sg75
g1893
sg68
(lp1924
g61
(g82
g63
NtRp1925
(dp1926
g66
(dp1927
sg75
g1921
sg68
(lp1928
g61
(g62
g63
NtRp1929
(dp1930
g66
(dp1931
g74
I3
ssg75
g1925
sg68
(lp1932
S'5'
asbasbasbag61
(g77
g63
NtRp1933
(dp1934
g66
(dp1935
sg75
g1893
sg68
(lp1936
g61
(g82
g63
NtRp1937
(dp1938
g66
(dp1939
sg75
g1933
sg68
(lp1940
g61
(g62
g63
NtRp1941
(dp1942
g66
(dp1943
g74
I3
ssg75
g1937
sg68
(lp1944
S'stable'
p1945
asbasbasbag61
(g77
g63
NtRp1946
(dp1947
g66
(dp1948
sg75
g1893
sg68
(lp1949
g61
(g82
g63
NtRp1950
(dp1951
g66
(dp1952
sg75
g1946
sg68
(lp1953
g61
(g62
g63
NtRp1954
(dp1955
g66
(dp1956
g74
I3
ssg75
g1950
sg68
(lp1957
S'datetime.datetime(2013, 3, 18, 22, 46, 22)'
p1958
asbasbasbasbasbasbasbag61
(g77
g63
NtRp1959
(dp1960
g66
(dp1961
sg75
g1122
sg68
(lp1962
g61
(g82
g63
NtRp1963
(dp1964
g66
(dp1965
g86
g87
ssg75
g1959
sg68
(lp1966
S'wsgi_errors'
p1967
asbag61
(g82
g63
NtRp1968
(dp1969
g66
(dp1970
g93
g94
ssg75
g1959
sg68
(lp1971
S':'
asbag61
(g82
g63
NtRp1972
(dp1973
g66
(dp1974
sg75
g1959
sg68
(lp1975
g61
(g62
g63
NtRp1976
(dp1977
g66
(dp1978
g74
I4
ssg75
g1972
sg68
(lp1979
S"<open file '<stderr>', mode 'w' at 0x540b0>"
p1980
asbasbasbag61
(g77
g63
NtRp1981
(dp1982
g66
(dp1983
sg75
g1122
sg68
(lp1984
g61
(g82
g63
NtRp1985
(dp1986
g66
(dp1987
g86
g87
ssg75
g1981
sg68
(lp1988
S'wsgi_file_wrapper'
p1989
asbag61
(g82
g63
NtRp1990
(dp1991
g66
(dp1992
g93
g94
ssg75
g1981
sg68
(lp1993
S':'
asbag61
(g82
g63
NtRp1994
(dp1995
g66
(dp1996
sg75
g1981
sg68
(lp1997
g61
(g62
g63
NtRp1998
(dp1999
g66
(dp2000
g74
I4
ssg75
g1994
sg68
(lp2001
S'<class wsgiref.util.FileWrapper at 0x329d060>'
p2002
asbasbasbag61
(g77
g63
NtRp2003
(dp2004
g66
(dp2005
sg75
g1122
sg68
(lp2006
g61
(g82
g63
NtRp2007
(dp2008
g66
(dp2009
g86
g87
ssg75
g2003
sg68
(lp2010
S'wsgi_input'
p2011
asbag61
(g82
g63
NtRp2012
(dp2013
g66
(dp2014
g93
g94
ssg75
g2003
sg68
(lp2015
S':'
asbag61
(g82
g63
NtRp2016
(dp2017
g66
(dp2018
sg75
g2003
sg68
(lp2019
g61
(g62
g63
NtRp2020
(dp2021
g66
(dp2022
g74
I4
ssg75
g2016
sg68
(lp2023
S'<socket._fileobject object at 0xa1a7170>'
p2024
asbasbasbag61
(g77
g63
NtRp2025
(dp2026
g66
(dp2027
sg75
g1122
sg68
(lp2028
g61
(g82
g63
NtRp2029
(dp2030
g66
(dp2031
g86
g87
ssg75
g2025
sg68
(lp2032
S'wsgi_multiprocess'
p2033
asbag61
(g82
g63
NtRp2034
(dp2035
g66
(dp2036
g93
g94
ssg75
g2025
sg68
(lp2037
S':'
asbag61
(g82
g63
NtRp2038
(dp2039
g66
(dp2040
sg75
g2025
sg68
(lp2041
g61
(g62
g63
NtRp2042
(dp2043
g66
(dp2044
g74
I4
ssg75
g2038
sg68
(lp2045
g104
asbasbasbag61
(g77
g63
NtRp2046
(dp2047
g66
(dp2048
sg75
g1122
sg68
(lp2049
g61
(g82
g63
NtRp2050
(dp2051
g66
(dp2052
g86
g87
ssg75
g2046
sg68
(lp2053
S'wsgi_multithread'
p2054
asbag61
(g82
g63
NtRp2055
(dp2056
g66
(dp2057
g93
g94
ssg75
g2046
sg68
(lp2058
S':'
asbag61
(g82
g63
NtRp2059
(dp2060
g66
(dp2061
sg75
g2046
sg68
(lp2062
g61
(g62
g63
NtRp2063
(dp2064
g66
(dp2065
g74
I4
ssg75
g2059
sg68
(lp2066
g1260
asbasbasbag61
(g77
g63
NtRp2067
(dp2068
g66
(dp2069
sg75
g1122
sg68
(lp2070
g61
(g82
g63
NtRp2071
(dp2072
g66
(dp2073
g86
g87
ssg75
g2067
sg68
(lp2074
S'wsgi_run_once'
p2075
asbag61
(g82
g63
NtRp2076
(dp2077
g66
(dp2078
g93
g94
ssg75
g2067
sg68
(lp2079
S':'
asbag61
(g82
g63
NtRp2080
(dp2081
g66
(dp2082
sg75
g2067
sg68
(lp2083
g61
(g62
g63
NtRp2084
(dp2085
g66
(dp2086
g74
I4
ssg75
g2080
sg68
(lp2087
g104
asbasbasbag61
(g77
g63
NtRp2088
(dp2089
g66
(dp2090
sg75
g1122
sg68
(lp2091
g61
(g82
g63
NtRp2092
(dp2093
g66
(dp2094
g86
g87
ssg75
g2088
sg68
(lp2095
S'wsgi_url_scheme'
p2096
asbag61
(g82
g63
NtRp2097
(dp2098
g66
(dp2099
g93
g94
ssg75
g2088
sg68
(lp2100
S':'
asbag61
(g82
g63
NtRp2101
(dp2102
g66
(dp2103
sg75
g2088
sg68
(lp2104
g61
(g62
g63
NtRp2105
(dp2106
g66
(dp2107
g74
I4
ssg75
g2101
sg68
(lp2108
S'http'
p2109
asbasbasbag61
(g77
g63
NtRp2110
(dp2111
g66
(dp2112
sg75
g1122
sg68
(lp2113
g61
(g82
g63
NtRp2114
(dp2115
g66
(dp2116
g86
g87
ssg75
g2110
sg68
(lp2117
S'wsgi_version'
p2118
asbag61
(g82
g63
NtRp2119
(dp2120
g66
(dp2121
g93
g94
ssg75
g2110
sg68
(lp2122
S':'
asbag61
(g82
g63
NtRp2123
(dp2124
g66
(dp2125
sg75
g2110
sg68
(lp2126
g61
(g62
g63
NtRp2127
(dp2128
g66
(dp2129
g74
I4
ssg75
g2123
sg68
(lp2130
g61
(g70
g63
NtRp2131
(dp2132
g66
(dp2133
g74
I3
ssg75
Nsg68
(lp2134
g61
(g77
g63
NtRp2135
(dp2136
g66
(dp2137
sg75
g2131
sg68
(lp2138
g61
(g82
g63
NtRp2139
(dp2140
g66
(dp2141
sg75
g2135
sg68
(lp2142
g61
(g62
g63
NtRp2143
(dp2144
g66
(dp2145
g74
I3
ssg75
g2139
sg68
(lp2146
S'1'
asbasbasbag61
(g77
g63
NtRp2147
(dp2148
g66
(dp2149
sg75
g2131
sg68
(lp2150
g61
(g82
g63
NtRp2151
(dp2152
g66
(dp2153
sg75
g2147
sg68
(lp2154
g61
(g62
g63
NtRp2155
(dp2156
g66
(dp2157
g74
I3
ssg75
g2151
sg68
(lp2158
S'0'
asbasbasbasbasbasbasbasbasbasbasbag61
(g77
g63
NtRp2159
(dp2160
g66
(dp2161
sg75
g71
sg68
(lp2162
g61
(g82
g63
NtRp2163
(dp2164
g66
(dp2165
g86
g87
ssg75
g2159
sg68
(lp2166
S'extension'
p2167
asbag61
(g82
g63
NtRp2168
(dp2169
g66
(dp2170
g93
g94
ssg75
g2159
sg68
(lp2171
S':'
asbag61
(g82
g63
NtRp2172
(dp2173
g66
(dp2174
sg75
g2159
sg68
(lp2175
g61
(g62
g63
NtRp2176
(dp2177
g66
(dp2178
g74
I5
ssg75
g2172
sg68
(lp2179
S'html'
p2180
asbasbasbag61
(g77
g63
NtRp2181
(dp2182
g66
(dp2183
sg75
g71
sg68
(lp2184
g61
(g82
g63
NtRp2185
(dp2186
g66
(dp2187
g86
g87
ssg75
g2181
sg68
(lp2188
S'folder'
p2189
asbag61
(g82
g63
NtRp2190
(dp2191
g66
(dp2192
g93
g94
ssg75
g2181
sg68
(lp2193
S':'
asbag61
(g82
g63
NtRp2194
(dp2195
g66
(dp2196
sg75
g2181
sg68
(lp2197
g61
(g62
g63
NtRp2198
(dp2199
g66
(dp2200
g74
I5
ssg75
g2194
sg68
(lp2201
S'/Users/zamechek/Downloads/web2py/web2py.app/Contents/Resources/applications/hellow/'
p2202
asbasbasbag61
(g77
g63
NtRp2203
(dp2204
g66
(dp2205
sg75
g71
sg68
(lp2206
g61
(g82
g63
NtRp2207
(dp2208
g66
(dp2209
g86
g87
ssg75
g2203
sg68
(lp2210
S'function'
p2211
asbag61
(g82
g63
NtRp2212
(dp2213
g66
(dp2214
g93
g94
ssg75
g2203
sg68
(lp2215
S':'
asbag61
(g82
g63
NtRp2216
(dp2217
g66
(dp2218
sg75
g2203
sg68
(lp2219
g61
(g62
g63
NtRp2220
(dp2221
g66
(dp2222
g74
I5
ssg75
g2216
sg68
(lp2223
S'index'
p2224
asbasbasbag61
(g77
g63
NtRp2225
(dp2226
g66
(dp2227
sg75
g71
sg68
(lp2228
g61
(g82
g63
NtRp2229
(dp2230
g66
(dp2231
g86
g87
ssg75
g2225
sg68
(lp2232
S'get_vars'
p2233
asbag61
(g82
g63
NtRp2234
(dp2235
g66
(dp2236
g93
g94
ssg75
g2225
sg68
(lp2237
S':'
asbag61
(g82
g63
NtRp2238
(dp2239
g66
(dp2240
sg75
g2225
sg68
(lp2241
g61
(g62
g63
NtRp2242
(dp2243
g66
(dp2244
g74
I5
ssg75
g2238
sg68
(lp2245
g61
(g70
g63
NtRp2246
(dp2247
g66
(dp2248
g74
I4
ssg75
Nsg68
(lp2249
sbasbasbasbag61
(g77
g63
NtRp2250
(dp2251
g66
(dp2252
sg75
g71
sg68
(lp2253
g61
(g82
g63
NtRp2254
(dp2255
g66
(dp2256
g86
g87
ssg75
g2250
sg68
(lp2257
S'global_settings'
p2258
asbag61
(g82
g63
NtRp2259
(dp2260
g66
(dp2261
g93
g94
ssg75
g2250
sg68
(lp2262
S':'
asbag61
(g82
g63
NtRp2263
(dp2264
g66
(dp2265
sg75
g2250
sg68
(lp2266
g61
(g62
g63
NtRp2267
(dp2268
g66
(dp2269
g74
I5
ssg75
g2263
sg68
(lp2270
g61
(g70
g63
NtRp2271
(dp2272
g66
(dp2273
g74
I4
ssg75
Nsg68
(lp2274
g61
(g77
g63
NtRp2275
(dp2276
g66
(dp2277
sg75
g2271
sg68
(lp2278
g61
(g82
g63
NtRp2279
(dp2280
g66
(dp2281
g86
g87
ssg75
g2275
sg68
(lp2282
g1134
asbag61
(g82
g63
NtRp2283
(dp2284
g66
(dp2285
g93
g94
ssg75
g2275
sg68
(lp2286
S':'
asbag61
(g82
g63
NtRp2287
(dp2288
g66
(dp2289
sg75
g2275
sg68
(lp2290
g61
(g62
g63
NtRp2291
(dp2292
g66
(dp2293
g74
I4
ssg75
g2287
sg68
(lp2294
S"set(['/Users/zamechek/Downloads/web2py/web2py.app/Contents/Resources/applications/examples/', '/Users/zamechek/Downloads/web2py/web2py.app/Contents/Resources/applications/hellow/', '/Users/zamechek/Downloads/web2py/web2py.app/Contents/Resources/applications/admin/', '/Users/zamechek/Downloads/web2py/web2py.app/Contents/Resources/applications/slots/', '/Users/zamechek/Downloads/web2py/web2py.app/Contents/Resources/applications/welcome/'])"
p2295
asbasbasbag61
(g77
g63
NtRp2296
(dp2297
g66
(dp2298
sg75
g2271
sg68
(lp2299
g61
(g82
g63
NtRp2300
(dp2301
g66
(dp2302
g86
g87
ssg75
g2296
sg68
(lp2303
g1156
asbag61
(g82
g63
NtRp2304
(dp2305
g66
(dp2306
g93
g94
ssg75
g2296
sg68
(lp2307
S':'
asbag61
(g82
g63
NtRp2308
(dp2309
g66
(dp2310
sg75
g2296
sg68
(lp2311
g61
(g62
g63
NtRp2312
(dp2313
g66
(dp2314
g74
I4
ssg75
g2308
sg68
(lp2315
g1169
asbasbasbag61
(g77
g63
NtRp2316
(dp2317
g66
(dp2318
sg75
g2271
sg68
(lp2319
g61
(g82
g63
NtRp2320
(dp2321
g66
(dp2322
g86
g87
ssg75
g2316
sg68
(lp2323
g1178
asbag61
(g82
g63
NtRp2324
(dp2325
g66
(dp2326
g93
g94
ssg75
g2316
sg68
(lp2327
S':'
asbag61
(g82
g63
NtRp2328
(dp2329
g66
(dp2330
sg75
g2316
sg68
(lp2331
g61
(g62
g63
NtRp2332
(dp2333
g66
(dp2334
g74
I4
ssg75
g2328
sg68
(lp2335
g61
(g70
g63
NtRp2336
(dp2337
g66
(dp2338
g74
I3
ssg75
Nsg68
(lp2339
sbasbasbasbag61
(g77
g63
NtRp2340
(dp2341
g66
(dp2342
sg75
g2271
sg68
(lp2343
g61
(g82
g63
NtRp2344
(dp2345
g66
(dp2346
g86
g87
ssg75
g2340
sg68
(lp2347
g1203
asbag61
(g82
g63
NtRp2348
(dp2349
g66
(dp2350
g93
g94
ssg75
g2340
sg68
(lp2351
S':'
asbag61
(g82
g63
NtRp2352
(dp2353
g66
(dp2354
sg75
g2340
sg68
(lp2355
g61
(g62
g63
NtRp2356
(dp2357
g66
(dp2358
g74
I4
ssg75
g2352
sg68
(lp2359
S"<Values at 0x32c8f58: {'verbose': False, 'ip': '127.0.0.1', 'with_scheduler': False, 'ips': ['130.91.151.157'], 'shutdown_timeout': 5, 'taskbar': False, 'port': 8000, 'maxthreads': None, 'softcron': False, 'server_name': 'hntvlan531.0924.wlan.wireless-pennnet.upenn.edu', 'bpython': False, 'nogui': False, 'pid_filename': 'httpserver.pid', 'extcron': False, 'runcron': False, 'run_system_tests': False, 'test': None, 'folder': '/Users/zamechek/Downloads/web2py/web2py.app/Contents/Resources', 'config': '', 'import_models': False, 'winservice': '', 'shell': None, 'run': '', 'log_filename': 'httpserver.log', 'debuglevel': 30, 'args': [''], 'socket_timeout': 5, 'ssl_ca_certificate': None, 'scheduler': None, 'profiler_filename': None, 'ssl_private_key': '', 'scheduler_groups': None, 'password': '<ask>', 'request_queue_size': 5, 'ssl_certificate': '', 'cronjob': False, 'numthreads': None, 'quiet': False, 'interfaces': None, 'minthreads': None, 'timeout': 10, 'plain': False, 'nobanner': False}>"
p2360
asbasbasbag61
(g77
g63
NtRp2361
(dp2362
g66
(dp2363
sg75
g2271
sg68
(lp2364
g61
(g82
g63
NtRp2365
(dp2366
g66
(dp2367
g86
g87
ssg75
g2361
sg68
(lp2368
g1225
asbag61
(g82
g63
NtRp2369
(dp2370
g66
(dp2371
g93
g94
ssg75
g2361
sg68
(lp2372
S':'
asbag61
(g82
g63
NtRp2373
(dp2374
g66
(dp2375
sg75
g2361
sg68
(lp2376
g61
(g62
g63
NtRp2377
(dp2378
g66
(dp2379
g74
I4
ssg75
g2373
sg68
(lp2380
S'set([])'
p2381
asbasbasbag61
(g77
g63
NtRp2382
(dp2383
g66
(dp2384
sg75
g2271
sg68
(lp2385
g61
(g82
g63
NtRp2386
(dp2387
g66
(dp2388
g86
g87
ssg75
g2382
sg68
(lp2389
g1247
asbag61
(g82
g63
NtRp2390
(dp2391
g66
(dp2392
g93
g94
ssg75
g2382
sg68
(lp2393
S':'
asbag61
(g82
g63
NtRp2394
(dp2395
g66
(dp2396
sg75
g2382
sg68
(lp2397
g61
(g62
g63
NtRp2398
(dp2399
g66
(dp2400
g74
I4
ssg75
g2394
sg68
(lp2401
g1260
asbasbasbag61
(g77
g63
NtRp2402
(dp2403
g66
(dp2404
sg75
g2271
sg68
(lp2405
g61
(g82
g63
NtRp2406
(dp2407
g66
(dp2408
g86
g87
ssg75
g2402
sg68
(lp2409
g1269
asbag61
(g82
g63
NtRp2410
(dp2411
g66
(dp2412
g93
g94
ssg75
g2402
sg68
(lp2413
S':'
asbag61
(g82
g63
NtRp2414
(dp2415
g66
(dp2416
sg75
g2402
sg68
(lp2417
g61
(g62
g63
NtRp2418
(dp2419
g66
(dp2420
g74
I4
ssg75
g2414
sg68
(lp2421
g1282
asbasbasbag61
(g77
g63
NtRp2422
(dp2423
g66
(dp2424
sg75
g2271
sg68
(lp2425
g61
(g82
g63
NtRp2426
(dp2427
g66
(dp2428
g86
g87
ssg75
g2422
sg68
(lp2429
g1489
asbag61
(g82
g63
NtRp2430
(dp2431
g66
(dp2432
g93
g94
ssg75
g2422
sg68
(lp2433
S':'
asbag61
(g82
g63
NtRp2434
(dp2435
g66
(dp2436
sg75
g2422
sg68
(lp2437
g61
(g62
g63
NtRp2438
(dp2439
g66
(dp2440
g74
I4
ssg75
g2434
sg68
(lp2441
g104
asbasbasbag61
(g77
g63
NtRp2442
(dp2443
g66
(dp2444
sg75
g2271
sg68
(lp2445
g61
(g82
g63
NtRp2446
(dp2447
g66
(dp2448
g86
g87
ssg75
g2442
sg68
(lp2449
g1510
asbag61
(g82
g63
NtRp2450
(dp2451
g66
(dp2452
g93
g94
ssg75
g2442
sg68
(lp2453
S':'
asbag61
(g82
g63
NtRp2454
(dp2455
g66
(dp2456
sg75
g2442
sg68
(lp2457
g61
(g62
g63
NtRp2458
(dp2459
g66
(dp2460
g74
I4
ssg75
g2454
sg68
(lp2461
g104
asbasbasbag61
(g77
g63
NtRp2462
(dp2463
g66
(dp2464
sg75
g2271
sg68
(lp2465
g61
(g82
g63
NtRp2466
(dp2467
g66
(dp2468
g86
g87
ssg75
g2462
sg68
(lp2469
g1531
asbag61
(g82
g63
NtRp2470
(dp2471
g66
(dp2472
g93
g94
ssg75
g2462
sg68
(lp2473
S':'
asbag61
(g82
g63
NtRp2474
(dp2475
g66
(dp2476
sg75
g2462
sg68
(lp2477
g61
(g62
g63
NtRp2478
(dp2479
g66
(dp2480
g74
I4
ssg75
g2474
sg68
(lp2481
g61
(g70
g63
NtRp2482
(dp2483
g66
(dp2484
g74
I3
ssg75
Nsg68
(lp2485
g61
(g77
g63
NtRp2486
(dp2487
g66
(dp2488
sg75
g2482
sg68
(lp2489
g61
(g82
g63
NtRp2490
(dp2491
g66
(dp2492
sg75
g2486
sg68
(lp2493
g61
(g62
g63
NtRp2494
(dp2495
g66
(dp2496
g74
I3
ssg75
g2490
sg68
(lp2497
g1560
asbasbasbag61
(g77
g63
NtRp2498
(dp2499
g66
(dp2500
sg75
g2482
sg68
(lp2501
g61
(g82
g63
NtRp2502
(dp2503
g66
(dp2504
sg75
g2498
sg68
(lp2505
g61
(g62
g63
NtRp2506
(dp2507
g66
(dp2508
g74
I3
ssg75
g2502
sg68
(lp2509
g1573
asbasbasbag61
(g77
g63
NtRp2510
(dp2511
g66
(dp2512
sg75
g2482
sg68
(lp2513
g61
(g82
g63
NtRp2514
(dp2515
g66
(dp2516
sg75
g2510
sg68
(lp2517
g61
(g62
g63
NtRp2518
(dp2519
g66
(dp2520
g74
I3
ssg75
g2514
sg68
(lp2521
g1586
asbasbasbag61
(g77
g63
NtRp2522
(dp2523
g66
(dp2524
sg75
g2482
sg68
(lp2525
g61
(g82
g63
NtRp2526
(dp2527
g66
(dp2528
sg75
g2522
sg68
(lp2529
g61
(g62
g63
NtRp2530
(dp2531
g66
(dp2532
g74
I3
ssg75
g2526
sg68
(lp2533
g1599
asbasbasbag61
(g77
g63
NtRp2534
(dp2535
g66
(dp2536
sg75
g2482
sg68
(lp2537
g61
(g82
g63
NtRp2538
(dp2539
g66
(dp2540
sg75
g2534
sg68
(lp2541
g61
(g62
g63
NtRp2542
(dp2543
g66
(dp2544
g74
I3
ssg75
g2538
sg68
(lp2545
g1612
asbasbasbasbasbasbasbag61
(g77
g63
NtRp2546
(dp2547
g66
(dp2548
sg75
g2271
sg68
(lp2549
g61
(g82
g63
NtRp2550
(dp2551
g66
(dp2552
g86
g87
ssg75
g2546
sg68
(lp2553
g1880
asbag61
(g82
g63
NtRp2554
(dp2555
g66
(dp2556
g93
g94
ssg75
g2546
sg68
(lp2557
S':'
asbag61
(g82
g63
NtRp2558
(dp2559
g66
(dp2560
sg75
g2546
sg68
(lp2561
g61
(g62
g63
NtRp2562
(dp2563
g66
(dp2564
g74
I4
ssg75
g2558
sg68
(lp2565
g61
(g70
g63
NtRp2566
(dp2567
g66
(dp2568
g74
I3
ssg75
Nsg68
(lp2569
g61
(g77
g63
NtRp2570
(dp2571
g66
(dp2572
sg75
g2566
sg68
(lp2573
g61
(g82
g63
NtRp2574
(dp2575
g66
(dp2576
sg75
g2570
sg68
(lp2577
g61
(g62
g63
NtRp2578
(dp2579
g66
(dp2580
g74
I3
ssg75
g2574
sg68
(lp2581
S'2'
asbasbasbag61
(g77
g63
NtRp2582
(dp2583
g66
(dp2584
sg75
g2566
sg68
(lp2585
g61
(g82
g63
NtRp2586
(dp2587
g66
(dp2588
sg75
g2582
sg68
(lp2589
g61
(g62
g63
NtRp2590
(dp2591
g66
(dp2592
g74
I3
ssg75
g2586
sg68
(lp2593
S'4'
asbasbasbag61
(g77
g63
NtRp2594
(dp2595
g66
(dp2596
sg75
g2566
sg68
(lp2597
g61
(g82
g63
NtRp2598
(dp2599
g66
(dp2600
sg75
g2594
sg68
(lp2601
g61
(g62
g63
NtRp2602
(dp2603
g66
(dp2604
g74
I3
ssg75
g2598
sg68
(lp2605
S'5'
asbasbasbag61
(g77
g63
NtRp2606
(dp2607
g66
(dp2608
sg75
g2566
sg68
(lp2609
g61
(g82
g63
NtRp2610
(dp2611
g66
(dp2612
sg75
g2606
sg68
(lp2613
g61
(g62
g63
NtRp2614
(dp2615
g66
(dp2616
g74
I3
ssg75
g2610
sg68
(lp2617
g1945
asbasbasbag61
(g77
g63
NtRp2618
(dp2619
g66
(dp2620
sg75
g2566
sg68
(lp2621
g61
(g82
g63
NtRp2622
(dp2623
g66
(dp2624
sg75
g2618
sg68
(lp2625
g61
(g62
g63
NtRp2626
(dp2627
g66
(dp2628
g74
I3
ssg75
g2622
sg68
(lp2629
S'datetime.datetime(2013, 3, 18, 22, 46, 22)'
p2630
asbasbasbasbasbasbasbasbasbasbasbag61
(g77
g63
NtRp2631
(dp2632
g66
(dp2633
sg75
g71
sg68
(lp2634
g61
(g82
g63
NtRp2635
(dp2636
g66
(dp2637
g86
g87
ssg75
g2631
sg68
(lp2638
S'is_https'
p2639
asbag61
(g82
g63
NtRp2640
(dp2641
g66
(dp2642
g93
g94
ssg75
g2631
sg68
(lp2643
S':'
asbag61
(g82
g63
NtRp2644
(dp2645
g66
(dp2646
sg75
g2631
sg68
(lp2647
g61
(g62
g63
NtRp2648
(dp2649
g66
(dp2650
g74
I5
ssg75
g2644
sg68
(lp2651
g104
asbasbasbag61
(g77
g63
NtRp2652
(dp2653
g66
(dp2654
sg75
g71
sg68
(lp2655
g61
(g82
g63
NtRp2656
(dp2657
g66
(dp2658
g86
g87
ssg75
g2652
sg68
(lp2659
S'is_local'
p2660
asbag61
(g82
g63
NtRp2661
(dp2662
g66
(dp2663
g93
g94
ssg75
g2652
sg68
(lp2664
S':'
asbag61
(g82
g63
NtRp2665
(dp2666
g66
(dp2667
sg75
g2652
sg68
(lp2668
g61
(g62
g63
NtRp2669
(dp2670
g66
(dp2671
g74
I5
ssg75
g2665
sg68
(lp2672
g1260
asbasbasbag61
(g77
g63
NtRp2673
(dp2674
g66
(dp2675
sg75
g71
sg68
(lp2676
g61
(g82
g63
NtRp2677
(dp2678
g66
(dp2679
g86
g87
ssg75
g2673
sg68
(lp2680
S'is_restful'
p2681
asbag61
(g82
g63
NtRp2682
(dp2683
g66
(dp2684
g93
g94
ssg75
g2673
sg68
(lp2685
S':'
asbag61
(g82
g63
NtRp2686
(dp2687
g66
(dp2688
sg75
g2673
sg68
(lp2689
g61
(g62
g63
NtRp2690
(dp2691
g66
(dp2692
g74
I5
ssg75
g2686
sg68
(lp2693
g104
asbasbasbag61
(g77
g63
NtRp2694
(dp2695
g66
(dp2696
sg75
g71
sg68
(lp2697
g61
(g82
g63
NtRp2698
(dp2699
g66
(dp2700
g86
g87
ssg75
g2694
sg68
(lp2701
S'now'
p2702
asbag61
(g82
g63
NtRp2703
(dp2704
g66
(dp2705
g93
g94
ssg75
g2694
sg68
(lp2706
S':'
asbag61
(g82
g63
NtRp2707
(dp2708
g66
(dp2709
sg75
g2694
sg68
(lp2710
g61
(g62
g63
NtRp2711
(dp2712
g66
(dp2713
g74
I5
ssg75
g2707
sg68
(lp2714
S'datetime.datetime(2013, 3, 25, 11, 2, 19, 53770)'
p2715
asbasbasbag61
(g77
g63
NtRp2716
(dp2717
g66
(dp2718
sg75
g71
sg68
(lp2719
g61
(g82
g63
NtRp2720
(dp2721
g66
(dp2722
g86
g87
ssg75
g2716
sg68
(lp2723
S'post_vars'
p2724
asbag61
(g82
g63
NtRp2725
(dp2726
g66
(dp2727
g93
g94
ssg75
g2716
sg68
(lp2728
S':'
asbag61
(g82
g63
NtRp2729
(dp2730
g66
(dp2731
sg75
g2716
sg68
(lp2732
g61
(g62
g63
NtRp2733
(dp2734
g66
(dp2735
g74
I5
ssg75
g2729
sg68
(lp2736
g61
(g70
g63
NtRp2737
(dp2738
g66
(dp2739
g74
I4
ssg75
Nsg68
(lp2740
sbasbasbasbag61
(g77
g63
NtRp2741
(dp2742
g66
(dp2743
sg75
g71
sg68
(lp2744
g61
(g82
g63
NtRp2745
(dp2746
g66
(dp2747
g86
g87
ssg75
g2741
sg68
(lp2748
S'raw_args'
p2749
asbag61
(g82
g63
NtRp2750
(dp2751
g66
(dp2752
g93
g94
ssg75
g2741
sg68
(lp2753
S':'
asbag61
(g82
g63
NtRp2754
(dp2755
g66
(dp2756
sg75
g2741
sg68
(lp2757
g61
(g62
g63
NtRp2758
(dp2759
g66
(dp2760
g74
I5
ssg75
g2754
sg68
(lp2761
S''
asbasbasbag61
(g77
g63
NtRp2762
(dp2763
g66
(dp2764
sg75
g71
sg68
(lp2765
g61
(g82
g63
NtRp2766
(dp2767
g66
(dp2768
g86
g87
ssg75
g2762
sg68
(lp2769
S'raw_extension'
p2770
asbag61
(g82
g63
NtRp2771
(dp2772
g66
(dp2773
g93
g94
ssg75
g2762
sg68
(lp2774
S':'
asbag61
(g82
g63
NtRp2775
(dp2776
g66
(dp2777
sg75
g2762
sg68
(lp2778
g61
(g62
g63
NtRp2779
(dp2780
g66
(dp2781
g74
I5
ssg75
g2775
sg68
(lp2782
S'None'
p2783
asbasbasbag61
(g77
g63
NtRp2784
(dp2785
g66
(dp2786
sg75
g71
sg68
(lp2787
g61
(g82
g63
NtRp2788
(dp2789
g66
(dp2790
g86
g87
ssg75
g2784
sg68
(lp2791
S'url'
p2792
asbag61
(g82
g63
NtRp2793
(dp2794
g66
(dp2795
g93
g94
ssg75
g2784
sg68
(lp2796
S':'
asbag61
(g82
g63
NtRp2797
(dp2798
g66
(dp2799
sg75
g2784
sg68
(lp2800
g61
(g62
g63
NtRp2801
(dp2802
g66
(dp2803
g74
I5
ssg75
g2797
sg68
(lp2804
g1634
asbasbasbag61
(g77
g63
NtRp2805
(dp2806
g66
(dp2807
sg75
g71
sg68
(lp2808
g61
(g82
g63
NtRp2809
(dp2810
g66
(dp2811
g86
g87
ssg75
g2805
sg68
(lp2812
S'utcnow'
p2813
asbag61
(g82
g63
NtRp2814
(dp2815
g66
(dp2816
g93
g94
ssg75
g2805
sg68
(lp2817
S':'
asbag61
(g82
g63
NtRp2818
(dp2819
g66
(dp2820
sg75
g2805
sg68
(lp2821
g61
(g62
g63
NtRp2822
(dp2823
g66
(dp2824
g74
I5
ssg75
g2818
sg68
(lp2825
S'datetime.datetime(2013, 3, 25, 15, 2, 19, 53781)'
p2826
asbasbasbag61
(g77
g63
NtRp2827
(dp2828
g66
(dp2829
sg75
g71
sg68
(lp2830
g61
(g82
g63
NtRp2831
(dp2832
g66
(dp2833
g86
g87
ssg75
g2827
sg68
(lp2834
S'uuid'
p2835
asbag61
(g82
g63
NtRp2836
(dp2837
g66
(dp2838
g93
g94
ssg75
g2827
sg68
(lp2839
S':'
asbag61
(g82
g63
NtRp2840
(dp2841
g66
(dp2842
sg75
g2827
sg68
(lp2843
g61
(g62
g63
NtRp2844
(dp2845
g66
(dp2846
g74
I5
ssg75
g2840
sg68
(lp2847
S'hellow/127.0.0.1.2013-03-25.11-02-19.76a038aa-c73d-4af0-b158-5348b0886792'
p2848
asbasbasbag61
(g77
g63
NtRp2849
(dp2850
g66
(dp2851
sg75
g71
sg68
(lp2852
g61
(g82
g63
NtRp2853
(dp2854
g66
(dp2855
g86
g87
ssg75
g2849
sg68
(lp2856
S'vars'
p2857
asbag61
(g82
g63
NtRp2858
(dp2859
g66
(dp2860
g93
g94
ssg75
g2849
sg68
(lp2861
S':'
asbag61
(g82
g63
NtRp2862
(dp2863
g66
(dp2864
sg75
g2849
sg68
(lp2865
g61
(g62
g63
NtRp2866
(dp2867
g66
(dp2868
g74
I5
ssg75
g2862
sg68
(lp2869
g61
(g70
g63
NtRp2870
(dp2871
g66
(dp2872
g74
I4
ssg75
Nsg68
(lp2873
sbasbasbasbag61
(g77
g63
NtRp2874
(dp2875
g66
(dp2876
sg75
g71
sg68
(lp2877
g61
(g82
g63
NtRp2878
(dp2879
g66
(dp2880
g86
g87
ssg75
g2874
sg68
(lp2881
S'wsgi'
p2882
asbag61
(g82
g63
NtRp2883
(dp2884
g66
(dp2885
g93
g94
ssg75
g2874
sg68
(lp2886
S':'
asbag61
(g82
g63
NtRp2887
(dp2888
g66
(dp2889
sg75
g2874
sg68
(lp2890
g61
(g62
g63
NtRp2891
(dp2892
g66
(dp2893
g74
I5
ssg75
g2887
sg68
(lp2894
g61
(g70
g63
NtRp2895
(dp2896
g66
(dp2897
g74
I4
ssg75
Nsg68
(lp2898
g61
(g77
g63
NtRp2899
(dp2900
g66
(dp2901
sg75
g2895
sg68
(lp2902
g61
(g82
g63
NtRp2903
(dp2904
g66
(dp2905
g86
g87
ssg75
g2899
sg68
(lp2906
S'environ'
p2907
asbag61
(g82
g63
NtRp2908
(dp2909
g66
(dp2910
g93
g94
ssg75
g2899
sg68
(lp2911
S':'
asbag61
(g82
g63
NtRp2912
(dp2913
g66
(dp2914
sg75
g2899
sg68
(lp2915
g61
(g62
g63
NtRp2916
(dp2917
g66
(dp2918
g74
I4
ssg75
g2912
sg68
(lp2919
g61
(g70
g63
NtRp2920
(dp2921
g66
(dp2922
g74
I3
ssg75
Nsg68
(lp2923
g61
(g77
g63
NtRp2924
(dp2925
g66
(dp2926
sg75
g2920
sg68
(lp2927
g61
(g82
g63
NtRp2928
(dp2929
g66
(dp2930
g86
g87
ssg75
g2924
sg68
(lp2931
S'HTTP_ACCEPT'
p2932
asbag61
(g82
g63
NtRp2933
(dp2934
g66
(dp2935
g93
g94
ssg75
g2924
sg68
(lp2936
S':'
asbag61
(g82
g63
NtRp2937
(dp2938
g66
(dp2939
sg75
g2924
sg68
(lp2940
g61
(g62
g63
NtRp2941
(dp2942
g66
(dp2943
g74
I3
ssg75
g2937
sg68
(lp2944
g1304
asbasbasbag61
(g77
g63
NtRp2945
(dp2946
g66
(dp2947
sg75
g2920
sg68
(lp2948
g61
(g82
g63
NtRp2949
(dp2950
g66
(dp2951
g86
g87
ssg75
g2945
sg68
(lp2952
S'HTTP_ACCEPT_CHARSET'
p2953
asbag61
(g82
g63
NtRp2954
(dp2955
g66
(dp2956
g93
g94
ssg75
g2945
sg68
(lp2957
S':'
asbag61
(g82
g63
NtRp2958
(dp2959
g66
(dp2960
sg75
g2945
sg68
(lp2961
g61
(g62
g63
NtRp2962
(dp2963
g66
(dp2964
g74
I3
ssg75
g2958
sg68
(lp2965
g1326
asbasbasbag61
(g77
g63
NtRp2966
(dp2967
g66
(dp2968
sg75
g2920
sg68
(lp2969
g61
(g82
g63
NtRp2970
(dp2971
g66
(dp2972
g86
g87
ssg75
g2966
sg68
(lp2973
S'HTTP_ACCEPT_ENCODING'
p2974
asbag61
(g82
g63
NtRp2975
(dp2976
g66
(dp2977
g93
g94
ssg75
g2966
sg68
(lp2978
S':'
asbag61
(g82
g63
NtRp2979
(dp2980
g66
(dp2981
sg75
g2966
sg68
(lp2982
g61
(g62
g63
NtRp2983
(dp2984
g66
(dp2985
g74
I3
ssg75
g2979
sg68
(lp2986
g1348
asbasbasbag61
(g77
g63
NtRp2987
(dp2988
g66
(dp2989
sg75
g2920
sg68
(lp2990
g61
(g82
g63
NtRp2991
(dp2992
g66
(dp2993
g86
g87
ssg75
g2987
sg68
(lp2994
S'HTTP_ACCEPT_LANGUAGE'
p2995
asbag61
(g82
g63
NtRp2996
(dp2997
g66
(dp2998
g93
g94
ssg75
g2987
sg68
(lp2999
S':'
asbag61
(g82
g63
NtRp3000
(dp3001
g66
(dp3002
sg75
g2987
sg68
(lp3003
g61
(g62
g63
NtRp3004
(dp3005
g66
(dp3006
g74
I3
ssg75
g3000
sg68
(lp3007
g1370
asbasbasbag61
(g77
g63
NtRp3008
(dp3009
g66
(dp3010
sg75
g2920
sg68
(lp3011
g61
(g82
g63
NtRp3012
(dp3013
g66
(dp3014
g86
g87
ssg75
g3008
sg68
(lp3015
S'HTTP_CONNECTION'
p3016
asbag61
(g82
g63
NtRp3017
(dp3018
g66
(dp3019
g93
g94
ssg75
g3008
sg68
(lp3020
S':'
asbag61
(g82
g63
NtRp3021
(dp3022
g66
(dp3023
sg75
g3008
sg68
(lp3024
g61
(g62
g63
NtRp3025
(dp3026
g66
(dp3027
g74
I3
ssg75
g3021
sg68
(lp3028
g1392
asbasbasbag61
(g77
g63
NtRp3029
(dp3030
g66
(dp3031
sg75
g2920
sg68
(lp3032
g61
(g82
g63
NtRp3033
(dp3034
g66
(dp3035
g86
g87
ssg75
g3029
sg68
(lp3036
S'HTTP_COOKIE'
p3037
asbag61
(g82
g63
NtRp3038
(dp3039
g66
(dp3040
g93
g94
ssg75
g3029
sg68
(lp3041
S':'
asbag61
(g82
g63
NtRp3042
(dp3043
g66
(dp3044
sg75
g3029
sg68
(lp3045
g61
(g62
g63
NtRp3046
(dp3047
g66
(dp3048
g74
I3
ssg75
g3042
sg68
(lp3049
g1414
asbasbasbag61
(g77
g63
NtRp3050
(dp3051
g66
(dp3052
sg75
g2920
sg68
(lp3053
g61
(g82
g63
NtRp3054
(dp3055
g66
(dp3056
g86
g87
ssg75
g3050
sg68
(lp3057
S'HTTP_HOST'
p3058
asbag61
(g82
g63
NtRp3059
(dp3060
g66
(dp3061
g93
g94
ssg75
g3050
sg68
(lp3062
S':'
asbag61
(g82
g63
NtRp3063
(dp3064
g66
(dp3065
sg75
g3050
sg68
(lp3066
g61
(g62
g63
NtRp3067
(dp3068
g66
(dp3069
g74
I3
ssg75
g3063
sg68
(lp3070
g1436
asbasbasbag61
(g77
g63
NtRp3071
(dp3072
g66
(dp3073
sg75
g2920
sg68
(lp3074
g61
(g82
g63
NtRp3075
(dp3076
g66
(dp3077
g86
g87
ssg75
g3071
sg68
(lp3078
S'HTTP_REFERER'
p3079
asbag61
(g82
g63
NtRp3080
(dp3081
g66
(dp3082
g93
g94
ssg75
g3071
sg68
(lp3083
S':'
asbag61
(g82
g63
NtRp3084
(dp3085
g66
(dp3086
sg75
g3071
sg68
(lp3087
g61
(g62
g63
NtRp3088
(dp3089
g66
(dp3090
g74
I3
ssg75
g3084
sg68
(lp3091
g1458
asbasbasbag61
(g77
g63
NtRp3092
(dp3093
g66
(dp3094
sg75
g2920
sg68
(lp3095
g61
(g82
g63
NtRp3096
(dp3097
g66
(dp3098
g86
g87
ssg75
g3092
sg68
(lp3099
S'HTTP_USER_AGENT'
p3100
asbag61
(g82
g63
NtRp3101
(dp3102
g66
(dp3103
g93
g94
ssg75
g3092
sg68
(lp3104
S':'
asbag61
(g82
g63
NtRp3105
(dp3106
g66
(dp3107
sg75
g3092
sg68
(lp3108
g61
(g62
g63
NtRp3109
(dp3110
g66
(dp3111
g74
I3
ssg75
g3105
sg68
(lp3112
g1480
asbasbasbag61
(g77
g63
NtRp3113
(dp3114
g66
(dp3115
sg75
g2920
sg68
(lp3116
g61
(g82
g63
NtRp3117
(dp3118
g66
(dp3119
g86
g87
ssg75
g3113
sg68
(lp3120
S'PATH_INFO'
p3121
asbag61
(g82
g63
NtRp3122
(dp3123
g66
(dp3124
g93
g94
ssg75
g3113
sg68
(lp3125
S':'
asbag61
(g82
g63
NtRp3126
(dp3127
g66
(dp3128
sg75
g3113
sg68
(lp3129
g61
(g62
g63
NtRp3130
(dp3131
g66
(dp3132
g74
I3
ssg75
g3126
sg68
(lp3133
g1634
asbasbasbag61
(g77
g63
NtRp3134
(dp3135
g66
(dp3136
sg75
g2920
sg68
(lp3137
g61
(g82
g63
NtRp3138
(dp3139
g66
(dp3140
g86
g87
ssg75
g3134
sg68
(lp3141
S'QUERY_STRING'
p3142
asbag61
(g82
g63
NtRp3143
(dp3144
g66
(dp3145
g93
g94
ssg75
g3134
sg68
(lp3146
S':'
asbag61
(g82
g63
NtRp3147
(dp3148
g66
(dp3149
sg75
g3134
sg68
(lp3150
g61
(g62
g63
NtRp3151
(dp3152
g66
(dp3153
g74
I3
ssg75
g3147
sg68
(lp3154
S''
asbasbasbag61
(g77
g63
NtRp3155
(dp3156
g66
(dp3157
sg75
g2920
sg68
(lp3158
g61
(g82
g63
NtRp3159
(dp3160
g66
(dp3161
g86
g87
ssg75
g3155
sg68
(lp3162
S'REMOTE_ADDR'
p3163
asbag61
(g82
g63
NtRp3164
(dp3165
g66
(dp3166
g93
g94
ssg75
g3155
sg68
(lp3167
S':'
asbag61
(g82
g63
NtRp3168
(dp3169
g66
(dp3170
sg75
g3155
sg68
(lp3171
g61
(g62
g63
NtRp3172
(dp3173
g66
(dp3174
g74
I3
ssg75
g3168
sg68
(lp3175
g216
asbasbasbag61
(g77
g63
NtRp3176
(dp3177
g66
(dp3178
sg75
g2920
sg68
(lp3179
g61
(g82
g63
NtRp3180
(dp3181
g66
(dp3182
g86
g87
ssg75
g3176
sg68
(lp3183
S'REMOTE_PORT'
p3184
asbag61
(g82
g63
NtRp3185
(dp3186
g66
(dp3187
g93
g94
ssg75
g3176
sg68
(lp3188
S':'
asbag61
(g82
g63
NtRp3189
(dp3190
g66
(dp3191
sg75
g3176
sg68
(lp3192
g61
(g62
g63
NtRp3193
(dp3194
g66
(dp3195
g74
I3
ssg75
g3189
sg68
(lp3196
g1698
asbasbasbag61
(g77
g63
NtRp3197
(dp3198
g66
(dp3199
sg75
g2920
sg68
(lp3200
g61
(g82
g63
NtRp3201
(dp3202
g66
(dp3203
g86
g87
ssg75
g3197
sg68
(lp3204
S'REQUEST_METHOD'
p3205
asbag61
(g82
g63
NtRp3206
(dp3207
g66
(dp3208
g93
g94
ssg75
g3197
sg68
(lp3209
S':'
asbag61
(g82
g63
NtRp3210
(dp3211
g66
(dp3212
sg75
g3197
sg68
(lp3213
g61
(g62
g63
NtRp3214
(dp3215
g66
(dp3216
g74
I3
ssg75
g3210
sg68
(lp3217
g1720
asbasbasbag61
(g77
g63
NtRp3218
(dp3219
g66
(dp3220
sg75
g2920
sg68
(lp3221
g61
(g82
g63
NtRp3222
(dp3223
g66
(dp3224
g86
g87
ssg75
g3218
sg68
(lp3225
S'REQUEST_URI'
p3226
asbag61
(g82
g63
NtRp3227
(dp3228
g66
(dp3229
g93
g94
ssg75
g3218
sg68
(lp3230
S':'
asbag61
(g82
g63
NtRp3231
(dp3232
g66
(dp3233
sg75
g3218
sg68
(lp3234
g61
(g62
g63
NtRp3235
(dp3236
g66
(dp3237
g74
I3
ssg75
g3231
sg68
(lp3238
g1634
asbasbasbag61
(g77
g63
NtRp3239
(dp3240
g66
(dp3241
sg75
g2920
sg68
(lp3242
g61
(g82
g63
NtRp3243
(dp3244
g66
(dp3245
g86
g87
ssg75
g3239
sg68
(lp3246
S'SCRIPT_NAME'
p3247
asbag61
(g82
g63
NtRp3248
(dp3249
g66
(dp3250
g93
g94
ssg75
g3239
sg68
(lp3251
S':'
asbag61
(g82
g63
NtRp3252
(dp3253
g66
(dp3254
sg75
g3239
sg68
(lp3255
g61
(g62
g63
NtRp3256
(dp3257
g66
(dp3258
g74
I3
ssg75
g3252
sg68
(lp3259
S''
asbasbasbag61
(g77
g63
NtRp3260
(dp3261
g66
(dp3262
sg75
g2920
sg68
(lp3263
g61
(g82
g63
NtRp3264
(dp3265
g66
(dp3266
g86
g87
ssg75
g3260
sg68
(lp3267
S'SERVER_NAME'
p3268
asbag61
(g82
g63
NtRp3269
(dp3270
g66
(dp3271
g93
g94
ssg75
g3260
sg68
(lp3272
S':'
asbag61
(g82
g63
NtRp3273
(dp3274
g66
(dp3275
sg75
g3260
sg68
(lp3276
g61
(g62
g63
NtRp3277
(dp3278
g66
(dp3279
g74
I3
ssg75
g3273
sg68
(lp3280
g1784
asbasbasbag61
(g77
g63
NtRp3281
(dp3282
g66
(dp3283
sg75
g2920
sg68
(lp3284
g61
(g82
g63
NtRp3285
(dp3286
g66
(dp3287
g86
g87
ssg75
g3281
sg68
(lp3288
S'SERVER_PORT'
p3289
asbag61
(g82
g63
NtRp3290
(dp3291
g66
(dp3292
g93
g94
ssg75
g3281
sg68
(lp3293
S':'
asbag61
(g82
g63
NtRp3294
(dp3295
g66
(dp3296
sg75
g3281
sg68
(lp3297
g61
(g62
g63
NtRp3298
(dp3299
g66
(dp3300
g74
I3
ssg75
g3294
sg68
(lp3301
g1806
asbasbasbag61
(g77
g63
NtRp3302
(dp3303
g66
(dp3304
sg75
g2920
sg68
(lp3305
g61
(g82
g63
NtRp3306
(dp3307
g66
(dp3308
g86
g87
ssg75
g3302
sg68
(lp3309
S'SERVER_PROTOCOL'
p3310
asbag61
(g82
g63
NtRp3311
(dp3312
g66
(dp3313
g93
g94
ssg75
g3302
sg68
(lp3314
S':'
asbag61
(g82
g63
NtRp3315
(dp3316
g66
(dp3317
sg75
g3302
sg68
(lp3318
g61
(g62
g63
NtRp3319
(dp3320
g66
(dp3321
g74
I3
ssg75
g3315
sg68
(lp3322
g1828
asbasbasbag61
(g77
g63
NtRp3323
(dp3324
g66
(dp3325
sg75
g2920
sg68
(lp3326
g61
(g82
g63
NtRp3327
(dp3328
g66
(dp3329
g86
g87
ssg75
g3323
sg68
(lp3330
S'SERVER_SOFTWARE'
p3331
asbag61
(g82
g63
NtRp3332
(dp3333
g66
(dp3334
g93
g94
ssg75
g3323
sg68
(lp3335
S':'
asbag61
(g82
g63
NtRp3336
(dp3337
g66
(dp3338
sg75
g3323
sg68
(lp3339
g61
(g62
g63
NtRp3340
(dp3341
g66
(dp3342
g74
I3
ssg75
g3336
sg68
(lp3343
g1850
asbasbasbag61
(g77
g63
NtRp3344
(dp3345
g66
(dp3346
sg75
g2920
sg68
(lp3347
g61
(g82
g63
NtRp3348
(dp3349
g66
(dp3350
g86
g87
ssg75
g3344
sg68
(lp3351
S'wsgi.errors'
p3352
asbag61
(g82
g63
NtRp3353
(dp3354
g66
(dp3355
g93
g94
ssg75
g3344
sg68
(lp3356
S':'
asbag61
(g82
g63
NtRp3357
(dp3358
g66
(dp3359
sg75
g3344
sg68
(lp3360
g61
(g62
g63
NtRp3361
(dp3362
g66
(dp3363
g74
I3
ssg75
g3357
sg68
(lp3364
S"<open file '<stderr>', mode 'w' at 0x540b0>"
p3365
asbasbasbag61
(g77
g63
NtRp3366
(dp3367
g66
(dp3368
sg75
g2920
sg68
(lp3369
g61
(g82
g63
NtRp3370
(dp3371
g66
(dp3372
g86
g87
ssg75
g3366
sg68
(lp3373
S'wsgi.file_wrapper'
p3374
asbag61
(g82
g63
NtRp3375
(dp3376
g66
(dp3377
g93
g94
ssg75
g3366
sg68
(lp3378
S':'
asbag61
(g82
g63
NtRp3379
(dp3380
g66
(dp3381
sg75
g3366
sg68
(lp3382
g61
(g62
g63
NtRp3383
(dp3384
g66
(dp3385
g74
I3
ssg75
g3379
sg68
(lp3386
S'<class wsgiref.util.FileWrapper at 0x329d060>'
p3387
asbasbasbag61
(g77
g63
NtRp3388
(dp3389
g66
(dp3390
sg75
g2920
sg68
(lp3391
g61
(g82
g63
NtRp3392
(dp3393
g66
(dp3394
g86
g87
ssg75
g3388
sg68
(lp3395
S'wsgi.input'
p3396
asbag61
(g82
g63
NtRp3397
(dp3398
g66
(dp3399
g93
g94
ssg75
g3388
sg68
(lp3400
S':'
asbag61
(g82
g63
NtRp3401
(dp3402
g66
(dp3403
sg75
g3388
sg68
(lp3404
g61
(g62
g63
NtRp3405
(dp3406
g66
(dp3407
g74
I3
ssg75
g3401
sg68
(lp3408
S'<cStringIO.StringO object at 0xa9566a0>'
p3409
asbasbasbag61
(g77
g63
NtRp3410
(dp3411
g66
(dp3412
sg75
g2920
sg68
(lp3413
g61
(g82
g63
NtRp3414
(dp3415
g66
(dp3416
g86
g87
ssg75
g3410
sg68
(lp3417
S'wsgi.multiprocess'
p3418
asbag61
(g82
g63
NtRp3419
(dp3420
g66
(dp3421
g93
g94
ssg75
g3410
sg68
(lp3422
S':'
asbag61
(g82
g63
NtRp3423
(dp3424
g66
(dp3425
sg75
g3410
sg68
(lp3426
g61
(g62
g63
NtRp3427
(dp3428
g66
(dp3429
g74
I3
ssg75
g3423
sg68
(lp3430
g104
asbasbasbag61
(g77
g63
NtRp3431
(dp3432
g66
(dp3433
sg75
g2920
sg68
(lp3434
g61
(g82
g63
NtRp3435
(dp3436
g66
(dp3437
g86
g87
ssg75
g3431
sg68
(lp3438
S'wsgi.multithread'
p3439
asbag61
(g82
g63
NtRp3440
(dp3441
g66
(dp3442
g93
g94
ssg75
g3431
sg68
(lp3443
S':'
asbag61
(g82
g63
NtRp3444
(dp3445
g66
(dp3446
sg75
g3431
sg68
(lp3447
g61
(g62
g63
NtRp3448
(dp3449
g66
(dp3450
g74
I3
ssg75
g3444
sg68
(lp3451
g1260
asbasbasbag61
(g77
g63
NtRp3452
(dp3453
g66
(dp3454
sg75
g2920
sg68
(lp3455
g61
(g82
g63
NtRp3456
(dp3457
g66
(dp3458
g86
g87
ssg75
g3452
sg68
(lp3459
S'wsgi.run_once'
p3460
asbag61
(g82
g63
NtRp3461
(dp3462
g66
(dp3463
g93
g94
ssg75
g3452
sg68
(lp3464
S':'
asbag61
(g82
g63
NtRp3465
(dp3466
g66
(dp3467
sg75
g3452
sg68
(lp3468
g61
(g62
g63
NtRp3469
(dp3470
g66
(dp3471
g74
I3
ssg75
g3465
sg68
(lp3472
g104
asbasbasbag61
(g77
g63
NtRp3473
(dp3474
g66
(dp3475
sg75
g2920
sg68
(lp3476
g61
(g82
g63
NtRp3477
(dp3478
g66
(dp3479
g86
g87
ssg75
g3473
sg68
(lp3480
S'wsgi.url_scheme'
p3481
asbag61
(g82
g63
NtRp3482
(dp3483
g66
(dp3484
g93
g94
ssg75
g3473
sg68
(lp3485
S':'
asbag61
(g82
g63
NtRp3486
(dp3487
g66
(dp3488
sg75
g3473
sg68
(lp3489
g61
(g62
g63
NtRp3490
(dp3491
g66
(dp3492
g74
I3
ssg75
g3486
sg68
(lp3493
g2109
asbasbasbag61
(g77
g63
NtRp3494
(dp3495
g66
(dp3496
sg75
g2920
sg68
(lp3497
g61
(g82
g63
NtRp3498
(dp3499
g66
(dp3500
g86
g87
ssg75
g3494
sg68
(lp3501
S'wsgi.version'
p3502
asbag61
(g82
g63
NtRp3503
(dp3504
g66
(dp3505
g93
g94
ssg75
g3494
sg68
(lp3506
S':'
asbag61
(g82
g63
NtRp3507
(dp3508
g66
(dp3509
sg75
g3494
sg68
(lp3510
g61
(g62
g63
NtRp3511
(dp3512
g66
(dp3513
g74
I3
ssg75
g3507
sg68
(lp3514
S'1'
asbasbasbasbasbasbasbasbasbasbasbasbasbsS'frames'
p3515
(lp3516
(dp3517
S'file'
p3518
S'/home/mdipierro/web2py/gluon/restricted.py'
p3519
sS'dump'
p3520
(dp3521
sS'lnum'
p3522
I212
sS'lines'
p3523
(dp3524
sS'call'
p3525
S'(code=\'# coding: utf8\\ndbOBJECT = DAL(\\\'sqlite://storage....("odds", "DECIMAL", notnull=True, default=None))\\n\', environment={\'A\': <class \'gluon.html.A\'>, \'Auth\': <class \'gluon.tools.Auth\'>, \'B\': <class \'gluon.html.B\'>, \'BEAUTIFY\': <class \'gluon.html.BEAUTIFY\'>, \'BODY\': <class \'gluon.html.BODY\'>, \'BR\': <class \'gluon.html.BR\'>, \'BUTTON\': <class \'gluon.html.BUTTON\'>, \'CAT\': <class \'gluon.html.CAT\'>, \'CENTER\': <class \'gluon.html.CENTER\'>, \'CLEANUP\': <class \'gluon.validators.CLEANUP\'>, ...}, layer=\'/Users/zamechek/Downloads/web2py/web2py.app/Contents/Resources/applications/hellow/models/slot.py\')'
p3526
sS'func'
p3527
S'restricted'
p3528
sa(dp3529
g3518
S'/Users/zamechek/Downloads/web2py/web2py.app/Contents/Resources/applications/hellow/models/slot.py'
p3530
sg3520
(dp3531
sg3522
I4
sg3523
(dp3532
I1
S'# coding: utf8'
p3533
sI2
S"dbOBJECT = DAL('sqlite://storage.sqlite',pool_size=1,check_reserved=['all'])"
p3534
sI3
S'dbOBJECT.define_table("slots",'
p3535
sI4
S'      SQLField("odds", "DECIMAL", notnull=True, default=None))'
p3536
ssg3525
S'()'
p3537
sg3527
S'<module>'
p3538
sa(dp3539
g3518
S'/home/mdipierro/web2py/gluon/dal.py'
p3540
sg3520
(dp3541
sg3522
I7352
sg3523
(dp3542
sg3525
S'(self=<DAL uri="sqlite://storage.sqlite">, tablename=\'slots\', *fields=(<gluon.dal.Field object at 0xa93b830>,), **args={})'
p3543
sg3527
S'define_table'
p3544
sa(dp3545
g3518
S'/home/mdipierro/web2py/gluon/dal.py'
p3546
sg3520
(dp3547
sg3522
I7388
sg3523
(dp3548
sg3525
S'(self=<DAL uri="sqlite://storage.sqlite">, tablename=\'slots\', *fields=(<gluon.dal.Field object at 0xa93b830>,), **args={})'
p3549
sg3527
S'lazy_define_table'
p3550
sa(dp3551
g3518
S'/home/mdipierro/web2py/gluon/dal.py'
p3552
sg3520
(dp3553
sg3522
I839
sg3523
(dp3554
sg3525
S'(self=<gluon.dal.SQLiteAdapter object at 0xa93b4d0>, table=<Table slots (id,odds)>, migrate=True, fake_migrate=False, polymodel=None)'
p3555
sg3527
S'create_table'
p3556
sasS'pyver'
p3557
S'Python 2.5.1: /Users/zamechek/Downloads/web2py/web2py.app/Contents/MacOS/python'
p3558
sS'session'
p3559
g61
(g62
g63
NtRp3560
(dp3561
g66
(dp3562
sg68
(lp3563
g61
(g70
g63
NtRp3564
(dp3565
g66
(dp3566
g74
I5
ssg75
Nsg68
(lp3567
g61
(g77
g63
NtRp3568
(dp3569
g66
(dp3570
sg75
g3564
sg68
(lp3571
g61
(g82
g63
NtRp3572
(dp3573
g66
(dp3574
g86
g87
ssg75
g3568
sg68
(lp3575
S'last_orderby'
p3576
asbag61
(g82
g63
NtRp3577
(dp3578
g66
(dp3579
g93
g94
ssg75
g3568
sg68
(lp3580
S':'
asbag61
(g82
g63
NtRp3581
(dp3582
g66
(dp3583
sg75
g3568
sg68
(lp3584
g61
(g62
g63
NtRp3585
(dp3586
g66
(dp3587
g74
I5
ssg75
g3581
sg68
(lp3588
S'None'
p3589
asbasbasbag61
(g77
g63
NtRp3590
(dp3591
g66
(dp3592
sg75
g3564
sg68
(lp3593
g61
(g82
g63
NtRp3594
(dp3595
g66
(dp3596
g86
g87
ssg75
g3590
sg68
(lp3597
S'last_query'
p3598
asbag61
(g82
g63
NtRp3599
(dp3600
g66
(dp3601
g93
g94
ssg75
g3590
sg68
(lp3602
S':'
asbag61
(g82
g63
NtRp3603
(dp3604
g66
(dp3605
sg75
g3590
sg68
(lp3606
g61
(g62
g63
NtRp3607
(dp3608
g66
(dp3609
g74
I5
ssg75
g3603
sg68
(lp3610
S'db.auth_cas.id>0'
p3611
asbasbasbasbasbsS'etype'
p3612
S"<type 'exceptions.SyntaxError'>"
p3613
sS'date'
p3614
S'Mon Mar 25 11:02:19 2013'
p3615
sS'response'
p3616
g61
(g62
g63
NtRp3617
(dp3618
g66
(dp3619
sg68
(lp3620
g61
(g70
g63
NtRp3621
(dp3622
g66
(dp3623
g74
I5
ssg75
Nsg68
(lp3624
g61
(g77
g63
NtRp3625
(dp3626
g66
(dp3627
sg75
g3621
sg68
(lp3628
g61
(g82
g63
NtRp3629
(dp3630
g66
(dp3631
g86
g87
ssg75
g3625
sg68
(lp3632
g159
asbag61
(g82
g63
NtRp3633
(dp3634
g66
(dp3635
g93
g94
ssg75
g3625
sg68
(lp3636
S':'
asbag61
(g82
g63
NtRp3637
(dp3638
g66
(dp3639
sg75
g3625
sg68
(lp3640
g61
(g62
g63
NtRp3641
(dp3642
g66
(dp3643
g74
I5
ssg75
g3637
sg68
(lp3644
S'<cStringIO.StringO object at 0xa956d80>'
p3645
asbasbasbag61
(g77
g63
NtRp3646
(dp3647
g66
(dp3648
sg75
g3621
sg68
(lp3649
g61
(g82
g63
NtRp3650
(dp3651
g66
(dp3652
g86
g87
ssg75
g3646
sg68
(lp3653
g247
asbag61
(g82
g63
NtRp3654
(dp3655
g66
(dp3656
g93
g94
ssg75
g3646
sg68
(lp3657
S':'
asbag61
(g82
g63
NtRp3658
(dp3659
g66
(dp3660
sg75
g3646
sg68
(lp3661
g61
(g62
g63
NtRp3662
(dp3663
g66
(dp3664
g74
I5
ssg75
g3658
sg68
(lp3665
g61
(g70
g63
NtRp3666
(dp3667
g66
(dp3668
g74
I4
ssg75
Nsg68
(lp3669
g61
(g77
g63
NtRp3670
(dp3671
g66
(dp3672
sg75
g3666
sg68
(lp3673
g61
(g82
g63
NtRp3674
(dp3675
g66
(dp3676
g86
g87
ssg75
g3670
sg68
(lp3677
S'session_id_hellow'
p3678
asbag61
(g82
g63
NtRp3679
(dp3680
g66
(dp3681
g93
g94
ssg75
g3670
sg68
(lp3682
S':'
asbag61
(g82
g63
NtRp3683
(dp3684
g66
(dp3685
sg75
g3670
sg68
(lp3686
g61
(g62
g63
NtRp3687
(dp3688
g66
(dp3689
g74
I4
ssg75
g3683
sg68
(lp3690
g624
ag61
(g70
g63
NtRp3691
(dp3692
g66
(dp3693
g74
I3
ssg75
Nsg68
(lp3694
g61
(g77
g63
NtRp3695
(dp3696
g66
(dp3697
sg75
g3691
sg68
(lp3698
g61
(g82
g63
NtRp3699
(dp3700
g66
(dp3701
g86
g87
ssg75
g3695
sg68
(lp3702
g298
asbag61
(g82
g63
NtRp3703
(dp3704
g66
(dp3705
g93
g94
ssg75
g3695
sg68
(lp3706
S':'
asbag61
(g82
g63
NtRp3707
(dp3708
g66
(dp3709
sg75
g3695
sg68
(lp3710
g61
(g62
g63
NtRp3711
(dp3712
g66
(dp3713
g74
I3
ssg75
g3707
sg68
(lp3714
S''
asbasbasbag61
(g77
g63
NtRp3715
(dp3716
g66
(dp3717
sg75
g3691
sg68
(lp3718
g61
(g82
g63
NtRp3719
(dp3720
g66
(dp3721
g86
g87
ssg75
g3715
sg68
(lp3722
g319
asbag61
(g82
g63
NtRp3723
(dp3724
g66
(dp3725
g93
g94
ssg75
g3715
sg68
(lp3726
S':'
asbag61
(g82
g63
NtRp3727
(dp3728
g66
(dp3729
sg75
g3715
sg68
(lp3730
g61
(g62
g63
NtRp3731
(dp3732
g66
(dp3733
g74
I3
ssg75
g3727
sg68
(lp3734
S''
asbasbasbag61
(g77
g63
NtRp3735
(dp3736
g66
(dp3737
sg75
g3691
sg68
(lp3738
g61
(g82
g63
NtRp3739
(dp3740
g66
(dp3741
g86
g87
ssg75
g3735
sg68
(lp3742
g340
asbag61
(g82
g63
NtRp3743
(dp3744
g66
(dp3745
g93
g94
ssg75
g3735
sg68
(lp3746
S':'
asbag61
(g82
g63
NtRp3747
(dp3748
g66
(dp3749
sg75
g3735
sg68
(lp3750
g61
(g62
g63
NtRp3751
(dp3752
g66
(dp3753
g74
I3
ssg75
g3747
sg68
(lp3754
S''
asbasbasbag61
(g77
g63
NtRp3755
(dp3756
g66
(dp3757
sg75
g3691
sg68
(lp3758
g61
(g82
g63
NtRp3759
(dp3760
g66
(dp3761
g86
g87
ssg75
g3755
sg68
(lp3762
g361
asbag61
(g82
g63
NtRp3763
(dp3764
g66
(dp3765
g93
g94
ssg75
g3755
sg68
(lp3766
S':'
asbag61
(g82
g63
NtRp3767
(dp3768
g66
(dp3769
sg75
g3755
sg68
(lp3770
g61
(g62
g63
NtRp3771
(dp3772
g66
(dp3773
g74
I3
ssg75
g3767
sg68
(lp3774
S''
asbasbasbag61
(g77
g63
NtRp3775
(dp3776
g66
(dp3777
sg75
g3691
sg68
(lp3778
g61
(g82
g63
NtRp3779
(dp3780
g66
(dp3781
g86
g87
ssg75
g3775
sg68
(lp3782
g382
asbag61
(g82
g63
NtRp3783
(dp3784
g66
(dp3785
g93
g94
ssg75
g3775
sg68
(lp3786
S':'
asbag61
(g82
g63
NtRp3787
(dp3788
g66
(dp3789
sg75
g3775
sg68
(lp3790
g61
(g62
g63
NtRp3791
(dp3792
g66
(dp3793
g74
I3
ssg75
g3787
sg68
(lp3794
S'/'
asbasbasbag61
(g77
g63
NtRp3795
(dp3796
g66
(dp3797
sg75
g3691
sg68
(lp3798
g61
(g82
g63
NtRp3799
(dp3800
g66
(dp3801
g86
g87
ssg75
g3795
sg68
(lp3802
g403
asbag61
(g82
g63
NtRp3803
(dp3804
g66
(dp3805
g93
g94
ssg75
g3795
sg68
(lp3806
S':'
asbag61
(g82
g63
NtRp3807
(dp3808
g66
(dp3809
sg75
g3795
sg68
(lp3810
g61
(g62
g63
NtRp3811
(dp3812
g66
(dp3813
g74
I3
ssg75
g3807
sg68
(lp3814
S''
asbasbasbag61
(g77
g63
NtRp3815
(dp3816
g66
(dp3817
sg75
g3691
sg68
(lp3818
g61
(g82
g63
NtRp3819
(dp3820
g66
(dp3821
g86
g87
ssg75
g3815
sg68
(lp3822
g424
asbag61
(g82
g63
NtRp3823
(dp3824
g66
(dp3825
g93
g94
ssg75
g3815
sg68
(lp3826
S':'
asbag61
(g82
g63
NtRp3827
(dp3828
g66
(dp3829
sg75
g3815
sg68
(lp3830
g61
(g62
g63
NtRp3831
(dp3832
g66
(dp3833
g74
I3
ssg75
g3827
sg68
(lp3834
S''
asbasbasbasbasbasbasbasbasbasbasbag61
(g77
g63
NtRp3835
(dp3836
g66
(dp3837
sg75
g3621
sg68
(lp3838
g61
(g82
g63
NtRp3839
(dp3840
g66
(dp3841
g86
g87
ssg75
g3835
sg68
(lp3842
S'delimiters'
p3843
asbag61
(g82
g63
NtRp3844
(dp3845
g66
(dp3846
g93
g94
ssg75
g3835
sg68
(lp3847
S':'
asbag61
(g82
g63
NtRp3848
(dp3849
g66
(dp3850
sg75
g3835
sg68
(lp3851
g61
(g62
g63
NtRp3852
(dp3853
g66
(dp3854
g74
I5
ssg75
g3848
sg68
(lp3855
g61
(g70
g63
NtRp3856
(dp3857
g66
(dp3858
g74
I4
ssg75
Nsg68
(lp3859
g61
(g77
g63
NtRp3860
(dp3861
g66
(dp3862
sg75
g3856
sg68
(lp3863
g61
(g82
g63
NtRp3864
(dp3865
g66
(dp3866
sg75
g3860
sg68
(lp3867
g61
(g62
g63
NtRp3868
(dp3869
g66
(dp3870
g74
I4
ssg75
g3864
sg68
(lp3871
S'{{'
p3872
asbasbasbag61
(g77
g63
NtRp3873
(dp3874
g66
(dp3875
sg75
g3856
sg68
(lp3876
g61
(g82
g63
NtRp3877
(dp3878
g66
(dp3879
sg75
g3873
sg68
(lp3880
g61
(g62
g63
NtRp3881
(dp3882
g66
(dp3883
g74
I4
ssg75
g3877
sg68
(lp3884
S'}}'
p3885
asbasbasbasbasbasbasbag61
(g77
g63
NtRp3886
(dp3887
g66
(dp3888
sg75
g3621
sg68
(lp3889
g61
(g82
g63
NtRp3890
(dp3891
g66
(dp3892
g86
g87
ssg75
g3886
sg68
(lp3893
S'files'
p3894
asbag61
(g82
g63
NtRp3895
(dp3896
g66
(dp3897
g93
g94
ssg75
g3886
sg68
(lp3898
S':'
asbag61
(g82
g63
NtRp3899
(dp3900
g66
(dp3901
sg75
g3886
sg68
(lp3902
g61
(g62
g63
NtRp3903
(dp3904
g66
(dp3905
g74
I5
ssg75
g3899
sg68
(lp3906
g61
(g70
g63
NtRp3907
(dp3908
g66
(dp3909
g74
I4
ssg75
Nsg68
(lp3910
sbasbasbasbag61
(g77
g63
NtRp3911
(dp3912
g66
(dp3913
sg75
g3621
sg68
(lp3914
g61
(g82
g63
NtRp3915
(dp3916
g66
(dp3917
g86
g87
ssg75
g3911
sg68
(lp3918
S'flash'
p3919
asbag61
(g82
g63
NtRp3920
(dp3921
g66
(dp3922
g93
g94
ssg75
g3911
sg68
(lp3923
S':'
asbag61
(g82
g63
NtRp3924
(dp3925
g66
(dp3926
sg75
g3911
sg68
(lp3927
g61
(g62
g63
NtRp3928
(dp3929
g66
(dp3930
g74
I5
ssg75
g3924
sg68
(lp3931
S''
asbasbasbag61
(g77
g63
NtRp3932
(dp3933
g66
(dp3934
sg75
g3621
sg68
(lp3935
g61
(g82
g63
NtRp3936
(dp3937
g66
(dp3938
g86
g87
ssg75
g3932
sg68
(lp3939
S'generic_patterns'
p3940
asbag61
(g82
g63
NtRp3941
(dp3942
g66
(dp3943
g93
g94
ssg75
g3932
sg68
(lp3944
S':'
asbag61
(g82
g63
NtRp3945
(dp3946
g66
(dp3947
sg75
g3932
sg68
(lp3948
g61
(g62
g63
NtRp3949
(dp3950
g66
(dp3951
g74
I5
ssg75
g3945
sg68
(lp3952
g61
(g70
g63
NtRp3953
(dp3954
g66
(dp3955
g74
I4
ssg75
Nsg68
(lp3956
g61
(g77
g63
NtRp3957
(dp3958
g66
(dp3959
sg75
g3953
sg68
(lp3960
g61
(g82
g63
NtRp3961
(dp3962
g66
(dp3963
sg75
g3957
sg68
(lp3964
g61
(g62
g63
NtRp3965
(dp3966
g66
(dp3967
g74
I4
ssg75
g3961
sg68
(lp3968
S'*'
asbasbasbasbasbasbasbag61
(g77
g63
NtRp3969
(dp3970
g66
(dp3971
sg75
g3621
sg68
(lp3972
g61
(g82
g63
NtRp3973
(dp3974
g66
(dp3975
g86
g87
ssg75
g3969
sg68
(lp3976
S'google_analytics_id'
p3977
asbag61
(g82
g63
NtRp3978
(dp3979
g66
(dp3980
g93
g94
ssg75
g3969
sg68
(lp3981
S':'
asbag61
(g82
g63
NtRp3982
(dp3983
g66
(dp3984
sg75
g3969
sg68
(lp3985
g61
(g62
g63
NtRp3986
(dp3987
g66
(dp3988
g74
I5
ssg75
g3982
sg68
(lp3989
S'None'
p3990
asbasbasbag61
(g77
g63
NtRp3991
(dp3992
g66
(dp3993
sg75
g3621
sg68
(lp3994
g61
(g82
g63
NtRp3995
(dp3996
g66
(dp3997
g86
g87
ssg75
g3991
sg68
(lp3998
S'headers'
p3999
asbag61
(g82
g63
NtRp4000
(dp4001
g66
(dp4002
g93
g94
ssg75
g3991
sg68
(lp4003
S':'
asbag61
(g82
g63
NtRp4004
(dp4005
g66
(dp4006
sg75
g3991
sg68
(lp4007
g61
(g62
g63
NtRp4008
(dp4009
g66
(dp4010
g74
I5
ssg75
g4004
sg68
(lp4011
g61
(g70
g63
NtRp4012
(dp4013
g66
(dp4014
g74
I4
ssg75
Nsg68
(lp4015
g61
(g77
g63
NtRp4016
(dp4017
g66
(dp4018
sg75
g4012
sg68
(lp4019
g61
(g82
g63
NtRp4020
(dp4021
g66
(dp4022
g86
g87
ssg75
g4016
sg68
(lp4023
S'X-Powered-By'
p4024
asbag61
(g82
g63
NtRp4025
(dp4026
g66
(dp4027
g93
g94
ssg75
g4016
sg68
(lp4028
S':'
asbag61
(g82
g63
NtRp4029
(dp4030
g66
(dp4031
sg75
g4016
sg68
(lp4032
g61
(g62
g63
NtRp4033
(dp4034
g66
(dp4035
g74
I4
ssg75
g4029
sg68
(lp4036
S'web2py'
p4037
asbasbasbasbasbasbasbag61
(g77
g63
NtRp4038
(dp4039
g66
(dp4040
sg75
g3621
sg68
(lp4041
g61
(g82
g63
NtRp4042
(dp4043
g66
(dp4044
g86
g87
ssg75
g4038
sg68
(lp4045
S'logo'
p4046
asbag61
(g82
g63
NtRp4047
(dp4048
g66
(dp4049
g93
g94
ssg75
g4038
sg68
(lp4050
S':'
asbag61
(g82
g63
NtRp4051
(dp4052
g66
(dp4053
sg75
g4038
sg68
(lp4054
g61
(g62
g63
NtRp4055
(dp4056
g66
(dp4057
g74
I5
ssg75
g4051
sg68
(lp4058
g61
(cgluon.html
A
p4059
g63
NtRp4060
(dp4061
g66
(dp4062
S'_class'
p4063
S'brand'
p4064
sS'_href'
p4065
S'http://www.web2py.com/'
p4066
ssg75
Nsg68
(lp4067
g61
(cgluon.html
B
p4068
g63
NtRp4069
(dp4070
g66
(dp4071
sg75
g4060
sg68
(lp4072
S'web'
p4073
ag61
(cgluon.html
SPAN
p4074
g63
NtRp4075
(dp4076
g66
(dp4077
sg75
g4069
sg68
(lp4078
I2
asbaS'py'
p4079
asbacgluon.html
XML_unpickle
p4080
(S's\r\x00\x00\x00&trade;&nbsp;'
tRp4081
asbasbasbasbag61
(g77
g63
NtRp4082
(dp4083
g66
(dp4084
sg75
g3621
sg68
(lp4085
g61
(g82
g63
NtRp4086
(dp4087
g66
(dp4088
g86
g87
ssg75
g4082
sg68
(lp4089
S'menu'
p4090
asbag61
(g82
g63
NtRp4091
(dp4092
g66
(dp4093
g93
g94
ssg75
g4082
sg68
(lp4094
S':'
asbag61
(g82
g63
NtRp4095
(dp4096
g66
(dp4097
sg75
g4082
sg68
(lp4098
g61
(g62
g63
NtRp4099
(dp4100
g66
(dp4101
g74
I5
ssg75
g4095
sg68
(lp4102
g61
(g70
g63
NtRp4103
(dp4104
g66
(dp4105
g74
I4
ssg75
Nsg68
(lp4106
g61
(g77
g63
NtRp4107
(dp4108
g66
(dp4109
sg75
g4103
sg68
(lp4110
g61
(g82
g63
NtRp4111
(dp4112
g66
(dp4113
sg75
g4107
sg68
(lp4114
g61
(g62
g63
NtRp4115
(dp4116
g66
(dp4117
g74
I4
ssg75
g4111
sg68
(lp4118
g61
(g70
g63
NtRp4119
(dp4120
g66
(dp4121
g74
I3
ssg75
Nsg68
(lp4122
g61
(g77
g63
NtRp4123
(dp4124
g66
(dp4125
sg75
g4119
sg68
(lp4126
g61
(g82
g63
NtRp4127
(dp4128
g66
(dp4129
sg75
g4123
sg68
(lp4130
g61
(g62
g63
NtRp4131
(dp4132
g66
(dp4133
g74
I3
ssg75
g4127
sg68
(lp4134
cgluon.languages
lazyT_unpickle
p4135
(S't\x04\x00\x00\x00Home'
tRp4136
asbasbasbag61
(g77
g63
NtRp4137
(dp4138
g66
(dp4139
sg75
g4119
sg68
(lp4140
g61
(g82
g63
NtRp4141
(dp4142
g66
(dp4143
sg75
g4137
sg68
(lp4144
g61
(g62
g63
NtRp4145
(dp4146
g66
(dp4147
g74
I3
ssg75
g4141
sg68
(lp4148
g104
asbasbasbag61
(g77
g63
NtRp4149
(dp4150
g66
(dp4151
sg75
g4119
sg68
(lp4152
g61
(g82
g63
NtRp4153
(dp4154
g66
(dp4155
sg75
g4149
sg68
(lp4156
g61
(g62
g63
NtRp4157
(dp4158
g66
(dp4159
g74
I3
ssg75
g4153
sg68
(lp4160
S'/hellow/default/index'
p4161
asbasbasbag61
(g77
g63
NtRp4162
(dp4163
g66
(dp4164
sg75
g4119
sg68
(lp4165
g61
(g82
g63
NtRp4166
(dp4167
g66
(dp4168
sg75
g4162
sg68
(lp4169
g61
(g62
g63
NtRp4170
(dp4171
g66
(dp4172
g74
I3
ssg75
g4166
sg68
(lp4173
g61
(g70
g63
NtRp4174
(dp4175
g66
(dp4176
g74
I2
ssg75
Nsg68
(lp4177
sbasbasbasbasbasbasbasbag61
(g77
g63
NtRp4178
(dp4179
g66
(dp4180
sg75
g4103
sg68
(lp4181
g61
(g82
g63
NtRp4182
(dp4183
g66
(dp4184
sg75
g4178
sg68
(lp4185
g61
(g62
g63
NtRp4186
(dp4187
g66
(dp4188
g74
I4
ssg75
g4182
sg68
(lp4189
g61
(g70
g63
NtRp4190
(dp4191
g66
(dp4192
g74
I3
ssg75
Nsg68
(lp4193
g61
(g77
g63
NtRp4194
(dp4195
g66
(dp4196
sg75
g4190
sg68
(lp4197
g61
(g82
g63
NtRp4198
(dp4199
g66
(dp4200
sg75
g4194
sg68
(lp4201
g61
(g62
g63
NtRp4202
(dp4203
g66
(dp4204
g74
I3
ssg75
g4198
sg68
(lp4205
g61
(g4074
g63
NtRp4206
(dp4207
g66
(dp4208
g4063
S'highlighted'
p4209
ssg75
Nsg68
(lp4210
g4037
asbasbasbasbag61
(g77
g63
NtRp4211
(dp4212
g66
(dp4213
sg75
g4190
sg68
(lp4214
g61
(g82
g63
NtRp4215
(dp4216
g66
(dp4217
sg75
g4211
sg68
(lp4218
g61
(g62
g63
NtRp4219
(dp4220
g66
(dp4221
g74
I3
ssg75
g4215
sg68
(lp4222
g104
asbasbasbag61
(g77
g63
NtRp4223
(dp4224
g66
(dp4225
sg75
g4190
sg68
(lp4226
g61
(g82
g63
NtRp4227
(dp4228
g66
(dp4229
sg75
g4223
sg68
(lp4230
g61
(g62
g63
NtRp4231
(dp4232
g66
(dp4233
g74
I3
ssg75
g4227
sg68
(lp4234
S'http://web2py.com'
p4235
asbasbasbag61
(g77
g63
NtRp4236
(dp4237
g66
(dp4238
sg75
g4190
sg68
(lp4239
g61
(g82
g63
NtRp4240
(dp4241
g66
(dp4242
sg75
g4236
sg68
(lp4243
g61
(g62
g63
NtRp4244
(dp4245
g66
(dp4246
g74
I3
ssg75
g4240
sg68
(lp4247
g61
(g70
g63
NtRp4248
(dp4249
g66
(dp4250
g74
I2
ssg75
Nsg68
(lp4251
g61
(g77
g63
NtRp4252
(dp4253
g66
(dp4254
sg75
g4248
sg68
(lp4255
g61
(g82
g63
NtRp4256
(dp4257
g66
(dp4258
sg75
g4252
sg68
(lp4259
g61
(g62
g63
NtRp4260
(dp4261
g66
(dp4262
g74
I2
ssg75
g4256
sg68
(lp4263
g61
(g70
g63
NtRp4264
(dp4265
g66
(dp4266
g74
I1
ssg75
Nsg68
(lp4267
g61
(g77
g63
NtRp4268
(dp4269
g66
(dp4270
sg75
g4264
sg68
(lp4271
g61
(g82
g63
NtRp4272
(dp4273
g66
(dp4274
sg75
g4268
sg68
(lp4275
g61
(g62
g63
NtRp4276
(dp4277
g66
(dp4278
g74
I1
ssg75
g4272
sg68
(lp4279
g4135
(S's\x08\x00\x00\x00My Sites'
tRp4280
asbasbasbag61
(g77
g63
NtRp4281
(dp4282
g66
(dp4283
sg75
g4264
sg68
(lp4284
g61
(g82
g63
NtRp4285
(dp4286
g66
(dp4287
sg75
g4281
sg68
(lp4288
g61
(g62
g63
NtRp4289
(dp4290
g66
(dp4291
g74
I1
ssg75
g4285
sg68
(lp4292
I00
asbasbasbag61
(g77
g63
NtRp4293
(dp4294
g66
(dp4295
sg75
g4264
sg68
(lp4296
g61
(g82
g63
NtRp4297
(dp4298
g66
(dp4299
sg75
g4293
sg68
(lp4300
g61
(g62
g63
NtRp4301
(dp4302
g66
(dp4303
g74
I1
ssg75
g4297
sg68
(lp4304
S'/admin/default/site'
p4305
asbasbasbasbasbasbasbag61
(g77
g63
NtRp4306
(dp4307
g66
(dp4308
sg75
g4248
sg68
(lp4309
g61
(g82
g63
NtRp4310
(dp4311
g66
(dp4312
sg75
g4306
sg68
(lp4313
g61
(g62
g63
NtRp4314
(dp4315
g66
(dp4316
g74
I2
ssg75
g4310
sg68
(lp4317
g61
(g70
g63
NtRp4318
(dp4319
g66
(dp4320
g74
I1
ssg75
Nsg68
(lp4321
g61
(g77
g63
NtRp4322
(dp4323
g66
(dp4324
sg75
g4318
sg68
(lp4325
g61
(g82
g63
NtRp4326
(dp4327
g66
(dp4328
sg75
g4322
sg68
(lp4329
g61
(g62
g63
NtRp4330
(dp4331
g66
(dp4332
g74
I1
ssg75
g4326
sg68
(lp4333
g4135
(S's\x08\x00\x00\x00This App'
tRp4334
asbasbasbag61
(g77
g63
NtRp4335
(dp4336
g66
(dp4337
sg75
g4318
sg68
(lp4338
g61
(g82
g63
NtRp4339
(dp4340
g66
(dp4341
sg75
g4335
sg68
(lp4342
g61
(g62
g63
NtRp4343
(dp4344
g66
(dp4345
g74
I1
ssg75
g4339
sg68
(lp4346
I00
asbasbasbag61
(g77
g63
NtRp4347
(dp4348
g66
(dp4349
sg75
g4318
sg68
(lp4350
g61
(g82
g63
NtRp4351
(dp4352
g66
(dp4353
sg75
g4347
sg68
(lp4354
g61
(g62
g63
NtRp4355
(dp4356
g66
(dp4357
g74
I1
ssg75
g4351
sg68
(lp4358
S'/admin/default/design/hellow'
p4359
asbasbasbag61
(g77
g63
NtRp4360
(dp4361
g66
(dp4362
sg75
g4318
sg68
(lp4363
g61
(g82
g63
NtRp4364
(dp4365
g66
(dp4366
sg75
g4360
sg68
(lp4367
g61
(g62
g63
NtRp4368
(dp4369
g66
(dp4370
g74
I1
ssg75
g4364
sg68
(lp4371
(lp4372
(g4135
(S't\n\x00\x00\x00Controller'
tRp4373
I00
S'/admin/default/edit/hellow/controllers/appadmin.py'
tp4374
a(g4135
(S't\x04\x00\x00\x00View'
tRp4375
I00
S'/admin/default/edit/hellow/views/appadmin/index.html'
tp4376
a(g4135
(S't\x06\x00\x00\x00Layout'
tRp4377
I00
S'/admin/default/edit/hellow/views/layout.html'
tp4378
a(g4135
(S't\n\x00\x00\x00Stylesheet'
tRp4379
I00
S'/admin/default/edit/hellow/static/css/web2py.css'
tp4380
a(g4135
(S's\x08\x00\x00\x00DB Model'
tRp4381
I00
S'/admin/default/edit/hellow/models/db.py'
tp4382
a(g4135
(S's\n\x00\x00\x00Menu Model'
tRp4383
I00
S'/admin/default/edit/hellow/models/menu.py'
tp4384
a(g4135
(S't\x08\x00\x00\x00Database'
tRp4385
I00
S'/hellow/appadmin/index'
tp4386
a(g4135
(S't\x06\x00\x00\x00Errors'
tRp4387
I00
S'/admin/default/errors/hellow'
tp4388
a(g4135
(S't\x05\x00\x00\x00About'
tRp4389
I00
S'/admin/default/about/hellow'
tp4390
aasbasbasbasbasbasbasbag61
(g77
g63
NtRp4391
(dp4392
g66
(dp4393
sg75
g4248
sg68
(lp4394
g61
(g82
g63
NtRp4395
(dp4396
g66
(dp4397
sg75
g4391
sg68
(lp4398
g61
(g62
g63
NtRp4399
(dp4400
g66
(dp4401
g74
I2
ssg75
g4395
sg68
(lp4402
g61
(g70
g63
NtRp4403
(dp4404
g66
(dp4405
g74
I1
ssg75
Nsg68
(lp4406
g61
(g77
g63
NtRp4407
(dp4408
g66
(dp4409
sg75
g4403
sg68
(lp4410
g61
(g82
g63
NtRp4411
(dp4412
g66
(dp4413
sg75
g4407
sg68
(lp4414
g61
(g62
g63
NtRp4415
(dp4416
g66
(dp4417
g74
I1
ssg75
g4411
sg68
(lp4418
S'web2py.com'
p4419
asbasbasbag61
(g77
g63
NtRp4420
(dp4421
g66
(dp4422
sg75
g4403
sg68
(lp4423
g61
(g82
g63
NtRp4424
(dp4425
g66
(dp4426
sg75
g4420
sg68
(lp4427
g61
(g62
g63
NtRp4428
(dp4429
g66
(dp4430
g74
I1
ssg75
g4424
sg68
(lp4431
I00
asbasbasbag61
(g77
g63
NtRp4432
(dp4433
g66
(dp4434
sg75
g4403
sg68
(lp4435
g61
(g82
g63
NtRp4436
(dp4437
g66
(dp4438
sg75
g4432
sg68
(lp4439
g61
(g62
g63
NtRp4440
(dp4441
g66
(dp4442
g74
I1
ssg75
g4436
sg68
(lp4443
S'http://www.web2py.com'
p4444
asbasbasbag61
(g77
g63
NtRp4445
(dp4446
g66
(dp4447
sg75
g4403
sg68
(lp4448
g61
(g82
g63
NtRp4449
(dp4450
g66
(dp4451
sg75
g4445
sg68
(lp4452
g61
(g62
g63
NtRp4453
(dp4454
g66
(dp4455
g74
I1
ssg75
g4449
sg68
(lp4456
(lp4457
(g4135
(S't\x08\x00\x00\x00Download'
tRp4458
I00
S'http://www.web2py.com/examples/default/download'
p4459
tp4460
a(g4135
(S't\x07\x00\x00\x00Support'
tRp4461
I00
S'http://www.web2py.com/examples/default/support'
p4462
tp4463
a(g4135
(S't\x04\x00\x00\x00Demo'
tRp4464
I00
S'http://web2py.com/demo_admin'
p4465
tp4466
a(g4135
(S's\x0e\x00\x00\x00Quick Examples'
tRp4467
I00
S'http://web2py.com/examples/default/examples'
p4468
tp4469
a(g4135
(S't\x03\x00\x00\x00FAQ'
tRp4470
I00
S'http://web2py.com/AlterEgo'
p4471
tp4472
a(g4135
(S't\x06\x00\x00\x00Videos'
tRp4473
I00
S'http://www.web2py.com/examples/default/videos/'
p4474
tp4475
a(g4135
(S's\x11\x00\x00\x00Free Applications'
tRp4476
I00
S'http://web2py.com/appliances'
p4477
tp4478
a(g4135
(S't\x07\x00\x00\x00Plugins'
tRp4479
I00
S'http://web2py.com/plugins'
p4480
tp4481
a(g4135
(S't\x07\x00\x00\x00Layouts'
tRp4482
I00
S'http://web2py.com/layouts'
p4483
tp4484
a(g4135
(S't\x07\x00\x00\x00Recipes'
tRp4485
I00
S'http://web2pyslices.com/'
p4486
tp4487
a(g4135
(S't\x08\x00\x00\x00Semantic'
tRp4488
I00
S'http://web2py.com/semantic'
p4489
tp4490
aasbasbasbasbasbasbasbag61
(g77
g63
NtRp4491
(dp4492
g66
(dp4493
sg75
g4248
sg68
(lp4494
g61
(g82
g63
NtRp4495
(dp4496
g66
(dp4497
sg75
g4491
sg68
(lp4498
g61
(g62
g63
NtRp4499
(dp4500
g66
(dp4501
g74
I2
ssg75
g4495
sg68
(lp4502
g61
(g70
g63
NtRp4503
(dp4504
g66
(dp4505
g74
I1
ssg75
Nsg68
(lp4506
g61
(g77
g63
NtRp4507
(dp4508
g66
(dp4509
sg75
g4503
sg68
(lp4510
g61
(g82
g63
NtRp4511
(dp4512
g66
(dp4513
sg75
g4507
sg68
(lp4514
g61
(g62
g63
NtRp4515
(dp4516
g66
(dp4517
g74
I1
ssg75
g4511
sg68
(lp4518
g4135
(S't\r\x00\x00\x00Documentation'
tRp4519
asbasbasbag61
(g77
g63
NtRp4520
(dp4521
g66
(dp4522
sg75
g4503
sg68
(lp4523
g61
(g82
g63
NtRp4524
(dp4525
g66
(dp4526
sg75
g4520
sg68
(lp4527
g61
(g62
g63
NtRp4528
(dp4529
g66
(dp4530
g74
I1
ssg75
g4524
sg68
(lp4531
I00
asbasbasbag61
(g77
g63
NtRp4532
(dp4533
g66
(dp4534
sg75
g4503
sg68
(lp4535
g61
(g82
g63
NtRp4536
(dp4537
g66
(dp4538
sg75
g4532
sg68
(lp4539
g61
(g62
g63
NtRp4540
(dp4541
g66
(dp4542
g74
I1
ssg75
g4536
sg68
(lp4543
S'http://www.web2py.com/book'
p4544
asbasbasbag61
(g77
g63
NtRp4545
(dp4546
g66
(dp4547
sg75
g4503
sg68
(lp4548
g61
(g82
g63
NtRp4549
(dp4550
g66
(dp4551
sg75
g4545
sg68
(lp4552
g61
(g62
g63
NtRp4553
(dp4554
g66
(dp4555
g74
I1
ssg75
g4549
sg68
(lp4556
(lp4557
(g4135
(S't\x07\x00\x00\x00Preface'
tRp4558
I00
S'http://www.web2py.com/book/default/chapter/00'
p4559
tp4560
a(g4135
(S't\x0c\x00\x00\x00Introduction'
tRp4561
I00
S'http://www.web2py.com/book/default/chapter/01'
p4562
tp4563
a(g4135
(S't\x06\x00\x00\x00Python'
tRp4564
I00
S'http://www.web2py.com/book/default/chapter/02'
p4565
tp4566
a(g4135
(S't\x08\x00\x00\x00Overview'
tRp4567
I00
S'http://www.web2py.com/book/default/chapter/03'
p4568
tp4569
a(g4135
(S's\x08\x00\x00\x00The Core'
tRp4570
I00
S'http://www.web2py.com/book/default/chapter/04'
p4571
tp4572
a(g4135
(S's\t\x00\x00\x00The Views'
tRp4573
I00
S'http://www.web2py.com/book/default/chapter/05'
p4574
tp4575
a(g4135
(S't\x08\x00\x00\x00Database'
tRp4576
I00
S'http://www.web2py.com/book/default/chapter/06'
p4577
tp4578
a(g4135
(S's\x14\x00\x00\x00Forms and Validators'
tRp4579
I00
S'http://www.web2py.com/book/default/chapter/07'
p4580
tp4581
a(g4135
(S's\r\x00\x00\x00Email and SMS'
tRp4582
I00
S'http://www.web2py.com/book/default/chapter/08'
p4583
tp4584
a(g4135
(S's\x0e\x00\x00\x00Access Control'
tRp4585
I00
S'http://www.web2py.com/book/default/chapter/09'
p4586
tp4587
a(g4135
(S't\x08\x00\x00\x00Services'
tRp4588
I00
S'http://www.web2py.com/book/default/chapter/10'
p4589
tp4590
a(g4135
(S's\x0c\x00\x00\x00Ajax Recipes'
tRp4591
I00
S'http://www.web2py.com/book/default/chapter/11'
p4592
tp4593
a(g4135
(S's\x16\x00\x00\x00Components and Plugins'
tRp4594
I00
S'http://www.web2py.com/book/default/chapter/12'
p4595
tp4596
a(g4135
(S's\x12\x00\x00\x00Deployment Recipes'
tRp4597
I00
S'http://www.web2py.com/book/default/chapter/13'
p4598
tp4599
a(g4135
(S's\r\x00\x00\x00Other Recipes'
tRp4600
I00
S'http://www.web2py.com/book/default/chapter/14'
p4601
tp4602
a(g4135
(S's\r\x00\x00\x00Buy this book'
tRp4603
I00
S'http://stores.lulu.com/web2py'
p4604
tp4605
aasbasbasbasbasbasbasbag61
(g77
g63
NtRp4606
(dp4607
g66
(dp4608
sg75
g4248
sg68
(lp4609
g61
(g82
g63
NtRp4610
(dp4611
g66
(dp4612
sg75
g4606
sg68
(lp4613
g61
(g62
g63
NtRp4614
(dp4615
g66
(dp4616
g74
I2
ssg75
g4610
sg68
(lp4617
g61
(g70
g63
NtRp4618
(dp4619
g66
(dp4620
g74
I1
ssg75
Nsg68
(lp4621
g61
(g77
g63
NtRp4622
(dp4623
g66
(dp4624
sg75
g4618
sg68
(lp4625
g61
(g82
g63
NtRp4626
(dp4627
g66
(dp4628
sg75
g4622
sg68
(lp4629
g61
(g62
g63
NtRp4630
(dp4631
g66
(dp4632
g74
I1
ssg75
g4626
sg68
(lp4633
g4135
(S't\t\x00\x00\x00Community'
tRp4634
asbasbasbag61
(g77
g63
NtRp4635
(dp4636
g66
(dp4637
sg75
g4618
sg68
(lp4638
g61
(g82
g63
NtRp4639
(dp4640
g66
(dp4641
sg75
g4635
sg68
(lp4642
g61
(g62
g63
NtRp4643
(dp4644
g66
(dp4645
g74
I1
ssg75
g4639
sg68
(lp4646
I00
asbasbasbag61
(g77
g63
NtRp4647
(dp4648
g66
(dp4649
sg75
g4618
sg68
(lp4650
g61
(g82
g63
NtRp4651
(dp4652
g66
(dp4653
sg75
g4647
sg68
(lp4654
g61
(g62
g63
NtRp4655
(dp4656
g66
(dp4657
g74
I1
ssg75
g4651
sg68
(lp4658
Nasbasbasbag61
(g77
g63
NtRp4659
(dp4660
g66
(dp4661
sg75
g4618
sg68
(lp4662
g61
(g82
g63
NtRp4663
(dp4664
g66
(dp4665
sg75
g4659
sg68
(lp4666
g61
(g62
g63
NtRp4667
(dp4668
g66
(dp4669
g74
I1
ssg75
g4663
sg68
(lp4670
(lp4671
(g4135
(S't\x06\x00\x00\x00Groups'
tRp4672
I00
S'http://www.web2py.com/examples/default/usergroups'
p4673
tp4674
a(g4135
(S't\x07\x00\x00\x00Twitter'
tRp4675
I00
S'http://twitter.com/web2py'
p4676
tp4677
a(g4135
(S's\t\x00\x00\x00Live Chat'
tRp4678
I00
S'http://webchat.freenode.net/?channels=web2py'
p4679
tp4680
aasbasbasbasbasbasbasbag61
(g77
g63
NtRp4681
(dp4682
g66
(dp4683
sg75
g4248
sg68
(lp4684
g61
(g82
g63
NtRp4685
(dp4686
g66
(dp4687
sg75
g4681
sg68
(lp4688
g61
(g62
g63
NtRp4689
(dp4690
g66
(dp4691
g74
I2
ssg75
g4685
sg68
(lp4692
g61
(g70
g63
NtRp4693
(dp4694
g66
(dp4695
g74
I1
ssg75
Nsg68
(lp4696
g61
(g77
g63
NtRp4697
(dp4698
g66
(dp4699
sg75
g4693
sg68
(lp4700
g61
(g82
g63
NtRp4701
(dp4702
g66
(dp4703
sg75
g4697
sg68
(lp4704
g61
(g62
g63
NtRp4705
(dp4706
g66
(dp4707
g74
I1
ssg75
g4701
sg68
(lp4708
g4135
(S't\x07\x00\x00\x00Plugins'
tRp4709
asbasbasbag61
(g77
g63
NtRp4710
(dp4711
g66
(dp4712
sg75
g4693
sg68
(lp4713
g61
(g82
g63
NtRp4714
(dp4715
g66
(dp4716
sg75
g4710
sg68
(lp4717
g61
(g62
g63
NtRp4718
(dp4719
g66
(dp4720
g74
I1
ssg75
g4714
sg68
(lp4721
I00
asbasbasbag61
(g77
g63
NtRp4722
(dp4723
g66
(dp4724
sg75
g4693
sg68
(lp4725
g61
(g82
g63
NtRp4726
(dp4727
g66
(dp4728
sg75
g4722
sg68
(lp4729
g61
(g62
g63
NtRp4730
(dp4731
g66
(dp4732
g74
I1
ssg75
g4726
sg68
(lp4733
Nasbasbasbag61
(g77
g63
NtRp4734
(dp4735
g66
(dp4736
sg75
g4693
sg68
(lp4737
g61
(g82
g63
NtRp4738
(dp4739
g66
(dp4740
sg75
g4734
sg68
(lp4741
g61
(g62
g63
NtRp4742
(dp4743
g66
(dp4744
g74
I1
ssg75
g4738
sg68
(lp4745
(lp4746
(S'plugin_wiki'
p4747
I00
S'http://web2py.com/examples/default/download'
p4748
tp4749
a(g4135
(S's\r\x00\x00\x00Other Plugins'
tRp4750
I00
g4480
tp4751
a(g4135
(S's\x0e\x00\x00\x00Layout Plugins'
tRp4752
I00
g4483
tp4753
aasbasbasbasbasbasbasbasbasbasbasbasbasbasbasbasbasbasbasbag61
(g77
g63
NtRp4754
(dp4755
g66
(dp4756
sg75
g3621
sg68
(lp4757
g61
(g82
g63
NtRp4758
(dp4759
g66
(dp4760
g86
g87
ssg75
g4754
sg68
(lp4761
S'meta'
p4762
asbag61
(g82
g63
NtRp4763
(dp4764
g66
(dp4765
g93
g94
ssg75
g4754
sg68
(lp4766
S':'
asbag61
(g82
g63
NtRp4767
(dp4768
g66
(dp4769
sg75
g4754
sg68
(lp4770
g61
(g62
g63
NtRp4771
(dp4772
g66
(dp4773
g74
I5
ssg75
g4767
sg68
(lp4774
g61
(g70
g63
NtRp4775
(dp4776
g66
(dp4777
g74
I4
ssg75
Nsg68
(lp4778
g61
(g77
g63
NtRp4779
(dp4780
g66
(dp4781
sg75
g4775
sg68
(lp4782
g61
(g82
g63
NtRp4783
(dp4784
g66
(dp4785
g86
g87
ssg75
g4779
sg68
(lp4786
S'author'
p4787
asbag61
(g82
g63
NtRp4788
(dp4789
g66
(dp4790
g93
g94
ssg75
g4779
sg68
(lp4791
S':'
asbag61
(g82
g63
NtRp4792
(dp4793
g66
(dp4794
sg75
g4779
sg68
(lp4795
g61
(g62
g63
NtRp4796
(dp4797
g66
(dp4798
g74
I4
ssg75
g4792
sg68
(lp4799
S'Your Name <you@example.com>'
p4800
asbasbasbag61
(g77
g63
NtRp4801
(dp4802
g66
(dp4803
sg75
g4775
sg68
(lp4804
g61
(g82
g63
NtRp4805
(dp4806
g66
(dp4807
g86
g87
ssg75
g4801
sg68
(lp4808
S'description'
p4809
asbag61
(g82
g63
NtRp4810
(dp4811
g66
(dp4812
g93
g94
ssg75
g4801
sg68
(lp4813
S':'
asbag61
(g82
g63
NtRp4814
(dp4815
g66
(dp4816
sg75
g4801
sg68
(lp4817
g61
(g62
g63
NtRp4818
(dp4819
g66
(dp4820
g74
I4
ssg75
g4814
sg68
(lp4821
S'a cool new app'
p4822
asbasbasbag61
(g77
g63
NtRp4823
(dp4824
g66
(dp4825
sg75
g4775
sg68
(lp4826
g61
(g82
g63
NtRp4827
(dp4828
g66
(dp4829
g86
g87
ssg75
g4823
sg68
(lp4830
S'generator'
p4831
asbag61
(g82
g63
NtRp4832
(dp4833
g66
(dp4834
g93
g94
ssg75
g4823
sg68
(lp4835
S':'
asbag61
(g82
g63
NtRp4836
(dp4837
g66
(dp4838
sg75
g4823
sg68
(lp4839
g61
(g62
g63
NtRp4840
(dp4841
g66
(dp4842
g74
I4
ssg75
g4836
sg68
(lp4843
S'Web2py Web Framework'
p4844
asbasbasbag61
(g77
g63
NtRp4845
(dp4846
g66
(dp4847
sg75
g4775
sg68
(lp4848
g61
(g82
g63
NtRp4849
(dp4850
g66
(dp4851
g86
g87
ssg75
g4845
sg68
(lp4852
S'keywords'
p4853
asbag61
(g82
g63
NtRp4854
(dp4855
g66
(dp4856
g93
g94
ssg75
g4845
sg68
(lp4857
S':'
asbag61
(g82
g63
NtRp4858
(dp4859
g66
(dp4860
sg75
g4845
sg68
(lp4861
g61
(g62
g63
NtRp4862
(dp4863
g66
(dp4864
g74
I4
ssg75
g4858
sg68
(lp4865
S'web2py, python, framework'
p4866
asbasbasbasbasbasbasbag61
(g77
g63
NtRp4867
(dp4868
g66
(dp4869
sg75
g3621
sg68
(lp4870
g61
(g82
g63
NtRp4871
(dp4872
g66
(dp4873
g86
g87
ssg75
g4867
sg68
(lp4874
S'models_to_run'
p4875
asbag61
(g82
g63
NtRp4876
(dp4877
g66
(dp4878
g93
g94
ssg75
g4867
sg68
(lp4879
S':'
asbag61
(g82
g63
NtRp4880
(dp4881
g66
(dp4882
sg75
g4867
sg68
(lp4883
g61
(g62
g63
NtRp4884
(dp4885
g66
(dp4886
g74
I5
ssg75
g4880
sg68
(lp4887
g61
(g70
g63
NtRp4888
(dp4889
g66
(dp4890
g74
I4
ssg75
Nsg68
(lp4891
g61
(g77
g63
NtRp4892
(dp4893
g66
(dp4894
sg75
g4888
sg68
(lp4895
g61
(g82
g63
NtRp4896
(dp4897
g66
(dp4898
sg75
g4892
sg68
(lp4899
g61
(g62
g63
NtRp4900
(dp4901
g66
(dp4902
g74
I4
ssg75
g4896
sg68
(lp4903
S'^\\w+\\.py$'
p4904
asbasbasbag61
(g77
g63
NtRp4905
(dp4906
g66
(dp4907
sg75
g4888
sg68
(lp4908
g61
(g82
g63
NtRp4909
(dp4910
g66
(dp4911
sg75
g4905
sg68
(lp4912
g61
(g62
g63
NtRp4913
(dp4914
g66
(dp4915
g74
I4
ssg75
g4909
sg68
(lp4916
S'^appadmin/\\w+\\.py$'
p4917
asbasbasbag61
(g77
g63
NtRp4918
(dp4919
g66
(dp4920
sg75
g4888
sg68
(lp4921
g61
(g82
g63
NtRp4922
(dp4923
g66
(dp4924
sg75
g4918
sg68
(lp4925
g61
(g62
g63
NtRp4926
(dp4927
g66
(dp4928
g74
I4
ssg75
g4922
sg68
(lp4929
S'^appadmin/index/\\w+\\.py$'
p4930
asbasbasbasbasbasbasbag61
(g77
g63
NtRp4931
(dp4932
g66
(dp4933
sg75
g3621
sg68
(lp4934
g61
(g82
g63
NtRp4935
(dp4936
g66
(dp4937
g86
g87
ssg75
g4931
sg68
(lp4938
S'postprocessing'
p4939
asbag61
(g82
g63
NtRp4940
(dp4941
g66
(dp4942
g93
g94
ssg75
g4931
sg68
(lp4943
S':'
asbag61
(g82
g63
NtRp4944
(dp4945
g66
(dp4946
sg75
g4931
sg68
(lp4947
g61
(g62
g63
NtRp4948
(dp4949
g66
(dp4950
g74
I5
ssg75
g4944
sg68
(lp4951
g61
(g70
g63
NtRp4952
(dp4953
g66
(dp4954
g74
I4
ssg75
Nsg68
(lp4955
sbasbasbasbag61
(g77
g63
NtRp4956
(dp4957
g66
(dp4958
sg75
g3621
sg68
(lp4959
g61
(g82
g63
NtRp4960
(dp4961
g66
(dp4962
g86
g87
ssg75
g4956
sg68
(lp4963
S'session_cookie_expires'
p4964
asbag61
(g82
g63
NtRp4965
(dp4966
g66
(dp4967
g93
g94
ssg75
g4956
sg68
(lp4968
S':'
asbag61
(g82
g63
NtRp4969
(dp4970
g66
(dp4971
sg75
g4956
sg68
(lp4972
g61
(g62
g63
NtRp4973
(dp4974
g66
(dp4975
g74
I5
ssg75
g4969
sg68
(lp4976
S'None'
p4977
asbasbasbag61
(g77
g63
NtRp4978
(dp4979
g66
(dp4980
sg75
g3621
sg68
(lp4981
g61
(g82
g63
NtRp4982
(dp4983
g66
(dp4984
g86
g87
ssg75
g4978
sg68
(lp4985
S'session_data_name'
p4986
asbag61
(g82
g63
NtRp4987
(dp4988
g66
(dp4989
g93
g94
ssg75
g4978
sg68
(lp4990
S':'
asbag61
(g82
g63
NtRp4991
(dp4992
g66
(dp4993
sg75
g4978
sg68
(lp4994
g61
(g62
g63
NtRp4995
(dp4996
g66
(dp4997
g74
I5
ssg75
g4991
sg68
(lp4998
S'session_data_hellow'
p4999
asbasbasbag61
(g77
g63
NtRp5000
(dp5001
g66
(dp5002
sg75
g3621
sg68
(lp5003
g61
(g82
g63
NtRp5004
(dp5005
g66
(dp5006
g86
g87
ssg75
g5000
sg68
(lp5007
S'session_file'
p5008
asbag61
(g82
g63
NtRp5009
(dp5010
g66
(dp5011
g93
g94
ssg75
g5000
sg68
(lp5012
S':'
asbag61
(g82
g63
NtRp5013
(dp5014
g66
(dp5015
sg75
g5000
sg68
(lp5016
g61
(g62
g63
NtRp5017
(dp5018
g66
(dp5019
g74
I5
ssg75
g5013
sg68
(lp5020
S"<open file '/Users/zamechek/Downloads/web2py/web2py.app/Contents/Resources/applications/hellow/sessions/127.0.0.1-f0c125e4-5d5e-4805-8c10-bdfc66367729', mode 'rb+' at 0xa399218>"
p5021
asbasbasbag61
(g77
g63
NtRp5022
(dp5023
g66
(dp5024
sg75
g3621
sg68
(lp5025
g61
(g82
g63
NtRp5026
(dp5027
g66
(dp5028
g86
g87
ssg75
g5022
sg68
(lp5029
S'session_filename'
p5030
asbag61
(g82
g63
NtRp5031
(dp5032
g66
(dp5033
g93
g94
ssg75
g5022
sg68
(lp5034
S':'
asbag61
(g82
g63
NtRp5035
(dp5036
g66
(dp5037
sg75
g5022
sg68
(lp5038
g61
(g62
g63
NtRp5039
(dp5040
g66
(dp5041
g74
I5
ssg75
g5035
sg68
(lp5042
S'/Users/zamechek/Downloads/web2py/web2py.app/Contents/Resources/applications/hellow/sessions/127.0.0.1-f0c125e4-5d5e-4805-8c10-bdfc66367729'
p5043
asbasbasbag61
(g77
g63
NtRp5044
(dp5045
g66
(dp5046
sg75
g3621
sg68
(lp5047
g61
(g82
g63
NtRp5048
(dp5049
g66
(dp5050
g86
g87
ssg75
g5044
sg68
(lp5051
S'session_id'
p5052
asbag61
(g82
g63
NtRp5053
(dp5054
g66
(dp5055
g93
g94
ssg75
g5044
sg68
(lp5056
S':'
asbag61
(g82
g63
NtRp5057
(dp5058
g66
(dp5059
sg75
g5044
sg68
(lp5060
g61
(g62
g63
NtRp5061
(dp5062
g66
(dp5063
g74
I5
ssg75
g5057
sg68
(lp5064
g624
asbasbasbag61
(g77
g63
NtRp5065
(dp5066
g66
(dp5067
sg75
g3621
sg68
(lp5068
g61
(g82
g63
NtRp5069
(dp5070
g66
(dp5071
g86
g87
ssg75
g5065
sg68
(lp5072
S'session_id_name'
p5073
asbag61
(g82
g63
NtRp5074
(dp5075
g66
(dp5076
g93
g94
ssg75
g5065
sg68
(lp5077
S':'
asbag61
(g82
g63
NtRp5078
(dp5079
g66
(dp5080
sg75
g5065
sg68
(lp5081
g61
(g62
g63
NtRp5082
(dp5083
g66
(dp5084
g74
I5
ssg75
g5078
sg68
(lp5085
g3678
asbasbasbag61
(g77
g63
NtRp5086
(dp5087
g66
(dp5088
sg75
g3621
sg68
(lp5089
g61
(g82
g63
NtRp5090
(dp5091
g66
(dp5092
g86
g87
ssg75
g5086
sg68
(lp5093
S'session_locked'
p5094
asbag61
(g82
g63
NtRp5095
(dp5096
g66
(dp5097
g93
g94
ssg75
g5086
sg68
(lp5098
S':'
asbag61
(g82
g63
NtRp5099
(dp5100
g66
(dp5101
sg75
g5086
sg68
(lp5102
g61
(g62
g63
NtRp5103
(dp5104
g66
(dp5105
g74
I5
ssg75
g5099
sg68
(lp5106
g1260
asbasbasbag61
(g77
g63
NtRp5107
(dp5108
g66
(dp5109
sg75
g3621
sg68
(lp5110
g61
(g82
g63
NtRp5111
(dp5112
g66
(dp5113
g86
g87
ssg75
g5107
sg68
(lp5114
S'session_new'
p5115
asbag61
(g82
g63
NtRp5116
(dp5117
g66
(dp5118
g93
g94
ssg75
g5107
sg68
(lp5119
S':'
asbag61
(g82
g63
NtRp5120
(dp5121
g66
(dp5122
sg75
g5107
sg68
(lp5123
g61
(g62
g63
NtRp5124
(dp5125
g66
(dp5126
g74
I5
ssg75
g5120
sg68
(lp5127
g104
asbasbasbag61
(g77
g63
NtRp5128
(dp5129
g66
(dp5130
sg75
g3621
sg68
(lp5131
g61
(g82
g63
NtRp5132
(dp5133
g66
(dp5134
g86
g87
ssg75
g5128
sg68
(lp5135
S'session_storage_type'
p5136
asbag61
(g82
g63
NtRp5137
(dp5138
g66
(dp5139
g93
g94
ssg75
g5128
sg68
(lp5140
S':'
asbag61
(g82
g63
NtRp5141
(dp5142
g66
(dp5143
sg75
g5128
sg68
(lp5144
g61
(g62
g63
NtRp5145
(dp5146
g66
(dp5147
g74
I5
ssg75
g5141
sg68
(lp5148
g3518
asbasbasbag61
(g77
g63
NtRp5149
(dp5150
g66
(dp5151
sg75
g3621
sg68
(lp5152
g61
(g82
g63
NtRp5153
(dp5154
g66
(dp5155
g86
g87
ssg75
g5149
sg68
(lp5156
S'status'
p5157
asbag61
(g82
g63
NtRp5158
(dp5159
g66
(dp5160
g93
g94
ssg75
g5149
sg68
(lp5161
S':'
asbag61
(g82
g63
NtRp5162
(dp5163
g66
(dp5164
sg75
g5149
sg68
(lp5165
g61
(g62
g63
NtRp5166
(dp5167
g66
(dp5168
g74
I5
ssg75
g5162
sg68
(lp5169
S'200'
p5170
asbasbasbag61
(g77
g63
NtRp5171
(dp5172
g66
(dp5173
sg75
g3621
sg68
(lp5174
g61
(g82
g63
NtRp5175
(dp5176
g66
(dp5177
g86
g87
ssg75
g5171
sg68
(lp5178
S'subtitle'
p5179
asbag61
(g82
g63
NtRp5180
(dp5181
g66
(dp5182
g93
g94
ssg75
g5171
sg68
(lp5183
S':'
asbag61
(g82
g63
NtRp5184
(dp5185
g66
(dp5186
sg75
g5171
sg68
(lp5187
g61
(g62
g63
NtRp5188
(dp5189
g66
(dp5190
g74
I5
ssg75
g5184
sg68
(lp5191
g4135
(S's\r\x00\x00\x00customize me!'
tRp5192
asbasbasbag61
(g77
g63
NtRp5193
(dp5194
g66
(dp5195
sg75
g3621
sg68
(lp5196
g61
(g82
g63
NtRp5197
(dp5198
g66
(dp5199
g86
g87
ssg75
g5193
sg68
(lp5200
S'title'
p5201
asbag61
(g82
g63
NtRp5202
(dp5203
g66
(dp5204
g93
g94
ssg75
g5193
sg68
(lp5205
S':'
asbag61
(g82
g63
NtRp5206
(dp5207
g66
(dp5208
sg75
g5193
sg68
(lp5209
g61
(g62
g63
NtRp5210
(dp5211
g66
(dp5212
g74
I5
ssg75
g5206
sg68
(lp5213
S'Hellow'
p5214
asbasbasbag61
(g77
g63
NtRp5215
(dp5216
g66
(dp5217
sg75
g3621
sg68
(lp5218
g61
(g82
g63
NtRp5219
(dp5220
g66
(dp5221
g86
g87
ssg75
g5215
sg68
(lp5222
S'view'
p5223
asbag61
(g82
g63
NtRp5224
(dp5225
g66
(dp5226
g93
g94
ssg75
g5215
sg68
(lp5227
S':'
asbag61
(g82
g63
NtRp5228
(dp5229
g66
(dp5230
sg75
g5215
sg68
(lp5231
g61
(g62
g63
NtRp5232
(dp5233
g66
(dp5234
g74
I5
ssg75
g5228
sg68
(lp5235
S'appadmin/index.html'
p5236
asbasbasbasbasbsS'locals'
p5237
(dp5238
S'polymodel'
p5239
S'None'
p5240
sS'field_type'
p5241
S"'DECIMAL'"
p5242
sS'sortable'
p5243
S'2'
sS'sql_fields_aux'
p5244
S"{'id': {'sql': 'INTEGER PRIMARY KEY AUTOINCREMENT'}}"
p5245
sS'TFK'
p5246
g21
sS'postcreation_fields'
p5247
S'[]'
p5248
sS'migrate'
p5249
g1260
sS'fields'
p5250
S"['id INTEGER PRIMARY KEY AUTOINCREMENT']"
p5251
sS'self'
p5252
S'<gluon.dal.SQLiteAdapter object at 0xa93b4d0>'
p5253
sS'tablename'
p5254
S"'slots'"
p5255
sS'fake_migrate'
p5256
g104
sS'db'
p5257
S'<DAL uri="sqlite://storage.sqlite">'
p5258
sS'field'
p5259
S'<gluon.dal.Field object at 0xa93b830>'
p5260
sS'ftype'
p5261
S"'INTEGER PRIMARY KEY AUTOINCREMENT'"
p5262
sS'table'
p5263
S'<Table slots (id,odds)>'
p5264
sS'sql_fields'
p5265
S"{'id': {'length': 512, 'notnull': False, 'sortable': 1, 'sql': 'INTEGER PRIMARY KEY AUTOINCREMENT', 'type': 'id', 'unique': False}}"
p5266
sS'field_name'
p5267
S"'odds'"
p5268
sS'types'
p5269
S"{'big-id': 'BIGINT PRIMARY KEY AUTOINCREMENT', 'big-reference': 'BIGINT REFERENCES %(foreign_key)s ON DELETE %(on_delete_action)s', 'bigint': 'INTEGER', 'blob': 'BLOB', 'boolean': 'CHAR(1)', 'date': 'DATE', 'datetime': 'TIMESTAMP', 'decimal': 'DOUBLE', 'double': 'DOUBLE', 'float': 'DOUBLE', ...}"
p5270
sssS'traceback'
p5271
S'Traceback (most recent call last):\n  File "/home/mdipierro/web2py/gluon/restricted.py", line 212, in restricted\n  File "/Users/zamechek/Downloads/web2py/web2py.app/Contents/Resources/applications/hellow/models/slot.py", line 4, in <module>\n  File "/home/mdipierro/web2py/gluon/dal.py", line 7352, in define_table\n  File "/home/mdipierro/web2py/gluon/dal.py", line 7388, in lazy_define_table\n  File "/home/mdipierro/web2py/gluon/dal.py", line 839, in create_table\nSyntaxError: Field: unknown field type: DECIMAL for odds\n'
p5272
s.