(dp1
S'output'
p2
S"<type 'exceptions.IndexError'> list index out of range"
p3
sS'layer'
p4
S'/Users/zamechek/Downloads/web2py/web2py.app/Contents/Resources/applications/hellow/controllers/game.py'
p5
sS'code'
p6
S'# coding: utf8\n# try something like\ndef show():\n    id = request.args[0]\n    game = db.game(id)\n    auth_user = (game.auth_user)\n    slots = db.game_slots.game(id)\n    \n    return dict(firstName=auth_user.first_name,LastName = auth_user.last_name, Balance = game.balance, Slots = slots)\n\nresponse._vars=response._caller(show)\n'
p7
sS'snapshot'
p8
(dp9
S'exception'
p10
(dp11
S'__hash__'
p12
S"<method-wrapper '__hash__' of exceptions.IndexError object at 0xa441e40>"
p13
sS'__setattr__'
p14
S"<method-wrapper '__setattr__' of exceptions.IndexError object at 0xa441e40>"
p15
sS'__reduce_ex__'
p16
S'<built-in method __reduce_ex__ of exceptions.IndexError object at 0xa441e40>'
p17
sS'__getslice__'
p18
S"<method-wrapper '__getslice__' of exceptions.IndexError object at 0xa441e40>"
p19
sS'__getitem__'
p20
S"<method-wrapper '__getitem__' of exceptions.IndexError object at 0xa441e40>"
p21
sS'__setstate__'
p22
S'<built-in method __setstate__ of exceptions.IndexError object at 0xa441e40>'
p23
sS'__reduce__'
p24
S'<built-in method __reduce__ of exceptions.IndexError object at 0xa441e40>'
p25
sS'__str__'
p26
S"<method-wrapper '__str__' of exceptions.IndexError object at 0xa441e40>"
p27
sS'args'
p28
S"('list index out of range',)"
p29
sS'__getattribute__'
p30
S"<method-wrapper '__getattribute__' of exceptions.IndexError object at 0xa441e40>"
p31
sS'__class__'
p32
S"<type 'exceptions.IndexError'>"
p33
sS'__delattr__'
p34
S"<method-wrapper '__delattr__' of exceptions.IndexError object at 0xa441e40>"
p35
sS'__repr__'
p36
S"<method-wrapper '__repr__' of exceptions.IndexError object at 0xa441e40>"
p37
sS'__dict__'
p38
S'{}'
p39
sS'__doc__'
p40
S"'Sequence index out of range.'"
p41
sS'__init__'
p42
S"<method-wrapper '__init__' of exceptions.IndexError object at 0xa441e40>"
p43
sS'__new__'
p44
S'<built-in method __new__ of type object at 0x5f90c0>'
p45
ssS'evalue'
p46
S'list index out of range'
p47
sS'request'
p48
ccopy_reg
_reconstructor
p49
(cgluon.html
BEAUTIFY
p50
c__builtin__
object
p51
NtRp52
(dp53
S'attributes'
p54
(dp55
sS'components'
p56
(lp57
g49
(cgluon.html
TABLE
p58
g51
NtRp59
(dp60
g54
(dp61
S'level'
p62
I5
ssS'parent'
p63
Nsg56
(lp64
g49
(cgluon.html
TR
p65
g51
NtRp66
(dp67
g54
(dp68
sg63
g59
sg56
(lp69
g49
(cgluon.html
TD
p70
g51
NtRp71
(dp72
g54
(dp73
S'_style'
p74
S'font-weight:bold;vertical-align:top'
p75
ssg63
g66
sg56
(lp76
S'ajax'
p77
asbag49
(g70
g51
NtRp78
(dp79
g54
(dp80
S'_valign'
p81
S'top'
p82
ssg63
g66
sg56
(lp83
S':'
asbag49
(g70
g51
NtRp84
(dp85
g54
(dp86
sg63
g66
sg56
(lp87
g49
(g50
g51
NtRp88
(dp89
g54
(dp90
g62
I5
ssg63
g84
sg56
(lp91
S'False'
p92
asbasbasbag49
(g65
g51
NtRp93
(dp94
g54
(dp95
sg63
g59
sg56
(lp96
g49
(g70
g51
NtRp97
(dp98
g54
(dp99
g74
g75
ssg63
g93
sg56
(lp100
S'application'
p101
asbag49
(g70
g51
NtRp102
(dp103
g54
(dp104
g81
g82
ssg63
g93
sg56
(lp105
S':'
asbag49
(g70
g51
NtRp106
(dp107
g54
(dp108
sg63
g93
sg56
(lp109
g49
(g50
g51
NtRp110
(dp111
g54
(dp112
g62
I5
ssg63
g106
sg56
(lp113
S'hellow'
p114
asbasbasbag49
(g65
g51
NtRp115
(dp116
g54
(dp117
sg63
g59
sg56
(lp118
g49
(g70
g51
NtRp119
(dp120
g54
(dp121
g74
g75
ssg63
g115
sg56
(lp122
g28
asbag49
(g70
g51
NtRp123
(dp124
g54
(dp125
g81
g82
ssg63
g115
sg56
(lp126
S':'
asbag49
(g70
g51
NtRp127
(dp128
g54
(dp129
sg63
g115
sg56
(lp130
g49
(g50
g51
NtRp131
(dp132
g54
(dp133
g62
I5
ssg63
g127
sg56
(lp134
g49
(g58
g51
NtRp135
(dp136
g54
(dp137
g62
I4
ssg63
Nsg56
(lp138
sbasbasbasbag49
(g65
g51
NtRp139
(dp140
g54
(dp141
sg63
g59
sg56
(lp142
g49
(g70
g51
NtRp143
(dp144
g54
(dp145
g74
g75
ssg63
g139
sg56
(lp146
S'body'
p147
asbag49
(g70
g51
NtRp148
(dp149
g54
(dp150
g81
g82
ssg63
g139
sg56
(lp151
S':'
asbag49
(g70
g51
NtRp152
(dp153
g54
(dp154
sg63
g139
sg56
(lp155
g49
(g50
g51
NtRp156
(dp157
g54
(dp158
g62
I5
ssg63
g152
sg56
(lp159
S'<cStringIO.StringO object at 0xaf07a20>'
p160
asbasbasbag49
(g65
g51
NtRp161
(dp162
g54
(dp163
sg63
g59
sg56
(lp164
g49
(g70
g51
NtRp165
(dp166
g54
(dp167
g74
g75
ssg63
g161
sg56
(lp168
S'cid'
p169
asbag49
(g70
g51
NtRp170
(dp171
g54
(dp172
g81
g82
ssg63
g161
sg56
(lp173
S':'
asbag49
(g70
g51
NtRp174
(dp175
g54
(dp176
sg63
g161
sg56
(lp177
g49
(g50
g51
NtRp178
(dp179
g54
(dp180
g62
I5
ssg63
g174
sg56
(lp181
S'None'
p182
asbasbasbag49
(g65
g51
NtRp183
(dp184
g54
(dp185
sg63
g59
sg56
(lp186
g49
(g70
g51
NtRp187
(dp188
g54
(dp189
g74
g75
ssg63
g183
sg56
(lp190
S'client'
p191
asbag49
(g70
g51
NtRp192
(dp193
g54
(dp194
g81
g82
ssg63
g183
sg56
(lp195
S':'
asbag49
(g70
g51
NtRp196
(dp197
g54
(dp198
sg63
g183
sg56
(lp199
g49
(g50
g51
NtRp200
(dp201
g54
(dp202
g62
I5
ssg63
g196
sg56
(lp203
S'127.0.0.1'
p204
asbasbasbag49
(g65
g51
NtRp205
(dp206
g54
(dp207
sg63
g59
sg56
(lp208
g49
(g70
g51
NtRp209
(dp210
g54
(dp211
g74
g75
ssg63
g205
sg56
(lp212
S'controller'
p213
asbag49
(g70
g51
NtRp214
(dp215
g54
(dp216
g81
g82
ssg63
g205
sg56
(lp217
S':'
asbag49
(g70
g51
NtRp218
(dp219
g54
(dp220
sg63
g205
sg56
(lp221
g49
(g50
g51
NtRp222
(dp223
g54
(dp224
g62
I5
ssg63
g218
sg56
(lp225
S'game'
p226
asbasbasbag49
(g65
g51
NtRp227
(dp228
g54
(dp229
sg63
g59
sg56
(lp230
g49
(g70
g51
NtRp231
(dp232
g54
(dp233
g74
g75
ssg63
g227
sg56
(lp234
S'cookies'
p235
asbag49
(g70
g51
NtRp236
(dp237
g54
(dp238
g81
g82
ssg63
g227
sg56
(lp239
S':'
asbag49
(g70
g51
NtRp240
(dp241
g54
(dp242
sg63
g227
sg56
(lp243
g49
(g50
g51
NtRp244
(dp245
g54
(dp246
g62
I5
ssg63
g240
sg56
(lp247
g49
(g58
g51
NtRp248
(dp249
g54
(dp250
g62
I4
ssg63
Nsg56
(lp251
g49
(g65
g51
NtRp252
(dp253
g54
(dp254
sg63
g248
sg56
(lp255
g49
(g70
g51
NtRp256
(dp257
g54
(dp258
g74
g75
ssg63
g252
sg56
(lp259
S'session_data_examples'
p260
asbag49
(g70
g51
NtRp261
(dp262
g54
(dp263
g81
g82
ssg63
g252
sg56
(lp264
S':'
asbag49
(g70
g51
NtRp265
(dp266
g54
(dp267
sg63
g252
sg56
(lp268
g49
(g50
g51
NtRp269
(dp270
g54
(dp271
g62
I4
ssg63
g265
sg56
(lp272
S'6590e93a92ae056071f3d5d23c5da718:8mcaYr3jD5OS9Hm5obiuGpOS1hqNCswQLIoFlRGZYdaR8FVZ84s0w9vMAEY5L6DK8gvTZcQowujTbbDj-ns3802lRCPwkkcburTr1lmHorC9hQtD5W0yZ89O_mdlKuHPlwEItXQ5_WAFut_RTkzpuyS0nQWmuEGxVuLk0DXc0ndh8WySsXoErgPnINq0aXqKzueVqcmNBWwB7tluAV8oSQyVVnjPajiXfmT2moAb3dPnaGC3yePavU4XAXO8FVarzcdAnZ4bnTo9uMJJvT2hL9oQVbtD8YY8yMHurMAdtIpf8wcGfXNr6SjFTzpMxYtAg1tv7XdXpUPETM1Ox80jE-qsgQd_Xr1FA049-xsoxpdA4EzMUoouiTJ995NWCOJNjo6VICpuSvfOJBlnOLd8aLxueLUtuyScbkLd2jOCQIsF2aV6hhIZWDXpJwlCKPkIckeaXaaHeE4EqTZR6N0JnA=='
p273
ag49
(g58
g51
NtRp274
(dp275
g54
(dp276
g62
I3
ssg63
Nsg56
(lp277
g49
(g65
g51
NtRp278
(dp279
g54
(dp280
sg63
g274
sg56
(lp281
g49
(g70
g51
NtRp282
(dp283
g54
(dp284
g74
g75
ssg63
g278
sg56
(lp285
S'comment'
p286
asbag49
(g70
g51
NtRp287
(dp288
g54
(dp289
g81
g82
ssg63
g278
sg56
(lp290
S':'
asbag49
(g70
g51
NtRp291
(dp292
g54
(dp293
sg63
g278
sg56
(lp294
g49
(g50
g51
NtRp295
(dp296
g54
(dp297
g62
I3
ssg63
g291
sg56
(lp298
S''
asbasbasbag49
(g65
g51
NtRp299
(dp300
g54
(dp301
sg63
g274
sg56
(lp302
g49
(g70
g51
NtRp303
(dp304
g54
(dp305
g74
g75
ssg63
g299
sg56
(lp306
S'domain'
p307
asbag49
(g70
g51
NtRp308
(dp309
g54
(dp310
g81
g82
ssg63
g299
sg56
(lp311
S':'
asbag49
(g70
g51
NtRp312
(dp313
g54
(dp314
sg63
g299
sg56
(lp315
g49
(g50
g51
NtRp316
(dp317
g54
(dp318
g62
I3
ssg63
g312
sg56
(lp319
S''
asbasbasbag49
(g65
g51
NtRp320
(dp321
g54
(dp322
sg63
g274
sg56
(lp323
g49
(g70
g51
NtRp324
(dp325
g54
(dp326
g74
g75
ssg63
g320
sg56
(lp327
S'expires'
p328
asbag49
(g70
g51
NtRp329
(dp330
g54
(dp331
g81
g82
ssg63
g320
sg56
(lp332
S':'
asbag49
(g70
g51
NtRp333
(dp334
g54
(dp335
sg63
g320
sg56
(lp336
g49
(g50
g51
NtRp337
(dp338
g54
(dp339
g62
I3
ssg63
g333
sg56
(lp340
S''
asbasbasbag49
(g65
g51
NtRp341
(dp342
g54
(dp343
sg63
g274
sg56
(lp344
g49
(g70
g51
NtRp345
(dp346
g54
(dp347
g74
g75
ssg63
g341
sg56
(lp348
S'max-age'
p349
asbag49
(g70
g51
NtRp350
(dp351
g54
(dp352
g81
g82
ssg63
g341
sg56
(lp353
S':'
asbag49
(g70
g51
NtRp354
(dp355
g54
(dp356
sg63
g341
sg56
(lp357
g49
(g50
g51
NtRp358
(dp359
g54
(dp360
g62
I3
ssg63
g354
sg56
(lp361
S''
asbasbasbag49
(g65
g51
NtRp362
(dp363
g54
(dp364
sg63
g274
sg56
(lp365
g49
(g70
g51
NtRp366
(dp367
g54
(dp368
g74
g75
ssg63
g362
sg56
(lp369
S'path'
p370
asbag49
(g70
g51
NtRp371
(dp372
g54
(dp373
g81
g82
ssg63
g362
sg56
(lp374
S':'
asbag49
(g70
g51
NtRp375
(dp376
g54
(dp377
sg63
g362
sg56
(lp378
g49
(g50
g51
NtRp379
(dp380
g54
(dp381
g62
I3
ssg63
g375
sg56
(lp382
S''
asbasbasbag49
(g65
g51
NtRp383
(dp384
g54
(dp385
sg63
g274
sg56
(lp386
g49
(g70
g51
NtRp387
(dp388
g54
(dp389
g74
g75
ssg63
g383
sg56
(lp390
S'secure'
p391
asbag49
(g70
g51
NtRp392
(dp393
g54
(dp394
g81
g82
ssg63
g383
sg56
(lp395
S':'
asbag49
(g70
g51
NtRp396
(dp397
g54
(dp398
sg63
g383
sg56
(lp399
g49
(g50
g51
NtRp400
(dp401
g54
(dp402
g62
I3
ssg63
g396
sg56
(lp403
S''
asbasbasbag49
(g65
g51
NtRp404
(dp405
g54
(dp406
sg63
g274
sg56
(lp407
g49
(g70
g51
NtRp408
(dp409
g54
(dp410
g74
g75
ssg63
g404
sg56
(lp411
S'version'
p412
asbag49
(g70
g51
NtRp413
(dp414
g54
(dp415
g81
g82
ssg63
g404
sg56
(lp416
S':'
asbag49
(g70
g51
NtRp417
(dp418
g54
(dp419
sg63
g404
sg56
(lp420
g49
(g50
g51
NtRp421
(dp422
g54
(dp423
g62
I3
ssg63
g417
sg56
(lp424
S''
asbasbasbasbasbasbasbag49
(g65
g51
NtRp425
(dp426
g54
(dp427
sg63
g248
sg56
(lp428
g49
(g70
g51
NtRp429
(dp430
g54
(dp431
g74
g75
ssg63
g425
sg56
(lp432
S'session_id_admin'
p433
asbag49
(g70
g51
NtRp434
(dp435
g54
(dp436
g81
g82
ssg63
g425
sg56
(lp437
S':'
asbag49
(g70
g51
NtRp438
(dp439
g54
(dp440
sg63
g425
sg56
(lp441
g49
(g50
g51
NtRp442
(dp443
g54
(dp444
g62
I4
ssg63
g438
sg56
(lp445
S'127.0.0.1-66a1de5b-ba15-4b30-ba06-132c9e7969c1'
p446
ag49
(g58
g51
NtRp447
(dp448
g54
(dp449
g62
I3
ssg63
Nsg56
(lp450
g49
(g65
g51
NtRp451
(dp452
g54
(dp453
sg63
g447
sg56
(lp454
g49
(g70
g51
NtRp455
(dp456
g54
(dp457
g74
g75
ssg63
g451
sg56
(lp458
g286
asbag49
(g70
g51
NtRp459
(dp460
g54
(dp461
g81
g82
ssg63
g451
sg56
(lp462
S':'
asbag49
(g70
g51
NtRp463
(dp464
g54
(dp465
sg63
g451
sg56
(lp466
g49
(g50
g51
NtRp467
(dp468
g54
(dp469
g62
I3
ssg63
g463
sg56
(lp470
S''
asbasbasbag49
(g65
g51
NtRp471
(dp472
g54
(dp473
sg63
g447
sg56
(lp474
g49
(g70
g51
NtRp475
(dp476
g54
(dp477
g74
g75
ssg63
g471
sg56
(lp478
g307
asbag49
(g70
g51
NtRp479
(dp480
g54
(dp481
g81
g82
ssg63
g471
sg56
(lp482
S':'
asbag49
(g70
g51
NtRp483
(dp484
g54
(dp485
sg63
g471
sg56
(lp486
g49
(g50
g51
NtRp487
(dp488
g54
(dp489
g62
I3
ssg63
g483
sg56
(lp490
S''
asbasbasbag49
(g65
g51
NtRp491
(dp492
g54
(dp493
sg63
g447
sg56
(lp494
g49
(g70
g51
NtRp495
(dp496
g54
(dp497
g74
g75
ssg63
g491
sg56
(lp498
g328
asbag49
(g70
g51
NtRp499
(dp500
g54
(dp501
g81
g82
ssg63
g491
sg56
(lp502
S':'
asbag49
(g70
g51
NtRp503
(dp504
g54
(dp505
sg63
g491
sg56
(lp506
g49
(g50
g51
NtRp507
(dp508
g54
(dp509
g62
I3
ssg63
g503
sg56
(lp510
S''
asbasbasbag49
(g65
g51
NtRp511
(dp512
g54
(dp513
sg63
g447
sg56
(lp514
g49
(g70
g51
NtRp515
(dp516
g54
(dp517
g74
g75
ssg63
g511
sg56
(lp518
g349
asbag49
(g70
g51
NtRp519
(dp520
g54
(dp521
g81
g82
ssg63
g511
sg56
(lp522
S':'
asbag49
(g70
g51
NtRp523
(dp524
g54
(dp525
sg63
g511
sg56
(lp526
g49
(g50
g51
NtRp527
(dp528
g54
(dp529
g62
I3
ssg63
g523
sg56
(lp530
S''
asbasbasbag49
(g65
g51
NtRp531
(dp532
g54
(dp533
sg63
g447
sg56
(lp534
g49
(g70
g51
NtRp535
(dp536
g54
(dp537
g74
g75
ssg63
g531
sg56
(lp538
g370
asbag49
(g70
g51
NtRp539
(dp540
g54
(dp541
g81
g82
ssg63
g531
sg56
(lp542
S':'
asbag49
(g70
g51
NtRp543
(dp544
g54
(dp545
sg63
g531
sg56
(lp546
g49
(g50
g51
NtRp547
(dp548
g54
(dp549
g62
I3
ssg63
g543
sg56
(lp550
S''
asbasbasbag49
(g65
g51
NtRp551
(dp552
g54
(dp553
sg63
g447
sg56
(lp554
g49
(g70
g51
NtRp555
(dp556
g54
(dp557
g74
g75
ssg63
g551
sg56
(lp558
g391
asbag49
(g70
g51
NtRp559
(dp560
g54
(dp561
g81
g82
ssg63
g551
sg56
(lp562
S':'
asbag49
(g70
g51
NtRp563
(dp564
g54
(dp565
sg63
g551
sg56
(lp566
g49
(g50
g51
NtRp567
(dp568
g54
(dp569
g62
I3
ssg63
g563
sg56
(lp570
S''
asbasbasbag49
(g65
g51
NtRp571
(dp572
g54
(dp573
sg63
g447
sg56
(lp574
g49
(g70
g51
NtRp575
(dp576
g54
(dp577
g74
g75
ssg63
g571
sg56
(lp578
g412
asbag49
(g70
g51
NtRp579
(dp580
g54
(dp581
g81
g82
ssg63
g571
sg56
(lp582
S':'
asbag49
(g70
g51
NtRp583
(dp584
g54
(dp585
sg63
g571
sg56
(lp586
g49
(g50
g51
NtRp587
(dp588
g54
(dp589
g62
I3
ssg63
g583
sg56
(lp590
S''
asbasbasbasbasbasbasbag49
(g65
g51
NtRp591
(dp592
g54
(dp593
sg63
g248
sg56
(lp594
g49
(g70
g51
NtRp595
(dp596
g54
(dp597
g74
g75
ssg63
g591
sg56
(lp598
S'session_id_hellow'
p599
asbag49
(g70
g51
NtRp600
(dp601
g54
(dp602
g81
g82
ssg63
g591
sg56
(lp603
S':'
asbag49
(g70
g51
NtRp604
(dp605
g54
(dp606
sg63
g591
sg56
(lp607
g49
(g50
g51
NtRp608
(dp609
g54
(dp610
g62
I4
ssg63
g604
sg56
(lp611
S'127.0.0.1-f0c125e4-5d5e-4805-8c10-bdfc66367729'
p612
ag49
(g58
g51
NtRp613
(dp614
g54
(dp615
g62
I3
ssg63
Nsg56
(lp616
g49
(g65
g51
NtRp617
(dp618
g54
(dp619
sg63
g613
sg56
(lp620
g49
(g70
g51
NtRp621
(dp622
g54
(dp623
g74
g75
ssg63
g617
sg56
(lp624
g286
asbag49
(g70
g51
NtRp625
(dp626
g54
(dp627
g81
g82
ssg63
g617
sg56
(lp628
S':'
asbag49
(g70
g51
NtRp629
(dp630
g54
(dp631
sg63
g617
sg56
(lp632
g49
(g50
g51
NtRp633
(dp634
g54
(dp635
g62
I3
ssg63
g629
sg56
(lp636
S''
asbasbasbag49
(g65
g51
NtRp637
(dp638
g54
(dp639
sg63
g613
sg56
(lp640
g49
(g70
g51
NtRp641
(dp642
g54
(dp643
g74
g75
ssg63
g637
sg56
(lp644
g307
asbag49
(g70
g51
NtRp645
(dp646
g54
(dp647
g81
g82
ssg63
g637
sg56
(lp648
S':'
asbag49
(g70
g51
NtRp649
(dp650
g54
(dp651
sg63
g637
sg56
(lp652
g49
(g50
g51
NtRp653
(dp654
g54
(dp655
g62
I3
ssg63
g649
sg56
(lp656
S''
asbasbasbag49
(g65
g51
NtRp657
(dp658
g54
(dp659
sg63
g613
sg56
(lp660
g49
(g70
g51
NtRp661
(dp662
g54
(dp663
g74
g75
ssg63
g657
sg56
(lp664
g328
asbag49
(g70
g51
NtRp665
(dp666
g54
(dp667
g81
g82
ssg63
g657
sg56
(lp668
S':'
asbag49
(g70
g51
NtRp669
(dp670
g54
(dp671
sg63
g657
sg56
(lp672
g49
(g50
g51
NtRp673
(dp674
g54
(dp675
g62
I3
ssg63
g669
sg56
(lp676
S''
asbasbasbag49
(g65
g51
NtRp677
(dp678
g54
(dp679
sg63
g613
sg56
(lp680
g49
(g70
g51
NtRp681
(dp682
g54
(dp683
g74
g75
ssg63
g677
sg56
(lp684
g349
asbag49
(g70
g51
NtRp685
(dp686
g54
(dp687
g81
g82
ssg63
g677
sg56
(lp688
S':'
asbag49
(g70
g51
NtRp689
(dp690
g54
(dp691
sg63
g677
sg56
(lp692
g49
(g50
g51
NtRp693
(dp694
g54
(dp695
g62
I3
ssg63
g689
sg56
(lp696
S''
asbasbasbag49
(g65
g51
NtRp697
(dp698
g54
(dp699
sg63
g613
sg56
(lp700
g49
(g70
g51
NtRp701
(dp702
g54
(dp703
g74
g75
ssg63
g697
sg56
(lp704
g370
asbag49
(g70
g51
NtRp705
(dp706
g54
(dp707
g81
g82
ssg63
g697
sg56
(lp708
S':'
asbag49
(g70
g51
NtRp709
(dp710
g54
(dp711
sg63
g697
sg56
(lp712
g49
(g50
g51
NtRp713
(dp714
g54
(dp715
g62
I3
ssg63
g709
sg56
(lp716
S''
asbasbasbag49
(g65
g51
NtRp717
(dp718
g54
(dp719
sg63
g613
sg56
(lp720
g49
(g70
g51
NtRp721
(dp722
g54
(dp723
g74
g75
ssg63
g717
sg56
(lp724
g391
asbag49
(g70
g51
NtRp725
(dp726
g54
(dp727
g81
g82
ssg63
g717
sg56
(lp728
S':'
asbag49
(g70
g51
NtRp729
(dp730
g54
(dp731
sg63
g717
sg56
(lp732
g49
(g50
g51
NtRp733
(dp734
g54
(dp735
g62
I3
ssg63
g729
sg56
(lp736
S''
asbasbasbag49
(g65
g51
NtRp737
(dp738
g54
(dp739
sg63
g613
sg56
(lp740
g49
(g70
g51
NtRp741
(dp742
g54
(dp743
g74
g75
ssg63
g737
sg56
(lp744
g412
asbag49
(g70
g51
NtRp745
(dp746
g54
(dp747
g81
g82
ssg63
g737
sg56
(lp748
S':'
asbag49
(g70
g51
NtRp749
(dp750
g54
(dp751
sg63
g737
sg56
(lp752
g49
(g50
g51
NtRp753
(dp754
g54
(dp755
g62
I3
ssg63
g749
sg56
(lp756
S''
asbasbasbasbasbasbasbag49
(g65
g51
NtRp757
(dp758
g54
(dp759
sg63
g248
sg56
(lp760
g49
(g70
g51
NtRp761
(dp762
g54
(dp763
g74
g75
ssg63
g757
sg56
(lp764
S'session_id_slots'
p765
asbag49
(g70
g51
NtRp766
(dp767
g54
(dp768
g81
g82
ssg63
g757
sg56
(lp769
S':'
asbag49
(g70
g51
NtRp770
(dp771
g54
(dp772
sg63
g757
sg56
(lp773
g49
(g50
g51
NtRp774
(dp775
g54
(dp776
g62
I4
ssg63
g770
sg56
(lp777
S'127.0.0.1-c959d0b0-1e49-49e4-b6ce-60b17dcbfd08'
p778
ag49
(g58
g51
NtRp779
(dp780
g54
(dp781
g62
I3
ssg63
Nsg56
(lp782
g49
(g65
g51
NtRp783
(dp784
g54
(dp785
sg63
g779
sg56
(lp786
g49
(g70
g51
NtRp787
(dp788
g54
(dp789
g74
g75
ssg63
g783
sg56
(lp790
g286
asbag49
(g70
g51
NtRp791
(dp792
g54
(dp793
g81
g82
ssg63
g783
sg56
(lp794
S':'
asbag49
(g70
g51
NtRp795
(dp796
g54
(dp797
sg63
g783
sg56
(lp798
g49
(g50
g51
NtRp799
(dp800
g54
(dp801
g62
I3
ssg63
g795
sg56
(lp802
S''
asbasbasbag49
(g65
g51
NtRp803
(dp804
g54
(dp805
sg63
g779
sg56
(lp806
g49
(g70
g51
NtRp807
(dp808
g54
(dp809
g74
g75
ssg63
g803
sg56
(lp810
g307
asbag49
(g70
g51
NtRp811
(dp812
g54
(dp813
g81
g82
ssg63
g803
sg56
(lp814
S':'
asbag49
(g70
g51
NtRp815
(dp816
g54
(dp817
sg63
g803
sg56
(lp818
g49
(g50
g51
NtRp819
(dp820
g54
(dp821
g62
I3
ssg63
g815
sg56
(lp822
S''
asbasbasbag49
(g65
g51
NtRp823
(dp824
g54
(dp825
sg63
g779
sg56
(lp826
g49
(g70
g51
NtRp827
(dp828
g54
(dp829
g74
g75
ssg63
g823
sg56
(lp830
g328
asbag49
(g70
g51
NtRp831
(dp832
g54
(dp833
g81
g82
ssg63
g823
sg56
(lp834
S':'
asbag49
(g70
g51
NtRp835
(dp836
g54
(dp837
sg63
g823
sg56
(lp838
g49
(g50
g51
NtRp839
(dp840
g54
(dp841
g62
I3
ssg63
g835
sg56
(lp842
S''
asbasbasbag49
(g65
g51
NtRp843
(dp844
g54
(dp845
sg63
g779
sg56
(lp846
g49
(g70
g51
NtRp847
(dp848
g54
(dp849
g74
g75
ssg63
g843
sg56
(lp850
g349
asbag49
(g70
g51
NtRp851
(dp852
g54
(dp853
g81
g82
ssg63
g843
sg56
(lp854
S':'
asbag49
(g70
g51
NtRp855
(dp856
g54
(dp857
sg63
g843
sg56
(lp858
g49
(g50
g51
NtRp859
(dp860
g54
(dp861
g62
I3
ssg63
g855
sg56
(lp862
S''
asbasbasbag49
(g65
g51
NtRp863
(dp864
g54
(dp865
sg63
g779
sg56
(lp866
g49
(g70
g51
NtRp867
(dp868
g54
(dp869
g74
g75
ssg63
g863
sg56
(lp870
g370
asbag49
(g70
g51
NtRp871
(dp872
g54
(dp873
g81
g82
ssg63
g863
sg56
(lp874
S':'
asbag49
(g70
g51
NtRp875
(dp876
g54
(dp877
sg63
g863
sg56
(lp878
g49
(g50
g51
NtRp879
(dp880
g54
(dp881
g62
I3
ssg63
g875
sg56
(lp882
S''
asbasbasbag49
(g65
g51
NtRp883
(dp884
g54
(dp885
sg63
g779
sg56
(lp886
g49
(g70
g51
NtRp887
(dp888
g54
(dp889
g74
g75
ssg63
g883
sg56
(lp890
g391
asbag49
(g70
g51
NtRp891
(dp892
g54
(dp893
g81
g82
ssg63
g883
sg56
(lp894
S':'
asbag49
(g70
g51
NtRp895
(dp896
g54
(dp897
sg63
g883
sg56
(lp898
g49
(g50
g51
NtRp899
(dp900
g54
(dp901
g62
I3
ssg63
g895
sg56
(lp902
S''
asbasbasbag49
(g65
g51
NtRp903
(dp904
g54
(dp905
sg63
g779
sg56
(lp906
g49
(g70
g51
NtRp907
(dp908
g54
(dp909
g74
g75
ssg63
g903
sg56
(lp910
g412
asbag49
(g70
g51
NtRp911
(dp912
g54
(dp913
g81
g82
ssg63
g903
sg56
(lp914
S':'
asbag49
(g70
g51
NtRp915
(dp916
g54
(dp917
sg63
g903
sg56
(lp918
g49
(g50
g51
NtRp919
(dp920
g54
(dp921
g62
I3
ssg63
g915
sg56
(lp922
S''
asbasbasbasbasbasbasbag49
(g65
g51
NtRp923
(dp924
g54
(dp925
sg63
g248
sg56
(lp926
g49
(g70
g51
NtRp927
(dp928
g54
(dp929
g74
g75
ssg63
g923
sg56
(lp930
S'session_id_welcome'
p931
asbag49
(g70
g51
NtRp932
(dp933
g54
(dp934
g81
g82
ssg63
g923
sg56
(lp935
S':'
asbag49
(g70
g51
NtRp936
(dp937
g54
(dp938
sg63
g923
sg56
(lp939
g49
(g50
g51
NtRp940
(dp941
g54
(dp942
g62
I4
ssg63
g936
sg56
(lp943
S'127.0.0.1-245d6654-272e-49f5-968f-2cbd15b43359'
p944
ag49
(g58
g51
NtRp945
(dp946
g54
(dp947
g62
I3
ssg63
Nsg56
(lp948
g49
(g65
g51
NtRp949
(dp950
g54
(dp951
sg63
g945
sg56
(lp952
g49
(g70
g51
NtRp953
(dp954
g54
(dp955
g74
g75
ssg63
g949
sg56
(lp956
g286
asbag49
(g70
g51
NtRp957
(dp958
g54
(dp959
g81
g82
ssg63
g949
sg56
(lp960
S':'
asbag49
(g70
g51
NtRp961
(dp962
g54
(dp963
sg63
g949
sg56
(lp964
g49
(g50
g51
NtRp965
(dp966
g54
(dp967
g62
I3
ssg63
g961
sg56
(lp968
S''
asbasbasbag49
(g65
g51
NtRp969
(dp970
g54
(dp971
sg63
g945
sg56
(lp972
g49
(g70
g51
NtRp973
(dp974
g54
(dp975
g74
g75
ssg63
g969
sg56
(lp976
g307
asbag49
(g70
g51
NtRp977
(dp978
g54
(dp979
g81
g82
ssg63
g969
sg56
(lp980
S':'
asbag49
(g70
g51
NtRp981
(dp982
g54
(dp983
sg63
g969
sg56
(lp984
g49
(g50
g51
NtRp985
(dp986
g54
(dp987
g62
I3
ssg63
g981
sg56
(lp988
S''
asbasbasbag49
(g65
g51
NtRp989
(dp990
g54
(dp991
sg63
g945
sg56
(lp992
g49
(g70
g51
NtRp993
(dp994
g54
(dp995
g74
g75
ssg63
g989
sg56
(lp996
g328
asbag49
(g70
g51
NtRp997
(dp998
g54
(dp999
g81
g82
ssg63
g989
sg56
(lp1000
S':'
asbag49
(g70
g51
NtRp1001
(dp1002
g54
(dp1003
sg63
g989
sg56
(lp1004
g49
(g50
g51
NtRp1005
(dp1006
g54
(dp1007
g62
I3
ssg63
g1001
sg56
(lp1008
S''
asbasbasbag49
(g65
g51
NtRp1009
(dp1010
g54
(dp1011
sg63
g945
sg56
(lp1012
g49
(g70
g51
NtRp1013
(dp1014
g54
(dp1015
g74
g75
ssg63
g1009
sg56
(lp1016
g349
asbag49
(g70
g51
NtRp1017
(dp1018
g54
(dp1019
g81
g82
ssg63
g1009
sg56
(lp1020
S':'
asbag49
(g70
g51
NtRp1021
(dp1022
g54
(dp1023
sg63
g1009
sg56
(lp1024
g49
(g50
g51
NtRp1025
(dp1026
g54
(dp1027
g62
I3
ssg63
g1021
sg56
(lp1028
S''
asbasbasbag49
(g65
g51
NtRp1029
(dp1030
g54
(dp1031
sg63
g945
sg56
(lp1032
g49
(g70
g51
NtRp1033
(dp1034
g54
(dp1035
g74
g75
ssg63
g1029
sg56
(lp1036
g370
asbag49
(g70
g51
NtRp1037
(dp1038
g54
(dp1039
g81
g82
ssg63
g1029
sg56
(lp1040
S':'
asbag49
(g70
g51
NtRp1041
(dp1042
g54
(dp1043
sg63
g1029
sg56
(lp1044
g49
(g50
g51
NtRp1045
(dp1046
g54
(dp1047
g62
I3
ssg63
g1041
sg56
(lp1048
S''
asbasbasbag49
(g65
g51
NtRp1049
(dp1050
g54
(dp1051
sg63
g945
sg56
(lp1052
g49
(g70
g51
NtRp1053
(dp1054
g54
(dp1055
g74
g75
ssg63
g1049
sg56
(lp1056
g391
asbag49
(g70
g51
NtRp1057
(dp1058
g54
(dp1059
g81
g82
ssg63
g1049
sg56
(lp1060
S':'
asbag49
(g70
g51
NtRp1061
(dp1062
g54
(dp1063
sg63
g1049
sg56
(lp1064
g49
(g50
g51
NtRp1065
(dp1066
g54
(dp1067
g62
I3
ssg63
g1061
sg56
(lp1068
S''
asbasbasbag49
(g65
g51
NtRp1069
(dp1070
g54
(dp1071
sg63
g945
sg56
(lp1072
g49
(g70
g51
NtRp1073
(dp1074
g54
(dp1075
g74
g75
ssg63
g1069
sg56
(lp1076
g412
asbag49
(g70
g51
NtRp1077
(dp1078
g54
(dp1079
g81
g82
ssg63
g1069
sg56
(lp1080
S':'
asbag49
(g70
g51
NtRp1081
(dp1082
g54
(dp1083
sg63
g1069
sg56
(lp1084
g49
(g50
g51
NtRp1085
(dp1086
g54
(dp1087
g62
I3
ssg63
g1081
sg56
(lp1088
S''
asbasbasbasbasbasbasbasbasbasbasbag49
(g65
g51
NtRp1089
(dp1090
g54
(dp1091
sg63
g59
sg56
(lp1092
g49
(g70
g51
NtRp1093
(dp1094
g54
(dp1095
g74
g75
ssg63
g1089
sg56
(lp1096
S'env'
p1097
asbag49
(g70
g51
NtRp1098
(dp1099
g54
(dp1100
g81
g82
ssg63
g1089
sg56
(lp1101
S':'
asbag49
(g70
g51
NtRp1102
(dp1103
g54
(dp1104
sg63
g1089
sg56
(lp1105
g49
(g50
g51
NtRp1106
(dp1107
g54
(dp1108
g62
I5
ssg63
g1102
sg56
(lp1109
g49
(g58
g51
NtRp1110
(dp1111
g54
(dp1112
g62
I4
ssg63
Nsg56
(lp1113
g49
(g65
g51
NtRp1114
(dp1115
g54
(dp1116
sg63
g1110
sg56
(lp1117
g49
(g70
g51
NtRp1118
(dp1119
g54
(dp1120
g74
g75
ssg63
g1114
sg56
(lp1121
S'app_folders'
p1122
asbag49
(g70
g51
NtRp1123
(dp1124
g54
(dp1125
g81
g82
ssg63
g1114
sg56
(lp1126
S':'
asbag49
(g70
g51
NtRp1127
(dp1128
g54
(dp1129
sg63
g1114
sg56
(lp1130
g49
(g50
g51
NtRp1131
(dp1132
g54
(dp1133
g62
I4
ssg63
g1127
sg56
(lp1134
S"set(['/Users/zamechek/Downloads/web2py/web2py.app/Contents/Resources/applications/examples/', '/Users/zamechek/Downloads/web2py/web2py.app/Contents/Resources/applications/hellow/', '/Users/zamechek/Downloads/web2py/web2py.app/Contents/Resources/applications/admin/', '/Users/zamechek/Downloads/web2py/web2py.app/Contents/Resources/applications/slots/', '/Users/zamechek/Downloads/web2py/web2py.app/Contents/Resources/applications/welcome/'])"
p1135
asbasbasbag49
(g65
g51
NtRp1136
(dp1137
g54
(dp1138
sg63
g1110
sg56
(lp1139
g49
(g70
g51
NtRp1140
(dp1141
g54
(dp1142
g74
g75
ssg63
g1136
sg56
(lp1143
S'applications_parent'
p1144
asbag49
(g70
g51
NtRp1145
(dp1146
g54
(dp1147
g81
g82
ssg63
g1136
sg56
(lp1148
S':'
asbag49
(g70
g51
NtRp1149
(dp1150
g54
(dp1151
sg63
g1136
sg56
(lp1152
g49
(g50
g51
NtRp1153
(dp1154
g54
(dp1155
g62
I4
ssg63
g1149
sg56
(lp1156
S'/Users/zamechek/Downloads/web2py/web2py.app/Contents/Resources'
p1157
asbasbasbag49
(g65
g51
NtRp1158
(dp1159
g54
(dp1160
sg63
g1110
sg56
(lp1161
g49
(g70
g51
NtRp1162
(dp1163
g54
(dp1164
g74
g75
ssg63
g1158
sg56
(lp1165
S'cmd_args'
p1166
asbag49
(g70
g51
NtRp1167
(dp1168
g54
(dp1169
g81
g82
ssg63
g1158
sg56
(lp1170
S':'
asbag49
(g70
g51
NtRp1171
(dp1172
g54
(dp1173
sg63
g1158
sg56
(lp1174
g49
(g50
g51
NtRp1175
(dp1176
g54
(dp1177
g62
I4
ssg63
g1171
sg56
(lp1178
g49
(g58
g51
NtRp1179
(dp1180
g54
(dp1181
g62
I3
ssg63
Nsg56
(lp1182
sbasbasbasbag49
(g65
g51
NtRp1183
(dp1184
g54
(dp1185
sg63
g1110
sg56
(lp1186
g49
(g70
g51
NtRp1187
(dp1188
g54
(dp1189
g74
g75
ssg63
g1183
sg56
(lp1190
S'cmd_options'
p1191
asbag49
(g70
g51
NtRp1192
(dp1193
g54
(dp1194
g81
g82
ssg63
g1183
sg56
(lp1195
S':'
asbag49
(g70
g51
NtRp1196
(dp1197
g54
(dp1198
sg63
g1183
sg56
(lp1199
g49
(g50
g51
NtRp1200
(dp1201
g54
(dp1202
g62
I4
ssg63
g1196
sg56
(lp1203
S"<Values at 0x32c8f58: {'verbose': False, 'ip': '127.0.0.1', 'with_scheduler': False, 'ips': ['130.91.151.157'], 'shutdown_timeout': 5, 'taskbar': False, 'port': 8000, 'maxthreads': None, 'softcron': False, 'server_name': 'hntvlan531.0924.wlan.wireless-pennnet.upenn.edu', 'bpython': False, 'nogui': False, 'pid_filename': 'httpserver.pid', 'extcron': False, 'runcron': False, 'run_system_tests': False, 'test': None, 'folder': '/Users/zamechek/Downloads/web2py/web2py.app/Contents/Resources', 'config': '', 'import_models': False, 'winservice': '', 'shell': None, 'run': '', 'log_filename': 'httpserver.log', 'debuglevel': 30, 'args': [''], 'socket_timeout': 5, 'ssl_ca_certificate': None, 'scheduler': None, 'profiler_filename': None, 'ssl_private_key': '', 'scheduler_groups': None, 'password': '<ask>', 'request_queue_size': 5, 'ssl_certificate': '', 'cronjob': False, 'numthreads': None, 'quiet': False, 'interfaces': None, 'minthreads': None, 'timeout': 10, 'plain': False, 'nobanner': False}>"
p1204
asbasbasbag49
(g65
g51
NtRp1205
(dp1206
g54
(dp1207
sg63
g1110
sg56
(lp1208
g49
(g70
g51
NtRp1209
(dp1210
g54
(dp1211
g74
g75
ssg63
g1205
sg56
(lp1212
S'db_sessions'
p1213
asbag49
(g70
g51
NtRp1214
(dp1215
g54
(dp1216
g81
g82
ssg63
g1205
sg56
(lp1217
S':'
asbag49
(g70
g51
NtRp1218
(dp1219
g54
(dp1220
sg63
g1205
sg56
(lp1221
g49
(g50
g51
NtRp1222
(dp1223
g54
(dp1224
g62
I4
ssg63
g1218
sg56
(lp1225
S'set([])'
p1226
asbasbasbag49
(g65
g51
NtRp1227
(dp1228
g54
(dp1229
sg63
g1110
sg56
(lp1230
g49
(g70
g51
NtRp1231
(dp1232
g54
(dp1233
g74
g75
ssg63
g1227
sg56
(lp1234
S'debugging'
p1235
asbag49
(g70
g51
NtRp1236
(dp1237
g54
(dp1238
g81
g82
ssg63
g1227
sg56
(lp1239
S':'
asbag49
(g70
g51
NtRp1240
(dp1241
g54
(dp1242
sg63
g1227
sg56
(lp1243
g49
(g50
g51
NtRp1244
(dp1245
g54
(dp1246
g62
I4
ssg63
g1240
sg56
(lp1247
S'True'
p1248
asbasbasbag49
(g65
g51
NtRp1249
(dp1250
g54
(dp1251
sg63
g1110
sg56
(lp1252
g49
(g70
g51
NtRp1253
(dp1254
g54
(dp1255
g74
g75
ssg63
g1249
sg56
(lp1256
S'gluon_parent'
p1257
asbag49
(g70
g51
NtRp1258
(dp1259
g54
(dp1260
g81
g82
ssg63
g1249
sg56
(lp1261
S':'
asbag49
(g70
g51
NtRp1262
(dp1263
g54
(dp1264
sg63
g1249
sg56
(lp1265
g49
(g50
g51
NtRp1266
(dp1267
g54
(dp1268
g62
I4
ssg63
g1262
sg56
(lp1269
S'/Users/zamechek/Downloads/web2py/web2py.app/Contents/Resources'
p1270
asbasbasbag49
(g65
g51
NtRp1271
(dp1272
g54
(dp1273
sg63
g1110
sg56
(lp1274
g49
(g70
g51
NtRp1275
(dp1276
g54
(dp1277
g74
g75
ssg63
g1271
sg56
(lp1278
S'http_accept'
p1279
asbag49
(g70
g51
NtRp1280
(dp1281
g54
(dp1282
g81
g82
ssg63
g1271
sg56
(lp1283
S':'
asbag49
(g70
g51
NtRp1284
(dp1285
g54
(dp1286
sg63
g1271
sg56
(lp1287
g49
(g50
g51
NtRp1288
(dp1289
g54
(dp1290
g62
I4
ssg63
g1284
sg56
(lp1291
S'text/html,application/xhtml+xml,application/xml;q=0.9,*/*;q=0.8'
p1292
asbasbasbag49
(g65
g51
NtRp1293
(dp1294
g54
(dp1295
sg63
g1110
sg56
(lp1296
g49
(g70
g51
NtRp1297
(dp1298
g54
(dp1299
g74
g75
ssg63
g1293
sg56
(lp1300
S'http_accept_charset'
p1301
asbag49
(g70
g51
NtRp1302
(dp1303
g54
(dp1304
g81
g82
ssg63
g1293
sg56
(lp1305
S':'
asbag49
(g70
g51
NtRp1306
(dp1307
g54
(dp1308
sg63
g1293
sg56
(lp1309
g49
(g50
g51
NtRp1310
(dp1311
g54
(dp1312
g62
I4
ssg63
g1306
sg56
(lp1313
S'ISO-8859-1,utf-8;q=0.7,*;q=0.3'
p1314
asbasbasbag49
(g65
g51
NtRp1315
(dp1316
g54
(dp1317
sg63
g1110
sg56
(lp1318
g49
(g70
g51
NtRp1319
(dp1320
g54
(dp1321
g74
g75
ssg63
g1315
sg56
(lp1322
S'http_accept_encoding'
p1323
asbag49
(g70
g51
NtRp1324
(dp1325
g54
(dp1326
g81
g82
ssg63
g1315
sg56
(lp1327
S':'
asbag49
(g70
g51
NtRp1328
(dp1329
g54
(dp1330
sg63
g1315
sg56
(lp1331
g49
(g50
g51
NtRp1332
(dp1333
g54
(dp1334
g62
I4
ssg63
g1328
sg56
(lp1335
S'gzip,deflate,sdch'
p1336
asbasbasbag49
(g65
g51
NtRp1337
(dp1338
g54
(dp1339
sg63
g1110
sg56
(lp1340
g49
(g70
g51
NtRp1341
(dp1342
g54
(dp1343
g74
g75
ssg63
g1337
sg56
(lp1344
S'http_accept_language'
p1345
asbag49
(g70
g51
NtRp1346
(dp1347
g54
(dp1348
g81
g82
ssg63
g1337
sg56
(lp1349
S':'
asbag49
(g70
g51
NtRp1350
(dp1351
g54
(dp1352
sg63
g1337
sg56
(lp1353
g49
(g50
g51
NtRp1354
(dp1355
g54
(dp1356
g62
I4
ssg63
g1350
sg56
(lp1357
S'en-US,en;q=0.8'
p1358
asbasbasbag49
(g65
g51
NtRp1359
(dp1360
g54
(dp1361
sg63
g1110
sg56
(lp1362
g49
(g70
g51
NtRp1363
(dp1364
g54
(dp1365
g74
g75
ssg63
g1359
sg56
(lp1366
S'http_connection'
p1367
asbag49
(g70
g51
NtRp1368
(dp1369
g54
(dp1370
g81
g82
ssg63
g1359
sg56
(lp1371
S':'
asbag49
(g70
g51
NtRp1372
(dp1373
g54
(dp1374
sg63
g1359
sg56
(lp1375
g49
(g50
g51
NtRp1376
(dp1377
g54
(dp1378
g62
I4
ssg63
g1372
sg56
(lp1379
S'keep-alive'
p1380
asbasbasbag49
(g65
g51
NtRp1381
(dp1382
g54
(dp1383
sg63
g1110
sg56
(lp1384
g49
(g70
g51
NtRp1385
(dp1386
g54
(dp1387
g74
g75
ssg63
g1381
sg56
(lp1388
S'http_cookie'
p1389
asbag49
(g70
g51
NtRp1390
(dp1391
g54
(dp1392
g81
g82
ssg63
g1381
sg56
(lp1393
S':'
asbag49
(g70
g51
NtRp1394
(dp1395
g54
(dp1396
sg63
g1381
sg56
(lp1397
g49
(g50
g51
NtRp1398
(dp1399
g54
(dp1400
g62
I4
ssg63
g1394
sg56
(lp1401
S'session_id_welcome=127.0.0.1-245d6654-272e-49f5-968f-2cbd15b43359; session_id_slots=127.0.0.1-c959d0b0-1e49-49e4-b6ce-60b17dcbfd08; session_data_examples="6590e93a92ae056071f3d5d23c5da718:8mcaYr3jD5OS9Hm5obiuGpOS1hqNCswQLIoFlRGZYdaR8FVZ84s0w9vMAEY5L6DK8gvTZcQowujTbbDj-ns3802lRCPwkkcburTr1lmHorC9hQtD5W0yZ89O_mdlKuHPlwEItXQ5_WAFut_RTkzpuyS0nQWmuEGxVuLk0DXc0ndh8WySsXoErgPnINq0aXqKzueVqcmNBWwB7tluAV8oSQyVVnjPajiXfmT2moAb3dPnaGC3yePavU4XAXO8FVarzcdAnZ4bnTo9uMJJvT2hL9oQVbtD8YY8yMHurMAdtIpf8wcGfXNr6SjFTzpMxYtAg1tv7XdXpUPETM1Ox80jE-qsgQd_Xr1FA049-xsoxpdA4EzMUoouiTJ995NWCOJNjo6VICpuSvfOJBlnOLd8aLxueLUtuyScbkLd2jOCQIsF2aV6hhIZWDXpJwlCKPkIckeaXaaHeE4EqTZR6N0JnA=="; session_id_hellow=127.0.0.1-f0c125e4-5d5e-4805-8c10-bdfc66367729; session_id_admin=127.0.0.1-66a1de5b-ba15-4b30-ba06-132c9e7969c1'
p1402
asbasbasbag49
(g65
g51
NtRp1403
(dp1404
g54
(dp1405
sg63
g1110
sg56
(lp1406
g49
(g70
g51
NtRp1407
(dp1408
g54
(dp1409
g74
g75
ssg63
g1403
sg56
(lp1410
S'http_host'
p1411
asbag49
(g70
g51
NtRp1412
(dp1413
g54
(dp1414
g81
g82
ssg63
g1403
sg56
(lp1415
S':'
asbag49
(g70
g51
NtRp1416
(dp1417
g54
(dp1418
sg63
g1403
sg56
(lp1419
g49
(g50
g51
NtRp1420
(dp1421
g54
(dp1422
g62
I4
ssg63
g1416
sg56
(lp1423
S'127.0.0.1:8887'
p1424
asbasbasbag49
(g65
g51
NtRp1425
(dp1426
g54
(dp1427
sg63
g1110
sg56
(lp1428
g49
(g70
g51
NtRp1429
(dp1430
g54
(dp1431
g74
g75
ssg63
g1425
sg56
(lp1432
S'http_referer'
p1433
asbag49
(g70
g51
NtRp1434
(dp1435
g54
(dp1436
g81
g82
ssg63
g1425
sg56
(lp1437
S':'
asbag49
(g70
g51
NtRp1438
(dp1439
g54
(dp1440
sg63
g1425
sg56
(lp1441
g49
(g50
g51
NtRp1442
(dp1443
g54
(dp1444
g62
I4
ssg63
g1438
sg56
(lp1445
S'http://127.0.0.1:8887/admin/default/design/hellow'
p1446
asbasbasbag49
(g65
g51
NtRp1447
(dp1448
g54
(dp1449
sg63
g1110
sg56
(lp1450
g49
(g70
g51
NtRp1451
(dp1452
g54
(dp1453
g74
g75
ssg63
g1447
sg56
(lp1454
S'http_user_agent'
p1455
asbag49
(g70
g51
NtRp1456
(dp1457
g54
(dp1458
g81
g82
ssg63
g1447
sg56
(lp1459
S':'
asbag49
(g70
g51
NtRp1460
(dp1461
g54
(dp1462
sg63
g1447
sg56
(lp1463
g49
(g50
g51
NtRp1464
(dp1465
g54
(dp1466
g62
I4
ssg63
g1460
sg56
(lp1467
S'Mozilla/5.0 (Macintosh; Intel Mac OS X 10_8_3) AppleWebKit/537.22 (KHTML, like Gecko) Chrome/25.0.1364.172 Safari/537.22'
p1468
asbasbasbag49
(g65
g51
NtRp1469
(dp1470
g54
(dp1471
sg63
g1110
sg56
(lp1472
g49
(g70
g51
NtRp1473
(dp1474
g54
(dp1475
g74
g75
ssg63
g1469
sg56
(lp1476
S'is_jython'
p1477
asbag49
(g70
g51
NtRp1478
(dp1479
g54
(dp1480
g81
g82
ssg63
g1469
sg56
(lp1481
S':'
asbag49
(g70
g51
NtRp1482
(dp1483
g54
(dp1484
sg63
g1469
sg56
(lp1485
g49
(g50
g51
NtRp1486
(dp1487
g54
(dp1488
g62
I4
ssg63
g1482
sg56
(lp1489
g92
asbasbasbag49
(g65
g51
NtRp1490
(dp1491
g54
(dp1492
sg63
g1110
sg56
(lp1493
g49
(g70
g51
NtRp1494
(dp1495
g54
(dp1496
g74
g75
ssg63
g1490
sg56
(lp1497
S'is_pypy'
p1498
asbag49
(g70
g51
NtRp1499
(dp1500
g54
(dp1501
g81
g82
ssg63
g1490
sg56
(lp1502
S':'
asbag49
(g70
g51
NtRp1503
(dp1504
g54
(dp1505
sg63
g1490
sg56
(lp1506
g49
(g50
g51
NtRp1507
(dp1508
g54
(dp1509
g62
I4
ssg63
g1503
sg56
(lp1510
g92
asbasbasbag49
(g65
g51
NtRp1511
(dp1512
g54
(dp1513
sg63
g1110
sg56
(lp1514
g49
(g70
g51
NtRp1515
(dp1516
g54
(dp1517
g74
g75
ssg63
g1511
sg56
(lp1518
S'local_hosts'
p1519
asbag49
(g70
g51
NtRp1520
(dp1521
g54
(dp1522
g81
g82
ssg63
g1511
sg56
(lp1523
S':'
asbag49
(g70
g51
NtRp1524
(dp1525
g54
(dp1526
sg63
g1511
sg56
(lp1527
g49
(g50
g51
NtRp1528
(dp1529
g54
(dp1530
g62
I4
ssg63
g1524
sg56
(lp1531
g49
(g58
g51
NtRp1532
(dp1533
g54
(dp1534
g62
I3
ssg63
Nsg56
(lp1535
g49
(g65
g51
NtRp1536
(dp1537
g54
(dp1538
sg63
g1532
sg56
(lp1539
g49
(g70
g51
NtRp1540
(dp1541
g54
(dp1542
sg63
g1536
sg56
(lp1543
g49
(g50
g51
NtRp1544
(dp1545
g54
(dp1546
g62
I3
ssg63
g1540
sg56
(lp1547
S'130.91.151.157'
p1548
asbasbasbag49
(g65
g51
NtRp1549
(dp1550
g54
(dp1551
sg63
g1532
sg56
(lp1552
g49
(g70
g51
NtRp1553
(dp1554
g54
(dp1555
sg63
g1549
sg56
(lp1556
g49
(g50
g51
NtRp1557
(dp1558
g54
(dp1559
g62
I3
ssg63
g1553
sg56
(lp1560
S'::1'
p1561
asbasbasbag49
(g65
g51
NtRp1562
(dp1563
g54
(dp1564
sg63
g1532
sg56
(lp1565
g49
(g70
g51
NtRp1566
(dp1567
g54
(dp1568
sg63
g1562
sg56
(lp1569
g49
(g50
g51
NtRp1570
(dp1571
g54
(dp1572
g62
I3
ssg63
g1566
sg56
(lp1573
S'::ffff:127.0.0.1'
p1574
asbasbasbag49
(g65
g51
NtRp1575
(dp1576
g54
(dp1577
sg63
g1532
sg56
(lp1578
g49
(g70
g51
NtRp1579
(dp1580
g54
(dp1581
sg63
g1575
sg56
(lp1582
g49
(g50
g51
NtRp1583
(dp1584
g54
(dp1585
g62
I3
ssg63
g1579
sg56
(lp1586
S'127.0.0.1'
p1587
asbasbasbag49
(g65
g51
NtRp1588
(dp1589
g54
(dp1590
sg63
g1532
sg56
(lp1591
g49
(g70
g51
NtRp1592
(dp1593
g54
(dp1594
sg63
g1588
sg56
(lp1595
g49
(g50
g51
NtRp1596
(dp1597
g54
(dp1598
g62
I3
ssg63
g1592
sg56
(lp1599
S'hntvlan531.0924.wlan.wireless-pennnet.upenn.edu'
p1600
asbasbasbasbasbasbasbag49
(g65
g51
NtRp1601
(dp1602
g54
(dp1603
sg63
g1110
sg56
(lp1604
g49
(g70
g51
NtRp1605
(dp1606
g54
(dp1607
g74
g75
ssg63
g1601
sg56
(lp1608
S'path_info'
p1609
asbag49
(g70
g51
NtRp1610
(dp1611
g54
(dp1612
g81
g82
ssg63
g1601
sg56
(lp1613
S':'
asbag49
(g70
g51
NtRp1614
(dp1615
g54
(dp1616
sg63
g1601
sg56
(lp1617
g49
(g50
g51
NtRp1618
(dp1619
g54
(dp1620
g62
I4
ssg63
g1614
sg56
(lp1621
S'/hellow/game/show'
p1622
asbasbasbag49
(g65
g51
NtRp1623
(dp1624
g54
(dp1625
sg63
g1110
sg56
(lp1626
g49
(g70
g51
NtRp1627
(dp1628
g54
(dp1629
g74
g75
ssg63
g1623
sg56
(lp1630
S'query_string'
p1631
asbag49
(g70
g51
NtRp1632
(dp1633
g54
(dp1634
g81
g82
ssg63
g1623
sg56
(lp1635
S':'
asbag49
(g70
g51
NtRp1636
(dp1637
g54
(dp1638
sg63
g1623
sg56
(lp1639
g49
(g50
g51
NtRp1640
(dp1641
g54
(dp1642
g62
I4
ssg63
g1636
sg56
(lp1643
S''
asbasbasbag49
(g65
g51
NtRp1644
(dp1645
g54
(dp1646
sg63
g1110
sg56
(lp1647
g49
(g70
g51
NtRp1648
(dp1649
g54
(dp1650
g74
g75
ssg63
g1644
sg56
(lp1651
S'remote_addr'
p1652
asbag49
(g70
g51
NtRp1653
(dp1654
g54
(dp1655
g81
g82
ssg63
g1644
sg56
(lp1656
S':'
asbag49
(g70
g51
NtRp1657
(dp1658
g54
(dp1659
sg63
g1644
sg56
(lp1660
g49
(g50
g51
NtRp1661
(dp1662
g54
(dp1663
g62
I4
ssg63
g1657
sg56
(lp1664
g204
asbasbasbag49
(g65
g51
NtRp1665
(dp1666
g54
(dp1667
sg63
g1110
sg56
(lp1668
g49
(g70
g51
NtRp1669
(dp1670
g54
(dp1671
g74
g75
ssg63
g1665
sg56
(lp1672
S'remote_port'
p1673
asbag49
(g70
g51
NtRp1674
(dp1675
g54
(dp1676
g81
g82
ssg63
g1665
sg56
(lp1677
S':'
asbag49
(g70
g51
NtRp1678
(dp1679
g54
(dp1680
sg63
g1665
sg56
(lp1681
g49
(g50
g51
NtRp1682
(dp1683
g54
(dp1684
g62
I4
ssg63
g1678
sg56
(lp1685
S'64910'
p1686
asbasbasbag49
(g65
g51
NtRp1687
(dp1688
g54
(dp1689
sg63
g1110
sg56
(lp1690
g49
(g70
g51
NtRp1691
(dp1692
g54
(dp1693
g74
g75
ssg63
g1687
sg56
(lp1694
S'request_method'
p1695
asbag49
(g70
g51
NtRp1696
(dp1697
g54
(dp1698
g81
g82
ssg63
g1687
sg56
(lp1699
S':'
asbag49
(g70
g51
NtRp1700
(dp1701
g54
(dp1702
sg63
g1687
sg56
(lp1703
g49
(g50
g51
NtRp1704
(dp1705
g54
(dp1706
g62
I4
ssg63
g1700
sg56
(lp1707
S'GET'
p1708
asbasbasbag49
(g65
g51
NtRp1709
(dp1710
g54
(dp1711
sg63
g1110
sg56
(lp1712
g49
(g70
g51
NtRp1713
(dp1714
g54
(dp1715
g74
g75
ssg63
g1709
sg56
(lp1716
S'request_uri'
p1717
asbag49
(g70
g51
NtRp1718
(dp1719
g54
(dp1720
g81
g82
ssg63
g1709
sg56
(lp1721
S':'
asbag49
(g70
g51
NtRp1722
(dp1723
g54
(dp1724
sg63
g1709
sg56
(lp1725
g49
(g50
g51
NtRp1726
(dp1727
g54
(dp1728
g62
I4
ssg63
g1722
sg56
(lp1729
g1622
asbasbasbag49
(g65
g51
NtRp1730
(dp1731
g54
(dp1732
sg63
g1110
sg56
(lp1733
g49
(g70
g51
NtRp1734
(dp1735
g54
(dp1736
g74
g75
ssg63
g1730
sg56
(lp1737
S'script_name'
p1738
asbag49
(g70
g51
NtRp1739
(dp1740
g54
(dp1741
g81
g82
ssg63
g1730
sg56
(lp1742
S':'
asbag49
(g70
g51
NtRp1743
(dp1744
g54
(dp1745
sg63
g1730
sg56
(lp1746
g49
(g50
g51
NtRp1747
(dp1748
g54
(dp1749
g62
I4
ssg63
g1743
sg56
(lp1750
S''
asbasbasbag49
(g65
g51
NtRp1751
(dp1752
g54
(dp1753
sg63
g1110
sg56
(lp1754
g49
(g70
g51
NtRp1755
(dp1756
g54
(dp1757
g74
g75
ssg63
g1751
sg56
(lp1758
S'server_name'
p1759
asbag49
(g70
g51
NtRp1760
(dp1761
g54
(dp1762
g81
g82
ssg63
g1751
sg56
(lp1763
S':'
asbag49
(g70
g51
NtRp1764
(dp1765
g54
(dp1766
sg63
g1751
sg56
(lp1767
g49
(g50
g51
NtRp1768
(dp1769
g54
(dp1770
g62
I4
ssg63
g1764
sg56
(lp1771
S'hntvlan531.0924.wlan.wireless-pennnet.upenn.edu'
p1772
asbasbasbag49
(g65
g51
NtRp1773
(dp1774
g54
(dp1775
sg63
g1110
sg56
(lp1776
g49
(g70
g51
NtRp1777
(dp1778
g54
(dp1779
g74
g75
ssg63
g1773
sg56
(lp1780
S'server_port'
p1781
asbag49
(g70
g51
NtRp1782
(dp1783
g54
(dp1784
g81
g82
ssg63
g1773
sg56
(lp1785
S':'
asbag49
(g70
g51
NtRp1786
(dp1787
g54
(dp1788
sg63
g1773
sg56
(lp1789
g49
(g50
g51
NtRp1790
(dp1791
g54
(dp1792
g62
I4
ssg63
g1786
sg56
(lp1793
S'8887'
p1794
asbasbasbag49
(g65
g51
NtRp1795
(dp1796
g54
(dp1797
sg63
g1110
sg56
(lp1798
g49
(g70
g51
NtRp1799
(dp1800
g54
(dp1801
g74
g75
ssg63
g1795
sg56
(lp1802
S'server_protocol'
p1803
asbag49
(g70
g51
NtRp1804
(dp1805
g54
(dp1806
g81
g82
ssg63
g1795
sg56
(lp1807
S':'
asbag49
(g70
g51
NtRp1808
(dp1809
g54
(dp1810
sg63
g1795
sg56
(lp1811
g49
(g50
g51
NtRp1812
(dp1813
g54
(dp1814
g62
I4
ssg63
g1808
sg56
(lp1815
S'HTTP/1.1'
p1816
asbasbasbag49
(g65
g51
NtRp1817
(dp1818
g54
(dp1819
sg63
g1110
sg56
(lp1820
g49
(g70
g51
NtRp1821
(dp1822
g54
(dp1823
g74
g75
ssg63
g1817
sg56
(lp1824
S'server_software'
p1825
asbag49
(g70
g51
NtRp1826
(dp1827
g54
(dp1828
g81
g82
ssg63
g1817
sg56
(lp1829
S':'
asbag49
(g70
g51
NtRp1830
(dp1831
g54
(dp1832
sg63
g1817
sg56
(lp1833
g49
(g50
g51
NtRp1834
(dp1835
g54
(dp1836
g62
I4
ssg63
g1830
sg56
(lp1837
S'Rocket 1.2.6'
p1838
asbasbasbag49
(g65
g51
NtRp1839
(dp1840
g54
(dp1841
sg63
g1110
sg56
(lp1842
g49
(g70
g51
NtRp1843
(dp1844
g54
(dp1845
g74
g75
ssg63
g1839
sg56
(lp1846
S'web2py_path'
p1847
asbag49
(g70
g51
NtRp1848
(dp1849
g54
(dp1850
g81
g82
ssg63
g1839
sg56
(lp1851
S':'
asbag49
(g70
g51
NtRp1852
(dp1853
g54
(dp1854
sg63
g1839
sg56
(lp1855
g49
(g50
g51
NtRp1856
(dp1857
g54
(dp1858
g62
I4
ssg63
g1852
sg56
(lp1859
g1157
asbasbasbag49
(g65
g51
NtRp1860
(dp1861
g54
(dp1862
sg63
g1110
sg56
(lp1863
g49
(g70
g51
NtRp1864
(dp1865
g54
(dp1866
g74
g75
ssg63
g1860
sg56
(lp1867
S'web2py_version'
p1868
asbag49
(g70
g51
NtRp1869
(dp1870
g54
(dp1871
g81
g82
ssg63
g1860
sg56
(lp1872
S':'
asbag49
(g70
g51
NtRp1873
(dp1874
g54
(dp1875
sg63
g1860
sg56
(lp1876
g49
(g50
g51
NtRp1877
(dp1878
g54
(dp1879
g62
I4
ssg63
g1873
sg56
(lp1880
g49
(g58
g51
NtRp1881
(dp1882
g54
(dp1883
g62
I3
ssg63
Nsg56
(lp1884
g49
(g65
g51
NtRp1885
(dp1886
g54
(dp1887
sg63
g1881
sg56
(lp1888
g49
(g70
g51
NtRp1889
(dp1890
g54
(dp1891
sg63
g1885
sg56
(lp1892
g49
(g50
g51
NtRp1893
(dp1894
g54
(dp1895
g62
I3
ssg63
g1889
sg56
(lp1896
S'2'
asbasbasbag49
(g65
g51
NtRp1897
(dp1898
g54
(dp1899
sg63
g1881
sg56
(lp1900
g49
(g70
g51
NtRp1901
(dp1902
g54
(dp1903
sg63
g1897
sg56
(lp1904
g49
(g50
g51
NtRp1905
(dp1906
g54
(dp1907
g62
I3
ssg63
g1901
sg56
(lp1908
S'4'
asbasbasbag49
(g65
g51
NtRp1909
(dp1910
g54
(dp1911
sg63
g1881
sg56
(lp1912
g49
(g70
g51
NtRp1913
(dp1914
g54
(dp1915
sg63
g1909
sg56
(lp1916
g49
(g50
g51
NtRp1917
(dp1918
g54
(dp1919
g62
I3
ssg63
g1913
sg56
(lp1920
S'5'
asbasbasbag49
(g65
g51
NtRp1921
(dp1922
g54
(dp1923
sg63
g1881
sg56
(lp1924
g49
(g70
g51
NtRp1925
(dp1926
g54
(dp1927
sg63
g1921
sg56
(lp1928
g49
(g50
g51
NtRp1929
(dp1930
g54
(dp1931
g62
I3
ssg63
g1925
sg56
(lp1932
S'stable'
p1933
asbasbasbag49
(g65
g51
NtRp1934
(dp1935
g54
(dp1936
sg63
g1881
sg56
(lp1937
g49
(g70
g51
NtRp1938
(dp1939
g54
(dp1940
sg63
g1934
sg56
(lp1941
g49
(g50
g51
NtRp1942
(dp1943
g54
(dp1944
g62
I3
ssg63
g1938
sg56
(lp1945
S'datetime.datetime(2013, 3, 18, 22, 46, 22)'
p1946
asbasbasbasbasbasbasbag49
(g65
g51
NtRp1947
(dp1948
g54
(dp1949
sg63
g1110
sg56
(lp1950
g49
(g70
g51
NtRp1951
(dp1952
g54
(dp1953
g74
g75
ssg63
g1947
sg56
(lp1954
S'wsgi_errors'
p1955
asbag49
(g70
g51
NtRp1956
(dp1957
g54
(dp1958
g81
g82
ssg63
g1947
sg56
(lp1959
S':'
asbag49
(g70
g51
NtRp1960
(dp1961
g54
(dp1962
sg63
g1947
sg56
(lp1963
g49
(g50
g51
NtRp1964
(dp1965
g54
(dp1966
g62
I4
ssg63
g1960
sg56
(lp1967
S"<open file '<stderr>', mode 'w' at 0x540b0>"
p1968
asbasbasbag49
(g65
g51
NtRp1969
(dp1970
g54
(dp1971
sg63
g1110
sg56
(lp1972
g49
(g70
g51
NtRp1973
(dp1974
g54
(dp1975
g74
g75
ssg63
g1969
sg56
(lp1976
S'wsgi_file_wrapper'
p1977
asbag49
(g70
g51
NtRp1978
(dp1979
g54
(dp1980
g81
g82
ssg63
g1969
sg56
(lp1981
S':'
asbag49
(g70
g51
NtRp1982
(dp1983
g54
(dp1984
sg63
g1969
sg56
(lp1985
g49
(g50
g51
NtRp1986
(dp1987
g54
(dp1988
g62
I4
ssg63
g1982
sg56
(lp1989
S'<class wsgiref.util.FileWrapper at 0x329d060>'
p1990
asbasbasbag49
(g65
g51
NtRp1991
(dp1992
g54
(dp1993
sg63
g1110
sg56
(lp1994
g49
(g70
g51
NtRp1995
(dp1996
g54
(dp1997
g74
g75
ssg63
g1991
sg56
(lp1998
S'wsgi_input'
p1999
asbag49
(g70
g51
NtRp2000
(dp2001
g54
(dp2002
g81
g82
ssg63
g1991
sg56
(lp2003
S':'
asbag49
(g70
g51
NtRp2004
(dp2005
g54
(dp2006
sg63
g1991
sg56
(lp2007
g49
(g50
g51
NtRp2008
(dp2009
g54
(dp2010
g62
I4
ssg63
g2004
sg56
(lp2011
S'<socket._fileobject object at 0x7230d70>'
p2012
asbasbasbag49
(g65
g51
NtRp2013
(dp2014
g54
(dp2015
sg63
g1110
sg56
(lp2016
g49
(g70
g51
NtRp2017
(dp2018
g54
(dp2019
g74
g75
ssg63
g2013
sg56
(lp2020
S'wsgi_multiprocess'
p2021
asbag49
(g70
g51
NtRp2022
(dp2023
g54
(dp2024
g81
g82
ssg63
g2013
sg56
(lp2025
S':'
asbag49
(g70
g51
NtRp2026
(dp2027
g54
(dp2028
sg63
g2013
sg56
(lp2029
g49
(g50
g51
NtRp2030
(dp2031
g54
(dp2032
g62
I4
ssg63
g2026
sg56
(lp2033
g92
asbasbasbag49
(g65
g51
NtRp2034
(dp2035
g54
(dp2036
sg63
g1110
sg56
(lp2037
g49
(g70
g51
NtRp2038
(dp2039
g54
(dp2040
g74
g75
ssg63
g2034
sg56
(lp2041
S'wsgi_multithread'
p2042
asbag49
(g70
g51
NtRp2043
(dp2044
g54
(dp2045
g81
g82
ssg63
g2034
sg56
(lp2046
S':'
asbag49
(g70
g51
NtRp2047
(dp2048
g54
(dp2049
sg63
g2034
sg56
(lp2050
g49
(g50
g51
NtRp2051
(dp2052
g54
(dp2053
g62
I4
ssg63
g2047
sg56
(lp2054
g1248
asbasbasbag49
(g65
g51
NtRp2055
(dp2056
g54
(dp2057
sg63
g1110
sg56
(lp2058
g49
(g70
g51
NtRp2059
(dp2060
g54
(dp2061
g74
g75
ssg63
g2055
sg56
(lp2062
S'wsgi_run_once'
p2063
asbag49
(g70
g51
NtRp2064
(dp2065
g54
(dp2066
g81
g82
ssg63
g2055
sg56
(lp2067
S':'
asbag49
(g70
g51
NtRp2068
(dp2069
g54
(dp2070
sg63
g2055
sg56
(lp2071
g49
(g50
g51
NtRp2072
(dp2073
g54
(dp2074
g62
I4
ssg63
g2068
sg56
(lp2075
g92
asbasbasbag49
(g65
g51
NtRp2076
(dp2077
g54
(dp2078
sg63
g1110
sg56
(lp2079
g49
(g70
g51
NtRp2080
(dp2081
g54
(dp2082
g74
g75
ssg63
g2076
sg56
(lp2083
S'wsgi_url_scheme'
p2084
asbag49
(g70
g51
NtRp2085
(dp2086
g54
(dp2087
g81
g82
ssg63
g2076
sg56
(lp2088
S':'
asbag49
(g70
g51
NtRp2089
(dp2090
g54
(dp2091
sg63
g2076
sg56
(lp2092
g49
(g50
g51
NtRp2093
(dp2094
g54
(dp2095
g62
I4
ssg63
g2089
sg56
(lp2096
S'http'
p2097
asbasbasbag49
(g65
g51
NtRp2098
(dp2099
g54
(dp2100
sg63
g1110
sg56
(lp2101
g49
(g70
g51
NtRp2102
(dp2103
g54
(dp2104
g74
g75
ssg63
g2098
sg56
(lp2105
S'wsgi_version'
p2106
asbag49
(g70
g51
NtRp2107
(dp2108
g54
(dp2109
g81
g82
ssg63
g2098
sg56
(lp2110
S':'
asbag49
(g70
g51
NtRp2111
(dp2112
g54
(dp2113
sg63
g2098
sg56
(lp2114
g49
(g50
g51
NtRp2115
(dp2116
g54
(dp2117
g62
I4
ssg63
g2111
sg56
(lp2118
g49
(g58
g51
NtRp2119
(dp2120
g54
(dp2121
g62
I3
ssg63
Nsg56
(lp2122
g49
(g65
g51
NtRp2123
(dp2124
g54
(dp2125
sg63
g2119
sg56
(lp2126
g49
(g70
g51
NtRp2127
(dp2128
g54
(dp2129
sg63
g2123
sg56
(lp2130
g49
(g50
g51
NtRp2131
(dp2132
g54
(dp2133
g62
I3
ssg63
g2127
sg56
(lp2134
S'1'
asbasbasbag49
(g65
g51
NtRp2135
(dp2136
g54
(dp2137
sg63
g2119
sg56
(lp2138
g49
(g70
g51
NtRp2139
(dp2140
g54
(dp2141
sg63
g2135
sg56
(lp2142
g49
(g50
g51
NtRp2143
(dp2144
g54
(dp2145
g62
I3
ssg63
g2139
sg56
(lp2146
S'0'
asbasbasbasbasbasbasbasbasbasbasbag49
(g65
g51
NtRp2147
(dp2148
g54
(dp2149
sg63
g59
sg56
(lp2150
g49
(g70
g51
NtRp2151
(dp2152
g54
(dp2153
g74
g75
ssg63
g2147
sg56
(lp2154
S'extension'
p2155
asbag49
(g70
g51
NtRp2156
(dp2157
g54
(dp2158
g81
g82
ssg63
g2147
sg56
(lp2159
S':'
asbag49
(g70
g51
NtRp2160
(dp2161
g54
(dp2162
sg63
g2147
sg56
(lp2163
g49
(g50
g51
NtRp2164
(dp2165
g54
(dp2166
g62
I5
ssg63
g2160
sg56
(lp2167
S'html'
p2168
asbasbasbag49
(g65
g51
NtRp2169
(dp2170
g54
(dp2171
sg63
g59
sg56
(lp2172
g49
(g70
g51
NtRp2173
(dp2174
g54
(dp2175
g74
g75
ssg63
g2169
sg56
(lp2176
S'folder'
p2177
asbag49
(g70
g51
NtRp2178
(dp2179
g54
(dp2180
g81
g82
ssg63
g2169
sg56
(lp2181
S':'
asbag49
(g70
g51
NtRp2182
(dp2183
g54
(dp2184
sg63
g2169
sg56
(lp2185
g49
(g50
g51
NtRp2186
(dp2187
g54
(dp2188
g62
I5
ssg63
g2182
sg56
(lp2189
S'/Users/zamechek/Downloads/web2py/web2py.app/Contents/Resources/applications/hellow/'
p2190
asbasbasbag49
(g65
g51
NtRp2191
(dp2192
g54
(dp2193
sg63
g59
sg56
(lp2194
g49
(g70
g51
NtRp2195
(dp2196
g54
(dp2197
g74
g75
ssg63
g2191
sg56
(lp2198
S'function'
p2199
asbag49
(g70
g51
NtRp2200
(dp2201
g54
(dp2202
g81
g82
ssg63
g2191
sg56
(lp2203
S':'
asbag49
(g70
g51
NtRp2204
(dp2205
g54
(dp2206
sg63
g2191
sg56
(lp2207
g49
(g50
g51
NtRp2208
(dp2209
g54
(dp2210
g62
I5
ssg63
g2204
sg56
(lp2211
S'show'
p2212
asbasbasbag49
(g65
g51
NtRp2213
(dp2214
g54
(dp2215
sg63
g59
sg56
(lp2216
g49
(g70
g51
NtRp2217
(dp2218
g54
(dp2219
g74
g75
ssg63
g2213
sg56
(lp2220
S'get_vars'
p2221
asbag49
(g70
g51
NtRp2222
(dp2223
g54
(dp2224
g81
g82
ssg63
g2213
sg56
(lp2225
S':'
asbag49
(g70
g51
NtRp2226
(dp2227
g54
(dp2228
sg63
g2213
sg56
(lp2229
g49
(g50
g51
NtRp2230
(dp2231
g54
(dp2232
g62
I5
ssg63
g2226
sg56
(lp2233
g49
(g58
g51
NtRp2234
(dp2235
g54
(dp2236
g62
I4
ssg63
Nsg56
(lp2237
sbasbasbasbag49
(g65
g51
NtRp2238
(dp2239
g54
(dp2240
sg63
g59
sg56
(lp2241
g49
(g70
g51
NtRp2242
(dp2243
g54
(dp2244
g74
g75
ssg63
g2238
sg56
(lp2245
S'global_settings'
p2246
asbag49
(g70
g51
NtRp2247
(dp2248
g54
(dp2249
g81
g82
ssg63
g2238
sg56
(lp2250
S':'
asbag49
(g70
g51
NtRp2251
(dp2252
g54
(dp2253
sg63
g2238
sg56
(lp2254
g49
(g50
g51
NtRp2255
(dp2256
g54
(dp2257
g62
I5
ssg63
g2251
sg56
(lp2258
g49
(g58
g51
NtRp2259
(dp2260
g54
(dp2261
g62
I4
ssg63
Nsg56
(lp2262
g49
(g65
g51
NtRp2263
(dp2264
g54
(dp2265
sg63
g2259
sg56
(lp2266
g49
(g70
g51
NtRp2267
(dp2268
g54
(dp2269
g74
g75
ssg63
g2263
sg56
(lp2270
g1122
asbag49
(g70
g51
NtRp2271
(dp2272
g54
(dp2273
g81
g82
ssg63
g2263
sg56
(lp2274
S':'
asbag49
(g70
g51
NtRp2275
(dp2276
g54
(dp2277
sg63
g2263
sg56
(lp2278
g49
(g50
g51
NtRp2279
(dp2280
g54
(dp2281
g62
I4
ssg63
g2275
sg56
(lp2282
S"set(['/Users/zamechek/Downloads/web2py/web2py.app/Contents/Resources/applications/examples/', '/Users/zamechek/Downloads/web2py/web2py.app/Contents/Resources/applications/hellow/', '/Users/zamechek/Downloads/web2py/web2py.app/Contents/Resources/applications/admin/', '/Users/zamechek/Downloads/web2py/web2py.app/Contents/Resources/applications/slots/', '/Users/zamechek/Downloads/web2py/web2py.app/Contents/Resources/applications/welcome/'])"
p2283
asbasbasbag49
(g65
g51
NtRp2284
(dp2285
g54
(dp2286
sg63
g2259
sg56
(lp2287
g49
(g70
g51
NtRp2288
(dp2289
g54
(dp2290
g74
g75
ssg63
g2284
sg56
(lp2291
g1144
asbag49
(g70
g51
NtRp2292
(dp2293
g54
(dp2294
g81
g82
ssg63
g2284
sg56
(lp2295
S':'
asbag49
(g70
g51
NtRp2296
(dp2297
g54
(dp2298
sg63
g2284
sg56
(lp2299
g49
(g50
g51
NtRp2300
(dp2301
g54
(dp2302
g62
I4
ssg63
g2296
sg56
(lp2303
g1157
asbasbasbag49
(g65
g51
NtRp2304
(dp2305
g54
(dp2306
sg63
g2259
sg56
(lp2307
g49
(g70
g51
NtRp2308
(dp2309
g54
(dp2310
g74
g75
ssg63
g2304
sg56
(lp2311
g1166
asbag49
(g70
g51
NtRp2312
(dp2313
g54
(dp2314
g81
g82
ssg63
g2304
sg56
(lp2315
S':'
asbag49
(g70
g51
NtRp2316
(dp2317
g54
(dp2318
sg63
g2304
sg56
(lp2319
g49
(g50
g51
NtRp2320
(dp2321
g54
(dp2322
g62
I4
ssg63
g2316
sg56
(lp2323
g49
(g58
g51
NtRp2324
(dp2325
g54
(dp2326
g62
I3
ssg63
Nsg56
(lp2327
sbasbasbasbag49
(g65
g51
NtRp2328
(dp2329
g54
(dp2330
sg63
g2259
sg56
(lp2331
g49
(g70
g51
NtRp2332
(dp2333
g54
(dp2334
g74
g75
ssg63
g2328
sg56
(lp2335
g1191
asbag49
(g70
g51
NtRp2336
(dp2337
g54
(dp2338
g81
g82
ssg63
g2328
sg56
(lp2339
S':'
asbag49
(g70
g51
NtRp2340
(dp2341
g54
(dp2342
sg63
g2328
sg56
(lp2343
g49
(g50
g51
NtRp2344
(dp2345
g54
(dp2346
g62
I4
ssg63
g2340
sg56
(lp2347
S"<Values at 0x32c8f58: {'verbose': False, 'ip': '127.0.0.1', 'with_scheduler': False, 'ips': ['130.91.151.157'], 'shutdown_timeout': 5, 'taskbar': False, 'port': 8000, 'maxthreads': None, 'softcron': False, 'server_name': 'hntvlan531.0924.wlan.wireless-pennnet.upenn.edu', 'bpython': False, 'nogui': False, 'pid_filename': 'httpserver.pid', 'extcron': False, 'runcron': False, 'run_system_tests': False, 'test': None, 'folder': '/Users/zamechek/Downloads/web2py/web2py.app/Contents/Resources', 'config': '', 'import_models': False, 'winservice': '', 'shell': None, 'run': '', 'log_filename': 'httpserver.log', 'debuglevel': 30, 'args': [''], 'socket_timeout': 5, 'ssl_ca_certificate': None, 'scheduler': None, 'profiler_filename': None, 'ssl_private_key': '', 'scheduler_groups': None, 'password': '<ask>', 'request_queue_size': 5, 'ssl_certificate': '', 'cronjob': False, 'numthreads': None, 'quiet': False, 'interfaces': None, 'minthreads': None, 'timeout': 10, 'plain': False, 'nobanner': False}>"
p2348
asbasbasbag49
(g65
g51
NtRp2349
(dp2350
g54
(dp2351
sg63
g2259
sg56
(lp2352
g49
(g70
g51
NtRp2353
(dp2354
g54
(dp2355
g74
g75
ssg63
g2349
sg56
(lp2356
g1213
asbag49
(g70
g51
NtRp2357
(dp2358
g54
(dp2359
g81
g82
ssg63
g2349
sg56
(lp2360
S':'
asbag49
(g70
g51
NtRp2361
(dp2362
g54
(dp2363
sg63
g2349
sg56
(lp2364
g49
(g50
g51
NtRp2365
(dp2366
g54
(dp2367
g62
I4
ssg63
g2361
sg56
(lp2368
S'set([])'
p2369
asbasbasbag49
(g65
g51
NtRp2370
(dp2371
g54
(dp2372
sg63
g2259
sg56
(lp2373
g49
(g70
g51
NtRp2374
(dp2375
g54
(dp2376
g74
g75
ssg63
g2370
sg56
(lp2377
g1235
asbag49
(g70
g51
NtRp2378
(dp2379
g54
(dp2380
g81
g82
ssg63
g2370
sg56
(lp2381
S':'
asbag49
(g70
g51
NtRp2382
(dp2383
g54
(dp2384
sg63
g2370
sg56
(lp2385
g49
(g50
g51
NtRp2386
(dp2387
g54
(dp2388
g62
I4
ssg63
g2382
sg56
(lp2389
g1248
asbasbasbag49
(g65
g51
NtRp2390
(dp2391
g54
(dp2392
sg63
g2259
sg56
(lp2393
g49
(g70
g51
NtRp2394
(dp2395
g54
(dp2396
g74
g75
ssg63
g2390
sg56
(lp2397
g1257
asbag49
(g70
g51
NtRp2398
(dp2399
g54
(dp2400
g81
g82
ssg63
g2390
sg56
(lp2401
S':'
asbag49
(g70
g51
NtRp2402
(dp2403
g54
(dp2404
sg63
g2390
sg56
(lp2405
g49
(g50
g51
NtRp2406
(dp2407
g54
(dp2408
g62
I4
ssg63
g2402
sg56
(lp2409
g1270
asbasbasbag49
(g65
g51
NtRp2410
(dp2411
g54
(dp2412
sg63
g2259
sg56
(lp2413
g49
(g70
g51
NtRp2414
(dp2415
g54
(dp2416
g74
g75
ssg63
g2410
sg56
(lp2417
g1477
asbag49
(g70
g51
NtRp2418
(dp2419
g54
(dp2420
g81
g82
ssg63
g2410
sg56
(lp2421
S':'
asbag49
(g70
g51
NtRp2422
(dp2423
g54
(dp2424
sg63
g2410
sg56
(lp2425
g49
(g50
g51
NtRp2426
(dp2427
g54
(dp2428
g62
I4
ssg63
g2422
sg56
(lp2429
g92
asbasbasbag49
(g65
g51
NtRp2430
(dp2431
g54
(dp2432
sg63
g2259
sg56
(lp2433
g49
(g70
g51
NtRp2434
(dp2435
g54
(dp2436
g74
g75
ssg63
g2430
sg56
(lp2437
g1498
asbag49
(g70
g51
NtRp2438
(dp2439
g54
(dp2440
g81
g82
ssg63
g2430
sg56
(lp2441
S':'
asbag49
(g70
g51
NtRp2442
(dp2443
g54
(dp2444
sg63
g2430
sg56
(lp2445
g49
(g50
g51
NtRp2446
(dp2447
g54
(dp2448
g62
I4
ssg63
g2442
sg56
(lp2449
g92
asbasbasbag49
(g65
g51
NtRp2450
(dp2451
g54
(dp2452
sg63
g2259
sg56
(lp2453
g49
(g70
g51
NtRp2454
(dp2455
g54
(dp2456
g74
g75
ssg63
g2450
sg56
(lp2457
g1519
asbag49
(g70
g51
NtRp2458
(dp2459
g54
(dp2460
g81
g82
ssg63
g2450
sg56
(lp2461
S':'
asbag49
(g70
g51
NtRp2462
(dp2463
g54
(dp2464
sg63
g2450
sg56
(lp2465
g49
(g50
g51
NtRp2466
(dp2467
g54
(dp2468
g62
I4
ssg63
g2462
sg56
(lp2469
g49
(g58
g51
NtRp2470
(dp2471
g54
(dp2472
g62
I3
ssg63
Nsg56
(lp2473
g49
(g65
g51
NtRp2474
(dp2475
g54
(dp2476
sg63
g2470
sg56
(lp2477
g49
(g70
g51
NtRp2478
(dp2479
g54
(dp2480
sg63
g2474
sg56
(lp2481
g49
(g50
g51
NtRp2482
(dp2483
g54
(dp2484
g62
I3
ssg63
g2478
sg56
(lp2485
g1548
asbasbasbag49
(g65
g51
NtRp2486
(dp2487
g54
(dp2488
sg63
g2470
sg56
(lp2489
g49
(g70
g51
NtRp2490
(dp2491
g54
(dp2492
sg63
g2486
sg56
(lp2493
g49
(g50
g51
NtRp2494
(dp2495
g54
(dp2496
g62
I3
ssg63
g2490
sg56
(lp2497
g1561
asbasbasbag49
(g65
g51
NtRp2498
(dp2499
g54
(dp2500
sg63
g2470
sg56
(lp2501
g49
(g70
g51
NtRp2502
(dp2503
g54
(dp2504
sg63
g2498
sg56
(lp2505
g49
(g50
g51
NtRp2506
(dp2507
g54
(dp2508
g62
I3
ssg63
g2502
sg56
(lp2509
g1574
asbasbasbag49
(g65
g51
NtRp2510
(dp2511
g54
(dp2512
sg63
g2470
sg56
(lp2513
g49
(g70
g51
NtRp2514
(dp2515
g54
(dp2516
sg63
g2510
sg56
(lp2517
g49
(g50
g51
NtRp2518
(dp2519
g54
(dp2520
g62
I3
ssg63
g2514
sg56
(lp2521
g1587
asbasbasbag49
(g65
g51
NtRp2522
(dp2523
g54
(dp2524
sg63
g2470
sg56
(lp2525
g49
(g70
g51
NtRp2526
(dp2527
g54
(dp2528
sg63
g2522
sg56
(lp2529
g49
(g50
g51
NtRp2530
(dp2531
g54
(dp2532
g62
I3
ssg63
g2526
sg56
(lp2533
g1600
asbasbasbasbasbasbasbag49
(g65
g51
NtRp2534
(dp2535
g54
(dp2536
sg63
g2259
sg56
(lp2537
g49
(g70
g51
NtRp2538
(dp2539
g54
(dp2540
g74
g75
ssg63
g2534
sg56
(lp2541
g1868
asbag49
(g70
g51
NtRp2542
(dp2543
g54
(dp2544
g81
g82
ssg63
g2534
sg56
(lp2545
S':'
asbag49
(g70
g51
NtRp2546
(dp2547
g54
(dp2548
sg63
g2534
sg56
(lp2549
g49
(g50
g51
NtRp2550
(dp2551
g54
(dp2552
g62
I4
ssg63
g2546
sg56
(lp2553
g49
(g58
g51
NtRp2554
(dp2555
g54
(dp2556
g62
I3
ssg63
Nsg56
(lp2557
g49
(g65
g51
NtRp2558
(dp2559
g54
(dp2560
sg63
g2554
sg56
(lp2561
g49
(g70
g51
NtRp2562
(dp2563
g54
(dp2564
sg63
g2558
sg56
(lp2565
g49
(g50
g51
NtRp2566
(dp2567
g54
(dp2568
g62
I3
ssg63
g2562
sg56
(lp2569
S'2'
asbasbasbag49
(g65
g51
NtRp2570
(dp2571
g54
(dp2572
sg63
g2554
sg56
(lp2573
g49
(g70
g51
NtRp2574
(dp2575
g54
(dp2576
sg63
g2570
sg56
(lp2577
g49
(g50
g51
NtRp2578
(dp2579
g54
(dp2580
g62
I3
ssg63
g2574
sg56
(lp2581
S'4'
asbasbasbag49
(g65
g51
NtRp2582
(dp2583
g54
(dp2584
sg63
g2554
sg56
(lp2585
g49
(g70
g51
NtRp2586
(dp2587
g54
(dp2588
sg63
g2582
sg56
(lp2589
g49
(g50
g51
NtRp2590
(dp2591
g54
(dp2592
g62
I3
ssg63
g2586
sg56
(lp2593
S'5'
asbasbasbag49
(g65
g51
NtRp2594
(dp2595
g54
(dp2596
sg63
g2554
sg56
(lp2597
g49
(g70
g51
NtRp2598
(dp2599
g54
(dp2600
sg63
g2594
sg56
(lp2601
g49
(g50
g51
NtRp2602
(dp2603
g54
(dp2604
g62
I3
ssg63
g2598
sg56
(lp2605
g1933
asbasbasbag49
(g65
g51
NtRp2606
(dp2607
g54
(dp2608
sg63
g2554
sg56
(lp2609
g49
(g70
g51
NtRp2610
(dp2611
g54
(dp2612
sg63
g2606
sg56
(lp2613
g49
(g50
g51
NtRp2614
(dp2615
g54
(dp2616
g62
I3
ssg63
g2610
sg56
(lp2617
S'datetime.datetime(2013, 3, 18, 22, 46, 22)'
p2618
asbasbasbasbasbasbasbasbasbasbasbag49
(g65
g51
NtRp2619
(dp2620
g54
(dp2621
sg63
g59
sg56
(lp2622
g49
(g70
g51
NtRp2623
(dp2624
g54
(dp2625
g74
g75
ssg63
g2619
sg56
(lp2626
S'is_https'
p2627
asbag49
(g70
g51
NtRp2628
(dp2629
g54
(dp2630
g81
g82
ssg63
g2619
sg56
(lp2631
S':'
asbag49
(g70
g51
NtRp2632
(dp2633
g54
(dp2634
sg63
g2619
sg56
(lp2635
g49
(g50
g51
NtRp2636
(dp2637
g54
(dp2638
g62
I5
ssg63
g2632
sg56
(lp2639
g92
asbasbasbag49
(g65
g51
NtRp2640
(dp2641
g54
(dp2642
sg63
g59
sg56
(lp2643
g49
(g70
g51
NtRp2644
(dp2645
g54
(dp2646
g74
g75
ssg63
g2640
sg56
(lp2647
S'is_local'
p2648
asbag49
(g70
g51
NtRp2649
(dp2650
g54
(dp2651
g81
g82
ssg63
g2640
sg56
(lp2652
S':'
asbag49
(g70
g51
NtRp2653
(dp2654
g54
(dp2655
sg63
g2640
sg56
(lp2656
g49
(g50
g51
NtRp2657
(dp2658
g54
(dp2659
g62
I5
ssg63
g2653
sg56
(lp2660
g1248
asbasbasbag49
(g65
g51
NtRp2661
(dp2662
g54
(dp2663
sg63
g59
sg56
(lp2664
g49
(g70
g51
NtRp2665
(dp2666
g54
(dp2667
g74
g75
ssg63
g2661
sg56
(lp2668
S'is_restful'
p2669
asbag49
(g70
g51
NtRp2670
(dp2671
g54
(dp2672
g81
g82
ssg63
g2661
sg56
(lp2673
S':'
asbag49
(g70
g51
NtRp2674
(dp2675
g54
(dp2676
sg63
g2661
sg56
(lp2677
g49
(g50
g51
NtRp2678
(dp2679
g54
(dp2680
g62
I5
ssg63
g2674
sg56
(lp2681
g92
asbasbasbag49
(g65
g51
NtRp2682
(dp2683
g54
(dp2684
sg63
g59
sg56
(lp2685
g49
(g70
g51
NtRp2686
(dp2687
g54
(dp2688
g74
g75
ssg63
g2682
sg56
(lp2689
S'now'
p2690
asbag49
(g70
g51
NtRp2691
(dp2692
g54
(dp2693
g81
g82
ssg63
g2682
sg56
(lp2694
S':'
asbag49
(g70
g51
NtRp2695
(dp2696
g54
(dp2697
sg63
g2682
sg56
(lp2698
g49
(g50
g51
NtRp2699
(dp2700
g54
(dp2701
g62
I5
ssg63
g2695
sg56
(lp2702
S'datetime.datetime(2013, 3, 25, 13, 40, 35, 506913)'
p2703
asbasbasbag49
(g65
g51
NtRp2704
(dp2705
g54
(dp2706
sg63
g59
sg56
(lp2707
g49
(g70
g51
NtRp2708
(dp2709
g54
(dp2710
g74
g75
ssg63
g2704
sg56
(lp2711
S'post_vars'
p2712
asbag49
(g70
g51
NtRp2713
(dp2714
g54
(dp2715
g81
g82
ssg63
g2704
sg56
(lp2716
S':'
asbag49
(g70
g51
NtRp2717
(dp2718
g54
(dp2719
sg63
g2704
sg56
(lp2720
g49
(g50
g51
NtRp2721
(dp2722
g54
(dp2723
g62
I5
ssg63
g2717
sg56
(lp2724
g49
(g58
g51
NtRp2725
(dp2726
g54
(dp2727
g62
I4
ssg63
Nsg56
(lp2728
sbasbasbasbag49
(g65
g51
NtRp2729
(dp2730
g54
(dp2731
sg63
g59
sg56
(lp2732
g49
(g70
g51
NtRp2733
(dp2734
g54
(dp2735
g74
g75
ssg63
g2729
sg56
(lp2736
S'raw_args'
p2737
asbag49
(g70
g51
NtRp2738
(dp2739
g54
(dp2740
g81
g82
ssg63
g2729
sg56
(lp2741
S':'
asbag49
(g70
g51
NtRp2742
(dp2743
g54
(dp2744
sg63
g2729
sg56
(lp2745
g49
(g50
g51
NtRp2746
(dp2747
g54
(dp2748
g62
I5
ssg63
g2742
sg56
(lp2749
S''
asbasbasbag49
(g65
g51
NtRp2750
(dp2751
g54
(dp2752
sg63
g59
sg56
(lp2753
g49
(g70
g51
NtRp2754
(dp2755
g54
(dp2756
g74
g75
ssg63
g2750
sg56
(lp2757
S'raw_extension'
p2758
asbag49
(g70
g51
NtRp2759
(dp2760
g54
(dp2761
g81
g82
ssg63
g2750
sg56
(lp2762
S':'
asbag49
(g70
g51
NtRp2763
(dp2764
g54
(dp2765
sg63
g2750
sg56
(lp2766
g49
(g50
g51
NtRp2767
(dp2768
g54
(dp2769
g62
I5
ssg63
g2763
sg56
(lp2770
S'None'
p2771
asbasbasbag49
(g65
g51
NtRp2772
(dp2773
g54
(dp2774
sg63
g59
sg56
(lp2775
g49
(g70
g51
NtRp2776
(dp2777
g54
(dp2778
g74
g75
ssg63
g2772
sg56
(lp2779
S'url'
p2780
asbag49
(g70
g51
NtRp2781
(dp2782
g54
(dp2783
g81
g82
ssg63
g2772
sg56
(lp2784
S':'
asbag49
(g70
g51
NtRp2785
(dp2786
g54
(dp2787
sg63
g2772
sg56
(lp2788
g49
(g50
g51
NtRp2789
(dp2790
g54
(dp2791
g62
I5
ssg63
g2785
sg56
(lp2792
g1622
asbasbasbag49
(g65
g51
NtRp2793
(dp2794
g54
(dp2795
sg63
g59
sg56
(lp2796
g49
(g70
g51
NtRp2797
(dp2798
g54
(dp2799
g74
g75
ssg63
g2793
sg56
(lp2800
S'utcnow'
p2801
asbag49
(g70
g51
NtRp2802
(dp2803
g54
(dp2804
g81
g82
ssg63
g2793
sg56
(lp2805
S':'
asbag49
(g70
g51
NtRp2806
(dp2807
g54
(dp2808
sg63
g2793
sg56
(lp2809
g49
(g50
g51
NtRp2810
(dp2811
g54
(dp2812
g62
I5
ssg63
g2806
sg56
(lp2813
S'datetime.datetime(2013, 3, 25, 17, 40, 35, 506925)'
p2814
asbasbasbag49
(g65
g51
NtRp2815
(dp2816
g54
(dp2817
sg63
g59
sg56
(lp2818
g49
(g70
g51
NtRp2819
(dp2820
g54
(dp2821
g74
g75
ssg63
g2815
sg56
(lp2822
S'uuid'
p2823
asbag49
(g70
g51
NtRp2824
(dp2825
g54
(dp2826
g81
g82
ssg63
g2815
sg56
(lp2827
S':'
asbag49
(g70
g51
NtRp2828
(dp2829
g54
(dp2830
sg63
g2815
sg56
(lp2831
g49
(g50
g51
NtRp2832
(dp2833
g54
(dp2834
g62
I5
ssg63
g2828
sg56
(lp2835
S'hellow/127.0.0.1.2013-03-25.13-40-35.2d39879f-ff34-4e78-bd59-bb5ad5f89c21'
p2836
asbasbasbag49
(g65
g51
NtRp2837
(dp2838
g54
(dp2839
sg63
g59
sg56
(lp2840
g49
(g70
g51
NtRp2841
(dp2842
g54
(dp2843
g74
g75
ssg63
g2837
sg56
(lp2844
S'vars'
p2845
asbag49
(g70
g51
NtRp2846
(dp2847
g54
(dp2848
g81
g82
ssg63
g2837
sg56
(lp2849
S':'
asbag49
(g70
g51
NtRp2850
(dp2851
g54
(dp2852
sg63
g2837
sg56
(lp2853
g49
(g50
g51
NtRp2854
(dp2855
g54
(dp2856
g62
I5
ssg63
g2850
sg56
(lp2857
g49
(g58
g51
NtRp2858
(dp2859
g54
(dp2860
g62
I4
ssg63
Nsg56
(lp2861
sbasbasbasbag49
(g65
g51
NtRp2862
(dp2863
g54
(dp2864
sg63
g59
sg56
(lp2865
g49
(g70
g51
NtRp2866
(dp2867
g54
(dp2868
g74
g75
ssg63
g2862
sg56
(lp2869
S'wsgi'
p2870
asbag49
(g70
g51
NtRp2871
(dp2872
g54
(dp2873
g81
g82
ssg63
g2862
sg56
(lp2874
S':'
asbag49
(g70
g51
NtRp2875
(dp2876
g54
(dp2877
sg63
g2862
sg56
(lp2878
g49
(g50
g51
NtRp2879
(dp2880
g54
(dp2881
g62
I5
ssg63
g2875
sg56
(lp2882
g49
(g58
g51
NtRp2883
(dp2884
g54
(dp2885
g62
I4
ssg63
Nsg56
(lp2886
g49
(g65
g51
NtRp2887
(dp2888
g54
(dp2889
sg63
g2883
sg56
(lp2890
g49
(g70
g51
NtRp2891
(dp2892
g54
(dp2893
g74
g75
ssg63
g2887
sg56
(lp2894
S'environ'
p2895
asbag49
(g70
g51
NtRp2896
(dp2897
g54
(dp2898
g81
g82
ssg63
g2887
sg56
(lp2899
S':'
asbag49
(g70
g51
NtRp2900
(dp2901
g54
(dp2902
sg63
g2887
sg56
(lp2903
g49
(g50
g51
NtRp2904
(dp2905
g54
(dp2906
g62
I4
ssg63
g2900
sg56
(lp2907
g49
(g58
g51
NtRp2908
(dp2909
g54
(dp2910
g62
I3
ssg63
Nsg56
(lp2911
g49
(g65
g51
NtRp2912
(dp2913
g54
(dp2914
sg63
g2908
sg56
(lp2915
g49
(g70
g51
NtRp2916
(dp2917
g54
(dp2918
g74
g75
ssg63
g2912
sg56
(lp2919
S'HTTP_ACCEPT'
p2920
asbag49
(g70
g51
NtRp2921
(dp2922
g54
(dp2923
g81
g82
ssg63
g2912
sg56
(lp2924
S':'
asbag49
(g70
g51
NtRp2925
(dp2926
g54
(dp2927
sg63
g2912
sg56
(lp2928
g49
(g50
g51
NtRp2929
(dp2930
g54
(dp2931
g62
I3
ssg63
g2925
sg56
(lp2932
g1292
asbasbasbag49
(g65
g51
NtRp2933
(dp2934
g54
(dp2935
sg63
g2908
sg56
(lp2936
g49
(g70
g51
NtRp2937
(dp2938
g54
(dp2939
g74
g75
ssg63
g2933
sg56
(lp2940
S'HTTP_ACCEPT_CHARSET'
p2941
asbag49
(g70
g51
NtRp2942
(dp2943
g54
(dp2944
g81
g82
ssg63
g2933
sg56
(lp2945
S':'
asbag49
(g70
g51
NtRp2946
(dp2947
g54
(dp2948
sg63
g2933
sg56
(lp2949
g49
(g50
g51
NtRp2950
(dp2951
g54
(dp2952
g62
I3
ssg63
g2946
sg56
(lp2953
g1314
asbasbasbag49
(g65
g51
NtRp2954
(dp2955
g54
(dp2956
sg63
g2908
sg56
(lp2957
g49
(g70
g51
NtRp2958
(dp2959
g54
(dp2960
g74
g75
ssg63
g2954
sg56
(lp2961
S'HTTP_ACCEPT_ENCODING'
p2962
asbag49
(g70
g51
NtRp2963
(dp2964
g54
(dp2965
g81
g82
ssg63
g2954
sg56
(lp2966
S':'
asbag49
(g70
g51
NtRp2967
(dp2968
g54
(dp2969
sg63
g2954
sg56
(lp2970
g49
(g50
g51
NtRp2971
(dp2972
g54
(dp2973
g62
I3
ssg63
g2967
sg56
(lp2974
g1336
asbasbasbag49
(g65
g51
NtRp2975
(dp2976
g54
(dp2977
sg63
g2908
sg56
(lp2978
g49
(g70
g51
NtRp2979
(dp2980
g54
(dp2981
g74
g75
ssg63
g2975
sg56
(lp2982
S'HTTP_ACCEPT_LANGUAGE'
p2983
asbag49
(g70
g51
NtRp2984
(dp2985
g54
(dp2986
g81
g82
ssg63
g2975
sg56
(lp2987
S':'
asbag49
(g70
g51
NtRp2988
(dp2989
g54
(dp2990
sg63
g2975
sg56
(lp2991
g49
(g50
g51
NtRp2992
(dp2993
g54
(dp2994
g62
I3
ssg63
g2988
sg56
(lp2995
g1358
asbasbasbag49
(g65
g51
NtRp2996
(dp2997
g54
(dp2998
sg63
g2908
sg56
(lp2999
g49
(g70
g51
NtRp3000
(dp3001
g54
(dp3002
g74
g75
ssg63
g2996
sg56
(lp3003
S'HTTP_CONNECTION'
p3004
asbag49
(g70
g51
NtRp3005
(dp3006
g54
(dp3007
g81
g82
ssg63
g2996
sg56
(lp3008
S':'
asbag49
(g70
g51
NtRp3009
(dp3010
g54
(dp3011
sg63
g2996
sg56
(lp3012
g49
(g50
g51
NtRp3013
(dp3014
g54
(dp3015
g62
I3
ssg63
g3009
sg56
(lp3016
g1380
asbasbasbag49
(g65
g51
NtRp3017
(dp3018
g54
(dp3019
sg63
g2908
sg56
(lp3020
g49
(g70
g51
NtRp3021
(dp3022
g54
(dp3023
g74
g75
ssg63
g3017
sg56
(lp3024
S'HTTP_COOKIE'
p3025
asbag49
(g70
g51
NtRp3026
(dp3027
g54
(dp3028
g81
g82
ssg63
g3017
sg56
(lp3029
S':'
asbag49
(g70
g51
NtRp3030
(dp3031
g54
(dp3032
sg63
g3017
sg56
(lp3033
g49
(g50
g51
NtRp3034
(dp3035
g54
(dp3036
g62
I3
ssg63
g3030
sg56
(lp3037
g1402
asbasbasbag49
(g65
g51
NtRp3038
(dp3039
g54
(dp3040
sg63
g2908
sg56
(lp3041
g49
(g70
g51
NtRp3042
(dp3043
g54
(dp3044
g74
g75
ssg63
g3038
sg56
(lp3045
S'HTTP_HOST'
p3046
asbag49
(g70
g51
NtRp3047
(dp3048
g54
(dp3049
g81
g82
ssg63
g3038
sg56
(lp3050
S':'
asbag49
(g70
g51
NtRp3051
(dp3052
g54
(dp3053
sg63
g3038
sg56
(lp3054
g49
(g50
g51
NtRp3055
(dp3056
g54
(dp3057
g62
I3
ssg63
g3051
sg56
(lp3058
g1424
asbasbasbag49
(g65
g51
NtRp3059
(dp3060
g54
(dp3061
sg63
g2908
sg56
(lp3062
g49
(g70
g51
NtRp3063
(dp3064
g54
(dp3065
g74
g75
ssg63
g3059
sg56
(lp3066
S'HTTP_REFERER'
p3067
asbag49
(g70
g51
NtRp3068
(dp3069
g54
(dp3070
g81
g82
ssg63
g3059
sg56
(lp3071
S':'
asbag49
(g70
g51
NtRp3072
(dp3073
g54
(dp3074
sg63
g3059
sg56
(lp3075
g49
(g50
g51
NtRp3076
(dp3077
g54
(dp3078
g62
I3
ssg63
g3072
sg56
(lp3079
g1446
asbasbasbag49
(g65
g51
NtRp3080
(dp3081
g54
(dp3082
sg63
g2908
sg56
(lp3083
g49
(g70
g51
NtRp3084
(dp3085
g54
(dp3086
g74
g75
ssg63
g3080
sg56
(lp3087
S'HTTP_USER_AGENT'
p3088
asbag49
(g70
g51
NtRp3089
(dp3090
g54
(dp3091
g81
g82
ssg63
g3080
sg56
(lp3092
S':'
asbag49
(g70
g51
NtRp3093
(dp3094
g54
(dp3095
sg63
g3080
sg56
(lp3096
g49
(g50
g51
NtRp3097
(dp3098
g54
(dp3099
g62
I3
ssg63
g3093
sg56
(lp3100
g1468
asbasbasbag49
(g65
g51
NtRp3101
(dp3102
g54
(dp3103
sg63
g2908
sg56
(lp3104
g49
(g70
g51
NtRp3105
(dp3106
g54
(dp3107
g74
g75
ssg63
g3101
sg56
(lp3108
S'PATH_INFO'
p3109
asbag49
(g70
g51
NtRp3110
(dp3111
g54
(dp3112
g81
g82
ssg63
g3101
sg56
(lp3113
S':'
asbag49
(g70
g51
NtRp3114
(dp3115
g54
(dp3116
sg63
g3101
sg56
(lp3117
g49
(g50
g51
NtRp3118
(dp3119
g54
(dp3120
g62
I3
ssg63
g3114
sg56
(lp3121
g1622
asbasbasbag49
(g65
g51
NtRp3122
(dp3123
g54
(dp3124
sg63
g2908
sg56
(lp3125
g49
(g70
g51
NtRp3126
(dp3127
g54
(dp3128
g74
g75
ssg63
g3122
sg56
(lp3129
S'QUERY_STRING'
p3130
asbag49
(g70
g51
NtRp3131
(dp3132
g54
(dp3133
g81
g82
ssg63
g3122
sg56
(lp3134
S':'
asbag49
(g70
g51
NtRp3135
(dp3136
g54
(dp3137
sg63
g3122
sg56
(lp3138
g49
(g50
g51
NtRp3139
(dp3140
g54
(dp3141
g62
I3
ssg63
g3135
sg56
(lp3142
S''
asbasbasbag49
(g65
g51
NtRp3143
(dp3144
g54
(dp3145
sg63
g2908
sg56
(lp3146
g49
(g70
g51
NtRp3147
(dp3148
g54
(dp3149
g74
g75
ssg63
g3143
sg56
(lp3150
S'REMOTE_ADDR'
p3151
asbag49
(g70
g51
NtRp3152
(dp3153
g54
(dp3154
g81
g82
ssg63
g3143
sg56
(lp3155
S':'
asbag49
(g70
g51
NtRp3156
(dp3157
g54
(dp3158
sg63
g3143
sg56
(lp3159
g49
(g50
g51
NtRp3160
(dp3161
g54
(dp3162
g62
I3
ssg63
g3156
sg56
(lp3163
g204
asbasbasbag49
(g65
g51
NtRp3164
(dp3165
g54
(dp3166
sg63
g2908
sg56
(lp3167
g49
(g70
g51
NtRp3168
(dp3169
g54
(dp3170
g74
g75
ssg63
g3164
sg56
(lp3171
S'REMOTE_PORT'
p3172
asbag49
(g70
g51
NtRp3173
(dp3174
g54
(dp3175
g81
g82
ssg63
g3164
sg56
(lp3176
S':'
asbag49
(g70
g51
NtRp3177
(dp3178
g54
(dp3179
sg63
g3164
sg56
(lp3180
g49
(g50
g51
NtRp3181
(dp3182
g54
(dp3183
g62
I3
ssg63
g3177
sg56
(lp3184
g1686
asbasbasbag49
(g65
g51
NtRp3185
(dp3186
g54
(dp3187
sg63
g2908
sg56
(lp3188
g49
(g70
g51
NtRp3189
(dp3190
g54
(dp3191
g74
g75
ssg63
g3185
sg56
(lp3192
S'REQUEST_METHOD'
p3193
asbag49
(g70
g51
NtRp3194
(dp3195
g54
(dp3196
g81
g82
ssg63
g3185
sg56
(lp3197
S':'
asbag49
(g70
g51
NtRp3198
(dp3199
g54
(dp3200
sg63
g3185
sg56
(lp3201
g49
(g50
g51
NtRp3202
(dp3203
g54
(dp3204
g62
I3
ssg63
g3198
sg56
(lp3205
g1708
asbasbasbag49
(g65
g51
NtRp3206
(dp3207
g54
(dp3208
sg63
g2908
sg56
(lp3209
g49
(g70
g51
NtRp3210
(dp3211
g54
(dp3212
g74
g75
ssg63
g3206
sg56
(lp3213
S'REQUEST_URI'
p3214
asbag49
(g70
g51
NtRp3215
(dp3216
g54
(dp3217
g81
g82
ssg63
g3206
sg56
(lp3218
S':'
asbag49
(g70
g51
NtRp3219
(dp3220
g54
(dp3221
sg63
g3206
sg56
(lp3222
g49
(g50
g51
NtRp3223
(dp3224
g54
(dp3225
g62
I3
ssg63
g3219
sg56
(lp3226
g1622
asbasbasbag49
(g65
g51
NtRp3227
(dp3228
g54
(dp3229
sg63
g2908
sg56
(lp3230
g49
(g70
g51
NtRp3231
(dp3232
g54
(dp3233
g74
g75
ssg63
g3227
sg56
(lp3234
S'SCRIPT_NAME'
p3235
asbag49
(g70
g51
NtRp3236
(dp3237
g54
(dp3238
g81
g82
ssg63
g3227
sg56
(lp3239
S':'
asbag49
(g70
g51
NtRp3240
(dp3241
g54
(dp3242
sg63
g3227
sg56
(lp3243
g49
(g50
g51
NtRp3244
(dp3245
g54
(dp3246
g62
I3
ssg63
g3240
sg56
(lp3247
S''
asbasbasbag49
(g65
g51
NtRp3248
(dp3249
g54
(dp3250
sg63
g2908
sg56
(lp3251
g49
(g70
g51
NtRp3252
(dp3253
g54
(dp3254
g74
g75
ssg63
g3248
sg56
(lp3255
S'SERVER_NAME'
p3256
asbag49
(g70
g51
NtRp3257
(dp3258
g54
(dp3259
g81
g82
ssg63
g3248
sg56
(lp3260
S':'
asbag49
(g70
g51
NtRp3261
(dp3262
g54
(dp3263
sg63
g3248
sg56
(lp3264
g49
(g50
g51
NtRp3265
(dp3266
g54
(dp3267
g62
I3
ssg63
g3261
sg56
(lp3268
g1772
asbasbasbag49
(g65
g51
NtRp3269
(dp3270
g54
(dp3271
sg63
g2908
sg56
(lp3272
g49
(g70
g51
NtRp3273
(dp3274
g54
(dp3275
g74
g75
ssg63
g3269
sg56
(lp3276
S'SERVER_PORT'
p3277
asbag49
(g70
g51
NtRp3278
(dp3279
g54
(dp3280
g81
g82
ssg63
g3269
sg56
(lp3281
S':'
asbag49
(g70
g51
NtRp3282
(dp3283
g54
(dp3284
sg63
g3269
sg56
(lp3285
g49
(g50
g51
NtRp3286
(dp3287
g54
(dp3288
g62
I3
ssg63
g3282
sg56
(lp3289
g1794
asbasbasbag49
(g65
g51
NtRp3290
(dp3291
g54
(dp3292
sg63
g2908
sg56
(lp3293
g49
(g70
g51
NtRp3294
(dp3295
g54
(dp3296
g74
g75
ssg63
g3290
sg56
(lp3297
S'SERVER_PROTOCOL'
p3298
asbag49
(g70
g51
NtRp3299
(dp3300
g54
(dp3301
g81
g82
ssg63
g3290
sg56
(lp3302
S':'
asbag49
(g70
g51
NtRp3303
(dp3304
g54
(dp3305
sg63
g3290
sg56
(lp3306
g49
(g50
g51
NtRp3307
(dp3308
g54
(dp3309
g62
I3
ssg63
g3303
sg56
(lp3310
g1816
asbasbasbag49
(g65
g51
NtRp3311
(dp3312
g54
(dp3313
sg63
g2908
sg56
(lp3314
g49
(g70
g51
NtRp3315
(dp3316
g54
(dp3317
g74
g75
ssg63
g3311
sg56
(lp3318
S'SERVER_SOFTWARE'
p3319
asbag49
(g70
g51
NtRp3320
(dp3321
g54
(dp3322
g81
g82
ssg63
g3311
sg56
(lp3323
S':'
asbag49
(g70
g51
NtRp3324
(dp3325
g54
(dp3326
sg63
g3311
sg56
(lp3327
g49
(g50
g51
NtRp3328
(dp3329
g54
(dp3330
g62
I3
ssg63
g3324
sg56
(lp3331
g1838
asbasbasbag49
(g65
g51
NtRp3332
(dp3333
g54
(dp3334
sg63
g2908
sg56
(lp3335
g49
(g70
g51
NtRp3336
(dp3337
g54
(dp3338
g74
g75
ssg63
g3332
sg56
(lp3339
S'wsgi.errors'
p3340
asbag49
(g70
g51
NtRp3341
(dp3342
g54
(dp3343
g81
g82
ssg63
g3332
sg56
(lp3344
S':'
asbag49
(g70
g51
NtRp3345
(dp3346
g54
(dp3347
sg63
g3332
sg56
(lp3348
g49
(g50
g51
NtRp3349
(dp3350
g54
(dp3351
g62
I3
ssg63
g3345
sg56
(lp3352
S"<open file '<stderr>', mode 'w' at 0x540b0>"
p3353
asbasbasbag49
(g65
g51
NtRp3354
(dp3355
g54
(dp3356
sg63
g2908
sg56
(lp3357
g49
(g70
g51
NtRp3358
(dp3359
g54
(dp3360
g74
g75
ssg63
g3354
sg56
(lp3361
S'wsgi.file_wrapper'
p3362
asbag49
(g70
g51
NtRp3363
(dp3364
g54
(dp3365
g81
g82
ssg63
g3354
sg56
(lp3366
S':'
asbag49
(g70
g51
NtRp3367
(dp3368
g54
(dp3369
sg63
g3354
sg56
(lp3370
g49
(g50
g51
NtRp3371
(dp3372
g54
(dp3373
g62
I3
ssg63
g3367
sg56
(lp3374
S'<class wsgiref.util.FileWrapper at 0x329d060>'
p3375
asbasbasbag49
(g65
g51
NtRp3376
(dp3377
g54
(dp3378
sg63
g2908
sg56
(lp3379
g49
(g70
g51
NtRp3380
(dp3381
g54
(dp3382
g74
g75
ssg63
g3376
sg56
(lp3383
S'wsgi.input'
p3384
asbag49
(g70
g51
NtRp3385
(dp3386
g54
(dp3387
g81
g82
ssg63
g3376
sg56
(lp3388
S':'
asbag49
(g70
g51
NtRp3389
(dp3390
g54
(dp3391
sg63
g3376
sg56
(lp3392
g49
(g50
g51
NtRp3393
(dp3394
g54
(dp3395
g62
I3
ssg63
g3389
sg56
(lp3396
S'<cStringIO.StringO object at 0xaf07a20>'
p3397
asbasbasbag49
(g65
g51
NtRp3398
(dp3399
g54
(dp3400
sg63
g2908
sg56
(lp3401
g49
(g70
g51
NtRp3402
(dp3403
g54
(dp3404
g74
g75
ssg63
g3398
sg56
(lp3405
S'wsgi.multiprocess'
p3406
asbag49
(g70
g51
NtRp3407
(dp3408
g54
(dp3409
g81
g82
ssg63
g3398
sg56
(lp3410
S':'
asbag49
(g70
g51
NtRp3411
(dp3412
g54
(dp3413
sg63
g3398
sg56
(lp3414
g49
(g50
g51
NtRp3415
(dp3416
g54
(dp3417
g62
I3
ssg63
g3411
sg56
(lp3418
g92
asbasbasbag49
(g65
g51
NtRp3419
(dp3420
g54
(dp3421
sg63
g2908
sg56
(lp3422
g49
(g70
g51
NtRp3423
(dp3424
g54
(dp3425
g74
g75
ssg63
g3419
sg56
(lp3426
S'wsgi.multithread'
p3427
asbag49
(g70
g51
NtRp3428
(dp3429
g54
(dp3430
g81
g82
ssg63
g3419
sg56
(lp3431
S':'
asbag49
(g70
g51
NtRp3432
(dp3433
g54
(dp3434
sg63
g3419
sg56
(lp3435
g49
(g50
g51
NtRp3436
(dp3437
g54
(dp3438
g62
I3
ssg63
g3432
sg56
(lp3439
g1248
asbasbasbag49
(g65
g51
NtRp3440
(dp3441
g54
(dp3442
sg63
g2908
sg56
(lp3443
g49
(g70
g51
NtRp3444
(dp3445
g54
(dp3446
g74
g75
ssg63
g3440
sg56
(lp3447
S'wsgi.run_once'
p3448
asbag49
(g70
g51
NtRp3449
(dp3450
g54
(dp3451
g81
g82
ssg63
g3440
sg56
(lp3452
S':'
asbag49
(g70
g51
NtRp3453
(dp3454
g54
(dp3455
sg63
g3440
sg56
(lp3456
g49
(g50
g51
NtRp3457
(dp3458
g54
(dp3459
g62
I3
ssg63
g3453
sg56
(lp3460
g92
asbasbasbag49
(g65
g51
NtRp3461
(dp3462
g54
(dp3463
sg63
g2908
sg56
(lp3464
g49
(g70
g51
NtRp3465
(dp3466
g54
(dp3467
g74
g75
ssg63
g3461
sg56
(lp3468
S'wsgi.url_scheme'
p3469
asbag49
(g70
g51
NtRp3470
(dp3471
g54
(dp3472
g81
g82
ssg63
g3461
sg56
(lp3473
S':'
asbag49
(g70
g51
NtRp3474
(dp3475
g54
(dp3476
sg63
g3461
sg56
(lp3477
g49
(g50
g51
NtRp3478
(dp3479
g54
(dp3480
g62
I3
ssg63
g3474
sg56
(lp3481
g2097
asbasbasbag49
(g65
g51
NtRp3482
(dp3483
g54
(dp3484
sg63
g2908
sg56
(lp3485
g49
(g70
g51
NtRp3486
(dp3487
g54
(dp3488
g74
g75
ssg63
g3482
sg56
(lp3489
S'wsgi.version'
p3490
asbag49
(g70
g51
NtRp3491
(dp3492
g54
(dp3493
g81
g82
ssg63
g3482
sg56
(lp3494
S':'
asbag49
(g70
g51
NtRp3495
(dp3496
g54
(dp3497
sg63
g3482
sg56
(lp3498
g49
(g50
g51
NtRp3499
(dp3500
g54
(dp3501
g62
I3
ssg63
g3495
sg56
(lp3502
S'1'
asbasbasbasbasbasbasbasbasbasbasbasbasbsS'frames'
p3503
(lp3504
(dp3505
S'file'
p3506
S'/home/mdipierro/web2py/gluon/restricted.py'
p3507
sS'dump'
p3508
(dp3509
sS'lnum'
p3510
I212
sS'lines'
p3511
(dp3512
sS'call'
p3513
S"(code='# coding: utf8\\n# try something like\\ndef show():\\n... = slots)\\n\\nresponse._vars=response._caller(show)\\n', environment={'A': <class 'gluon.html.A'>, 'Auth': <class 'gluon.tools.Auth'>, 'B': <class 'gluon.html.B'>, 'BEAUTIFY': <class 'gluon.html.BEAUTIFY'>, 'BODY': <class 'gluon.html.BODY'>, 'BR': <class 'gluon.html.BR'>, 'BUTTON': <class 'gluon.html.BUTTON'>, 'CAT': <class 'gluon.html.CAT'>, 'CENTER': <class 'gluon.html.CENTER'>, 'CLEANUP': <class 'gluon.validators.CLEANUP'>, ...}, layer='/Users/zamechek/Downloads/web2py/web2py.app/Cont...Resources/applications/hellow/controllers/game.py')"
p3514
sS'func'
p3515
S'restricted'
p3516
sa(dp3517
g3506
S'/Users/zamechek/Downloads/web2py/web2py.app/Contents/Resources/applications/hellow/controllers/game.py'
p3518
sg3508
(dp3519
sg3510
I11
sg3511
(dp3520
I1
S'# coding: utf8'
p3521
sI2
S'# try something like'
p3522
sI3
S'def show():'
p3523
sI4
S'    id = request.args[0]'
p3524
sI5
S'    game = db.game(id)'
p3525
sI6
S'    auth_user = (game.auth_user)'
p3526
sI7
S'    slots = db.game_slots.game(id)'
p3527
sI8
S''
sI9
S'    return dict(firstName=auth_user.first_name,LastName = auth_user.last_name, Balance = game.balance, Slots = slots)'
p3528
ssg3513
S'()'
p3529
sg3515
S'<module>'
p3530
sa(dp3531
g3506
S'/home/mdipierro/web2py/gluon/globals.py'
p3532
sg3508
(dp3533
sg3510
I193
sg3511
(dp3534
sg3513
S'(f=<function show at 0xa4ceaf0>)'
p3535
sg3515
S'<lambda>'
p3536
sa(dp3537
g3506
S'/Users/zamechek/Downloads/web2py/web2py.app/Contents/Resources/applications/hellow/controllers/game.py'
p3538
sg3508
(dp3539
sg3510
I4
sg3511
(dp3540
I1
S'# coding: utf8'
p3541
sI2
S'# try something like'
p3542
sI3
S'def show():'
p3543
sI4
S'    id = request.args[0]'
p3544
sI5
S'    game = db.game(id)'
p3545
sI6
S'    auth_user = (game.auth_user)'
p3546
sI7
S'    slots = db.game_slots.game(id)'
p3547
sI8
S''
sI9
S'    return dict(firstName=auth_user.first_name,LastName = auth_user.last_name, Balance = game.balance, Slots = slots)'
p3548
ssg3513
S'()'
p3549
sg3515
S'show'
p3550
sasS'pyver'
p3551
S'Python 2.5.1: /Users/zamechek/Downloads/web2py/web2py.app/Contents/MacOS/python'
p3552
sS'session'
p3553
g49
(g50
g51
NtRp3554
(dp3555
g54
(dp3556
sg56
(lp3557
g49
(g58
g51
NtRp3558
(dp3559
g54
(dp3560
g62
I5
ssg63
Nsg56
(lp3561
g49
(g65
g51
NtRp3562
(dp3563
g54
(dp3564
sg63
g3558
sg56
(lp3565
g49
(g70
g51
NtRp3566
(dp3567
g54
(dp3568
g74
g75
ssg63
g3562
sg56
(lp3569
S'last_orderby'
p3570
asbag49
(g70
g51
NtRp3571
(dp3572
g54
(dp3573
g81
g82
ssg63
g3562
sg56
(lp3574
S':'
asbag49
(g70
g51
NtRp3575
(dp3576
g54
(dp3577
sg63
g3562
sg56
(lp3578
g49
(g50
g51
NtRp3579
(dp3580
g54
(dp3581
g62
I5
ssg63
g3575
sg56
(lp3582
S'None'
p3583
asbasbasbag49
(g65
g51
NtRp3584
(dp3585
g54
(dp3586
sg63
g3558
sg56
(lp3587
g49
(g70
g51
NtRp3588
(dp3589
g54
(dp3590
g74
g75
ssg63
g3584
sg56
(lp3591
S'last_query'
p3592
asbag49
(g70
g51
NtRp3593
(dp3594
g54
(dp3595
g81
g82
ssg63
g3584
sg56
(lp3596
S':'
asbag49
(g70
g51
NtRp3597
(dp3598
g54
(dp3599
sg63
g3584
sg56
(lp3600
g49
(g50
g51
NtRp3601
(dp3602
g54
(dp3603
g62
I5
ssg63
g3597
sg56
(lp3604
S'db.game_slots.id>0'
p3605
asbasbasbasbasbsS'etype'
p3606
S"<type 'exceptions.IndexError'>"
p3607
sS'date'
p3608
S'Mon Mar 25 13:40:35 2013'
p3609
sS'response'
p3610
g49
(g50
g51
NtRp3611
(dp3612
g54
(dp3613
sg56
(lp3614
g49
(g58
g51
NtRp3615
(dp3616
g54
(dp3617
g62
I5
ssg63
Nsg56
(lp3618
g49
(g65
g51
NtRp3619
(dp3620
g54
(dp3621
sg63
g3615
sg56
(lp3622
g49
(g70
g51
NtRp3623
(dp3624
g54
(dp3625
g74
g75
ssg63
g3619
sg56
(lp3626
g147
asbag49
(g70
g51
NtRp3627
(dp3628
g54
(dp3629
g81
g82
ssg63
g3619
sg56
(lp3630
S':'
asbag49
(g70
g51
NtRp3631
(dp3632
g54
(dp3633
sg63
g3619
sg56
(lp3634
g49
(g50
g51
NtRp3635
(dp3636
g54
(dp3637
g62
I5
ssg63
g3631
sg56
(lp3638
S'<cStringIO.StringO object at 0xaf071e0>'
p3639
asbasbasbag49
(g65
g51
NtRp3640
(dp3641
g54
(dp3642
sg63
g3615
sg56
(lp3643
g49
(g70
g51
NtRp3644
(dp3645
g54
(dp3646
g74
g75
ssg63
g3640
sg56
(lp3647
g235
asbag49
(g70
g51
NtRp3648
(dp3649
g54
(dp3650
g81
g82
ssg63
g3640
sg56
(lp3651
S':'
asbag49
(g70
g51
NtRp3652
(dp3653
g54
(dp3654
sg63
g3640
sg56
(lp3655
g49
(g50
g51
NtRp3656
(dp3657
g54
(dp3658
g62
I5
ssg63
g3652
sg56
(lp3659
g49
(g58
g51
NtRp3660
(dp3661
g54
(dp3662
g62
I4
ssg63
Nsg56
(lp3663
g49
(g65
g51
NtRp3664
(dp3665
g54
(dp3666
sg63
g3660
sg56
(lp3667
g49
(g70
g51
NtRp3668
(dp3669
g54
(dp3670
g74
g75
ssg63
g3664
sg56
(lp3671
S'session_id_hellow'
p3672
asbag49
(g70
g51
NtRp3673
(dp3674
g54
(dp3675
g81
g82
ssg63
g3664
sg56
(lp3676
S':'
asbag49
(g70
g51
NtRp3677
(dp3678
g54
(dp3679
sg63
g3664
sg56
(lp3680
g49
(g50
g51
NtRp3681
(dp3682
g54
(dp3683
g62
I4
ssg63
g3677
sg56
(lp3684
g612
ag49
(g58
g51
NtRp3685
(dp3686
g54
(dp3687
g62
I3
ssg63
Nsg56
(lp3688
g49
(g65
g51
NtRp3689
(dp3690
g54
(dp3691
sg63
g3685
sg56
(lp3692
g49
(g70
g51
NtRp3693
(dp3694
g54
(dp3695
g74
g75
ssg63
g3689
sg56
(lp3696
g286
asbag49
(g70
g51
NtRp3697
(dp3698
g54
(dp3699
g81
g82
ssg63
g3689
sg56
(lp3700
S':'
asbag49
(g70
g51
NtRp3701
(dp3702
g54
(dp3703
sg63
g3689
sg56
(lp3704
g49
(g50
g51
NtRp3705
(dp3706
g54
(dp3707
g62
I3
ssg63
g3701
sg56
(lp3708
S''
asbasbasbag49
(g65
g51
NtRp3709
(dp3710
g54
(dp3711
sg63
g3685
sg56
(lp3712
g49
(g70
g51
NtRp3713
(dp3714
g54
(dp3715
g74
g75
ssg63
g3709
sg56
(lp3716
g307
asbag49
(g70
g51
NtRp3717
(dp3718
g54
(dp3719
g81
g82
ssg63
g3709
sg56
(lp3720
S':'
asbag49
(g70
g51
NtRp3721
(dp3722
g54
(dp3723
sg63
g3709
sg56
(lp3724
g49
(g50
g51
NtRp3725
(dp3726
g54
(dp3727
g62
I3
ssg63
g3721
sg56
(lp3728
S''
asbasbasbag49
(g65
g51
NtRp3729
(dp3730
g54
(dp3731
sg63
g3685
sg56
(lp3732
g49
(g70
g51
NtRp3733
(dp3734
g54
(dp3735
g74
g75
ssg63
g3729
sg56
(lp3736
g328
asbag49
(g70
g51
NtRp3737
(dp3738
g54
(dp3739
g81
g82
ssg63
g3729
sg56
(lp3740
S':'
asbag49
(g70
g51
NtRp3741
(dp3742
g54
(dp3743
sg63
g3729
sg56
(lp3744
g49
(g50
g51
NtRp3745
(dp3746
g54
(dp3747
g62
I3
ssg63
g3741
sg56
(lp3748
S''
asbasbasbag49
(g65
g51
NtRp3749
(dp3750
g54
(dp3751
sg63
g3685
sg56
(lp3752
g49
(g70
g51
NtRp3753
(dp3754
g54
(dp3755
g74
g75
ssg63
g3749
sg56
(lp3756
g349
asbag49
(g70
g51
NtRp3757
(dp3758
g54
(dp3759
g81
g82
ssg63
g3749
sg56
(lp3760
S':'
asbag49
(g70
g51
NtRp3761
(dp3762
g54
(dp3763
sg63
g3749
sg56
(lp3764
g49
(g50
g51
NtRp3765
(dp3766
g54
(dp3767
g62
I3
ssg63
g3761
sg56
(lp3768
S''
asbasbasbag49
(g65
g51
NtRp3769
(dp3770
g54
(dp3771
sg63
g3685
sg56
(lp3772
g49
(g70
g51
NtRp3773
(dp3774
g54
(dp3775
g74
g75
ssg63
g3769
sg56
(lp3776
g370
asbag49
(g70
g51
NtRp3777
(dp3778
g54
(dp3779
g81
g82
ssg63
g3769
sg56
(lp3780
S':'
asbag49
(g70
g51
NtRp3781
(dp3782
g54
(dp3783
sg63
g3769
sg56
(lp3784
g49
(g50
g51
NtRp3785
(dp3786
g54
(dp3787
g62
I3
ssg63
g3781
sg56
(lp3788
S'/'
asbasbasbag49
(g65
g51
NtRp3789
(dp3790
g54
(dp3791
sg63
g3685
sg56
(lp3792
g49
(g70
g51
NtRp3793
(dp3794
g54
(dp3795
g74
g75
ssg63
g3789
sg56
(lp3796
g391
asbag49
(g70
g51
NtRp3797
(dp3798
g54
(dp3799
g81
g82
ssg63
g3789
sg56
(lp3800
S':'
asbag49
(g70
g51
NtRp3801
(dp3802
g54
(dp3803
sg63
g3789
sg56
(lp3804
g49
(g50
g51
NtRp3805
(dp3806
g54
(dp3807
g62
I3
ssg63
g3801
sg56
(lp3808
S''
asbasbasbag49
(g65
g51
NtRp3809
(dp3810
g54
(dp3811
sg63
g3685
sg56
(lp3812
g49
(g70
g51
NtRp3813
(dp3814
g54
(dp3815
g74
g75
ssg63
g3809
sg56
(lp3816
g412
asbag49
(g70
g51
NtRp3817
(dp3818
g54
(dp3819
g81
g82
ssg63
g3809
sg56
(lp3820
S':'
asbag49
(g70
g51
NtRp3821
(dp3822
g54
(dp3823
sg63
g3809
sg56
(lp3824
g49
(g50
g51
NtRp3825
(dp3826
g54
(dp3827
g62
I3
ssg63
g3821
sg56
(lp3828
S''
asbasbasbasbasbasbasbasbasbasbasbag49
(g65
g51
NtRp3829
(dp3830
g54
(dp3831
sg63
g3615
sg56
(lp3832
g49
(g70
g51
NtRp3833
(dp3834
g54
(dp3835
g74
g75
ssg63
g3829
sg56
(lp3836
S'delimiters'
p3837
asbag49
(g70
g51
NtRp3838
(dp3839
g54
(dp3840
g81
g82
ssg63
g3829
sg56
(lp3841
S':'
asbag49
(g70
g51
NtRp3842
(dp3843
g54
(dp3844
sg63
g3829
sg56
(lp3845
g49
(g50
g51
NtRp3846
(dp3847
g54
(dp3848
g62
I5
ssg63
g3842
sg56
(lp3849
g49
(g58
g51
NtRp3850
(dp3851
g54
(dp3852
g62
I4
ssg63
Nsg56
(lp3853
g49
(g65
g51
NtRp3854
(dp3855
g54
(dp3856
sg63
g3850
sg56
(lp3857
g49
(g70
g51
NtRp3858
(dp3859
g54
(dp3860
sg63
g3854
sg56
(lp3861
g49
(g50
g51
NtRp3862
(dp3863
g54
(dp3864
g62
I4
ssg63
g3858
sg56
(lp3865
S'{{'
p3866
asbasbasbag49
(g65
g51
NtRp3867
(dp3868
g54
(dp3869
sg63
g3850
sg56
(lp3870
g49
(g70
g51
NtRp3871
(dp3872
g54
(dp3873
sg63
g3867
sg56
(lp3874
g49
(g50
g51
NtRp3875
(dp3876
g54
(dp3877
g62
I4
ssg63
g3871
sg56
(lp3878
S'}}'
p3879
asbasbasbasbasbasbasbag49
(g65
g51
NtRp3880
(dp3881
g54
(dp3882
sg63
g3615
sg56
(lp3883
g49
(g70
g51
NtRp3884
(dp3885
g54
(dp3886
g74
g75
ssg63
g3880
sg56
(lp3887
S'files'
p3888
asbag49
(g70
g51
NtRp3889
(dp3890
g54
(dp3891
g81
g82
ssg63
g3880
sg56
(lp3892
S':'
asbag49
(g70
g51
NtRp3893
(dp3894
g54
(dp3895
sg63
g3880
sg56
(lp3896
g49
(g50
g51
NtRp3897
(dp3898
g54
(dp3899
g62
I5
ssg63
g3893
sg56
(lp3900
g49
(g58
g51
NtRp3901
(dp3902
g54
(dp3903
g62
I4
ssg63
Nsg56
(lp3904
sbasbasbasbag49
(g65
g51
NtRp3905
(dp3906
g54
(dp3907
sg63
g3615
sg56
(lp3908
g49
(g70
g51
NtRp3909
(dp3910
g54
(dp3911
g74
g75
ssg63
g3905
sg56
(lp3912
S'flash'
p3913
asbag49
(g70
g51
NtRp3914
(dp3915
g54
(dp3916
g81
g82
ssg63
g3905
sg56
(lp3917
S':'
asbag49
(g70
g51
NtRp3918
(dp3919
g54
(dp3920
sg63
g3905
sg56
(lp3921
g49
(g50
g51
NtRp3922
(dp3923
g54
(dp3924
g62
I5
ssg63
g3918
sg56
(lp3925
S''
asbasbasbag49
(g65
g51
NtRp3926
(dp3927
g54
(dp3928
sg63
g3615
sg56
(lp3929
g49
(g70
g51
NtRp3930
(dp3931
g54
(dp3932
g74
g75
ssg63
g3926
sg56
(lp3933
S'generic_patterns'
p3934
asbag49
(g70
g51
NtRp3935
(dp3936
g54
(dp3937
g81
g82
ssg63
g3926
sg56
(lp3938
S':'
asbag49
(g70
g51
NtRp3939
(dp3940
g54
(dp3941
sg63
g3926
sg56
(lp3942
g49
(g50
g51
NtRp3943
(dp3944
g54
(dp3945
g62
I5
ssg63
g3939
sg56
(lp3946
g49
(g58
g51
NtRp3947
(dp3948
g54
(dp3949
g62
I4
ssg63
Nsg56
(lp3950
g49
(g65
g51
NtRp3951
(dp3952
g54
(dp3953
sg63
g3947
sg56
(lp3954
g49
(g70
g51
NtRp3955
(dp3956
g54
(dp3957
sg63
g3951
sg56
(lp3958
g49
(g50
g51
NtRp3959
(dp3960
g54
(dp3961
g62
I4
ssg63
g3955
sg56
(lp3962
S'*'
asbasbasbasbasbasbasbag49
(g65
g51
NtRp3963
(dp3964
g54
(dp3965
sg63
g3615
sg56
(lp3966
g49
(g70
g51
NtRp3967
(dp3968
g54
(dp3969
g74
g75
ssg63
g3963
sg56
(lp3970
S'google_analytics_id'
p3971
asbag49
(g70
g51
NtRp3972
(dp3973
g54
(dp3974
g81
g82
ssg63
g3963
sg56
(lp3975
S':'
asbag49
(g70
g51
NtRp3976
(dp3977
g54
(dp3978
sg63
g3963
sg56
(lp3979
g49
(g50
g51
NtRp3980
(dp3981
g54
(dp3982
g62
I5
ssg63
g3976
sg56
(lp3983
S'None'
p3984
asbasbasbag49
(g65
g51
NtRp3985
(dp3986
g54
(dp3987
sg63
g3615
sg56
(lp3988
g49
(g70
g51
NtRp3989
(dp3990
g54
(dp3991
g74
g75
ssg63
g3985
sg56
(lp3992
S'headers'
p3993
asbag49
(g70
g51
NtRp3994
(dp3995
g54
(dp3996
g81
g82
ssg63
g3985
sg56
(lp3997
S':'
asbag49
(g70
g51
NtRp3998
(dp3999
g54
(dp4000
sg63
g3985
sg56
(lp4001
g49
(g50
g51
NtRp4002
(dp4003
g54
(dp4004
g62
I5
ssg63
g3998
sg56
(lp4005
g49
(g58
g51
NtRp4006
(dp4007
g54
(dp4008
g62
I4
ssg63
Nsg56
(lp4009
g49
(g65
g51
NtRp4010
(dp4011
g54
(dp4012
sg63
g4006
sg56
(lp4013
g49
(g70
g51
NtRp4014
(dp4015
g54
(dp4016
g74
g75
ssg63
g4010
sg56
(lp4017
S'X-Powered-By'
p4018
asbag49
(g70
g51
NtRp4019
(dp4020
g54
(dp4021
g81
g82
ssg63
g4010
sg56
(lp4022
S':'
asbag49
(g70
g51
NtRp4023
(dp4024
g54
(dp4025
sg63
g4010
sg56
(lp4026
g49
(g50
g51
NtRp4027
(dp4028
g54
(dp4029
g62
I4
ssg63
g4023
sg56
(lp4030
S'web2py'
p4031
asbasbasbasbasbasbasbag49
(g65
g51
NtRp4032
(dp4033
g54
(dp4034
sg63
g3615
sg56
(lp4035
g49
(g70
g51
NtRp4036
(dp4037
g54
(dp4038
g74
g75
ssg63
g4032
sg56
(lp4039
S'logo'
p4040
asbag49
(g70
g51
NtRp4041
(dp4042
g54
(dp4043
g81
g82
ssg63
g4032
sg56
(lp4044
S':'
asbag49
(g70
g51
NtRp4045
(dp4046
g54
(dp4047
sg63
g4032
sg56
(lp4048
g49
(g50
g51
NtRp4049
(dp4050
g54
(dp4051
g62
I5
ssg63
g4045
sg56
(lp4052
g49
(cgluon.html
A
p4053
g51
NtRp4054
(dp4055
g54
(dp4056
S'_class'
p4057
S'brand'
p4058
sS'_href'
p4059
S'http://www.web2py.com/'
p4060
ssg63
Nsg56
(lp4061
g49
(cgluon.html
B
p4062
g51
NtRp4063
(dp4064
g54
(dp4065
sg63
g4054
sg56
(lp4066
S'web'
p4067
ag49
(cgluon.html
SPAN
p4068
g51
NtRp4069
(dp4070
g54
(dp4071
sg63
g4063
sg56
(lp4072
I2
asbaS'py'
p4073
asbacgluon.html
XML_unpickle
p4074
(S's\r\x00\x00\x00&trade;&nbsp;'
tRp4075
asbasbasbasbag49
(g65
g51
NtRp4076
(dp4077
g54
(dp4078
sg63
g3615
sg56
(lp4079
g49
(g70
g51
NtRp4080
(dp4081
g54
(dp4082
g74
g75
ssg63
g4076
sg56
(lp4083
S'menu'
p4084
asbag49
(g70
g51
NtRp4085
(dp4086
g54
(dp4087
g81
g82
ssg63
g4076
sg56
(lp4088
S':'
asbag49
(g70
g51
NtRp4089
(dp4090
g54
(dp4091
sg63
g4076
sg56
(lp4092
g49
(g50
g51
NtRp4093
(dp4094
g54
(dp4095
g62
I5
ssg63
g4089
sg56
(lp4096
g49
(g58
g51
NtRp4097
(dp4098
g54
(dp4099
g62
I4
ssg63
Nsg56
(lp4100
g49
(g65
g51
NtRp4101
(dp4102
g54
(dp4103
sg63
g4097
sg56
(lp4104
g49
(g70
g51
NtRp4105
(dp4106
g54
(dp4107
sg63
g4101
sg56
(lp4108
g49
(g50
g51
NtRp4109
(dp4110
g54
(dp4111
g62
I4
ssg63
g4105
sg56
(lp4112
g49
(g58
g51
NtRp4113
(dp4114
g54
(dp4115
g62
I3
ssg63
Nsg56
(lp4116
g49
(g65
g51
NtRp4117
(dp4118
g54
(dp4119
sg63
g4113
sg56
(lp4120
g49
(g70
g51
NtRp4121
(dp4122
g54
(dp4123
sg63
g4117
sg56
(lp4124
g49
(g50
g51
NtRp4125
(dp4126
g54
(dp4127
g62
I3
ssg63
g4121
sg56
(lp4128
cgluon.languages
lazyT_unpickle
p4129
(S't\x04\x00\x00\x00Home'
tRp4130
asbasbasbag49
(g65
g51
NtRp4131
(dp4132
g54
(dp4133
sg63
g4113
sg56
(lp4134
g49
(g70
g51
NtRp4135
(dp4136
g54
(dp4137
sg63
g4131
sg56
(lp4138
g49
(g50
g51
NtRp4139
(dp4140
g54
(dp4141
g62
I3
ssg63
g4135
sg56
(lp4142
g92
asbasbasbag49
(g65
g51
NtRp4143
(dp4144
g54
(dp4145
sg63
g4113
sg56
(lp4146
g49
(g70
g51
NtRp4147
(dp4148
g54
(dp4149
sg63
g4143
sg56
(lp4150
g49
(g50
g51
NtRp4151
(dp4152
g54
(dp4153
g62
I3
ssg63
g4147
sg56
(lp4154
S'/hellow/default/index'
p4155
asbasbasbag49
(g65
g51
NtRp4156
(dp4157
g54
(dp4158
sg63
g4113
sg56
(lp4159
g49
(g70
g51
NtRp4160
(dp4161
g54
(dp4162
sg63
g4156
sg56
(lp4163
g49
(g50
g51
NtRp4164
(dp4165
g54
(dp4166
g62
I3
ssg63
g4160
sg56
(lp4167
g49
(g58
g51
NtRp4168
(dp4169
g54
(dp4170
g62
I2
ssg63
Nsg56
(lp4171
sbasbasbasbasbasbasbasbag49
(g65
g51
NtRp4172
(dp4173
g54
(dp4174
sg63
g4097
sg56
(lp4175
g49
(g70
g51
NtRp4176
(dp4177
g54
(dp4178
sg63
g4172
sg56
(lp4179
g49
(g50
g51
NtRp4180
(dp4181
g54
(dp4182
g62
I4
ssg63
g4176
sg56
(lp4183
g49
(g58
g51
NtRp4184
(dp4185
g54
(dp4186
g62
I3
ssg63
Nsg56
(lp4187
g49
(g65
g51
NtRp4188
(dp4189
g54
(dp4190
sg63
g4184
sg56
(lp4191
g49
(g70
g51
NtRp4192
(dp4193
g54
(dp4194
sg63
g4188
sg56
(lp4195
g49
(g50
g51
NtRp4196
(dp4197
g54
(dp4198
g62
I3
ssg63
g4192
sg56
(lp4199
g49
(g4068
g51
NtRp4200
(dp4201
g54
(dp4202
g4057
S'highlighted'
p4203
ssg63
Nsg56
(lp4204
g4031
asbasbasbasbag49
(g65
g51
NtRp4205
(dp4206
g54
(dp4207
sg63
g4184
sg56
(lp4208
g49
(g70
g51
NtRp4209
(dp4210
g54
(dp4211
sg63
g4205
sg56
(lp4212
g49
(g50
g51
NtRp4213
(dp4214
g54
(dp4215
g62
I3
ssg63
g4209
sg56
(lp4216
g92
asbasbasbag49
(g65
g51
NtRp4217
(dp4218
g54
(dp4219
sg63
g4184
sg56
(lp4220
g49
(g70
g51
NtRp4221
(dp4222
g54
(dp4223
sg63
g4217
sg56
(lp4224
g49
(g50
g51
NtRp4225
(dp4226
g54
(dp4227
g62
I3
ssg63
g4221
sg56
(lp4228
S'http://web2py.com'
p4229
asbasbasbag49
(g65
g51
NtRp4230
(dp4231
g54
(dp4232
sg63
g4184
sg56
(lp4233
g49
(g70
g51
NtRp4234
(dp4235
g54
(dp4236
sg63
g4230
sg56
(lp4237
g49
(g50
g51
NtRp4238
(dp4239
g54
(dp4240
g62
I3
ssg63
g4234
sg56
(lp4241
g49
(g58
g51
NtRp4242
(dp4243
g54
(dp4244
g62
I2
ssg63
Nsg56
(lp4245
g49
(g65
g51
NtRp4246
(dp4247
g54
(dp4248
sg63
g4242
sg56
(lp4249
g49
(g70
g51
NtRp4250
(dp4251
g54
(dp4252
sg63
g4246
sg56
(lp4253
g49
(g50
g51
NtRp4254
(dp4255
g54
(dp4256
g62
I2
ssg63
g4250
sg56
(lp4257
g49
(g58
g51
NtRp4258
(dp4259
g54
(dp4260
g62
I1
ssg63
Nsg56
(lp4261
g49
(g65
g51
NtRp4262
(dp4263
g54
(dp4264
sg63
g4258
sg56
(lp4265
g49
(g70
g51
NtRp4266
(dp4267
g54
(dp4268
sg63
g4262
sg56
(lp4269
g49
(g50
g51
NtRp4270
(dp4271
g54
(dp4272
g62
I1
ssg63
g4266
sg56
(lp4273
g4129
(S's\x08\x00\x00\x00My Sites'
tRp4274
asbasbasbag49
(g65
g51
NtRp4275
(dp4276
g54
(dp4277
sg63
g4258
sg56
(lp4278
g49
(g70
g51
NtRp4279
(dp4280
g54
(dp4281
sg63
g4275
sg56
(lp4282
g49
(g50
g51
NtRp4283
(dp4284
g54
(dp4285
g62
I1
ssg63
g4279
sg56
(lp4286
I00
asbasbasbag49
(g65
g51
NtRp4287
(dp4288
g54
(dp4289
sg63
g4258
sg56
(lp4290
g49
(g70
g51
NtRp4291
(dp4292
g54
(dp4293
sg63
g4287
sg56
(lp4294
g49
(g50
g51
NtRp4295
(dp4296
g54
(dp4297
g62
I1
ssg63
g4291
sg56
(lp4298
S'/admin/default/site'
p4299
asbasbasbasbasbasbasbag49
(g65
g51
NtRp4300
(dp4301
g54
(dp4302
sg63
g4242
sg56
(lp4303
g49
(g70
g51
NtRp4304
(dp4305
g54
(dp4306
sg63
g4300
sg56
(lp4307
g49
(g50
g51
NtRp4308
(dp4309
g54
(dp4310
g62
I2
ssg63
g4304
sg56
(lp4311
g49
(g58
g51
NtRp4312
(dp4313
g54
(dp4314
g62
I1
ssg63
Nsg56
(lp4315
g49
(g65
g51
NtRp4316
(dp4317
g54
(dp4318
sg63
g4312
sg56
(lp4319
g49
(g70
g51
NtRp4320
(dp4321
g54
(dp4322
sg63
g4316
sg56
(lp4323
g49
(g50
g51
NtRp4324
(dp4325
g54
(dp4326
g62
I1
ssg63
g4320
sg56
(lp4327
g4129
(S's\x08\x00\x00\x00This App'
tRp4328
asbasbasbag49
(g65
g51
NtRp4329
(dp4330
g54
(dp4331
sg63
g4312
sg56
(lp4332
g49
(g70
g51
NtRp4333
(dp4334
g54
(dp4335
sg63
g4329
sg56
(lp4336
g49
(g50
g51
NtRp4337
(dp4338
g54
(dp4339
g62
I1
ssg63
g4333
sg56
(lp4340
I00
asbasbasbag49
(g65
g51
NtRp4341
(dp4342
g54
(dp4343
sg63
g4312
sg56
(lp4344
g49
(g70
g51
NtRp4345
(dp4346
g54
(dp4347
sg63
g4341
sg56
(lp4348
g49
(g50
g51
NtRp4349
(dp4350
g54
(dp4351
g62
I1
ssg63
g4345
sg56
(lp4352
S'/admin/default/design/hellow'
p4353
asbasbasbag49
(g65
g51
NtRp4354
(dp4355
g54
(dp4356
sg63
g4312
sg56
(lp4357
g49
(g70
g51
NtRp4358
(dp4359
g54
(dp4360
sg63
g4354
sg56
(lp4361
g49
(g50
g51
NtRp4362
(dp4363
g54
(dp4364
g62
I1
ssg63
g4358
sg56
(lp4365
(lp4366
(g4129
(S't\n\x00\x00\x00Controller'
tRp4367
I00
S'/admin/default/edit/hellow/controllers/game.py'
tp4368
a(g4129
(S't\x04\x00\x00\x00View'
tRp4369
I00
S'/admin/default/edit/hellow/views/game/show.html'
tp4370
a(g4129
(S't\x06\x00\x00\x00Layout'
tRp4371
I00
S'/admin/default/edit/hellow/views/layout.html'
tp4372
a(g4129
(S't\n\x00\x00\x00Stylesheet'
tRp4373
I00
S'/admin/default/edit/hellow/static/css/web2py.css'
tp4374
a(g4129
(S's\x08\x00\x00\x00DB Model'
tRp4375
I00
S'/admin/default/edit/hellow/models/db.py'
tp4376
a(g4129
(S's\n\x00\x00\x00Menu Model'
tRp4377
I00
S'/admin/default/edit/hellow/models/menu.py'
tp4378
a(g4129
(S't\x08\x00\x00\x00Database'
tRp4379
I00
S'/hellow/appadmin/index'
tp4380
a(g4129
(S't\x06\x00\x00\x00Errors'
tRp4381
I00
S'/admin/default/errors/hellow'
tp4382
a(g4129
(S't\x05\x00\x00\x00About'
tRp4383
I00
S'/admin/default/about/hellow'
tp4384
aasbasbasbasbasbasbasbag49
(g65
g51
NtRp4385
(dp4386
g54
(dp4387
sg63
g4242
sg56
(lp4388
g49
(g70
g51
NtRp4389
(dp4390
g54
(dp4391
sg63
g4385
sg56
(lp4392
g49
(g50
g51
NtRp4393
(dp4394
g54
(dp4395
g62
I2
ssg63
g4389
sg56
(lp4396
g49
(g58
g51
NtRp4397
(dp4398
g54
(dp4399
g62
I1
ssg63
Nsg56
(lp4400
g49
(g65
g51
NtRp4401
(dp4402
g54
(dp4403
sg63
g4397
sg56
(lp4404
g49
(g70
g51
NtRp4405
(dp4406
g54
(dp4407
sg63
g4401
sg56
(lp4408
g49
(g50
g51
NtRp4409
(dp4410
g54
(dp4411
g62
I1
ssg63
g4405
sg56
(lp4412
S'web2py.com'
p4413
asbasbasbag49
(g65
g51
NtRp4414
(dp4415
g54
(dp4416
sg63
g4397
sg56
(lp4417
g49
(g70
g51
NtRp4418
(dp4419
g54
(dp4420
sg63
g4414
sg56
(lp4421
g49
(g50
g51
NtRp4422
(dp4423
g54
(dp4424
g62
I1
ssg63
g4418
sg56
(lp4425
I00
asbasbasbag49
(g65
g51
NtRp4426
(dp4427
g54
(dp4428
sg63
g4397
sg56
(lp4429
g49
(g70
g51
NtRp4430
(dp4431
g54
(dp4432
sg63
g4426
sg56
(lp4433
g49
(g50
g51
NtRp4434
(dp4435
g54
(dp4436
g62
I1
ssg63
g4430
sg56
(lp4437
S'http://www.web2py.com'
p4438
asbasbasbag49
(g65
g51
NtRp4439
(dp4440
g54
(dp4441
sg63
g4397
sg56
(lp4442
g49
(g70
g51
NtRp4443
(dp4444
g54
(dp4445
sg63
g4439
sg56
(lp4446
g49
(g50
g51
NtRp4447
(dp4448
g54
(dp4449
g62
I1
ssg63
g4443
sg56
(lp4450
(lp4451
(g4129
(S't\x08\x00\x00\x00Download'
tRp4452
I00
S'http://www.web2py.com/examples/default/download'
p4453
tp4454
a(g4129
(S't\x07\x00\x00\x00Support'
tRp4455
I00
S'http://www.web2py.com/examples/default/support'
p4456
tp4457
a(g4129
(S't\x04\x00\x00\x00Demo'
tRp4458
I00
S'http://web2py.com/demo_admin'
p4459
tp4460
a(g4129
(S's\x0e\x00\x00\x00Quick Examples'
tRp4461
I00
S'http://web2py.com/examples/default/examples'
p4462
tp4463
a(g4129
(S't\x03\x00\x00\x00FAQ'
tRp4464
I00
S'http://web2py.com/AlterEgo'
p4465
tp4466
a(g4129
(S't\x06\x00\x00\x00Videos'
tRp4467
I00
S'http://www.web2py.com/examples/default/videos/'
p4468
tp4469
a(g4129
(S's\x11\x00\x00\x00Free Applications'
tRp4470
I00
S'http://web2py.com/appliances'
p4471
tp4472
a(g4129
(S't\x07\x00\x00\x00Plugins'
tRp4473
I00
S'http://web2py.com/plugins'
p4474
tp4475
a(g4129
(S't\x07\x00\x00\x00Layouts'
tRp4476
I00
S'http://web2py.com/layouts'
p4477
tp4478
a(g4129
(S't\x07\x00\x00\x00Recipes'
tRp4479
I00
S'http://web2pyslices.com/'
p4480
tp4481
a(g4129
(S't\x08\x00\x00\x00Semantic'
tRp4482
I00
S'http://web2py.com/semantic'
p4483
tp4484
aasbasbasbasbasbasbasbag49
(g65
g51
NtRp4485
(dp4486
g54
(dp4487
sg63
g4242
sg56
(lp4488
g49
(g70
g51
NtRp4489
(dp4490
g54
(dp4491
sg63
g4485
sg56
(lp4492
g49
(g50
g51
NtRp4493
(dp4494
g54
(dp4495
g62
I2
ssg63
g4489
sg56
(lp4496
g49
(g58
g51
NtRp4497
(dp4498
g54
(dp4499
g62
I1
ssg63
Nsg56
(lp4500
g49
(g65
g51
NtRp4501
(dp4502
g54
(dp4503
sg63
g4497
sg56
(lp4504
g49
(g70
g51
NtRp4505
(dp4506
g54
(dp4507
sg63
g4501
sg56
(lp4508
g49
(g50
g51
NtRp4509
(dp4510
g54
(dp4511
g62
I1
ssg63
g4505
sg56
(lp4512
g4129
(S't\r\x00\x00\x00Documentation'
tRp4513
asbasbasbag49
(g65
g51
NtRp4514
(dp4515
g54
(dp4516
sg63
g4497
sg56
(lp4517
g49
(g70
g51
NtRp4518
(dp4519
g54
(dp4520
sg63
g4514
sg56
(lp4521
g49
(g50
g51
NtRp4522
(dp4523
g54
(dp4524
g62
I1
ssg63
g4518
sg56
(lp4525
I00
asbasbasbag49
(g65
g51
NtRp4526
(dp4527
g54
(dp4528
sg63
g4497
sg56
(lp4529
g49
(g70
g51
NtRp4530
(dp4531
g54
(dp4532
sg63
g4526
sg56
(lp4533
g49
(g50
g51
NtRp4534
(dp4535
g54
(dp4536
g62
I1
ssg63
g4530
sg56
(lp4537
S'http://www.web2py.com/book'
p4538
asbasbasbag49
(g65
g51
NtRp4539
(dp4540
g54
(dp4541
sg63
g4497
sg56
(lp4542
g49
(g70
g51
NtRp4543
(dp4544
g54
(dp4545
sg63
g4539
sg56
(lp4546
g49
(g50
g51
NtRp4547
(dp4548
g54
(dp4549
g62
I1
ssg63
g4543
sg56
(lp4550
(lp4551
(g4129
(S't\x07\x00\x00\x00Preface'
tRp4552
I00
S'http://www.web2py.com/book/default/chapter/00'
p4553
tp4554
a(g4129
(S't\x0c\x00\x00\x00Introduction'
tRp4555
I00
S'http://www.web2py.com/book/default/chapter/01'
p4556
tp4557
a(g4129
(S't\x06\x00\x00\x00Python'
tRp4558
I00
S'http://www.web2py.com/book/default/chapter/02'
p4559
tp4560
a(g4129
(S't\x08\x00\x00\x00Overview'
tRp4561
I00
S'http://www.web2py.com/book/default/chapter/03'
p4562
tp4563
a(g4129
(S's\x08\x00\x00\x00The Core'
tRp4564
I00
S'http://www.web2py.com/book/default/chapter/04'
p4565
tp4566
a(g4129
(S's\t\x00\x00\x00The Views'
tRp4567
I00
S'http://www.web2py.com/book/default/chapter/05'
p4568
tp4569
a(g4129
(S't\x08\x00\x00\x00Database'
tRp4570
I00
S'http://www.web2py.com/book/default/chapter/06'
p4571
tp4572
a(g4129
(S's\x14\x00\x00\x00Forms and Validators'
tRp4573
I00
S'http://www.web2py.com/book/default/chapter/07'
p4574
tp4575
a(g4129
(S's\r\x00\x00\x00Email and SMS'
tRp4576
I00
S'http://www.web2py.com/book/default/chapter/08'
p4577
tp4578
a(g4129
(S's\x0e\x00\x00\x00Access Control'
tRp4579
I00
S'http://www.web2py.com/book/default/chapter/09'
p4580
tp4581
a(g4129
(S't\x08\x00\x00\x00Services'
tRp4582
I00
S'http://www.web2py.com/book/default/chapter/10'
p4583
tp4584
a(g4129
(S's\x0c\x00\x00\x00Ajax Recipes'
tRp4585
I00
S'http://www.web2py.com/book/default/chapter/11'
p4586
tp4587
a(g4129
(S's\x16\x00\x00\x00Components and Plugins'
tRp4588
I00
S'http://www.web2py.com/book/default/chapter/12'
p4589
tp4590
a(g4129
(S's\x12\x00\x00\x00Deployment Recipes'
tRp4591
I00
S'http://www.web2py.com/book/default/chapter/13'
p4592
tp4593
a(g4129
(S's\r\x00\x00\x00Other Recipes'
tRp4594
I00
S'http://www.web2py.com/book/default/chapter/14'
p4595
tp4596
a(g4129
(S's\r\x00\x00\x00Buy this book'
tRp4597
I00
S'http://stores.lulu.com/web2py'
p4598
tp4599
aasbasbasbasbasbasbasbag49
(g65
g51
NtRp4600
(dp4601
g54
(dp4602
sg63
g4242
sg56
(lp4603
g49
(g70
g51
NtRp4604
(dp4605
g54
(dp4606
sg63
g4600
sg56
(lp4607
g49
(g50
g51
NtRp4608
(dp4609
g54
(dp4610
g62
I2
ssg63
g4604
sg56
(lp4611
g49
(g58
g51
NtRp4612
(dp4613
g54
(dp4614
g62
I1
ssg63
Nsg56
(lp4615
g49
(g65
g51
NtRp4616
(dp4617
g54
(dp4618
sg63
g4612
sg56
(lp4619
g49
(g70
g51
NtRp4620
(dp4621
g54
(dp4622
sg63
g4616
sg56
(lp4623
g49
(g50
g51
NtRp4624
(dp4625
g54
(dp4626
g62
I1
ssg63
g4620
sg56
(lp4627
g4129
(S't\t\x00\x00\x00Community'
tRp4628
asbasbasbag49
(g65
g51
NtRp4629
(dp4630
g54
(dp4631
sg63
g4612
sg56
(lp4632
g49
(g70
g51
NtRp4633
(dp4634
g54
(dp4635
sg63
g4629
sg56
(lp4636
g49
(g50
g51
NtRp4637
(dp4638
g54
(dp4639
g62
I1
ssg63
g4633
sg56
(lp4640
I00
asbasbasbag49
(g65
g51
NtRp4641
(dp4642
g54
(dp4643
sg63
g4612
sg56
(lp4644
g49
(g70
g51
NtRp4645
(dp4646
g54
(dp4647
sg63
g4641
sg56
(lp4648
g49
(g50
g51
NtRp4649
(dp4650
g54
(dp4651
g62
I1
ssg63
g4645
sg56
(lp4652
Nasbasbasbag49
(g65
g51
NtRp4653
(dp4654
g54
(dp4655
sg63
g4612
sg56
(lp4656
g49
(g70
g51
NtRp4657
(dp4658
g54
(dp4659
sg63
g4653
sg56
(lp4660
g49
(g50
g51
NtRp4661
(dp4662
g54
(dp4663
g62
I1
ssg63
g4657
sg56
(lp4664
(lp4665
(g4129
(S't\x06\x00\x00\x00Groups'
tRp4666
I00
S'http://www.web2py.com/examples/default/usergroups'
p4667
tp4668
a(g4129
(S't\x07\x00\x00\x00Twitter'
tRp4669
I00
S'http://twitter.com/web2py'
p4670
tp4671
a(g4129
(S's\t\x00\x00\x00Live Chat'
tRp4672
I00
S'http://webchat.freenode.net/?channels=web2py'
p4673
tp4674
aasbasbasbasbasbasbasbag49
(g65
g51
NtRp4675
(dp4676
g54
(dp4677
sg63
g4242
sg56
(lp4678
g49
(g70
g51
NtRp4679
(dp4680
g54
(dp4681
sg63
g4675
sg56
(lp4682
g49
(g50
g51
NtRp4683
(dp4684
g54
(dp4685
g62
I2
ssg63
g4679
sg56
(lp4686
g49
(g58
g51
NtRp4687
(dp4688
g54
(dp4689
g62
I1
ssg63
Nsg56
(lp4690
g49
(g65
g51
NtRp4691
(dp4692
g54
(dp4693
sg63
g4687
sg56
(lp4694
g49
(g70
g51
NtRp4695
(dp4696
g54
(dp4697
sg63
g4691
sg56
(lp4698
g49
(g50
g51
NtRp4699
(dp4700
g54
(dp4701
g62
I1
ssg63
g4695
sg56
(lp4702
g4129
(S't\x07\x00\x00\x00Plugins'
tRp4703
asbasbasbag49
(g65
g51
NtRp4704
(dp4705
g54
(dp4706
sg63
g4687
sg56
(lp4707
g49
(g70
g51
NtRp4708
(dp4709
g54
(dp4710
sg63
g4704
sg56
(lp4711
g49
(g50
g51
NtRp4712
(dp4713
g54
(dp4714
g62
I1
ssg63
g4708
sg56
(lp4715
I00
asbasbasbag49
(g65
g51
NtRp4716
(dp4717
g54
(dp4718
sg63
g4687
sg56
(lp4719
g49
(g70
g51
NtRp4720
(dp4721
g54
(dp4722
sg63
g4716
sg56
(lp4723
g49
(g50
g51
NtRp4724
(dp4725
g54
(dp4726
g62
I1
ssg63
g4720
sg56
(lp4727
Nasbasbasbag49
(g65
g51
NtRp4728
(dp4729
g54
(dp4730
sg63
g4687
sg56
(lp4731
g49
(g70
g51
NtRp4732
(dp4733
g54
(dp4734
sg63
g4728
sg56
(lp4735
g49
(g50
g51
NtRp4736
(dp4737
g54
(dp4738
g62
I1
ssg63
g4732
sg56
(lp4739
(lp4740
(S'plugin_wiki'
p4741
I00
S'http://web2py.com/examples/default/download'
p4742
tp4743
a(g4129
(S's\r\x00\x00\x00Other Plugins'
tRp4744
I00
g4474
tp4745
a(g4129
(S's\x0e\x00\x00\x00Layout Plugins'
tRp4746
I00
g4477
tp4747
aasbasbasbasbasbasbasbasbasbasbasbasbasbasbasbasbasbasbasbag49
(g65
g51
NtRp4748
(dp4749
g54
(dp4750
sg63
g3615
sg56
(lp4751
g49
(g70
g51
NtRp4752
(dp4753
g54
(dp4754
g74
g75
ssg63
g4748
sg56
(lp4755
S'meta'
p4756
asbag49
(g70
g51
NtRp4757
(dp4758
g54
(dp4759
g81
g82
ssg63
g4748
sg56
(lp4760
S':'
asbag49
(g70
g51
NtRp4761
(dp4762
g54
(dp4763
sg63
g4748
sg56
(lp4764
g49
(g50
g51
NtRp4765
(dp4766
g54
(dp4767
g62
I5
ssg63
g4761
sg56
(lp4768
g49
(g58
g51
NtRp4769
(dp4770
g54
(dp4771
g62
I4
ssg63
Nsg56
(lp4772
g49
(g65
g51
NtRp4773
(dp4774
g54
(dp4775
sg63
g4769
sg56
(lp4776
g49
(g70
g51
NtRp4777
(dp4778
g54
(dp4779
g74
g75
ssg63
g4773
sg56
(lp4780
S'author'
p4781
asbag49
(g70
g51
NtRp4782
(dp4783
g54
(dp4784
g81
g82
ssg63
g4773
sg56
(lp4785
S':'
asbag49
(g70
g51
NtRp4786
(dp4787
g54
(dp4788
sg63
g4773
sg56
(lp4789
g49
(g50
g51
NtRp4790
(dp4791
g54
(dp4792
g62
I4
ssg63
g4786
sg56
(lp4793
S'Your Name <you@example.com>'
p4794
asbasbasbag49
(g65
g51
NtRp4795
(dp4796
g54
(dp4797
sg63
g4769
sg56
(lp4798
g49
(g70
g51
NtRp4799
(dp4800
g54
(dp4801
g74
g75
ssg63
g4795
sg56
(lp4802
S'description'
p4803
asbag49
(g70
g51
NtRp4804
(dp4805
g54
(dp4806
g81
g82
ssg63
g4795
sg56
(lp4807
S':'
asbag49
(g70
g51
NtRp4808
(dp4809
g54
(dp4810
sg63
g4795
sg56
(lp4811
g49
(g50
g51
NtRp4812
(dp4813
g54
(dp4814
g62
I4
ssg63
g4808
sg56
(lp4815
S'a cool new app'
p4816
asbasbasbag49
(g65
g51
NtRp4817
(dp4818
g54
(dp4819
sg63
g4769
sg56
(lp4820
g49
(g70
g51
NtRp4821
(dp4822
g54
(dp4823
g74
g75
ssg63
g4817
sg56
(lp4824
S'generator'
p4825
asbag49
(g70
g51
NtRp4826
(dp4827
g54
(dp4828
g81
g82
ssg63
g4817
sg56
(lp4829
S':'
asbag49
(g70
g51
NtRp4830
(dp4831
g54
(dp4832
sg63
g4817
sg56
(lp4833
g49
(g50
g51
NtRp4834
(dp4835
g54
(dp4836
g62
I4
ssg63
g4830
sg56
(lp4837
S'Web2py Web Framework'
p4838
asbasbasbag49
(g65
g51
NtRp4839
(dp4840
g54
(dp4841
sg63
g4769
sg56
(lp4842
g49
(g70
g51
NtRp4843
(dp4844
g54
(dp4845
g74
g75
ssg63
g4839
sg56
(lp4846
S'keywords'
p4847
asbag49
(g70
g51
NtRp4848
(dp4849
g54
(dp4850
g81
g82
ssg63
g4839
sg56
(lp4851
S':'
asbag49
(g70
g51
NtRp4852
(dp4853
g54
(dp4854
sg63
g4839
sg56
(lp4855
g49
(g50
g51
NtRp4856
(dp4857
g54
(dp4858
g62
I4
ssg63
g4852
sg56
(lp4859
S'web2py, python, framework'
p4860
asbasbasbasbasbasbasbag49
(g65
g51
NtRp4861
(dp4862
g54
(dp4863
sg63
g3615
sg56
(lp4864
g49
(g70
g51
NtRp4865
(dp4866
g54
(dp4867
g74
g75
ssg63
g4861
sg56
(lp4868
S'models_to_run'
p4869
asbag49
(g70
g51
NtRp4870
(dp4871
g54
(dp4872
g81
g82
ssg63
g4861
sg56
(lp4873
S':'
asbag49
(g70
g51
NtRp4874
(dp4875
g54
(dp4876
sg63
g4861
sg56
(lp4877
g49
(g50
g51
NtRp4878
(dp4879
g54
(dp4880
g62
I5
ssg63
g4874
sg56
(lp4881
g49
(g58
g51
NtRp4882
(dp4883
g54
(dp4884
g62
I4
ssg63
Nsg56
(lp4885
g49
(g65
g51
NtRp4886
(dp4887
g54
(dp4888
sg63
g4882
sg56
(lp4889
g49
(g70
g51
NtRp4890
(dp4891
g54
(dp4892
sg63
g4886
sg56
(lp4893
g49
(g50
g51
NtRp4894
(dp4895
g54
(dp4896
g62
I4
ssg63
g4890
sg56
(lp4897
S'^\\w+\\.py$'
p4898
asbasbasbag49
(g65
g51
NtRp4899
(dp4900
g54
(dp4901
sg63
g4882
sg56
(lp4902
g49
(g70
g51
NtRp4903
(dp4904
g54
(dp4905
sg63
g4899
sg56
(lp4906
g49
(g50
g51
NtRp4907
(dp4908
g54
(dp4909
g62
I4
ssg63
g4903
sg56
(lp4910
S'^game/\\w+\\.py$'
p4911
asbasbasbag49
(g65
g51
NtRp4912
(dp4913
g54
(dp4914
sg63
g4882
sg56
(lp4915
g49
(g70
g51
NtRp4916
(dp4917
g54
(dp4918
sg63
g4912
sg56
(lp4919
g49
(g50
g51
NtRp4920
(dp4921
g54
(dp4922
g62
I4
ssg63
g4916
sg56
(lp4923
S'^game/show/\\w+\\.py$'
p4924
asbasbasbasbasbasbasbag49
(g65
g51
NtRp4925
(dp4926
g54
(dp4927
sg63
g3615
sg56
(lp4928
g49
(g70
g51
NtRp4929
(dp4930
g54
(dp4931
g74
g75
ssg63
g4925
sg56
(lp4932
S'postprocessing'
p4933
asbag49
(g70
g51
NtRp4934
(dp4935
g54
(dp4936
g81
g82
ssg63
g4925
sg56
(lp4937
S':'
asbag49
(g70
g51
NtRp4938
(dp4939
g54
(dp4940
sg63
g4925
sg56
(lp4941
g49
(g50
g51
NtRp4942
(dp4943
g54
(dp4944
g62
I5
ssg63
g4938
sg56
(lp4945
g49
(g58
g51
NtRp4946
(dp4947
g54
(dp4948
g62
I4
ssg63
Nsg56
(lp4949
sbasbasbasbag49
(g65
g51
NtRp4950
(dp4951
g54
(dp4952
sg63
g3615
sg56
(lp4953
g49
(g70
g51
NtRp4954
(dp4955
g54
(dp4956
g74
g75
ssg63
g4950
sg56
(lp4957
S'session_cookie_expires'
p4958
asbag49
(g70
g51
NtRp4959
(dp4960
g54
(dp4961
g81
g82
ssg63
g4950
sg56
(lp4962
S':'
asbag49
(g70
g51
NtRp4963
(dp4964
g54
(dp4965
sg63
g4950
sg56
(lp4966
g49
(g50
g51
NtRp4967
(dp4968
g54
(dp4969
g62
I5
ssg63
g4963
sg56
(lp4970
S'None'
p4971
asbasbasbag49
(g65
g51
NtRp4972
(dp4973
g54
(dp4974
sg63
g3615
sg56
(lp4975
g49
(g70
g51
NtRp4976
(dp4977
g54
(dp4978
g74
g75
ssg63
g4972
sg56
(lp4979
S'session_data_name'
p4980
asbag49
(g70
g51
NtRp4981
(dp4982
g54
(dp4983
g81
g82
ssg63
g4972
sg56
(lp4984
S':'
asbag49
(g70
g51
NtRp4985
(dp4986
g54
(dp4987
sg63
g4972
sg56
(lp4988
g49
(g50
g51
NtRp4989
(dp4990
g54
(dp4991
g62
I5
ssg63
g4985
sg56
(lp4992
S'session_data_hellow'
p4993
asbasbasbag49
(g65
g51
NtRp4994
(dp4995
g54
(dp4996
sg63
g3615
sg56
(lp4997
g49
(g70
g51
NtRp4998
(dp4999
g54
(dp5000
g74
g75
ssg63
g4994
sg56
(lp5001
S'session_file'
p5002
asbag49
(g70
g51
NtRp5003
(dp5004
g54
(dp5005
g81
g82
ssg63
g4994
sg56
(lp5006
S':'
asbag49
(g70
g51
NtRp5007
(dp5008
g54
(dp5009
sg63
g4994
sg56
(lp5010
g49
(g50
g51
NtRp5011
(dp5012
g54
(dp5013
g62
I5
ssg63
g5007
sg56
(lp5014
S"<open file '/Users/zamechek/Downloads/web2py/web2py.app/Contents/Resources/applications/hellow/sessions/127.0.0.1-f0c125e4-5d5e-4805-8c10-bdfc66367729', mode 'rb+' at 0xa0f5458>"
p5015
asbasbasbag49
(g65
g51
NtRp5016
(dp5017
g54
(dp5018
sg63
g3615
sg56
(lp5019
g49
(g70
g51
NtRp5020
(dp5021
g54
(dp5022
g74
g75
ssg63
g5016
sg56
(lp5023
S'session_filename'
p5024
asbag49
(g70
g51
NtRp5025
(dp5026
g54
(dp5027
g81
g82
ssg63
g5016
sg56
(lp5028
S':'
asbag49
(g70
g51
NtRp5029
(dp5030
g54
(dp5031
sg63
g5016
sg56
(lp5032
g49
(g50
g51
NtRp5033
(dp5034
g54
(dp5035
g62
I5
ssg63
g5029
sg56
(lp5036
S'/Users/zamechek/Downloads/web2py/web2py.app/Contents/Resources/applications/hellow/sessions/127.0.0.1-f0c125e4-5d5e-4805-8c10-bdfc66367729'
p5037
asbasbasbag49
(g65
g51
NtRp5038
(dp5039
g54
(dp5040
sg63
g3615
sg56
(lp5041
g49
(g70
g51
NtRp5042
(dp5043
g54
(dp5044
g74
g75
ssg63
g5038
sg56
(lp5045
S'session_id'
p5046
asbag49
(g70
g51
NtRp5047
(dp5048
g54
(dp5049
g81
g82
ssg63
g5038
sg56
(lp5050
S':'
asbag49
(g70
g51
NtRp5051
(dp5052
g54
(dp5053
sg63
g5038
sg56
(lp5054
g49
(g50
g51
NtRp5055
(dp5056
g54
(dp5057
g62
I5
ssg63
g5051
sg56
(lp5058
g612
asbasbasbag49
(g65
g51
NtRp5059
(dp5060
g54
(dp5061
sg63
g3615
sg56
(lp5062
g49
(g70
g51
NtRp5063
(dp5064
g54
(dp5065
g74
g75
ssg63
g5059
sg56
(lp5066
S'session_id_name'
p5067
asbag49
(g70
g51
NtRp5068
(dp5069
g54
(dp5070
g81
g82
ssg63
g5059
sg56
(lp5071
S':'
asbag49
(g70
g51
NtRp5072
(dp5073
g54
(dp5074
sg63
g5059
sg56
(lp5075
g49
(g50
g51
NtRp5076
(dp5077
g54
(dp5078
g62
I5
ssg63
g5072
sg56
(lp5079
g3672
asbasbasbag49
(g65
g51
NtRp5080
(dp5081
g54
(dp5082
sg63
g3615
sg56
(lp5083
g49
(g70
g51
NtRp5084
(dp5085
g54
(dp5086
g74
g75
ssg63
g5080
sg56
(lp5087
S'session_locked'
p5088
asbag49
(g70
g51
NtRp5089
(dp5090
g54
(dp5091
g81
g82
ssg63
g5080
sg56
(lp5092
S':'
asbag49
(g70
g51
NtRp5093
(dp5094
g54
(dp5095
sg63
g5080
sg56
(lp5096
g49
(g50
g51
NtRp5097
(dp5098
g54
(dp5099
g62
I5
ssg63
g5093
sg56
(lp5100
g1248
asbasbasbag49
(g65
g51
NtRp5101
(dp5102
g54
(dp5103
sg63
g3615
sg56
(lp5104
g49
(g70
g51
NtRp5105
(dp5106
g54
(dp5107
g74
g75
ssg63
g5101
sg56
(lp5108
S'session_new'
p5109
asbag49
(g70
g51
NtRp5110
(dp5111
g54
(dp5112
g81
g82
ssg63
g5101
sg56
(lp5113
S':'
asbag49
(g70
g51
NtRp5114
(dp5115
g54
(dp5116
sg63
g5101
sg56
(lp5117
g49
(g50
g51
NtRp5118
(dp5119
g54
(dp5120
g62
I5
ssg63
g5114
sg56
(lp5121
g92
asbasbasbag49
(g65
g51
NtRp5122
(dp5123
g54
(dp5124
sg63
g3615
sg56
(lp5125
g49
(g70
g51
NtRp5126
(dp5127
g54
(dp5128
g74
g75
ssg63
g5122
sg56
(lp5129
S'session_storage_type'
p5130
asbag49
(g70
g51
NtRp5131
(dp5132
g54
(dp5133
g81
g82
ssg63
g5122
sg56
(lp5134
S':'
asbag49
(g70
g51
NtRp5135
(dp5136
g54
(dp5137
sg63
g5122
sg56
(lp5138
g49
(g50
g51
NtRp5139
(dp5140
g54
(dp5141
g62
I5
ssg63
g5135
sg56
(lp5142
g3506
asbasbasbag49
(g65
g51
NtRp5143
(dp5144
g54
(dp5145
sg63
g3615
sg56
(lp5146
g49
(g70
g51
NtRp5147
(dp5148
g54
(dp5149
g74
g75
ssg63
g5143
sg56
(lp5150
S'status'
p5151
asbag49
(g70
g51
NtRp5152
(dp5153
g54
(dp5154
g81
g82
ssg63
g5143
sg56
(lp5155
S':'
asbag49
(g70
g51
NtRp5156
(dp5157
g54
(dp5158
sg63
g5143
sg56
(lp5159
g49
(g50
g51
NtRp5160
(dp5161
g54
(dp5162
g62
I5
ssg63
g5156
sg56
(lp5163
S'200'
p5164
asbasbasbag49
(g65
g51
NtRp5165
(dp5166
g54
(dp5167
sg63
g3615
sg56
(lp5168
g49
(g70
g51
NtRp5169
(dp5170
g54
(dp5171
g74
g75
ssg63
g5165
sg56
(lp5172
S'subtitle'
p5173
asbag49
(g70
g51
NtRp5174
(dp5175
g54
(dp5176
g81
g82
ssg63
g5165
sg56
(lp5177
S':'
asbag49
(g70
g51
NtRp5178
(dp5179
g54
(dp5180
sg63
g5165
sg56
(lp5181
g49
(g50
g51
NtRp5182
(dp5183
g54
(dp5184
g62
I5
ssg63
g5178
sg56
(lp5185
g4129
(S's\r\x00\x00\x00customize me!'
tRp5186
asbasbasbag49
(g65
g51
NtRp5187
(dp5188
g54
(dp5189
sg63
g3615
sg56
(lp5190
g49
(g70
g51
NtRp5191
(dp5192
g54
(dp5193
g74
g75
ssg63
g5187
sg56
(lp5194
S'title'
p5195
asbag49
(g70
g51
NtRp5196
(dp5197
g54
(dp5198
g81
g82
ssg63
g5187
sg56
(lp5199
S':'
asbag49
(g70
g51
NtRp5200
(dp5201
g54
(dp5202
sg63
g5187
sg56
(lp5203
g49
(g50
g51
NtRp5204
(dp5205
g54
(dp5206
g62
I5
ssg63
g5200
sg56
(lp5207
S'Hellow'
p5208
asbasbasbag49
(g65
g51
NtRp5209
(dp5210
g54
(dp5211
sg63
g3615
sg56
(lp5212
g49
(g70
g51
NtRp5213
(dp5214
g54
(dp5215
g74
g75
ssg63
g5209
sg56
(lp5216
S'view'
p5217
asbag49
(g70
g51
NtRp5218
(dp5219
g54
(dp5220
g81
g82
ssg63
g5209
sg56
(lp5221
S':'
asbag49
(g70
g51
NtRp5222
(dp5223
g54
(dp5224
sg63
g5209
sg56
(lp5225
g49
(g50
g51
NtRp5226
(dp5227
g54
(dp5228
g62
I5
ssg63
g5222
sg56
(lp5229
S'game/show.html'
p5230
asbasbasbasbasbsS'locals'
p5231
(dp5232
ssS'traceback'
p5233
S'Traceback (most recent call last):\n  File "/home/mdipierro/web2py/gluon/restricted.py", line 212, in restricted\n  File "/Users/zamechek/Downloads/web2py/web2py.app/Contents/Resources/applications/hellow/controllers/game.py", line 11, in <module>\n  File "/home/mdipierro/web2py/gluon/globals.py", line 193, in <lambda>\n  File "/Users/zamechek/Downloads/web2py/web2py.app/Contents/Resources/applications/hellow/controllers/game.py", line 4, in show\nIndexError: list index out of range\n'
p5234
s.