(dp1
S'output'
p2
S"<type 'exceptions.TypeError'> __init__() got an unexpected keyword argument 'ids'"
p3
sS'layer'
p4
S'/Users/zamechek/Downloads/web2py/web2py.app/Contents/Resources/applications/hellow/controllers/game.py'
p5
sS'code'
p6
S'# coding: utf8\n# try something like\n\ndef show():\n    id = request.args[0]\n    game = db.game(id)\n    auth_user = (game.auth_user)\n    \n    query=((db.game.id==db.game_slots.game)&(db.slot.id==db.game_slots.slot))\n    #game_and_slots=(db.game.id==db.game_slots.game)&(db.slot.id==db.game_slots.slot)\n    rows = db(query).select(db.slot.id, db.slot.odds)\n    #form = display_form(rows)\n    \n    otherForm = form_from_factory(rows, game)\n    return dict(name=auth_user.first_name.capitalize() + " " + auth_user.last_name.capitalize(), balance = game.balance, slots = rows, gameid = id, otherForm=otherForm)\n    \ndef form_from_factory(rows , game):\n       \n    otherForm = SQLFORM.factory(\n        Field(\'bet\', requires=IS_NOT_EMPTY()),\n        Field(\'slot\', requires=IS_IN_SET(rows, labels=makePrettyLables(rows), ids=[0,1,2])))\n    if otherForm.process().accepted:\n        bet = int(otherForm.vars.bet)\n        currentBalance =  int(game.balance)\n        remainingBalance = currentBalance - bet\n        game.update_record(balance=str(remainingBalance))\n        game.auth_user.update_record(first_name = "alt")\n        response.flash = \'form accepted\'\n\n    elif otherForm.errors:\n        response.flash = \'form has errors\'\n    return otherForm\n\ndef makePrettyLables(rows):\n        arr = []\n        for i in range(0, len(rows)):\n            arr.append("Slot " + str(i+1) + " - " + str(rows[i].odds))\n        return arr\n\nresponse._vars=response._caller(show)\n'
p7
sS'snapshot'
p8
(dp9
S'exception'
p10
(dp11
S'__hash__'
p12
S"<method-wrapper '__hash__' of exceptions.TypeError object at 0x80bad50>"
p13
sS'__setattr__'
p14
S"<method-wrapper '__setattr__' of exceptions.TypeError object at 0x80bad50>"
p15
sS'__reduce_ex__'
p16
S'<built-in method __reduce_ex__ of exceptions.TypeError object at 0x80bad50>'
p17
sS'__getslice__'
p18
S"<method-wrapper '__getslice__' of exceptions.TypeError object at 0x80bad50>"
p19
sS'__getitem__'
p20
S"<method-wrapper '__getitem__' of exceptions.TypeError object at 0x80bad50>"
p21
sS'__setstate__'
p22
S'<built-in method __setstate__ of exceptions.TypeError object at 0x80bad50>'
p23
sS'__reduce__'
p24
S'<built-in method __reduce__ of exceptions.TypeError object at 0x80bad50>'
p25
sS'__str__'
p26
S"<method-wrapper '__str__' of exceptions.TypeError object at 0x80bad50>"
p27
sS'args'
p28
S'("__init__() got an unexpected keyword argument \'ids\'",)'
p29
sS'__getattribute__'
p30
S"<method-wrapper '__getattribute__' of exceptions.TypeError object at 0x80bad50>"
p31
sS'__class__'
p32
S"<type 'exceptions.TypeError'>"
p33
sS'__delattr__'
p34
S"<method-wrapper '__delattr__' of exceptions.TypeError object at 0x80bad50>"
p35
sS'__repr__'
p36
S"<method-wrapper '__repr__' of exceptions.TypeError object at 0x80bad50>"
p37
sS'__dict__'
p38
S'{}'
p39
sS'__doc__'
p40
S"'Inappropriate argument type.'"
p41
sS'__init__'
p42
S"<method-wrapper '__init__' of exceptions.TypeError object at 0x80bad50>"
p43
sS'__new__'
p44
S'<built-in method __new__ of type object at 0x5fa140>'
p45
ssS'evalue'
p46
S"__init__() got an unexpected keyword argument 'ids'"
p47
sS'request'
p48
ccopy_reg
_reconstructor
p49
(cgluon.html
BEAUTIFY
p50
c__builtin__
object
p51
NtRp52
(dp53
S'attributes'
p54
(dp55
sS'components'
p56
(lp57
g49
(cgluon.html
TABLE
p58
g51
NtRp59
(dp60
g54
(dp61
S'level'
p62
I5
ssS'parent'
p63
Nsg56
(lp64
g49
(cgluon.html
TR
p65
g51
NtRp66
(dp67
g54
(dp68
sg63
g59
sg56
(lp69
g49
(cgluon.html
TD
p70
g51
NtRp71
(dp72
g54
(dp73
S'_style'
p74
S'font-weight:bold;vertical-align:top'
p75
ssg63
g66
sg56
(lp76
S'ajax'
p77
asbag49
(g70
g51
NtRp78
(dp79
g54
(dp80
S'_valign'
p81
S'top'
p82
ssg63
g66
sg56
(lp83
S':'
asbag49
(g70
g51
NtRp84
(dp85
g54
(dp86
sg63
g66
sg56
(lp87
g49
(g50
g51
NtRp88
(dp89
g54
(dp90
g62
I5
ssg63
g84
sg56
(lp91
S'False'
p92
asbasbasbag49
(g65
g51
NtRp93
(dp94
g54
(dp95
sg63
g59
sg56
(lp96
g49
(g70
g51
NtRp97
(dp98
g54
(dp99
g74
g75
ssg63
g93
sg56
(lp100
S'application'
p101
asbag49
(g70
g51
NtRp102
(dp103
g54
(dp104
g81
g82
ssg63
g93
sg56
(lp105
S':'
asbag49
(g70
g51
NtRp106
(dp107
g54
(dp108
sg63
g93
sg56
(lp109
g49
(g50
g51
NtRp110
(dp111
g54
(dp112
g62
I5
ssg63
g106
sg56
(lp113
S'hellow'
p114
asbasbasbag49
(g65
g51
NtRp115
(dp116
g54
(dp117
sg63
g59
sg56
(lp118
g49
(g70
g51
NtRp119
(dp120
g54
(dp121
g74
g75
ssg63
g115
sg56
(lp122
g28
asbag49
(g70
g51
NtRp123
(dp124
g54
(dp125
g81
g82
ssg63
g115
sg56
(lp126
S':'
asbag49
(g70
g51
NtRp127
(dp128
g54
(dp129
sg63
g115
sg56
(lp130
g49
(g50
g51
NtRp131
(dp132
g54
(dp133
g62
I5
ssg63
g127
sg56
(lp134
g49
(g58
g51
NtRp135
(dp136
g54
(dp137
g62
I4
ssg63
Nsg56
(lp138
g49
(g65
g51
NtRp139
(dp140
g54
(dp141
sg63
g135
sg56
(lp142
g49
(g70
g51
NtRp143
(dp144
g54
(dp145
sg63
g139
sg56
(lp146
g49
(g50
g51
NtRp147
(dp148
g54
(dp149
g62
I4
ssg63
g143
sg56
(lp150
S'1'
asbasbasbasbasbasbasbag49
(g65
g51
NtRp151
(dp152
g54
(dp153
sg63
g59
sg56
(lp154
g49
(g70
g51
NtRp155
(dp156
g54
(dp157
g74
g75
ssg63
g151
sg56
(lp158
S'body'
p159
asbag49
(g70
g51
NtRp160
(dp161
g54
(dp162
g81
g82
ssg63
g151
sg56
(lp163
S':'
asbag49
(g70
g51
NtRp164
(dp165
g54
(dp166
sg63
g151
sg56
(lp167
g49
(g50
g51
NtRp168
(dp169
g54
(dp170
g62
I5
ssg63
g164
sg56
(lp171
S'<cStringIO.StringO object at 0x6db43c0>'
p172
asbasbasbag49
(g65
g51
NtRp173
(dp174
g54
(dp175
sg63
g59
sg56
(lp176
g49
(g70
g51
NtRp177
(dp178
g54
(dp179
g74
g75
ssg63
g173
sg56
(lp180
S'cid'
p181
asbag49
(g70
g51
NtRp182
(dp183
g54
(dp184
g81
g82
ssg63
g173
sg56
(lp185
S':'
asbag49
(g70
g51
NtRp186
(dp187
g54
(dp188
sg63
g173
sg56
(lp189
g49
(g50
g51
NtRp190
(dp191
g54
(dp192
g62
I5
ssg63
g186
sg56
(lp193
S'None'
p194
asbasbasbag49
(g65
g51
NtRp195
(dp196
g54
(dp197
sg63
g59
sg56
(lp198
g49
(g70
g51
NtRp199
(dp200
g54
(dp201
g74
g75
ssg63
g195
sg56
(lp202
S'client'
p203
asbag49
(g70
g51
NtRp204
(dp205
g54
(dp206
g81
g82
ssg63
g195
sg56
(lp207
S':'
asbag49
(g70
g51
NtRp208
(dp209
g54
(dp210
sg63
g195
sg56
(lp211
g49
(g50
g51
NtRp212
(dp213
g54
(dp214
g62
I5
ssg63
g208
sg56
(lp215
S'127.0.0.1'
p216
asbasbasbag49
(g65
g51
NtRp217
(dp218
g54
(dp219
sg63
g59
sg56
(lp220
g49
(g70
g51
NtRp221
(dp222
g54
(dp223
g74
g75
ssg63
g217
sg56
(lp224
S'controller'
p225
asbag49
(g70
g51
NtRp226
(dp227
g54
(dp228
g81
g82
ssg63
g217
sg56
(lp229
S':'
asbag49
(g70
g51
NtRp230
(dp231
g54
(dp232
sg63
g217
sg56
(lp233
g49
(g50
g51
NtRp234
(dp235
g54
(dp236
g62
I5
ssg63
g230
sg56
(lp237
S'game'
p238
asbasbasbag49
(g65
g51
NtRp239
(dp240
g54
(dp241
sg63
g59
sg56
(lp242
g49
(g70
g51
NtRp243
(dp244
g54
(dp245
g74
g75
ssg63
g239
sg56
(lp246
S'cookies'
p247
asbag49
(g70
g51
NtRp248
(dp249
g54
(dp250
g81
g82
ssg63
g239
sg56
(lp251
S':'
asbag49
(g70
g51
NtRp252
(dp253
g54
(dp254
sg63
g239
sg56
(lp255
g49
(g50
g51
NtRp256
(dp257
g54
(dp258
g62
I5
ssg63
g252
sg56
(lp259
g49
(g58
g51
NtRp260
(dp261
g54
(dp262
g62
I4
ssg63
Nsg56
(lp263
g49
(g65
g51
NtRp264
(dp265
g54
(dp266
sg63
g260
sg56
(lp267
g49
(g70
g51
NtRp268
(dp269
g54
(dp270
g74
g75
ssg63
g264
sg56
(lp271
S'session_id_admin'
p272
asbag49
(g70
g51
NtRp273
(dp274
g54
(dp275
g81
g82
ssg63
g264
sg56
(lp276
S':'
asbag49
(g70
g51
NtRp277
(dp278
g54
(dp279
sg63
g264
sg56
(lp280
g49
(g50
g51
NtRp281
(dp282
g54
(dp283
g62
I4
ssg63
g277
sg56
(lp284
S'127.0.0.1-bf448199-cadc-41e3-b1a7-bed302e89a3e'
p285
ag49
(g58
g51
NtRp286
(dp287
g54
(dp288
g62
I3
ssg63
Nsg56
(lp289
g49
(g65
g51
NtRp290
(dp291
g54
(dp292
sg63
g286
sg56
(lp293
g49
(g70
g51
NtRp294
(dp295
g54
(dp296
g74
g75
ssg63
g290
sg56
(lp297
S'comment'
p298
asbag49
(g70
g51
NtRp299
(dp300
g54
(dp301
g81
g82
ssg63
g290
sg56
(lp302
S':'
asbag49
(g70
g51
NtRp303
(dp304
g54
(dp305
sg63
g290
sg56
(lp306
g49
(g50
g51
NtRp307
(dp308
g54
(dp309
g62
I3
ssg63
g303
sg56
(lp310
S''
asbasbasbag49
(g65
g51
NtRp311
(dp312
g54
(dp313
sg63
g286
sg56
(lp314
g49
(g70
g51
NtRp315
(dp316
g54
(dp317
g74
g75
ssg63
g311
sg56
(lp318
S'domain'
p319
asbag49
(g70
g51
NtRp320
(dp321
g54
(dp322
g81
g82
ssg63
g311
sg56
(lp323
S':'
asbag49
(g70
g51
NtRp324
(dp325
g54
(dp326
sg63
g311
sg56
(lp327
g49
(g50
g51
NtRp328
(dp329
g54
(dp330
g62
I3
ssg63
g324
sg56
(lp331
S''
asbasbasbag49
(g65
g51
NtRp332
(dp333
g54
(dp334
sg63
g286
sg56
(lp335
g49
(g70
g51
NtRp336
(dp337
g54
(dp338
g74
g75
ssg63
g332
sg56
(lp339
S'expires'
p340
asbag49
(g70
g51
NtRp341
(dp342
g54
(dp343
g81
g82
ssg63
g332
sg56
(lp344
S':'
asbag49
(g70
g51
NtRp345
(dp346
g54
(dp347
sg63
g332
sg56
(lp348
g49
(g50
g51
NtRp349
(dp350
g54
(dp351
g62
I3
ssg63
g345
sg56
(lp352
S''
asbasbasbag49
(g65
g51
NtRp353
(dp354
g54
(dp355
sg63
g286
sg56
(lp356
g49
(g70
g51
NtRp357
(dp358
g54
(dp359
g74
g75
ssg63
g353
sg56
(lp360
S'max-age'
p361
asbag49
(g70
g51
NtRp362
(dp363
g54
(dp364
g81
g82
ssg63
g353
sg56
(lp365
S':'
asbag49
(g70
g51
NtRp366
(dp367
g54
(dp368
sg63
g353
sg56
(lp369
g49
(g50
g51
NtRp370
(dp371
g54
(dp372
g62
I3
ssg63
g366
sg56
(lp373
S''
asbasbasbag49
(g65
g51
NtRp374
(dp375
g54
(dp376
sg63
g286
sg56
(lp377
g49
(g70
g51
NtRp378
(dp379
g54
(dp380
g74
g75
ssg63
g374
sg56
(lp381
S'path'
p382
asbag49
(g70
g51
NtRp383
(dp384
g54
(dp385
g81
g82
ssg63
g374
sg56
(lp386
S':'
asbag49
(g70
g51
NtRp387
(dp388
g54
(dp389
sg63
g374
sg56
(lp390
g49
(g50
g51
NtRp391
(dp392
g54
(dp393
g62
I3
ssg63
g387
sg56
(lp394
S''
asbasbasbag49
(g65
g51
NtRp395
(dp396
g54
(dp397
sg63
g286
sg56
(lp398
g49
(g70
g51
NtRp399
(dp400
g54
(dp401
g74
g75
ssg63
g395
sg56
(lp402
S'secure'
p403
asbag49
(g70
g51
NtRp404
(dp405
g54
(dp406
g81
g82
ssg63
g395
sg56
(lp407
S':'
asbag49
(g70
g51
NtRp408
(dp409
g54
(dp410
sg63
g395
sg56
(lp411
g49
(g50
g51
NtRp412
(dp413
g54
(dp414
g62
I3
ssg63
g408
sg56
(lp415
S''
asbasbasbag49
(g65
g51
NtRp416
(dp417
g54
(dp418
sg63
g286
sg56
(lp419
g49
(g70
g51
NtRp420
(dp421
g54
(dp422
g74
g75
ssg63
g416
sg56
(lp423
S'version'
p424
asbag49
(g70
g51
NtRp425
(dp426
g54
(dp427
g81
g82
ssg63
g416
sg56
(lp428
S':'
asbag49
(g70
g51
NtRp429
(dp430
g54
(dp431
sg63
g416
sg56
(lp432
g49
(g50
g51
NtRp433
(dp434
g54
(dp435
g62
I3
ssg63
g429
sg56
(lp436
S''
asbasbasbasbasbasbasbag49
(g65
g51
NtRp437
(dp438
g54
(dp439
sg63
g260
sg56
(lp440
g49
(g70
g51
NtRp441
(dp442
g54
(dp443
g74
g75
ssg63
g437
sg56
(lp444
S'session_id_hellow'
p445
asbag49
(g70
g51
NtRp446
(dp447
g54
(dp448
g81
g82
ssg63
g437
sg56
(lp449
S':'
asbag49
(g70
g51
NtRp450
(dp451
g54
(dp452
sg63
g437
sg56
(lp453
g49
(g50
g51
NtRp454
(dp455
g54
(dp456
g62
I4
ssg63
g450
sg56
(lp457
S'127.0.0.1-bbea59f2-333e-4593-a45c-2c44a5133d77'
p458
ag49
(g58
g51
NtRp459
(dp460
g54
(dp461
g62
I3
ssg63
Nsg56
(lp462
g49
(g65
g51
NtRp463
(dp464
g54
(dp465
sg63
g459
sg56
(lp466
g49
(g70
g51
NtRp467
(dp468
g54
(dp469
g74
g75
ssg63
g463
sg56
(lp470
g298
asbag49
(g70
g51
NtRp471
(dp472
g54
(dp473
g81
g82
ssg63
g463
sg56
(lp474
S':'
asbag49
(g70
g51
NtRp475
(dp476
g54
(dp477
sg63
g463
sg56
(lp478
g49
(g50
g51
NtRp479
(dp480
g54
(dp481
g62
I3
ssg63
g475
sg56
(lp482
S''
asbasbasbag49
(g65
g51
NtRp483
(dp484
g54
(dp485
sg63
g459
sg56
(lp486
g49
(g70
g51
NtRp487
(dp488
g54
(dp489
g74
g75
ssg63
g483
sg56
(lp490
g319
asbag49
(g70
g51
NtRp491
(dp492
g54
(dp493
g81
g82
ssg63
g483
sg56
(lp494
S':'
asbag49
(g70
g51
NtRp495
(dp496
g54
(dp497
sg63
g483
sg56
(lp498
g49
(g50
g51
NtRp499
(dp500
g54
(dp501
g62
I3
ssg63
g495
sg56
(lp502
S''
asbasbasbag49
(g65
g51
NtRp503
(dp504
g54
(dp505
sg63
g459
sg56
(lp506
g49
(g70
g51
NtRp507
(dp508
g54
(dp509
g74
g75
ssg63
g503
sg56
(lp510
g340
asbag49
(g70
g51
NtRp511
(dp512
g54
(dp513
g81
g82
ssg63
g503
sg56
(lp514
S':'
asbag49
(g70
g51
NtRp515
(dp516
g54
(dp517
sg63
g503
sg56
(lp518
g49
(g50
g51
NtRp519
(dp520
g54
(dp521
g62
I3
ssg63
g515
sg56
(lp522
S''
asbasbasbag49
(g65
g51
NtRp523
(dp524
g54
(dp525
sg63
g459
sg56
(lp526
g49
(g70
g51
NtRp527
(dp528
g54
(dp529
g74
g75
ssg63
g523
sg56
(lp530
g361
asbag49
(g70
g51
NtRp531
(dp532
g54
(dp533
g81
g82
ssg63
g523
sg56
(lp534
S':'
asbag49
(g70
g51
NtRp535
(dp536
g54
(dp537
sg63
g523
sg56
(lp538
g49
(g50
g51
NtRp539
(dp540
g54
(dp541
g62
I3
ssg63
g535
sg56
(lp542
S''
asbasbasbag49
(g65
g51
NtRp543
(dp544
g54
(dp545
sg63
g459
sg56
(lp546
g49
(g70
g51
NtRp547
(dp548
g54
(dp549
g74
g75
ssg63
g543
sg56
(lp550
g382
asbag49
(g70
g51
NtRp551
(dp552
g54
(dp553
g81
g82
ssg63
g543
sg56
(lp554
S':'
asbag49
(g70
g51
NtRp555
(dp556
g54
(dp557
sg63
g543
sg56
(lp558
g49
(g50
g51
NtRp559
(dp560
g54
(dp561
g62
I3
ssg63
g555
sg56
(lp562
S''
asbasbasbag49
(g65
g51
NtRp563
(dp564
g54
(dp565
sg63
g459
sg56
(lp566
g49
(g70
g51
NtRp567
(dp568
g54
(dp569
g74
g75
ssg63
g563
sg56
(lp570
g403
asbag49
(g70
g51
NtRp571
(dp572
g54
(dp573
g81
g82
ssg63
g563
sg56
(lp574
S':'
asbag49
(g70
g51
NtRp575
(dp576
g54
(dp577
sg63
g563
sg56
(lp578
g49
(g50
g51
NtRp579
(dp580
g54
(dp581
g62
I3
ssg63
g575
sg56
(lp582
S''
asbasbasbag49
(g65
g51
NtRp583
(dp584
g54
(dp585
sg63
g459
sg56
(lp586
g49
(g70
g51
NtRp587
(dp588
g54
(dp589
g74
g75
ssg63
g583
sg56
(lp590
g424
asbag49
(g70
g51
NtRp591
(dp592
g54
(dp593
g81
g82
ssg63
g583
sg56
(lp594
S':'
asbag49
(g70
g51
NtRp595
(dp596
g54
(dp597
sg63
g583
sg56
(lp598
g49
(g50
g51
NtRp599
(dp600
g54
(dp601
g62
I3
ssg63
g595
sg56
(lp602
S''
asbasbasbasbasbasbasbag49
(g65
g51
NtRp603
(dp604
g54
(dp605
sg63
g260
sg56
(lp606
g49
(g70
g51
NtRp607
(dp608
g54
(dp609
g74
g75
ssg63
g603
sg56
(lp610
S'session_id_welcome'
p611
asbag49
(g70
g51
NtRp612
(dp613
g54
(dp614
g81
g82
ssg63
g603
sg56
(lp615
S':'
asbag49
(g70
g51
NtRp616
(dp617
g54
(dp618
sg63
g603
sg56
(lp619
g49
(g50
g51
NtRp620
(dp621
g54
(dp622
g62
I4
ssg63
g616
sg56
(lp623
S'127.0.0.1-dfebfa33-25aa-4072-bce4-08f7e89e2d04'
p624
ag49
(g58
g51
NtRp625
(dp626
g54
(dp627
g62
I3
ssg63
Nsg56
(lp628
g49
(g65
g51
NtRp629
(dp630
g54
(dp631
sg63
g625
sg56
(lp632
g49
(g70
g51
NtRp633
(dp634
g54
(dp635
g74
g75
ssg63
g629
sg56
(lp636
g298
asbag49
(g70
g51
NtRp637
(dp638
g54
(dp639
g81
g82
ssg63
g629
sg56
(lp640
S':'
asbag49
(g70
g51
NtRp641
(dp642
g54
(dp643
sg63
g629
sg56
(lp644
g49
(g50
g51
NtRp645
(dp646
g54
(dp647
g62
I3
ssg63
g641
sg56
(lp648
S''
asbasbasbag49
(g65
g51
NtRp649
(dp650
g54
(dp651
sg63
g625
sg56
(lp652
g49
(g70
g51
NtRp653
(dp654
g54
(dp655
g74
g75
ssg63
g649
sg56
(lp656
g319
asbag49
(g70
g51
NtRp657
(dp658
g54
(dp659
g81
g82
ssg63
g649
sg56
(lp660
S':'
asbag49
(g70
g51
NtRp661
(dp662
g54
(dp663
sg63
g649
sg56
(lp664
g49
(g50
g51
NtRp665
(dp666
g54
(dp667
g62
I3
ssg63
g661
sg56
(lp668
S''
asbasbasbag49
(g65
g51
NtRp669
(dp670
g54
(dp671
sg63
g625
sg56
(lp672
g49
(g70
g51
NtRp673
(dp674
g54
(dp675
g74
g75
ssg63
g669
sg56
(lp676
g340
asbag49
(g70
g51
NtRp677
(dp678
g54
(dp679
g81
g82
ssg63
g669
sg56
(lp680
S':'
asbag49
(g70
g51
NtRp681
(dp682
g54
(dp683
sg63
g669
sg56
(lp684
g49
(g50
g51
NtRp685
(dp686
g54
(dp687
g62
I3
ssg63
g681
sg56
(lp688
S''
asbasbasbag49
(g65
g51
NtRp689
(dp690
g54
(dp691
sg63
g625
sg56
(lp692
g49
(g70
g51
NtRp693
(dp694
g54
(dp695
g74
g75
ssg63
g689
sg56
(lp696
g361
asbag49
(g70
g51
NtRp697
(dp698
g54
(dp699
g81
g82
ssg63
g689
sg56
(lp700
S':'
asbag49
(g70
g51
NtRp701
(dp702
g54
(dp703
sg63
g689
sg56
(lp704
g49
(g50
g51
NtRp705
(dp706
g54
(dp707
g62
I3
ssg63
g701
sg56
(lp708
S''
asbasbasbag49
(g65
g51
NtRp709
(dp710
g54
(dp711
sg63
g625
sg56
(lp712
g49
(g70
g51
NtRp713
(dp714
g54
(dp715
g74
g75
ssg63
g709
sg56
(lp716
g382
asbag49
(g70
g51
NtRp717
(dp718
g54
(dp719
g81
g82
ssg63
g709
sg56
(lp720
S':'
asbag49
(g70
g51
NtRp721
(dp722
g54
(dp723
sg63
g709
sg56
(lp724
g49
(g50
g51
NtRp725
(dp726
g54
(dp727
g62
I3
ssg63
g721
sg56
(lp728
S''
asbasbasbag49
(g65
g51
NtRp729
(dp730
g54
(dp731
sg63
g625
sg56
(lp732
g49
(g70
g51
NtRp733
(dp734
g54
(dp735
g74
g75
ssg63
g729
sg56
(lp736
g403
asbag49
(g70
g51
NtRp737
(dp738
g54
(dp739
g81
g82
ssg63
g729
sg56
(lp740
S':'
asbag49
(g70
g51
NtRp741
(dp742
g54
(dp743
sg63
g729
sg56
(lp744
g49
(g50
g51
NtRp745
(dp746
g54
(dp747
g62
I3
ssg63
g741
sg56
(lp748
S''
asbasbasbag49
(g65
g51
NtRp749
(dp750
g54
(dp751
sg63
g625
sg56
(lp752
g49
(g70
g51
NtRp753
(dp754
g54
(dp755
g74
g75
ssg63
g749
sg56
(lp756
g424
asbag49
(g70
g51
NtRp757
(dp758
g54
(dp759
g81
g82
ssg63
g749
sg56
(lp760
S':'
asbag49
(g70
g51
NtRp761
(dp762
g54
(dp763
sg63
g749
sg56
(lp764
g49
(g50
g51
NtRp765
(dp766
g54
(dp767
g62
I3
ssg63
g761
sg56
(lp768
S''
asbasbasbasbasbasbasbasbasbasbasbag49
(g65
g51
NtRp769
(dp770
g54
(dp771
sg63
g59
sg56
(lp772
g49
(g70
g51
NtRp773
(dp774
g54
(dp775
g74
g75
ssg63
g769
sg56
(lp776
S'env'
p777
asbag49
(g70
g51
NtRp778
(dp779
g54
(dp780
g81
g82
ssg63
g769
sg56
(lp781
S':'
asbag49
(g70
g51
NtRp782
(dp783
g54
(dp784
sg63
g769
sg56
(lp785
g49
(g50
g51
NtRp786
(dp787
g54
(dp788
g62
I5
ssg63
g782
sg56
(lp789
g49
(g58
g51
NtRp790
(dp791
g54
(dp792
g62
I4
ssg63
Nsg56
(lp793
g49
(g65
g51
NtRp794
(dp795
g54
(dp796
sg63
g790
sg56
(lp797
g49
(g70
g51
NtRp798
(dp799
g54
(dp800
g74
g75
ssg63
g794
sg56
(lp801
S'app_folders'
p802
asbag49
(g70
g51
NtRp803
(dp804
g54
(dp805
g81
g82
ssg63
g794
sg56
(lp806
S':'
asbag49
(g70
g51
NtRp807
(dp808
g54
(dp809
sg63
g794
sg56
(lp810
g49
(g50
g51
NtRp811
(dp812
g54
(dp813
g62
I4
ssg63
g807
sg56
(lp814
S"set(['/Users/zamechek/Downloads/web2py/web2py.app/Contents/Resources/applications/hellow/', '/Users/zamechek/Downloads/web2py/web2py.app/Contents/Resources/applications/admin/', '/Users/zamechek/Downloads/web2py/web2py.app/Contents/Resources/applications/welcome/'])"
p815
asbasbasbag49
(g65
g51
NtRp816
(dp817
g54
(dp818
sg63
g790
sg56
(lp819
g49
(g70
g51
NtRp820
(dp821
g54
(dp822
g74
g75
ssg63
g816
sg56
(lp823
S'applications_parent'
p824
asbag49
(g70
g51
NtRp825
(dp826
g54
(dp827
g81
g82
ssg63
g816
sg56
(lp828
S':'
asbag49
(g70
g51
NtRp829
(dp830
g54
(dp831
sg63
g816
sg56
(lp832
g49
(g50
g51
NtRp833
(dp834
g54
(dp835
g62
I4
ssg63
g829
sg56
(lp836
S'/Users/zamechek/Downloads/web2py/web2py.app/Contents/Resources'
p837
asbasbasbag49
(g65
g51
NtRp838
(dp839
g54
(dp840
sg63
g790
sg56
(lp841
g49
(g70
g51
NtRp842
(dp843
g54
(dp844
g74
g75
ssg63
g838
sg56
(lp845
S'cmd_args'
p846
asbag49
(g70
g51
NtRp847
(dp848
g54
(dp849
g81
g82
ssg63
g838
sg56
(lp850
S':'
asbag49
(g70
g51
NtRp851
(dp852
g54
(dp853
sg63
g838
sg56
(lp854
g49
(g50
g51
NtRp855
(dp856
g54
(dp857
g62
I4
ssg63
g851
sg56
(lp858
g49
(g58
g51
NtRp859
(dp860
g54
(dp861
g62
I3
ssg63
Nsg56
(lp862
sbasbasbasbag49
(g65
g51
NtRp863
(dp864
g54
(dp865
sg63
g790
sg56
(lp866
g49
(g70
g51
NtRp867
(dp868
g54
(dp869
g74
g75
ssg63
g863
sg56
(lp870
S'cmd_options'
p871
asbag49
(g70
g51
NtRp872
(dp873
g54
(dp874
g81
g82
ssg63
g863
sg56
(lp875
S':'
asbag49
(g70
g51
NtRp876
(dp877
g54
(dp878
sg63
g863
sg56
(lp879
g49
(g50
g51
NtRp880
(dp881
g54
(dp882
g62
I4
ssg63
g876
sg56
(lp883
S"<Values at 0x478bf58: {'verbose': False, 'ip': '127.0.0.1', 'with_scheduler': False, 'ips': ['130.91.149.119'], 'shutdown_timeout': 5, 'taskbar': False, 'port': 8000, 'maxthreads': None, 'softcron': False, 'server_name': 'hntvlan5310374.wlan.sas.upenn.edu', 'bpython': False, 'nogui': False, 'pid_filename': 'httpserver.pid', 'extcron': False, 'runcron': False, 'run_system_tests': False, 'test': None, 'folder': '/Users/zamechek/Downloads/web2py/web2py.app/Contents/Resources', 'config': '', 'import_models': False, 'winservice': '', 'shell': None, 'run': '', 'log_filename': 'httpserver.log', 'debuglevel': 30, 'args': [''], 'socket_timeout': 5, 'ssl_ca_certificate': None, 'scheduler': None, 'profiler_filename': None, 'ssl_private_key': '', 'scheduler_groups': None, 'password': '<ask>', 'request_queue_size': 5, 'ssl_certificate': '', 'cronjob': False, 'numthreads': None, 'quiet': False, 'interfaces': None, 'minthreads': None, 'timeout': 10, 'plain': False, 'nobanner': False}>"
p884
asbasbasbag49
(g65
g51
NtRp885
(dp886
g54
(dp887
sg63
g790
sg56
(lp888
g49
(g70
g51
NtRp889
(dp890
g54
(dp891
g74
g75
ssg63
g885
sg56
(lp892
S'db_sessions'
p893
asbag49
(g70
g51
NtRp894
(dp895
g54
(dp896
g81
g82
ssg63
g885
sg56
(lp897
S':'
asbag49
(g70
g51
NtRp898
(dp899
g54
(dp900
sg63
g885
sg56
(lp901
g49
(g50
g51
NtRp902
(dp903
g54
(dp904
g62
I4
ssg63
g898
sg56
(lp905
S'set([])'
p906
asbasbasbag49
(g65
g51
NtRp907
(dp908
g54
(dp909
sg63
g790
sg56
(lp910
g49
(g70
g51
NtRp911
(dp912
g54
(dp913
g74
g75
ssg63
g907
sg56
(lp914
S'debugging'
p915
asbag49
(g70
g51
NtRp916
(dp917
g54
(dp918
g81
g82
ssg63
g907
sg56
(lp919
S':'
asbag49
(g70
g51
NtRp920
(dp921
g54
(dp922
sg63
g907
sg56
(lp923
g49
(g50
g51
NtRp924
(dp925
g54
(dp926
g62
I4
ssg63
g920
sg56
(lp927
S'True'
p928
asbasbasbag49
(g65
g51
NtRp929
(dp930
g54
(dp931
sg63
g790
sg56
(lp932
g49
(g70
g51
NtRp933
(dp934
g54
(dp935
g74
g75
ssg63
g929
sg56
(lp936
S'gluon_parent'
p937
asbag49
(g70
g51
NtRp938
(dp939
g54
(dp940
g81
g82
ssg63
g929
sg56
(lp941
S':'
asbag49
(g70
g51
NtRp942
(dp943
g54
(dp944
sg63
g929
sg56
(lp945
g49
(g50
g51
NtRp946
(dp947
g54
(dp948
g62
I4
ssg63
g942
sg56
(lp949
S'/Users/zamechek/Downloads/web2py/web2py.app/Contents/Resources'
p950
asbasbasbag49
(g65
g51
NtRp951
(dp952
g54
(dp953
sg63
g790
sg56
(lp954
g49
(g70
g51
NtRp955
(dp956
g54
(dp957
g74
g75
ssg63
g951
sg56
(lp958
S'http_accept'
p959
asbag49
(g70
g51
NtRp960
(dp961
g54
(dp962
g81
g82
ssg63
g951
sg56
(lp963
S':'
asbag49
(g70
g51
NtRp964
(dp965
g54
(dp966
sg63
g951
sg56
(lp967
g49
(g50
g51
NtRp968
(dp969
g54
(dp970
g62
I4
ssg63
g964
sg56
(lp971
S'text/html,application/xhtml+xml,application/xml;q=0.9,*/*;q=0.8'
p972
asbasbasbag49
(g65
g51
NtRp973
(dp974
g54
(dp975
sg63
g790
sg56
(lp976
g49
(g70
g51
NtRp977
(dp978
g54
(dp979
g74
g75
ssg63
g973
sg56
(lp980
S'http_accept_charset'
p981
asbag49
(g70
g51
NtRp982
(dp983
g54
(dp984
g81
g82
ssg63
g973
sg56
(lp985
S':'
asbag49
(g70
g51
NtRp986
(dp987
g54
(dp988
sg63
g973
sg56
(lp989
g49
(g50
g51
NtRp990
(dp991
g54
(dp992
g62
I4
ssg63
g986
sg56
(lp993
S'ISO-8859-1,utf-8;q=0.7,*;q=0.3'
p994
asbasbasbag49
(g65
g51
NtRp995
(dp996
g54
(dp997
sg63
g790
sg56
(lp998
g49
(g70
g51
NtRp999
(dp1000
g54
(dp1001
g74
g75
ssg63
g995
sg56
(lp1002
S'http_accept_encoding'
p1003
asbag49
(g70
g51
NtRp1004
(dp1005
g54
(dp1006
g81
g82
ssg63
g995
sg56
(lp1007
S':'
asbag49
(g70
g51
NtRp1008
(dp1009
g54
(dp1010
sg63
g995
sg56
(lp1011
g49
(g50
g51
NtRp1012
(dp1013
g54
(dp1014
g62
I4
ssg63
g1008
sg56
(lp1015
S'gzip,deflate,sdch'
p1016
asbasbasbag49
(g65
g51
NtRp1017
(dp1018
g54
(dp1019
sg63
g790
sg56
(lp1020
g49
(g70
g51
NtRp1021
(dp1022
g54
(dp1023
g74
g75
ssg63
g1017
sg56
(lp1024
S'http_accept_language'
p1025
asbag49
(g70
g51
NtRp1026
(dp1027
g54
(dp1028
g81
g82
ssg63
g1017
sg56
(lp1029
S':'
asbag49
(g70
g51
NtRp1030
(dp1031
g54
(dp1032
sg63
g1017
sg56
(lp1033
g49
(g50
g51
NtRp1034
(dp1035
g54
(dp1036
g62
I4
ssg63
g1030
sg56
(lp1037
S'en-US,en;q=0.8'
p1038
asbasbasbag49
(g65
g51
NtRp1039
(dp1040
g54
(dp1041
sg63
g790
sg56
(lp1042
g49
(g70
g51
NtRp1043
(dp1044
g54
(dp1045
g74
g75
ssg63
g1039
sg56
(lp1046
S'http_connection'
p1047
asbag49
(g70
g51
NtRp1048
(dp1049
g54
(dp1050
g81
g82
ssg63
g1039
sg56
(lp1051
S':'
asbag49
(g70
g51
NtRp1052
(dp1053
g54
(dp1054
sg63
g1039
sg56
(lp1055
g49
(g50
g51
NtRp1056
(dp1057
g54
(dp1058
g62
I4
ssg63
g1052
sg56
(lp1059
S'keep-alive'
p1060
asbasbasbag49
(g65
g51
NtRp1061
(dp1062
g54
(dp1063
sg63
g790
sg56
(lp1064
g49
(g70
g51
NtRp1065
(dp1066
g54
(dp1067
g74
g75
ssg63
g1061
sg56
(lp1068
S'http_cookie'
p1069
asbag49
(g70
g51
NtRp1070
(dp1071
g54
(dp1072
g81
g82
ssg63
g1061
sg56
(lp1073
S':'
asbag49
(g70
g51
NtRp1074
(dp1075
g54
(dp1076
sg63
g1061
sg56
(lp1077
g49
(g50
g51
NtRp1078
(dp1079
g54
(dp1080
g62
I4
ssg63
g1074
sg56
(lp1081
S'_define_session=BAh7CEkiD3Nlc3Npb25faWQGOgZFRkkiJTVmM2YzOTE4ZmYyNzY4ZDRjYjY5YjcyOGNkZTAxODEwBjsAVEkiEF9jc3JmX3Rva2VuBjsARkkiMVY4MTBXWE1hdGNGUGR0ZzhxeStGc3FiajlCNzB6UkpqcHZUalZJNjRFNms9BjsARkkiGXdhcmRlbi51c2VyLnVzZXIua2V5BjsAVFsISSIJVXNlcgY7AEZbBmkGSSIiJDJhJDEwJGxpeDBzN29QMk5ocFJWZUl4RXZ4WXUGOwBU--36fb82eb40ee1558fc8e56b5bce1c04bba1a6c00; _bs_session=BAh7B0kiD3Nlc3Npb25faWQGOgZFRkkiJWFhOTlmNjdkODEzYjIwNGMyNGUwMTZmNjlkMDBjMjlhBjsAVEkiEF9jc3JmX3Rva2VuBjsARkkiMUJjek16b0JSUDluYk5MekI0YlNTMklPb2Q3V3pNQzJXcHQ1enY1RDgrT3c9BjsARg%3D%3D--80cc0f5e6211d60923eda39a15903de5a280521a; _table_session=BAh7B0kiD3Nlc3Npb25faWQGOgZFRkkiJTdhZTA3MzFhMGMxM2Q4YTAxZGQ3ZTNlMDM2ODIwOWY3BjsAVEkiEF9jc3JmX3Rva2VuBjsARkkiMWxKWVRtT3hGU3dxT0tnbmJ1OG1iL3FXSW9jWVRJdnZhZHJmNTN2b1BqR2M9BjsARg%3D%3D--a8b8801fe97e379d91991be9a0d21a60f46bc09e; _usertable_session=BAh7CEkiD3Nlc3Npb25faWQGOgZFRkkiJTRmY2NiMWMyOTE1ZThhYzE1MzVlYmU3ODMxZjdhM2NmBjsAVEkiEF9jc3JmX3Rva2VuBjsARkkiMXlibkQxRk5wVVFFU05OcDVxMEQvUURSZWRJQVlRY1JwYTdoSkRucEtlYXc9BjsARkkiCmZsYXNoBjsARm86JUFjdGlvbkRpc3BhdGNoOjpGbGFzaDo6Rmxhc2hIYXNoCToKQHVzZWRvOghTZXQGOgpAaGFzaHsAOgxAY2xvc2VkRjoNQGZsYXNoZXN7BjoLbm90aWNlSSItRmllbGQgcmVsYXRpb24gd2FzIHN1Y2Nlc3NmdWxseSBjcmVhdGVkLgY7AEY6CUBub3cw--c455129d4f2ca1e085c6ad184fd200aecc0b7061; _tbls_session=BAh7B0kiD3Nlc3Npb25faWQGOgZFRkkiJWY5MmM2Mzk2ZWQ0M2ZlODZkN2E5YjMxYmViOTU4NTI2BjsAVEkiEF9jc3JmX3Rva2VuBjsARkkiMVZjemQ4UGhpZXhnaEhnOUE2alRCRmdGSXFBclViMFhwQlo5Ulg2VTRhdFk9BjsARg%3D%3D--53586c2b8499a2c56c427cd8b8e3de116331bd4d; _typel_session=BAh7CEkiD3Nlc3Npb25faWQGOgZFRkkiJWQzMjkxZGExNGY5ZTQzNzIzZTk5MWZmZTM0NDY2NTFiBjsAVEkiEF9jc3JmX3Rva2VuBjsARkkiMWM5cVg1c3pKalpQSjd3Yk5lanQ5alpjZW4zRmNOVXdQS29YNExGOXJIUWM9BjsARkkiGXdhcmRlbi51c2VyLnVzZXIua2V5BjsAVFsISSIJVXNlcgY7AEZbBmkGSSIiJDJhJDEwJEVybm5aY0RTdm9sRjRETENhdjRveGUGOwBU--df06a9ed1ab2763964f111c2534c9f2a3630c12c; _ampersand_factory_session=BAh7CUkiD3Nlc3Npb25faWQGOgZFRkkiJWI2NTFmMThjZDNkMWU4NTNhNmI4OWU1MjNhYjMyZmQ0BjsAVEkiDWluc3RhbmNlBjsARmkGSSIQX2NzcmZfdG9rZW4GOwBGSSIxTEtBZER3MFlQQUV6Nmh1NW95TG4vUTFGcFdXa1ozWTVJaUx5aXh4ZndTVT0GOwBGSSIbd2FyZGVuLnVzZXIud29ya2VyLmtleQY7AFRbCEkiC1dvcmtlcgY7AEZbBmkGSSIiJDJhJDEwJGlEdndMRmhzQXB5eE1tLnhjMFM2di4GOwBU--e6bc7e5d4e945842bb7862fd547d433b3c7bfdcb; _lang_session=BAh7B0kiD3Nlc3Npb25faWQGOgZFRkkiJTY2YzI4YTY5NDkzNzE1ZGIzYzUwNWM3ZDg2ZmY1MWNiBjsAVEkiEF9jc3JmX3Rva2VuBjsARkkiMVdVczNjYnUvY2tZaHFvMVlwLy9zemdCcFliUytKdTlUTGZ3M1RIUlI3aHc9BjsARg%3D%3D--52f16b665cb4cfc5b54cea21c7b082ab6b75b1bf; session_id_welcome=127.0.0.1-dfebfa33-25aa-4072-bce4-08f7e89e2d04; session_id_hellow=127.0.0.1-bbea59f2-333e-4593-a45c-2c44a5133d77; session_id_admin=127.0.0.1-bf448199-cadc-41e3-b1a7-bed302e89a3e'
p1082
asbasbasbag49
(g65
g51
NtRp1083
(dp1084
g54
(dp1085
sg63
g790
sg56
(lp1086
g49
(g70
g51
NtRp1087
(dp1088
g54
(dp1089
g74
g75
ssg63
g1083
sg56
(lp1090
S'http_host'
p1091
asbag49
(g70
g51
NtRp1092
(dp1093
g54
(dp1094
g81
g82
ssg63
g1083
sg56
(lp1095
S':'
asbag49
(g70
g51
NtRp1096
(dp1097
g54
(dp1098
sg63
g1083
sg56
(lp1099
g49
(g50
g51
NtRp1100
(dp1101
g54
(dp1102
g62
I4
ssg63
g1096
sg56
(lp1103
S'localhost:8887'
p1104
asbasbasbag49
(g65
g51
NtRp1105
(dp1106
g54
(dp1107
sg63
g790
sg56
(lp1108
g49
(g70
g51
NtRp1109
(dp1110
g54
(dp1111
g74
g75
ssg63
g1105
sg56
(lp1112
S'http_user_agent'
p1113
asbag49
(g70
g51
NtRp1114
(dp1115
g54
(dp1116
g81
g82
ssg63
g1105
sg56
(lp1117
S':'
asbag49
(g70
g51
NtRp1118
(dp1119
g54
(dp1120
sg63
g1105
sg56
(lp1121
g49
(g50
g51
NtRp1122
(dp1123
g54
(dp1124
g62
I4
ssg63
g1118
sg56
(lp1125
S'Mozilla/5.0 (Macintosh; Intel Mac OS X 10_8_3) AppleWebKit/537.22 (KHTML, like Gecko) Chrome/25.0.1364.172 Safari/537.22'
p1126
asbasbasbag49
(g65
g51
NtRp1127
(dp1128
g54
(dp1129
sg63
g790
sg56
(lp1130
g49
(g70
g51
NtRp1131
(dp1132
g54
(dp1133
g74
g75
ssg63
g1127
sg56
(lp1134
S'is_jython'
p1135
asbag49
(g70
g51
NtRp1136
(dp1137
g54
(dp1138
g81
g82
ssg63
g1127
sg56
(lp1139
S':'
asbag49
(g70
g51
NtRp1140
(dp1141
g54
(dp1142
sg63
g1127
sg56
(lp1143
g49
(g50
g51
NtRp1144
(dp1145
g54
(dp1146
g62
I4
ssg63
g1140
sg56
(lp1147
g92
asbasbasbag49
(g65
g51
NtRp1148
(dp1149
g54
(dp1150
sg63
g790
sg56
(lp1151
g49
(g70
g51
NtRp1152
(dp1153
g54
(dp1154
g74
g75
ssg63
g1148
sg56
(lp1155
S'is_pypy'
p1156
asbag49
(g70
g51
NtRp1157
(dp1158
g54
(dp1159
g81
g82
ssg63
g1148
sg56
(lp1160
S':'
asbag49
(g70
g51
NtRp1161
(dp1162
g54
(dp1163
sg63
g1148
sg56
(lp1164
g49
(g50
g51
NtRp1165
(dp1166
g54
(dp1167
g62
I4
ssg63
g1161
sg56
(lp1168
g92
asbasbasbag49
(g65
g51
NtRp1169
(dp1170
g54
(dp1171
sg63
g790
sg56
(lp1172
g49
(g70
g51
NtRp1173
(dp1174
g54
(dp1175
g74
g75
ssg63
g1169
sg56
(lp1176
S'local_hosts'
p1177
asbag49
(g70
g51
NtRp1178
(dp1179
g54
(dp1180
g81
g82
ssg63
g1169
sg56
(lp1181
S':'
asbag49
(g70
g51
NtRp1182
(dp1183
g54
(dp1184
sg63
g1169
sg56
(lp1185
g49
(g50
g51
NtRp1186
(dp1187
g54
(dp1188
g62
I4
ssg63
g1182
sg56
(lp1189
g49
(g58
g51
NtRp1190
(dp1191
g54
(dp1192
g62
I3
ssg63
Nsg56
(lp1193
g49
(g65
g51
NtRp1194
(dp1195
g54
(dp1196
sg63
g1190
sg56
(lp1197
g49
(g70
g51
NtRp1198
(dp1199
g54
(dp1200
sg63
g1194
sg56
(lp1201
g49
(g50
g51
NtRp1202
(dp1203
g54
(dp1204
g62
I3
ssg63
g1198
sg56
(lp1205
S'::1'
p1206
asbasbasbag49
(g65
g51
NtRp1207
(dp1208
g54
(dp1209
sg63
g1190
sg56
(lp1210
g49
(g70
g51
NtRp1211
(dp1212
g54
(dp1213
sg63
g1207
sg56
(lp1214
g49
(g50
g51
NtRp1215
(dp1216
g54
(dp1217
g62
I3
ssg63
g1211
sg56
(lp1218
S'130.91.149.119'
p1219
asbasbasbag49
(g65
g51
NtRp1220
(dp1221
g54
(dp1222
sg63
g1190
sg56
(lp1223
g49
(g70
g51
NtRp1224
(dp1225
g54
(dp1226
sg63
g1220
sg56
(lp1227
g49
(g50
g51
NtRp1228
(dp1229
g54
(dp1230
g62
I3
ssg63
g1224
sg56
(lp1231
S'::ffff:127.0.0.1'
p1232
asbasbasbag49
(g65
g51
NtRp1233
(dp1234
g54
(dp1235
sg63
g1190
sg56
(lp1236
g49
(g70
g51
NtRp1237
(dp1238
g54
(dp1239
sg63
g1233
sg56
(lp1240
g49
(g50
g51
NtRp1241
(dp1242
g54
(dp1243
g62
I3
ssg63
g1237
sg56
(lp1244
S'127.0.0.1'
p1245
asbasbasbag49
(g65
g51
NtRp1246
(dp1247
g54
(dp1248
sg63
g1190
sg56
(lp1249
g49
(g70
g51
NtRp1250
(dp1251
g54
(dp1252
sg63
g1246
sg56
(lp1253
g49
(g50
g51
NtRp1254
(dp1255
g54
(dp1256
g62
I3
ssg63
g1250
sg56
(lp1257
S'hntvlan5310374.wlan.sas.upenn.edu'
p1258
asbasbasbasbasbasbasbag49
(g65
g51
NtRp1259
(dp1260
g54
(dp1261
sg63
g790
sg56
(lp1262
g49
(g70
g51
NtRp1263
(dp1264
g54
(dp1265
g74
g75
ssg63
g1259
sg56
(lp1266
S'path_info'
p1267
asbag49
(g70
g51
NtRp1268
(dp1269
g54
(dp1270
g81
g82
ssg63
g1259
sg56
(lp1271
S':'
asbag49
(g70
g51
NtRp1272
(dp1273
g54
(dp1274
sg63
g1259
sg56
(lp1275
g49
(g50
g51
NtRp1276
(dp1277
g54
(dp1278
g62
I4
ssg63
g1272
sg56
(lp1279
S'/hellow/game/show/1/'
p1280
asbasbasbag49
(g65
g51
NtRp1281
(dp1282
g54
(dp1283
sg63
g790
sg56
(lp1284
g49
(g70
g51
NtRp1285
(dp1286
g54
(dp1287
g74
g75
ssg63
g1281
sg56
(lp1288
S'query_string'
p1289
asbag49
(g70
g51
NtRp1290
(dp1291
g54
(dp1292
g81
g82
ssg63
g1281
sg56
(lp1293
S':'
asbag49
(g70
g51
NtRp1294
(dp1295
g54
(dp1296
sg63
g1281
sg56
(lp1297
g49
(g50
g51
NtRp1298
(dp1299
g54
(dp1300
g62
I4
ssg63
g1294
sg56
(lp1301
S''
asbasbasbag49
(g65
g51
NtRp1302
(dp1303
g54
(dp1304
sg63
g790
sg56
(lp1305
g49
(g70
g51
NtRp1306
(dp1307
g54
(dp1308
g74
g75
ssg63
g1302
sg56
(lp1309
S'remote_addr'
p1310
asbag49
(g70
g51
NtRp1311
(dp1312
g54
(dp1313
g81
g82
ssg63
g1302
sg56
(lp1314
S':'
asbag49
(g70
g51
NtRp1315
(dp1316
g54
(dp1317
sg63
g1302
sg56
(lp1318
g49
(g50
g51
NtRp1319
(dp1320
g54
(dp1321
g62
I4
ssg63
g1315
sg56
(lp1322
g216
asbasbasbag49
(g65
g51
NtRp1323
(dp1324
g54
(dp1325
sg63
g790
sg56
(lp1326
g49
(g70
g51
NtRp1327
(dp1328
g54
(dp1329
g74
g75
ssg63
g1323
sg56
(lp1330
S'remote_port'
p1331
asbag49
(g70
g51
NtRp1332
(dp1333
g54
(dp1334
g81
g82
ssg63
g1323
sg56
(lp1335
S':'
asbag49
(g70
g51
NtRp1336
(dp1337
g54
(dp1338
sg63
g1323
sg56
(lp1339
g49
(g50
g51
NtRp1340
(dp1341
g54
(dp1342
g62
I4
ssg63
g1336
sg56
(lp1343
S'59960'
p1344
asbasbasbag49
(g65
g51
NtRp1345
(dp1346
g54
(dp1347
sg63
g790
sg56
(lp1348
g49
(g70
g51
NtRp1349
(dp1350
g54
(dp1351
g74
g75
ssg63
g1345
sg56
(lp1352
S'request_method'
p1353
asbag49
(g70
g51
NtRp1354
(dp1355
g54
(dp1356
g81
g82
ssg63
g1345
sg56
(lp1357
S':'
asbag49
(g70
g51
NtRp1358
(dp1359
g54
(dp1360
sg63
g1345
sg56
(lp1361
g49
(g50
g51
NtRp1362
(dp1363
g54
(dp1364
g62
I4
ssg63
g1358
sg56
(lp1365
S'GET'
p1366
asbasbasbag49
(g65
g51
NtRp1367
(dp1368
g54
(dp1369
sg63
g790
sg56
(lp1370
g49
(g70
g51
NtRp1371
(dp1372
g54
(dp1373
g74
g75
ssg63
g1367
sg56
(lp1374
S'request_uri'
p1375
asbag49
(g70
g51
NtRp1376
(dp1377
g54
(dp1378
g81
g82
ssg63
g1367
sg56
(lp1379
S':'
asbag49
(g70
g51
NtRp1380
(dp1381
g54
(dp1382
sg63
g1367
sg56
(lp1383
g49
(g50
g51
NtRp1384
(dp1385
g54
(dp1386
g62
I4
ssg63
g1380
sg56
(lp1387
g1280
asbasbasbag49
(g65
g51
NtRp1388
(dp1389
g54
(dp1390
sg63
g790
sg56
(lp1391
g49
(g70
g51
NtRp1392
(dp1393
g54
(dp1394
g74
g75
ssg63
g1388
sg56
(lp1395
S'script_name'
p1396
asbag49
(g70
g51
NtRp1397
(dp1398
g54
(dp1399
g81
g82
ssg63
g1388
sg56
(lp1400
S':'
asbag49
(g70
g51
NtRp1401
(dp1402
g54
(dp1403
sg63
g1388
sg56
(lp1404
g49
(g50
g51
NtRp1405
(dp1406
g54
(dp1407
g62
I4
ssg63
g1401
sg56
(lp1408
S''
asbasbasbag49
(g65
g51
NtRp1409
(dp1410
g54
(dp1411
sg63
g790
sg56
(lp1412
g49
(g70
g51
NtRp1413
(dp1414
g54
(dp1415
g74
g75
ssg63
g1409
sg56
(lp1416
S'server_name'
p1417
asbag49
(g70
g51
NtRp1418
(dp1419
g54
(dp1420
g81
g82
ssg63
g1409
sg56
(lp1421
S':'
asbag49
(g70
g51
NtRp1422
(dp1423
g54
(dp1424
sg63
g1409
sg56
(lp1425
g49
(g50
g51
NtRp1426
(dp1427
g54
(dp1428
g62
I4
ssg63
g1422
sg56
(lp1429
S'hntvlan5310374.wlan.sas.upenn.edu'
p1430
asbasbasbag49
(g65
g51
NtRp1431
(dp1432
g54
(dp1433
sg63
g790
sg56
(lp1434
g49
(g70
g51
NtRp1435
(dp1436
g54
(dp1437
g74
g75
ssg63
g1431
sg56
(lp1438
S'server_port'
p1439
asbag49
(g70
g51
NtRp1440
(dp1441
g54
(dp1442
g81
g82
ssg63
g1431
sg56
(lp1443
S':'
asbag49
(g70
g51
NtRp1444
(dp1445
g54
(dp1446
sg63
g1431
sg56
(lp1447
g49
(g50
g51
NtRp1448
(dp1449
g54
(dp1450
g62
I4
ssg63
g1444
sg56
(lp1451
S'8887'
p1452
asbasbasbag49
(g65
g51
NtRp1453
(dp1454
g54
(dp1455
sg63
g790
sg56
(lp1456
g49
(g70
g51
NtRp1457
(dp1458
g54
(dp1459
g74
g75
ssg63
g1453
sg56
(lp1460
S'server_protocol'
p1461
asbag49
(g70
g51
NtRp1462
(dp1463
g54
(dp1464
g81
g82
ssg63
g1453
sg56
(lp1465
S':'
asbag49
(g70
g51
NtRp1466
(dp1467
g54
(dp1468
sg63
g1453
sg56
(lp1469
g49
(g50
g51
NtRp1470
(dp1471
g54
(dp1472
g62
I4
ssg63
g1466
sg56
(lp1473
S'HTTP/1.1'
p1474
asbasbasbag49
(g65
g51
NtRp1475
(dp1476
g54
(dp1477
sg63
g790
sg56
(lp1478
g49
(g70
g51
NtRp1479
(dp1480
g54
(dp1481
g74
g75
ssg63
g1475
sg56
(lp1482
S'server_software'
p1483
asbag49
(g70
g51
NtRp1484
(dp1485
g54
(dp1486
g81
g82
ssg63
g1475
sg56
(lp1487
S':'
asbag49
(g70
g51
NtRp1488
(dp1489
g54
(dp1490
sg63
g1475
sg56
(lp1491
g49
(g50
g51
NtRp1492
(dp1493
g54
(dp1494
g62
I4
ssg63
g1488
sg56
(lp1495
S'Rocket 1.2.6'
p1496
asbasbasbag49
(g65
g51
NtRp1497
(dp1498
g54
(dp1499
sg63
g790
sg56
(lp1500
g49
(g70
g51
NtRp1501
(dp1502
g54
(dp1503
g74
g75
ssg63
g1497
sg56
(lp1504
S'web2py_path'
p1505
asbag49
(g70
g51
NtRp1506
(dp1507
g54
(dp1508
g81
g82
ssg63
g1497
sg56
(lp1509
S':'
asbag49
(g70
g51
NtRp1510
(dp1511
g54
(dp1512
sg63
g1497
sg56
(lp1513
g49
(g50
g51
NtRp1514
(dp1515
g54
(dp1516
g62
I4
ssg63
g1510
sg56
(lp1517
g837
asbasbasbag49
(g65
g51
NtRp1518
(dp1519
g54
(dp1520
sg63
g790
sg56
(lp1521
g49
(g70
g51
NtRp1522
(dp1523
g54
(dp1524
g74
g75
ssg63
g1518
sg56
(lp1525
S'web2py_version'
p1526
asbag49
(g70
g51
NtRp1527
(dp1528
g54
(dp1529
g81
g82
ssg63
g1518
sg56
(lp1530
S':'
asbag49
(g70
g51
NtRp1531
(dp1532
g54
(dp1533
sg63
g1518
sg56
(lp1534
g49
(g50
g51
NtRp1535
(dp1536
g54
(dp1537
g62
I4
ssg63
g1531
sg56
(lp1538
g49
(g58
g51
NtRp1539
(dp1540
g54
(dp1541
g62
I3
ssg63
Nsg56
(lp1542
g49
(g65
g51
NtRp1543
(dp1544
g54
(dp1545
sg63
g1539
sg56
(lp1546
g49
(g70
g51
NtRp1547
(dp1548
g54
(dp1549
sg63
g1543
sg56
(lp1550
g49
(g50
g51
NtRp1551
(dp1552
g54
(dp1553
g62
I3
ssg63
g1547
sg56
(lp1554
S'2'
asbasbasbag49
(g65
g51
NtRp1555
(dp1556
g54
(dp1557
sg63
g1539
sg56
(lp1558
g49
(g70
g51
NtRp1559
(dp1560
g54
(dp1561
sg63
g1555
sg56
(lp1562
g49
(g50
g51
NtRp1563
(dp1564
g54
(dp1565
g62
I3
ssg63
g1559
sg56
(lp1566
S'4'
asbasbasbag49
(g65
g51
NtRp1567
(dp1568
g54
(dp1569
sg63
g1539
sg56
(lp1570
g49
(g70
g51
NtRp1571
(dp1572
g54
(dp1573
sg63
g1567
sg56
(lp1574
g49
(g50
g51
NtRp1575
(dp1576
g54
(dp1577
g62
I3
ssg63
g1571
sg56
(lp1578
S'5'
asbasbasbag49
(g65
g51
NtRp1579
(dp1580
g54
(dp1581
sg63
g1539
sg56
(lp1582
g49
(g70
g51
NtRp1583
(dp1584
g54
(dp1585
sg63
g1579
sg56
(lp1586
g49
(g50
g51
NtRp1587
(dp1588
g54
(dp1589
g62
I3
ssg63
g1583
sg56
(lp1590
S'stable'
p1591
asbasbasbag49
(g65
g51
NtRp1592
(dp1593
g54
(dp1594
sg63
g1539
sg56
(lp1595
g49
(g70
g51
NtRp1596
(dp1597
g54
(dp1598
sg63
g1592
sg56
(lp1599
g49
(g50
g51
NtRp1600
(dp1601
g54
(dp1602
g62
I3
ssg63
g1596
sg56
(lp1603
S'datetime.datetime(2013, 3, 18, 22, 46, 22)'
p1604
asbasbasbasbasbasbasbag49
(g65
g51
NtRp1605
(dp1606
g54
(dp1607
sg63
g790
sg56
(lp1608
g49
(g70
g51
NtRp1609
(dp1610
g54
(dp1611
g74
g75
ssg63
g1605
sg56
(lp1612
S'wsgi_errors'
p1613
asbag49
(g70
g51
NtRp1614
(dp1615
g54
(dp1616
g81
g82
ssg63
g1605
sg56
(lp1617
S':'
asbag49
(g70
g51
NtRp1618
(dp1619
g54
(dp1620
sg63
g1605
sg56
(lp1621
g49
(g50
g51
NtRp1622
(dp1623
g54
(dp1624
g62
I4
ssg63
g1618
sg56
(lp1625
S"<open file '<stderr>', mode 'w' at 0x540b0>"
p1626
asbasbasbag49
(g65
g51
NtRp1627
(dp1628
g54
(dp1629
sg63
g790
sg56
(lp1630
g49
(g70
g51
NtRp1631
(dp1632
g54
(dp1633
g74
g75
ssg63
g1627
sg56
(lp1634
S'wsgi_file_wrapper'
p1635
asbag49
(g70
g51
NtRp1636
(dp1637
g54
(dp1638
g81
g82
ssg63
g1627
sg56
(lp1639
S':'
asbag49
(g70
g51
NtRp1640
(dp1641
g54
(dp1642
sg63
g1627
sg56
(lp1643
g49
(g50
g51
NtRp1644
(dp1645
g54
(dp1646
g62
I4
ssg63
g1640
sg56
(lp1647
S'<class wsgiref.util.FileWrapper at 0x4761060>'
p1648
asbasbasbag49
(g65
g51
NtRp1649
(dp1650
g54
(dp1651
sg63
g790
sg56
(lp1652
g49
(g70
g51
NtRp1653
(dp1654
g54
(dp1655
g74
g75
ssg63
g1649
sg56
(lp1656
S'wsgi_input'
p1657
asbag49
(g70
g51
NtRp1658
(dp1659
g54
(dp1660
g81
g82
ssg63
g1649
sg56
(lp1661
S':'
asbag49
(g70
g51
NtRp1662
(dp1663
g54
(dp1664
sg63
g1649
sg56
(lp1665
g49
(g50
g51
NtRp1666
(dp1667
g54
(dp1668
g62
I4
ssg63
g1662
sg56
(lp1669
S'<socket._fileobject object at 0x928d730>'
p1670
asbasbasbag49
(g65
g51
NtRp1671
(dp1672
g54
(dp1673
sg63
g790
sg56
(lp1674
g49
(g70
g51
NtRp1675
(dp1676
g54
(dp1677
g74
g75
ssg63
g1671
sg56
(lp1678
S'wsgi_multiprocess'
p1679
asbag49
(g70
g51
NtRp1680
(dp1681
g54
(dp1682
g81
g82
ssg63
g1671
sg56
(lp1683
S':'
asbag49
(g70
g51
NtRp1684
(dp1685
g54
(dp1686
sg63
g1671
sg56
(lp1687
g49
(g50
g51
NtRp1688
(dp1689
g54
(dp1690
g62
I4
ssg63
g1684
sg56
(lp1691
g92
asbasbasbag49
(g65
g51
NtRp1692
(dp1693
g54
(dp1694
sg63
g790
sg56
(lp1695
g49
(g70
g51
NtRp1696
(dp1697
g54
(dp1698
g74
g75
ssg63
g1692
sg56
(lp1699
S'wsgi_multithread'
p1700
asbag49
(g70
g51
NtRp1701
(dp1702
g54
(dp1703
g81
g82
ssg63
g1692
sg56
(lp1704
S':'
asbag49
(g70
g51
NtRp1705
(dp1706
g54
(dp1707
sg63
g1692
sg56
(lp1708
g49
(g50
g51
NtRp1709
(dp1710
g54
(dp1711
g62
I4
ssg63
g1705
sg56
(lp1712
g928
asbasbasbag49
(g65
g51
NtRp1713
(dp1714
g54
(dp1715
sg63
g790
sg56
(lp1716
g49
(g70
g51
NtRp1717
(dp1718
g54
(dp1719
g74
g75
ssg63
g1713
sg56
(lp1720
S'wsgi_run_once'
p1721
asbag49
(g70
g51
NtRp1722
(dp1723
g54
(dp1724
g81
g82
ssg63
g1713
sg56
(lp1725
S':'
asbag49
(g70
g51
NtRp1726
(dp1727
g54
(dp1728
sg63
g1713
sg56
(lp1729
g49
(g50
g51
NtRp1730
(dp1731
g54
(dp1732
g62
I4
ssg63
g1726
sg56
(lp1733
g92
asbasbasbag49
(g65
g51
NtRp1734
(dp1735
g54
(dp1736
sg63
g790
sg56
(lp1737
g49
(g70
g51
NtRp1738
(dp1739
g54
(dp1740
g74
g75
ssg63
g1734
sg56
(lp1741
S'wsgi_url_scheme'
p1742
asbag49
(g70
g51
NtRp1743
(dp1744
g54
(dp1745
g81
g82
ssg63
g1734
sg56
(lp1746
S':'
asbag49
(g70
g51
NtRp1747
(dp1748
g54
(dp1749
sg63
g1734
sg56
(lp1750
g49
(g50
g51
NtRp1751
(dp1752
g54
(dp1753
g62
I4
ssg63
g1747
sg56
(lp1754
S'http'
p1755
asbasbasbag49
(g65
g51
NtRp1756
(dp1757
g54
(dp1758
sg63
g790
sg56
(lp1759
g49
(g70
g51
NtRp1760
(dp1761
g54
(dp1762
g74
g75
ssg63
g1756
sg56
(lp1763
S'wsgi_version'
p1764
asbag49
(g70
g51
NtRp1765
(dp1766
g54
(dp1767
g81
g82
ssg63
g1756
sg56
(lp1768
S':'
asbag49
(g70
g51
NtRp1769
(dp1770
g54
(dp1771
sg63
g1756
sg56
(lp1772
g49
(g50
g51
NtRp1773
(dp1774
g54
(dp1775
g62
I4
ssg63
g1769
sg56
(lp1776
g49
(g58
g51
NtRp1777
(dp1778
g54
(dp1779
g62
I3
ssg63
Nsg56
(lp1780
g49
(g65
g51
NtRp1781
(dp1782
g54
(dp1783
sg63
g1777
sg56
(lp1784
g49
(g70
g51
NtRp1785
(dp1786
g54
(dp1787
sg63
g1781
sg56
(lp1788
g49
(g50
g51
NtRp1789
(dp1790
g54
(dp1791
g62
I3
ssg63
g1785
sg56
(lp1792
S'1'
asbasbasbag49
(g65
g51
NtRp1793
(dp1794
g54
(dp1795
sg63
g1777
sg56
(lp1796
g49
(g70
g51
NtRp1797
(dp1798
g54
(dp1799
sg63
g1793
sg56
(lp1800
g49
(g50
g51
NtRp1801
(dp1802
g54
(dp1803
g62
I3
ssg63
g1797
sg56
(lp1804
S'0'
asbasbasbasbasbasbasbasbasbasbasbag49
(g65
g51
NtRp1805
(dp1806
g54
(dp1807
sg63
g59
sg56
(lp1808
g49
(g70
g51
NtRp1809
(dp1810
g54
(dp1811
g74
g75
ssg63
g1805
sg56
(lp1812
S'extension'
p1813
asbag49
(g70
g51
NtRp1814
(dp1815
g54
(dp1816
g81
g82
ssg63
g1805
sg56
(lp1817
S':'
asbag49
(g70
g51
NtRp1818
(dp1819
g54
(dp1820
sg63
g1805
sg56
(lp1821
g49
(g50
g51
NtRp1822
(dp1823
g54
(dp1824
g62
I5
ssg63
g1818
sg56
(lp1825
S'html'
p1826
asbasbasbag49
(g65
g51
NtRp1827
(dp1828
g54
(dp1829
sg63
g59
sg56
(lp1830
g49
(g70
g51
NtRp1831
(dp1832
g54
(dp1833
g74
g75
ssg63
g1827
sg56
(lp1834
S'folder'
p1835
asbag49
(g70
g51
NtRp1836
(dp1837
g54
(dp1838
g81
g82
ssg63
g1827
sg56
(lp1839
S':'
asbag49
(g70
g51
NtRp1840
(dp1841
g54
(dp1842
sg63
g1827
sg56
(lp1843
g49
(g50
g51
NtRp1844
(dp1845
g54
(dp1846
g62
I5
ssg63
g1840
sg56
(lp1847
S'/Users/zamechek/Downloads/web2py/web2py.app/Contents/Resources/applications/hellow/'
p1848
asbasbasbag49
(g65
g51
NtRp1849
(dp1850
g54
(dp1851
sg63
g59
sg56
(lp1852
g49
(g70
g51
NtRp1853
(dp1854
g54
(dp1855
g74
g75
ssg63
g1849
sg56
(lp1856
S'function'
p1857
asbag49
(g70
g51
NtRp1858
(dp1859
g54
(dp1860
g81
g82
ssg63
g1849
sg56
(lp1861
S':'
asbag49
(g70
g51
NtRp1862
(dp1863
g54
(dp1864
sg63
g1849
sg56
(lp1865
g49
(g50
g51
NtRp1866
(dp1867
g54
(dp1868
g62
I5
ssg63
g1862
sg56
(lp1869
S'show'
p1870
asbasbasbag49
(g65
g51
NtRp1871
(dp1872
g54
(dp1873
sg63
g59
sg56
(lp1874
g49
(g70
g51
NtRp1875
(dp1876
g54
(dp1877
g74
g75
ssg63
g1871
sg56
(lp1878
S'get_vars'
p1879
asbag49
(g70
g51
NtRp1880
(dp1881
g54
(dp1882
g81
g82
ssg63
g1871
sg56
(lp1883
S':'
asbag49
(g70
g51
NtRp1884
(dp1885
g54
(dp1886
sg63
g1871
sg56
(lp1887
g49
(g50
g51
NtRp1888
(dp1889
g54
(dp1890
g62
I5
ssg63
g1884
sg56
(lp1891
g49
(g58
g51
NtRp1892
(dp1893
g54
(dp1894
g62
I4
ssg63
Nsg56
(lp1895
sbasbasbasbag49
(g65
g51
NtRp1896
(dp1897
g54
(dp1898
sg63
g59
sg56
(lp1899
g49
(g70
g51
NtRp1900
(dp1901
g54
(dp1902
g74
g75
ssg63
g1896
sg56
(lp1903
S'global_settings'
p1904
asbag49
(g70
g51
NtRp1905
(dp1906
g54
(dp1907
g81
g82
ssg63
g1896
sg56
(lp1908
S':'
asbag49
(g70
g51
NtRp1909
(dp1910
g54
(dp1911
sg63
g1896
sg56
(lp1912
g49
(g50
g51
NtRp1913
(dp1914
g54
(dp1915
g62
I5
ssg63
g1909
sg56
(lp1916
g49
(g58
g51
NtRp1917
(dp1918
g54
(dp1919
g62
I4
ssg63
Nsg56
(lp1920
g49
(g65
g51
NtRp1921
(dp1922
g54
(dp1923
sg63
g1917
sg56
(lp1924
g49
(g70
g51
NtRp1925
(dp1926
g54
(dp1927
g74
g75
ssg63
g1921
sg56
(lp1928
g802
asbag49
(g70
g51
NtRp1929
(dp1930
g54
(dp1931
g81
g82
ssg63
g1921
sg56
(lp1932
S':'
asbag49
(g70
g51
NtRp1933
(dp1934
g54
(dp1935
sg63
g1921
sg56
(lp1936
g49
(g50
g51
NtRp1937
(dp1938
g54
(dp1939
g62
I4
ssg63
g1933
sg56
(lp1940
S"set(['/Users/zamechek/Downloads/web2py/web2py.app/Contents/Resources/applications/hellow/', '/Users/zamechek/Downloads/web2py/web2py.app/Contents/Resources/applications/admin/', '/Users/zamechek/Downloads/web2py/web2py.app/Contents/Resources/applications/welcome/'])"
p1941
asbasbasbag49
(g65
g51
NtRp1942
(dp1943
g54
(dp1944
sg63
g1917
sg56
(lp1945
g49
(g70
g51
NtRp1946
(dp1947
g54
(dp1948
g74
g75
ssg63
g1942
sg56
(lp1949
g824
asbag49
(g70
g51
NtRp1950
(dp1951
g54
(dp1952
g81
g82
ssg63
g1942
sg56
(lp1953
S':'
asbag49
(g70
g51
NtRp1954
(dp1955
g54
(dp1956
sg63
g1942
sg56
(lp1957
g49
(g50
g51
NtRp1958
(dp1959
g54
(dp1960
g62
I4
ssg63
g1954
sg56
(lp1961
g837
asbasbasbag49
(g65
g51
NtRp1962
(dp1963
g54
(dp1964
sg63
g1917
sg56
(lp1965
g49
(g70
g51
NtRp1966
(dp1967
g54
(dp1968
g74
g75
ssg63
g1962
sg56
(lp1969
g846
asbag49
(g70
g51
NtRp1970
(dp1971
g54
(dp1972
g81
g82
ssg63
g1962
sg56
(lp1973
S':'
asbag49
(g70
g51
NtRp1974
(dp1975
g54
(dp1976
sg63
g1962
sg56
(lp1977
g49
(g50
g51
NtRp1978
(dp1979
g54
(dp1980
g62
I4
ssg63
g1974
sg56
(lp1981
g49
(g58
g51
NtRp1982
(dp1983
g54
(dp1984
g62
I3
ssg63
Nsg56
(lp1985
sbasbasbasbag49
(g65
g51
NtRp1986
(dp1987
g54
(dp1988
sg63
g1917
sg56
(lp1989
g49
(g70
g51
NtRp1990
(dp1991
g54
(dp1992
g74
g75
ssg63
g1986
sg56
(lp1993
g871
asbag49
(g70
g51
NtRp1994
(dp1995
g54
(dp1996
g81
g82
ssg63
g1986
sg56
(lp1997
S':'
asbag49
(g70
g51
NtRp1998
(dp1999
g54
(dp2000
sg63
g1986
sg56
(lp2001
g49
(g50
g51
NtRp2002
(dp2003
g54
(dp2004
g62
I4
ssg63
g1998
sg56
(lp2005
S"<Values at 0x478bf58: {'verbose': False, 'ip': '127.0.0.1', 'with_scheduler': False, 'ips': ['130.91.149.119'], 'shutdown_timeout': 5, 'taskbar': False, 'port': 8000, 'maxthreads': None, 'softcron': False, 'server_name': 'hntvlan5310374.wlan.sas.upenn.edu', 'bpython': False, 'nogui': False, 'pid_filename': 'httpserver.pid', 'extcron': False, 'runcron': False, 'run_system_tests': False, 'test': None, 'folder': '/Users/zamechek/Downloads/web2py/web2py.app/Contents/Resources', 'config': '', 'import_models': False, 'winservice': '', 'shell': None, 'run': '', 'log_filename': 'httpserver.log', 'debuglevel': 30, 'args': [''], 'socket_timeout': 5, 'ssl_ca_certificate': None, 'scheduler': None, 'profiler_filename': None, 'ssl_private_key': '', 'scheduler_groups': None, 'password': '<ask>', 'request_queue_size': 5, 'ssl_certificate': '', 'cronjob': False, 'numthreads': None, 'quiet': False, 'interfaces': None, 'minthreads': None, 'timeout': 10, 'plain': False, 'nobanner': False}>"
p2006
asbasbasbag49
(g65
g51
NtRp2007
(dp2008
g54
(dp2009
sg63
g1917
sg56
(lp2010
g49
(g70
g51
NtRp2011
(dp2012
g54
(dp2013
g74
g75
ssg63
g2007
sg56
(lp2014
g893
asbag49
(g70
g51
NtRp2015
(dp2016
g54
(dp2017
g81
g82
ssg63
g2007
sg56
(lp2018
S':'
asbag49
(g70
g51
NtRp2019
(dp2020
g54
(dp2021
sg63
g2007
sg56
(lp2022
g49
(g50
g51
NtRp2023
(dp2024
g54
(dp2025
g62
I4
ssg63
g2019
sg56
(lp2026
S'set([])'
p2027
asbasbasbag49
(g65
g51
NtRp2028
(dp2029
g54
(dp2030
sg63
g1917
sg56
(lp2031
g49
(g70
g51
NtRp2032
(dp2033
g54
(dp2034
g74
g75
ssg63
g2028
sg56
(lp2035
g915
asbag49
(g70
g51
NtRp2036
(dp2037
g54
(dp2038
g81
g82
ssg63
g2028
sg56
(lp2039
S':'
asbag49
(g70
g51
NtRp2040
(dp2041
g54
(dp2042
sg63
g2028
sg56
(lp2043
g49
(g50
g51
NtRp2044
(dp2045
g54
(dp2046
g62
I4
ssg63
g2040
sg56
(lp2047
g928
asbasbasbag49
(g65
g51
NtRp2048
(dp2049
g54
(dp2050
sg63
g1917
sg56
(lp2051
g49
(g70
g51
NtRp2052
(dp2053
g54
(dp2054
g74
g75
ssg63
g2048
sg56
(lp2055
g937
asbag49
(g70
g51
NtRp2056
(dp2057
g54
(dp2058
g81
g82
ssg63
g2048
sg56
(lp2059
S':'
asbag49
(g70
g51
NtRp2060
(dp2061
g54
(dp2062
sg63
g2048
sg56
(lp2063
g49
(g50
g51
NtRp2064
(dp2065
g54
(dp2066
g62
I4
ssg63
g2060
sg56
(lp2067
g950
asbasbasbag49
(g65
g51
NtRp2068
(dp2069
g54
(dp2070
sg63
g1917
sg56
(lp2071
g49
(g70
g51
NtRp2072
(dp2073
g54
(dp2074
g74
g75
ssg63
g2068
sg56
(lp2075
g1135
asbag49
(g70
g51
NtRp2076
(dp2077
g54
(dp2078
g81
g82
ssg63
g2068
sg56
(lp2079
S':'
asbag49
(g70
g51
NtRp2080
(dp2081
g54
(dp2082
sg63
g2068
sg56
(lp2083
g49
(g50
g51
NtRp2084
(dp2085
g54
(dp2086
g62
I4
ssg63
g2080
sg56
(lp2087
g92
asbasbasbag49
(g65
g51
NtRp2088
(dp2089
g54
(dp2090
sg63
g1917
sg56
(lp2091
g49
(g70
g51
NtRp2092
(dp2093
g54
(dp2094
g74
g75
ssg63
g2088
sg56
(lp2095
g1156
asbag49
(g70
g51
NtRp2096
(dp2097
g54
(dp2098
g81
g82
ssg63
g2088
sg56
(lp2099
S':'
asbag49
(g70
g51
NtRp2100
(dp2101
g54
(dp2102
sg63
g2088
sg56
(lp2103
g49
(g50
g51
NtRp2104
(dp2105
g54
(dp2106
g62
I4
ssg63
g2100
sg56
(lp2107
g92
asbasbasbag49
(g65
g51
NtRp2108
(dp2109
g54
(dp2110
sg63
g1917
sg56
(lp2111
g49
(g70
g51
NtRp2112
(dp2113
g54
(dp2114
g74
g75
ssg63
g2108
sg56
(lp2115
g1177
asbag49
(g70
g51
NtRp2116
(dp2117
g54
(dp2118
g81
g82
ssg63
g2108
sg56
(lp2119
S':'
asbag49
(g70
g51
NtRp2120
(dp2121
g54
(dp2122
sg63
g2108
sg56
(lp2123
g49
(g50
g51
NtRp2124
(dp2125
g54
(dp2126
g62
I4
ssg63
g2120
sg56
(lp2127
g49
(g58
g51
NtRp2128
(dp2129
g54
(dp2130
g62
I3
ssg63
Nsg56
(lp2131
g49
(g65
g51
NtRp2132
(dp2133
g54
(dp2134
sg63
g2128
sg56
(lp2135
g49
(g70
g51
NtRp2136
(dp2137
g54
(dp2138
sg63
g2132
sg56
(lp2139
g49
(g50
g51
NtRp2140
(dp2141
g54
(dp2142
g62
I3
ssg63
g2136
sg56
(lp2143
g1206
asbasbasbag49
(g65
g51
NtRp2144
(dp2145
g54
(dp2146
sg63
g2128
sg56
(lp2147
g49
(g70
g51
NtRp2148
(dp2149
g54
(dp2150
sg63
g2144
sg56
(lp2151
g49
(g50
g51
NtRp2152
(dp2153
g54
(dp2154
g62
I3
ssg63
g2148
sg56
(lp2155
g1219
asbasbasbag49
(g65
g51
NtRp2156
(dp2157
g54
(dp2158
sg63
g2128
sg56
(lp2159
g49
(g70
g51
NtRp2160
(dp2161
g54
(dp2162
sg63
g2156
sg56
(lp2163
g49
(g50
g51
NtRp2164
(dp2165
g54
(dp2166
g62
I3
ssg63
g2160
sg56
(lp2167
g1232
asbasbasbag49
(g65
g51
NtRp2168
(dp2169
g54
(dp2170
sg63
g2128
sg56
(lp2171
g49
(g70
g51
NtRp2172
(dp2173
g54
(dp2174
sg63
g2168
sg56
(lp2175
g49
(g50
g51
NtRp2176
(dp2177
g54
(dp2178
g62
I3
ssg63
g2172
sg56
(lp2179
g1245
asbasbasbag49
(g65
g51
NtRp2180
(dp2181
g54
(dp2182
sg63
g2128
sg56
(lp2183
g49
(g70
g51
NtRp2184
(dp2185
g54
(dp2186
sg63
g2180
sg56
(lp2187
g49
(g50
g51
NtRp2188
(dp2189
g54
(dp2190
g62
I3
ssg63
g2184
sg56
(lp2191
g1258
asbasbasbasbasbasbasbag49
(g65
g51
NtRp2192
(dp2193
g54
(dp2194
sg63
g1917
sg56
(lp2195
g49
(g70
g51
NtRp2196
(dp2197
g54
(dp2198
g74
g75
ssg63
g2192
sg56
(lp2199
g1526
asbag49
(g70
g51
NtRp2200
(dp2201
g54
(dp2202
g81
g82
ssg63
g2192
sg56
(lp2203
S':'
asbag49
(g70
g51
NtRp2204
(dp2205
g54
(dp2206
sg63
g2192
sg56
(lp2207
g49
(g50
g51
NtRp2208
(dp2209
g54
(dp2210
g62
I4
ssg63
g2204
sg56
(lp2211
g49
(g58
g51
NtRp2212
(dp2213
g54
(dp2214
g62
I3
ssg63
Nsg56
(lp2215
g49
(g65
g51
NtRp2216
(dp2217
g54
(dp2218
sg63
g2212
sg56
(lp2219
g49
(g70
g51
NtRp2220
(dp2221
g54
(dp2222
sg63
g2216
sg56
(lp2223
g49
(g50
g51
NtRp2224
(dp2225
g54
(dp2226
g62
I3
ssg63
g2220
sg56
(lp2227
S'2'
asbasbasbag49
(g65
g51
NtRp2228
(dp2229
g54
(dp2230
sg63
g2212
sg56
(lp2231
g49
(g70
g51
NtRp2232
(dp2233
g54
(dp2234
sg63
g2228
sg56
(lp2235
g49
(g50
g51
NtRp2236
(dp2237
g54
(dp2238
g62
I3
ssg63
g2232
sg56
(lp2239
S'4'
asbasbasbag49
(g65
g51
NtRp2240
(dp2241
g54
(dp2242
sg63
g2212
sg56
(lp2243
g49
(g70
g51
NtRp2244
(dp2245
g54
(dp2246
sg63
g2240
sg56
(lp2247
g49
(g50
g51
NtRp2248
(dp2249
g54
(dp2250
g62
I3
ssg63
g2244
sg56
(lp2251
S'5'
asbasbasbag49
(g65
g51
NtRp2252
(dp2253
g54
(dp2254
sg63
g2212
sg56
(lp2255
g49
(g70
g51
NtRp2256
(dp2257
g54
(dp2258
sg63
g2252
sg56
(lp2259
g49
(g50
g51
NtRp2260
(dp2261
g54
(dp2262
g62
I3
ssg63
g2256
sg56
(lp2263
g1591
asbasbasbag49
(g65
g51
NtRp2264
(dp2265
g54
(dp2266
sg63
g2212
sg56
(lp2267
g49
(g70
g51
NtRp2268
(dp2269
g54
(dp2270
sg63
g2264
sg56
(lp2271
g49
(g50
g51
NtRp2272
(dp2273
g54
(dp2274
g62
I3
ssg63
g2268
sg56
(lp2275
S'datetime.datetime(2013, 3, 18, 22, 46, 22)'
p2276
asbasbasbasbasbasbasbasbasbasbasbag49
(g65
g51
NtRp2277
(dp2278
g54
(dp2279
sg63
g59
sg56
(lp2280
g49
(g70
g51
NtRp2281
(dp2282
g54
(dp2283
g74
g75
ssg63
g2277
sg56
(lp2284
S'is_https'
p2285
asbag49
(g70
g51
NtRp2286
(dp2287
g54
(dp2288
g81
g82
ssg63
g2277
sg56
(lp2289
S':'
asbag49
(g70
g51
NtRp2290
(dp2291
g54
(dp2292
sg63
g2277
sg56
(lp2293
g49
(g50
g51
NtRp2294
(dp2295
g54
(dp2296
g62
I5
ssg63
g2290
sg56
(lp2297
g92
asbasbasbag49
(g65
g51
NtRp2298
(dp2299
g54
(dp2300
sg63
g59
sg56
(lp2301
g49
(g70
g51
NtRp2302
(dp2303
g54
(dp2304
g74
g75
ssg63
g2298
sg56
(lp2305
S'is_local'
p2306
asbag49
(g70
g51
NtRp2307
(dp2308
g54
(dp2309
g81
g82
ssg63
g2298
sg56
(lp2310
S':'
asbag49
(g70
g51
NtRp2311
(dp2312
g54
(dp2313
sg63
g2298
sg56
(lp2314
g49
(g50
g51
NtRp2315
(dp2316
g54
(dp2317
g62
I5
ssg63
g2311
sg56
(lp2318
g928
asbasbasbag49
(g65
g51
NtRp2319
(dp2320
g54
(dp2321
sg63
g59
sg56
(lp2322
g49
(g70
g51
NtRp2323
(dp2324
g54
(dp2325
g74
g75
ssg63
g2319
sg56
(lp2326
S'is_restful'
p2327
asbag49
(g70
g51
NtRp2328
(dp2329
g54
(dp2330
g81
g82
ssg63
g2319
sg56
(lp2331
S':'
asbag49
(g70
g51
NtRp2332
(dp2333
g54
(dp2334
sg63
g2319
sg56
(lp2335
g49
(g50
g51
NtRp2336
(dp2337
g54
(dp2338
g62
I5
ssg63
g2332
sg56
(lp2339
g92
asbasbasbag49
(g65
g51
NtRp2340
(dp2341
g54
(dp2342
sg63
g59
sg56
(lp2343
g49
(g70
g51
NtRp2344
(dp2345
g54
(dp2346
g74
g75
ssg63
g2340
sg56
(lp2347
S'now'
p2348
asbag49
(g70
g51
NtRp2349
(dp2350
g54
(dp2351
g81
g82
ssg63
g2340
sg56
(lp2352
S':'
asbag49
(g70
g51
NtRp2353
(dp2354
g54
(dp2355
sg63
g2340
sg56
(lp2356
g49
(g50
g51
NtRp2357
(dp2358
g54
(dp2359
g62
I5
ssg63
g2353
sg56
(lp2360
S'datetime.datetime(2013, 3, 28, 10, 54, 14, 860457)'
p2361
asbasbasbag49
(g65
g51
NtRp2362
(dp2363
g54
(dp2364
sg63
g59
sg56
(lp2365
g49
(g70
g51
NtRp2366
(dp2367
g54
(dp2368
g74
g75
ssg63
g2362
sg56
(lp2369
S'post_vars'
p2370
asbag49
(g70
g51
NtRp2371
(dp2372
g54
(dp2373
g81
g82
ssg63
g2362
sg56
(lp2374
S':'
asbag49
(g70
g51
NtRp2375
(dp2376
g54
(dp2377
sg63
g2362
sg56
(lp2378
g49
(g50
g51
NtRp2379
(dp2380
g54
(dp2381
g62
I5
ssg63
g2375
sg56
(lp2382
g49
(g58
g51
NtRp2383
(dp2384
g54
(dp2385
g62
I4
ssg63
Nsg56
(lp2386
sbasbasbasbag49
(g65
g51
NtRp2387
(dp2388
g54
(dp2389
sg63
g59
sg56
(lp2390
g49
(g70
g51
NtRp2391
(dp2392
g54
(dp2393
g74
g75
ssg63
g2387
sg56
(lp2394
S'raw_args'
p2395
asbag49
(g70
g51
NtRp2396
(dp2397
g54
(dp2398
g81
g82
ssg63
g2387
sg56
(lp2399
S':'
asbag49
(g70
g51
NtRp2400
(dp2401
g54
(dp2402
sg63
g2387
sg56
(lp2403
g49
(g50
g51
NtRp2404
(dp2405
g54
(dp2406
g62
I5
ssg63
g2400
sg56
(lp2407
S'1'
asbasbasbag49
(g65
g51
NtRp2408
(dp2409
g54
(dp2410
sg63
g59
sg56
(lp2411
g49
(g70
g51
NtRp2412
(dp2413
g54
(dp2414
g74
g75
ssg63
g2408
sg56
(lp2415
S'raw_extension'
p2416
asbag49
(g70
g51
NtRp2417
(dp2418
g54
(dp2419
g81
g82
ssg63
g2408
sg56
(lp2420
S':'
asbag49
(g70
g51
NtRp2421
(dp2422
g54
(dp2423
sg63
g2408
sg56
(lp2424
g49
(g50
g51
NtRp2425
(dp2426
g54
(dp2427
g62
I5
ssg63
g2421
sg56
(lp2428
S'None'
p2429
asbasbasbag49
(g65
g51
NtRp2430
(dp2431
g54
(dp2432
sg63
g59
sg56
(lp2433
g49
(g70
g51
NtRp2434
(dp2435
g54
(dp2436
g74
g75
ssg63
g2430
sg56
(lp2437
S'url'
p2438
asbag49
(g70
g51
NtRp2439
(dp2440
g54
(dp2441
g81
g82
ssg63
g2430
sg56
(lp2442
S':'
asbag49
(g70
g51
NtRp2443
(dp2444
g54
(dp2445
sg63
g2430
sg56
(lp2446
g49
(g50
g51
NtRp2447
(dp2448
g54
(dp2449
g62
I5
ssg63
g2443
sg56
(lp2450
g1280
asbasbasbag49
(g65
g51
NtRp2451
(dp2452
g54
(dp2453
sg63
g59
sg56
(lp2454
g49
(g70
g51
NtRp2455
(dp2456
g54
(dp2457
g74
g75
ssg63
g2451
sg56
(lp2458
S'utcnow'
p2459
asbag49
(g70
g51
NtRp2460
(dp2461
g54
(dp2462
g81
g82
ssg63
g2451
sg56
(lp2463
S':'
asbag49
(g70
g51
NtRp2464
(dp2465
g54
(dp2466
sg63
g2451
sg56
(lp2467
g49
(g50
g51
NtRp2468
(dp2469
g54
(dp2470
g62
I5
ssg63
g2464
sg56
(lp2471
S'datetime.datetime(2013, 3, 28, 14, 54, 14, 860469)'
p2472
asbasbasbag49
(g65
g51
NtRp2473
(dp2474
g54
(dp2475
sg63
g59
sg56
(lp2476
g49
(g70
g51
NtRp2477
(dp2478
g54
(dp2479
g74
g75
ssg63
g2473
sg56
(lp2480
S'uuid'
p2481
asbag49
(g70
g51
NtRp2482
(dp2483
g54
(dp2484
g81
g82
ssg63
g2473
sg56
(lp2485
S':'
asbag49
(g70
g51
NtRp2486
(dp2487
g54
(dp2488
sg63
g2473
sg56
(lp2489
g49
(g50
g51
NtRp2490
(dp2491
g54
(dp2492
g62
I5
ssg63
g2486
sg56
(lp2493
S'hellow/127.0.0.1.2013-03-28.10-54-14.8724450a-c084-4945-a79c-8439f8f773d1'
p2494
asbasbasbag49
(g65
g51
NtRp2495
(dp2496
g54
(dp2497
sg63
g59
sg56
(lp2498
g49
(g70
g51
NtRp2499
(dp2500
g54
(dp2501
g74
g75
ssg63
g2495
sg56
(lp2502
S'vars'
p2503
asbag49
(g70
g51
NtRp2504
(dp2505
g54
(dp2506
g81
g82
ssg63
g2495
sg56
(lp2507
S':'
asbag49
(g70
g51
NtRp2508
(dp2509
g54
(dp2510
sg63
g2495
sg56
(lp2511
g49
(g50
g51
NtRp2512
(dp2513
g54
(dp2514
g62
I5
ssg63
g2508
sg56
(lp2515
g49
(g58
g51
NtRp2516
(dp2517
g54
(dp2518
g62
I4
ssg63
Nsg56
(lp2519
sbasbasbasbag49
(g65
g51
NtRp2520
(dp2521
g54
(dp2522
sg63
g59
sg56
(lp2523
g49
(g70
g51
NtRp2524
(dp2525
g54
(dp2526
g74
g75
ssg63
g2520
sg56
(lp2527
S'wsgi'
p2528
asbag49
(g70
g51
NtRp2529
(dp2530
g54
(dp2531
g81
g82
ssg63
g2520
sg56
(lp2532
S':'
asbag49
(g70
g51
NtRp2533
(dp2534
g54
(dp2535
sg63
g2520
sg56
(lp2536
g49
(g50
g51
NtRp2537
(dp2538
g54
(dp2539
g62
I5
ssg63
g2533
sg56
(lp2540
g49
(g58
g51
NtRp2541
(dp2542
g54
(dp2543
g62
I4
ssg63
Nsg56
(lp2544
g49
(g65
g51
NtRp2545
(dp2546
g54
(dp2547
sg63
g2541
sg56
(lp2548
g49
(g70
g51
NtRp2549
(dp2550
g54
(dp2551
g74
g75
ssg63
g2545
sg56
(lp2552
S'environ'
p2553
asbag49
(g70
g51
NtRp2554
(dp2555
g54
(dp2556
g81
g82
ssg63
g2545
sg56
(lp2557
S':'
asbag49
(g70
g51
NtRp2558
(dp2559
g54
(dp2560
sg63
g2545
sg56
(lp2561
g49
(g50
g51
NtRp2562
(dp2563
g54
(dp2564
g62
I4
ssg63
g2558
sg56
(lp2565
g49
(g58
g51
NtRp2566
(dp2567
g54
(dp2568
g62
I3
ssg63
Nsg56
(lp2569
g49
(g65
g51
NtRp2570
(dp2571
g54
(dp2572
sg63
g2566
sg56
(lp2573
g49
(g70
g51
NtRp2574
(dp2575
g54
(dp2576
g74
g75
ssg63
g2570
sg56
(lp2577
S'HTTP_ACCEPT'
p2578
asbag49
(g70
g51
NtRp2579
(dp2580
g54
(dp2581
g81
g82
ssg63
g2570
sg56
(lp2582
S':'
asbag49
(g70
g51
NtRp2583
(dp2584
g54
(dp2585
sg63
g2570
sg56
(lp2586
g49
(g50
g51
NtRp2587
(dp2588
g54
(dp2589
g62
I3
ssg63
g2583
sg56
(lp2590
g972
asbasbasbag49
(g65
g51
NtRp2591
(dp2592
g54
(dp2593
sg63
g2566
sg56
(lp2594
g49
(g70
g51
NtRp2595
(dp2596
g54
(dp2597
g74
g75
ssg63
g2591
sg56
(lp2598
S'HTTP_ACCEPT_CHARSET'
p2599
asbag49
(g70
g51
NtRp2600
(dp2601
g54
(dp2602
g81
g82
ssg63
g2591
sg56
(lp2603
S':'
asbag49
(g70
g51
NtRp2604
(dp2605
g54
(dp2606
sg63
g2591
sg56
(lp2607
g49
(g50
g51
NtRp2608
(dp2609
g54
(dp2610
g62
I3
ssg63
g2604
sg56
(lp2611
g994
asbasbasbag49
(g65
g51
NtRp2612
(dp2613
g54
(dp2614
sg63
g2566
sg56
(lp2615
g49
(g70
g51
NtRp2616
(dp2617
g54
(dp2618
g74
g75
ssg63
g2612
sg56
(lp2619
S'HTTP_ACCEPT_ENCODING'
p2620
asbag49
(g70
g51
NtRp2621
(dp2622
g54
(dp2623
g81
g82
ssg63
g2612
sg56
(lp2624
S':'
asbag49
(g70
g51
NtRp2625
(dp2626
g54
(dp2627
sg63
g2612
sg56
(lp2628
g49
(g50
g51
NtRp2629
(dp2630
g54
(dp2631
g62
I3
ssg63
g2625
sg56
(lp2632
g1016
asbasbasbag49
(g65
g51
NtRp2633
(dp2634
g54
(dp2635
sg63
g2566
sg56
(lp2636
g49
(g70
g51
NtRp2637
(dp2638
g54
(dp2639
g74
g75
ssg63
g2633
sg56
(lp2640
S'HTTP_ACCEPT_LANGUAGE'
p2641
asbag49
(g70
g51
NtRp2642
(dp2643
g54
(dp2644
g81
g82
ssg63
g2633
sg56
(lp2645
S':'
asbag49
(g70
g51
NtRp2646
(dp2647
g54
(dp2648
sg63
g2633
sg56
(lp2649
g49
(g50
g51
NtRp2650
(dp2651
g54
(dp2652
g62
I3
ssg63
g2646
sg56
(lp2653
g1038
asbasbasbag49
(g65
g51
NtRp2654
(dp2655
g54
(dp2656
sg63
g2566
sg56
(lp2657
g49
(g70
g51
NtRp2658
(dp2659
g54
(dp2660
g74
g75
ssg63
g2654
sg56
(lp2661
S'HTTP_CONNECTION'
p2662
asbag49
(g70
g51
NtRp2663
(dp2664
g54
(dp2665
g81
g82
ssg63
g2654
sg56
(lp2666
S':'
asbag49
(g70
g51
NtRp2667
(dp2668
g54
(dp2669
sg63
g2654
sg56
(lp2670
g49
(g50
g51
NtRp2671
(dp2672
g54
(dp2673
g62
I3
ssg63
g2667
sg56
(lp2674
g1060
asbasbasbag49
(g65
g51
NtRp2675
(dp2676
g54
(dp2677
sg63
g2566
sg56
(lp2678
g49
(g70
g51
NtRp2679
(dp2680
g54
(dp2681
g74
g75
ssg63
g2675
sg56
(lp2682
S'HTTP_COOKIE'
p2683
asbag49
(g70
g51
NtRp2684
(dp2685
g54
(dp2686
g81
g82
ssg63
g2675
sg56
(lp2687
S':'
asbag49
(g70
g51
NtRp2688
(dp2689
g54
(dp2690
sg63
g2675
sg56
(lp2691
g49
(g50
g51
NtRp2692
(dp2693
g54
(dp2694
g62
I3
ssg63
g2688
sg56
(lp2695
g1082
asbasbasbag49
(g65
g51
NtRp2696
(dp2697
g54
(dp2698
sg63
g2566
sg56
(lp2699
g49
(g70
g51
NtRp2700
(dp2701
g54
(dp2702
g74
g75
ssg63
g2696
sg56
(lp2703
S'HTTP_HOST'
p2704
asbag49
(g70
g51
NtRp2705
(dp2706
g54
(dp2707
g81
g82
ssg63
g2696
sg56
(lp2708
S':'
asbag49
(g70
g51
NtRp2709
(dp2710
g54
(dp2711
sg63
g2696
sg56
(lp2712
g49
(g50
g51
NtRp2713
(dp2714
g54
(dp2715
g62
I3
ssg63
g2709
sg56
(lp2716
g1104
asbasbasbag49
(g65
g51
NtRp2717
(dp2718
g54
(dp2719
sg63
g2566
sg56
(lp2720
g49
(g70
g51
NtRp2721
(dp2722
g54
(dp2723
g74
g75
ssg63
g2717
sg56
(lp2724
S'HTTP_USER_AGENT'
p2725
asbag49
(g70
g51
NtRp2726
(dp2727
g54
(dp2728
g81
g82
ssg63
g2717
sg56
(lp2729
S':'
asbag49
(g70
g51
NtRp2730
(dp2731
g54
(dp2732
sg63
g2717
sg56
(lp2733
g49
(g50
g51
NtRp2734
(dp2735
g54
(dp2736
g62
I3
ssg63
g2730
sg56
(lp2737
g1126
asbasbasbag49
(g65
g51
NtRp2738
(dp2739
g54
(dp2740
sg63
g2566
sg56
(lp2741
g49
(g70
g51
NtRp2742
(dp2743
g54
(dp2744
g74
g75
ssg63
g2738
sg56
(lp2745
S'PATH_INFO'
p2746
asbag49
(g70
g51
NtRp2747
(dp2748
g54
(dp2749
g81
g82
ssg63
g2738
sg56
(lp2750
S':'
asbag49
(g70
g51
NtRp2751
(dp2752
g54
(dp2753
sg63
g2738
sg56
(lp2754
g49
(g50
g51
NtRp2755
(dp2756
g54
(dp2757
g62
I3
ssg63
g2751
sg56
(lp2758
g1280
asbasbasbag49
(g65
g51
NtRp2759
(dp2760
g54
(dp2761
sg63
g2566
sg56
(lp2762
g49
(g70
g51
NtRp2763
(dp2764
g54
(dp2765
g74
g75
ssg63
g2759
sg56
(lp2766
S'QUERY_STRING'
p2767
asbag49
(g70
g51
NtRp2768
(dp2769
g54
(dp2770
g81
g82
ssg63
g2759
sg56
(lp2771
S':'
asbag49
(g70
g51
NtRp2772
(dp2773
g54
(dp2774
sg63
g2759
sg56
(lp2775
g49
(g50
g51
NtRp2776
(dp2777
g54
(dp2778
g62
I3
ssg63
g2772
sg56
(lp2779
S''
asbasbasbag49
(g65
g51
NtRp2780
(dp2781
g54
(dp2782
sg63
g2566
sg56
(lp2783
g49
(g70
g51
NtRp2784
(dp2785
g54
(dp2786
g74
g75
ssg63
g2780
sg56
(lp2787
S'REMOTE_ADDR'
p2788
asbag49
(g70
g51
NtRp2789
(dp2790
g54
(dp2791
g81
g82
ssg63
g2780
sg56
(lp2792
S':'
asbag49
(g70
g51
NtRp2793
(dp2794
g54
(dp2795
sg63
g2780
sg56
(lp2796
g49
(g50
g51
NtRp2797
(dp2798
g54
(dp2799
g62
I3
ssg63
g2793
sg56
(lp2800
g216
asbasbasbag49
(g65
g51
NtRp2801
(dp2802
g54
(dp2803
sg63
g2566
sg56
(lp2804
g49
(g70
g51
NtRp2805
(dp2806
g54
(dp2807
g74
g75
ssg63
g2801
sg56
(lp2808
S'REMOTE_PORT'
p2809
asbag49
(g70
g51
NtRp2810
(dp2811
g54
(dp2812
g81
g82
ssg63
g2801
sg56
(lp2813
S':'
asbag49
(g70
g51
NtRp2814
(dp2815
g54
(dp2816
sg63
g2801
sg56
(lp2817
g49
(g50
g51
NtRp2818
(dp2819
g54
(dp2820
g62
I3
ssg63
g2814
sg56
(lp2821
g1344
asbasbasbag49
(g65
g51
NtRp2822
(dp2823
g54
(dp2824
sg63
g2566
sg56
(lp2825
g49
(g70
g51
NtRp2826
(dp2827
g54
(dp2828
g74
g75
ssg63
g2822
sg56
(lp2829
S'REQUEST_METHOD'
p2830
asbag49
(g70
g51
NtRp2831
(dp2832
g54
(dp2833
g81
g82
ssg63
g2822
sg56
(lp2834
S':'
asbag49
(g70
g51
NtRp2835
(dp2836
g54
(dp2837
sg63
g2822
sg56
(lp2838
g49
(g50
g51
NtRp2839
(dp2840
g54
(dp2841
g62
I3
ssg63
g2835
sg56
(lp2842
g1366
asbasbasbag49
(g65
g51
NtRp2843
(dp2844
g54
(dp2845
sg63
g2566
sg56
(lp2846
g49
(g70
g51
NtRp2847
(dp2848
g54
(dp2849
g74
g75
ssg63
g2843
sg56
(lp2850
S'REQUEST_URI'
p2851
asbag49
(g70
g51
NtRp2852
(dp2853
g54
(dp2854
g81
g82
ssg63
g2843
sg56
(lp2855
S':'
asbag49
(g70
g51
NtRp2856
(dp2857
g54
(dp2858
sg63
g2843
sg56
(lp2859
g49
(g50
g51
NtRp2860
(dp2861
g54
(dp2862
g62
I3
ssg63
g2856
sg56
(lp2863
g1280
asbasbasbag49
(g65
g51
NtRp2864
(dp2865
g54
(dp2866
sg63
g2566
sg56
(lp2867
g49
(g70
g51
NtRp2868
(dp2869
g54
(dp2870
g74
g75
ssg63
g2864
sg56
(lp2871
S'SCRIPT_NAME'
p2872
asbag49
(g70
g51
NtRp2873
(dp2874
g54
(dp2875
g81
g82
ssg63
g2864
sg56
(lp2876
S':'
asbag49
(g70
g51
NtRp2877
(dp2878
g54
(dp2879
sg63
g2864
sg56
(lp2880
g49
(g50
g51
NtRp2881
(dp2882
g54
(dp2883
g62
I3
ssg63
g2877
sg56
(lp2884
S''
asbasbasbag49
(g65
g51
NtRp2885
(dp2886
g54
(dp2887
sg63
g2566
sg56
(lp2888
g49
(g70
g51
NtRp2889
(dp2890
g54
(dp2891
g74
g75
ssg63
g2885
sg56
(lp2892
S'SERVER_NAME'
p2893
asbag49
(g70
g51
NtRp2894
(dp2895
g54
(dp2896
g81
g82
ssg63
g2885
sg56
(lp2897
S':'
asbag49
(g70
g51
NtRp2898
(dp2899
g54
(dp2900
sg63
g2885
sg56
(lp2901
g49
(g50
g51
NtRp2902
(dp2903
g54
(dp2904
g62
I3
ssg63
g2898
sg56
(lp2905
g1430
asbasbasbag49
(g65
g51
NtRp2906
(dp2907
g54
(dp2908
sg63
g2566
sg56
(lp2909
g49
(g70
g51
NtRp2910
(dp2911
g54
(dp2912
g74
g75
ssg63
g2906
sg56
(lp2913
S'SERVER_PORT'
p2914
asbag49
(g70
g51
NtRp2915
(dp2916
g54
(dp2917
g81
g82
ssg63
g2906
sg56
(lp2918
S':'
asbag49
(g70
g51
NtRp2919
(dp2920
g54
(dp2921
sg63
g2906
sg56
(lp2922
g49
(g50
g51
NtRp2923
(dp2924
g54
(dp2925
g62
I3
ssg63
g2919
sg56
(lp2926
g1452
asbasbasbag49
(g65
g51
NtRp2927
(dp2928
g54
(dp2929
sg63
g2566
sg56
(lp2930
g49
(g70
g51
NtRp2931
(dp2932
g54
(dp2933
g74
g75
ssg63
g2927
sg56
(lp2934
S'SERVER_PROTOCOL'
p2935
asbag49
(g70
g51
NtRp2936
(dp2937
g54
(dp2938
g81
g82
ssg63
g2927
sg56
(lp2939
S':'
asbag49
(g70
g51
NtRp2940
(dp2941
g54
(dp2942
sg63
g2927
sg56
(lp2943
g49
(g50
g51
NtRp2944
(dp2945
g54
(dp2946
g62
I3
ssg63
g2940
sg56
(lp2947
g1474
asbasbasbag49
(g65
g51
NtRp2948
(dp2949
g54
(dp2950
sg63
g2566
sg56
(lp2951
g49
(g70
g51
NtRp2952
(dp2953
g54
(dp2954
g74
g75
ssg63
g2948
sg56
(lp2955
S'SERVER_SOFTWARE'
p2956
asbag49
(g70
g51
NtRp2957
(dp2958
g54
(dp2959
g81
g82
ssg63
g2948
sg56
(lp2960
S':'
asbag49
(g70
g51
NtRp2961
(dp2962
g54
(dp2963
sg63
g2948
sg56
(lp2964
g49
(g50
g51
NtRp2965
(dp2966
g54
(dp2967
g62
I3
ssg63
g2961
sg56
(lp2968
g1496
asbasbasbag49
(g65
g51
NtRp2969
(dp2970
g54
(dp2971
sg63
g2566
sg56
(lp2972
g49
(g70
g51
NtRp2973
(dp2974
g54
(dp2975
g74
g75
ssg63
g2969
sg56
(lp2976
S'wsgi.errors'
p2977
asbag49
(g70
g51
NtRp2978
(dp2979
g54
(dp2980
g81
g82
ssg63
g2969
sg56
(lp2981
S':'
asbag49
(g70
g51
NtRp2982
(dp2983
g54
(dp2984
sg63
g2969
sg56
(lp2985
g49
(g50
g51
NtRp2986
(dp2987
g54
(dp2988
g62
I3
ssg63
g2982
sg56
(lp2989
S"<open file '<stderr>', mode 'w' at 0x540b0>"
p2990
asbasbasbag49
(g65
g51
NtRp2991
(dp2992
g54
(dp2993
sg63
g2566
sg56
(lp2994
g49
(g70
g51
NtRp2995
(dp2996
g54
(dp2997
g74
g75
ssg63
g2991
sg56
(lp2998
S'wsgi.file_wrapper'
p2999
asbag49
(g70
g51
NtRp3000
(dp3001
g54
(dp3002
g81
g82
ssg63
g2991
sg56
(lp3003
S':'
asbag49
(g70
g51
NtRp3004
(dp3005
g54
(dp3006
sg63
g2991
sg56
(lp3007
g49
(g50
g51
NtRp3008
(dp3009
g54
(dp3010
g62
I3
ssg63
g3004
sg56
(lp3011
S'<class wsgiref.util.FileWrapper at 0x4761060>'
p3012
asbasbasbag49
(g65
g51
NtRp3013
(dp3014
g54
(dp3015
sg63
g2566
sg56
(lp3016
g49
(g70
g51
NtRp3017
(dp3018
g54
(dp3019
g74
g75
ssg63
g3013
sg56
(lp3020
S'wsgi.input'
p3021
asbag49
(g70
g51
NtRp3022
(dp3023
g54
(dp3024
g81
g82
ssg63
g3013
sg56
(lp3025
S':'
asbag49
(g70
g51
NtRp3026
(dp3027
g54
(dp3028
sg63
g3013
sg56
(lp3029
g49
(g50
g51
NtRp3030
(dp3031
g54
(dp3032
g62
I3
ssg63
g3026
sg56
(lp3033
S'<cStringIO.StringO object at 0x6db43c0>'
p3034
asbasbasbag49
(g65
g51
NtRp3035
(dp3036
g54
(dp3037
sg63
g2566
sg56
(lp3038
g49
(g70
g51
NtRp3039
(dp3040
g54
(dp3041
g74
g75
ssg63
g3035
sg56
(lp3042
S'wsgi.multiprocess'
p3043
asbag49
(g70
g51
NtRp3044
(dp3045
g54
(dp3046
g81
g82
ssg63
g3035
sg56
(lp3047
S':'
asbag49
(g70
g51
NtRp3048
(dp3049
g54
(dp3050
sg63
g3035
sg56
(lp3051
g49
(g50
g51
NtRp3052
(dp3053
g54
(dp3054
g62
I3
ssg63
g3048
sg56
(lp3055
g92
asbasbasbag49
(g65
g51
NtRp3056
(dp3057
g54
(dp3058
sg63
g2566
sg56
(lp3059
g49
(g70
g51
NtRp3060
(dp3061
g54
(dp3062
g74
g75
ssg63
g3056
sg56
(lp3063
S'wsgi.multithread'
p3064
asbag49
(g70
g51
NtRp3065
(dp3066
g54
(dp3067
g81
g82
ssg63
g3056
sg56
(lp3068
S':'
asbag49
(g70
g51
NtRp3069
(dp3070
g54
(dp3071
sg63
g3056
sg56
(lp3072
g49
(g50
g51
NtRp3073
(dp3074
g54
(dp3075
g62
I3
ssg63
g3069
sg56
(lp3076
g928
asbasbasbag49
(g65
g51
NtRp3077
(dp3078
g54
(dp3079
sg63
g2566
sg56
(lp3080
g49
(g70
g51
NtRp3081
(dp3082
g54
(dp3083
g74
g75
ssg63
g3077
sg56
(lp3084
S'wsgi.run_once'
p3085
asbag49
(g70
g51
NtRp3086
(dp3087
g54
(dp3088
g81
g82
ssg63
g3077
sg56
(lp3089
S':'
asbag49
(g70
g51
NtRp3090
(dp3091
g54
(dp3092
sg63
g3077
sg56
(lp3093
g49
(g50
g51
NtRp3094
(dp3095
g54
(dp3096
g62
I3
ssg63
g3090
sg56
(lp3097
g92
asbasbasbag49
(g65
g51
NtRp3098
(dp3099
g54
(dp3100
sg63
g2566
sg56
(lp3101
g49
(g70
g51
NtRp3102
(dp3103
g54
(dp3104
g74
g75
ssg63
g3098
sg56
(lp3105
S'wsgi.url_scheme'
p3106
asbag49
(g70
g51
NtRp3107
(dp3108
g54
(dp3109
g81
g82
ssg63
g3098
sg56
(lp3110
S':'
asbag49
(g70
g51
NtRp3111
(dp3112
g54
(dp3113
sg63
g3098
sg56
(lp3114
g49
(g50
g51
NtRp3115
(dp3116
g54
(dp3117
g62
I3
ssg63
g3111
sg56
(lp3118
g1755
asbasbasbag49
(g65
g51
NtRp3119
(dp3120
g54
(dp3121
sg63
g2566
sg56
(lp3122
g49
(g70
g51
NtRp3123
(dp3124
g54
(dp3125
g74
g75
ssg63
g3119
sg56
(lp3126
S'wsgi.version'
p3127
asbag49
(g70
g51
NtRp3128
(dp3129
g54
(dp3130
g81
g82
ssg63
g3119
sg56
(lp3131
S':'
asbag49
(g70
g51
NtRp3132
(dp3133
g54
(dp3134
sg63
g3119
sg56
(lp3135
g49
(g50
g51
NtRp3136
(dp3137
g54
(dp3138
g62
I3
ssg63
g3132
sg56
(lp3139
S'1'
asbasbasbasbasbasbasbasbasbasbasbasbasbsS'frames'
p3140
(lp3141
(dp3142
S'file'
p3143
S'/home/mdipierro/web2py/gluon/restricted.py'
p3144
sS'dump'
p3145
(dp3146
sS'lnum'
p3147
I212
sS'lines'
p3148
(dp3149
sS'call'
p3150
S"(code='# coding: utf8\\n# try something like\\n\\ndef show():...eturn arr\\n\\nresponse._vars=response._caller(show)\\n', environment={'A': <class 'gluon.html.A'>, 'Auth': <class 'gluon.tools.Auth'>, 'B': <class 'gluon.html.B'>, 'BEAUTIFY': <class 'gluon.html.BEAUTIFY'>, 'BODY': <class 'gluon.html.BODY'>, 'BR': <class 'gluon.html.BR'>, 'BUTTON': <class 'gluon.html.BUTTON'>, 'CAT': <class 'gluon.html.CAT'>, 'CENTER': <class 'gluon.html.CENTER'>, 'CLEANUP': <class 'gluon.validators.CLEANUP'>, ...}, layer='/Users/zamechek/Downloads/web2py/web2py.app/Cont...Resources/applications/hellow/controllers/game.py')"
p3151
sS'func'
p3152
S'restricted'
p3153
sa(dp3154
g3143
S'/Users/zamechek/Downloads/web2py/web2py.app/Contents/Resources/applications/hellow/controllers/game.py'
p3155
sg3145
(dp3156
sg3147
I40
sg3148
(dp3157
I32
S'    return otherForm'
p3158
sI33
S''
sI34
S'def makePrettyLables(rows):'
p3159
sI35
S'        arr = []'
p3160
sI36
S'        for i in range(0, len(rows)):'
p3161
sI37
S'            arr.append("Slot " + str(i+1) + " - " + str(rows[i].odds))'
p3162
sI38
S'        return arr'
p3163
sI29
S''
sI30
S'    elif otherForm.errors:'
p3164
sI31
S"        response.flash = 'form has errors'"
p3165
ssg3150
S'()'
p3166
sg3152
S'<module>'
p3167
sa(dp3168
g3143
S'/home/mdipierro/web2py/gluon/globals.py'
p3169
sg3145
(dp3170
sg3147
I193
sg3148
(dp3171
sg3150
S'(f=<function show at 0x8050470>)'
p3172
sg3152
S'<lambda>'
p3173
sa(dp3174
g3143
S'/Users/zamechek/Downloads/web2py/web2py.app/Contents/Resources/applications/hellow/controllers/game.py'
p3175
sg3145
(dp3176
sg3147
I14
sg3148
(dp3177
I9
S'    query=((db.game.id==db.game_slots.game)&(db.slot.id==db.game_slots.slot))'
p3178
sI10
S'    #game_and_slots=(db.game.id==db.game_slots.game)&(db.slot.id==db.game_slots.slot)'
p3179
sI11
S'    rows = db(query).select(db.slot.id, db.slot.odds)'
p3180
sI12
S'    #form = display_form(rows)'
p3181
sI13
S''
sI14
S'    otherForm = form_from_factory(rows, game)'
p3182
sI15
S'    return dict(name=auth_user.first_name.capitalize() + " " + auth_user.last_name.capitalize(), balance = game.balance, slots = rows, gameid = id, otherForm=otherForm)'
p3183
sI16
S''
sI17
S'def form_from_factory(rows , game):'
p3184
sI18
S''
ssg3150
S'()'
p3185
sg3152
S'show'
p3186
sa(dp3187
g3143
S'/Users/zamechek/Downloads/web2py/web2py.app/Contents/Resources/applications/hellow/controllers/game.py'
p3188
sg3145
(dp3189
sg3147
I21
sg3148
(dp3190
I16
S''
sI17
S'def form_from_factory(rows , game):'
p3191
sI18
S''
sI19
S'    otherForm = SQLFORM.factory('
p3192
sI20
S"        Field('bet', requires=IS_NOT_EMPTY()),"
p3193
sI21
S"        Field('slot', requires=IS_IN_SET(rows, labels=makePrettyLables(rows), ids=[0,1,2])))"
p3194
sI22
S'    if otherForm.process().accepted:'
p3195
sI23
S'        bet = int(otherForm.vars.bet)'
p3196
sI24
S'        currentBalance =  int(game.balance)'
p3197
sI25
S'        remainingBalance = currentBalance - bet'
p3198
ssg3150
S"(rows=<Rows (3)>, game=<Row {'auth_user': 1, 'balance': 99, 'id': 1}>)"
p3199
sg3152
S'form_from_factory'
p3200
sasS'pyver'
p3201
S'Python 2.5.1: /Users/zamechek/Downloads/web2py/web2py.app/Contents/MacOS/python'
p3202
sS'session'
p3203
g49
(g50
g51
NtRp3204
(dp3205
g54
(dp3206
sg56
(lp3207
g49
(g58
g51
NtRp3208
(dp3209
g54
(dp3210
g62
I5
ssg63
Nsg56
(lp3211
g49
(g65
g51
NtRp3212
(dp3213
g54
(dp3214
sg63
g3208
sg56
(lp3215
g49
(g70
g51
NtRp3216
(dp3217
g54
(dp3218
g74
g75
ssg63
g3212
sg56
(lp3219
S'last_orderby'
p3220
asbag49
(g70
g51
NtRp3221
(dp3222
g54
(dp3223
g81
g82
ssg63
g3212
sg56
(lp3224
S':'
asbag49
(g70
g51
NtRp3225
(dp3226
g54
(dp3227
sg63
g3212
sg56
(lp3228
g49
(g50
g51
NtRp3229
(dp3230
g54
(dp3231
g62
I5
ssg63
g3225
sg56
(lp3232
S'None'
p3233
asbasbasbag49
(g65
g51
NtRp3234
(dp3235
g54
(dp3236
sg63
g3208
sg56
(lp3237
g49
(g70
g51
NtRp3238
(dp3239
g54
(dp3240
g74
g75
ssg63
g3234
sg56
(lp3241
S'last_query'
p3242
asbag49
(g70
g51
NtRp3243
(dp3244
g54
(dp3245
g81
g82
ssg63
g3234
sg56
(lp3246
S':'
asbag49
(g70
g51
NtRp3247
(dp3248
g54
(dp3249
sg63
g3234
sg56
(lp3250
g49
(g50
g51
NtRp3251
(dp3252
g54
(dp3253
g62
I5
ssg63
g3247
sg56
(lp3254
S'db.game_slots.id>0'
p3255
asbasbasbasbasbsS'etype'
p3256
S"<type 'exceptions.TypeError'>"
p3257
sS'date'
p3258
S'Thu Mar 28 10:54:14 2013'
p3259
sS'response'
p3260
g49
(g50
g51
NtRp3261
(dp3262
g54
(dp3263
sg56
(lp3264
g49
(g58
g51
NtRp3265
(dp3266
g54
(dp3267
g62
I5
ssg63
Nsg56
(lp3268
g49
(g65
g51
NtRp3269
(dp3270
g54
(dp3271
sg63
g3265
sg56
(lp3272
g49
(g70
g51
NtRp3273
(dp3274
g54
(dp3275
g74
g75
ssg63
g3269
sg56
(lp3276
g159
asbag49
(g70
g51
NtRp3277
(dp3278
g54
(dp3279
g81
g82
ssg63
g3269
sg56
(lp3280
S':'
asbag49
(g70
g51
NtRp3281
(dp3282
g54
(dp3283
sg63
g3269
sg56
(lp3284
g49
(g50
g51
NtRp3285
(dp3286
g54
(dp3287
g62
I5
ssg63
g3281
sg56
(lp3288
S'<cStringIO.StringO object at 0x3b6e800>'
p3289
asbasbasbag49
(g65
g51
NtRp3290
(dp3291
g54
(dp3292
sg63
g3265
sg56
(lp3293
g49
(g70
g51
NtRp3294
(dp3295
g54
(dp3296
g74
g75
ssg63
g3290
sg56
(lp3297
g247
asbag49
(g70
g51
NtRp3298
(dp3299
g54
(dp3300
g81
g82
ssg63
g3290
sg56
(lp3301
S':'
asbag49
(g70
g51
NtRp3302
(dp3303
g54
(dp3304
sg63
g3290
sg56
(lp3305
g49
(g50
g51
NtRp3306
(dp3307
g54
(dp3308
g62
I5
ssg63
g3302
sg56
(lp3309
g49
(g58
g51
NtRp3310
(dp3311
g54
(dp3312
g62
I4
ssg63
Nsg56
(lp3313
g49
(g65
g51
NtRp3314
(dp3315
g54
(dp3316
sg63
g3310
sg56
(lp3317
g49
(g70
g51
NtRp3318
(dp3319
g54
(dp3320
g74
g75
ssg63
g3314
sg56
(lp3321
S'session_id_hellow'
p3322
asbag49
(g70
g51
NtRp3323
(dp3324
g54
(dp3325
g81
g82
ssg63
g3314
sg56
(lp3326
S':'
asbag49
(g70
g51
NtRp3327
(dp3328
g54
(dp3329
sg63
g3314
sg56
(lp3330
g49
(g50
g51
NtRp3331
(dp3332
g54
(dp3333
g62
I4
ssg63
g3327
sg56
(lp3334
g458
ag49
(g58
g51
NtRp3335
(dp3336
g54
(dp3337
g62
I3
ssg63
Nsg56
(lp3338
g49
(g65
g51
NtRp3339
(dp3340
g54
(dp3341
sg63
g3335
sg56
(lp3342
g49
(g70
g51
NtRp3343
(dp3344
g54
(dp3345
g74
g75
ssg63
g3339
sg56
(lp3346
g298
asbag49
(g70
g51
NtRp3347
(dp3348
g54
(dp3349
g81
g82
ssg63
g3339
sg56
(lp3350
S':'
asbag49
(g70
g51
NtRp3351
(dp3352
g54
(dp3353
sg63
g3339
sg56
(lp3354
g49
(g50
g51
NtRp3355
(dp3356
g54
(dp3357
g62
I3
ssg63
g3351
sg56
(lp3358
S''
asbasbasbag49
(g65
g51
NtRp3359
(dp3360
g54
(dp3361
sg63
g3335
sg56
(lp3362
g49
(g70
g51
NtRp3363
(dp3364
g54
(dp3365
g74
g75
ssg63
g3359
sg56
(lp3366
g319
asbag49
(g70
g51
NtRp3367
(dp3368
g54
(dp3369
g81
g82
ssg63
g3359
sg56
(lp3370
S':'
asbag49
(g70
g51
NtRp3371
(dp3372
g54
(dp3373
sg63
g3359
sg56
(lp3374
g49
(g50
g51
NtRp3375
(dp3376
g54
(dp3377
g62
I3
ssg63
g3371
sg56
(lp3378
S''
asbasbasbag49
(g65
g51
NtRp3379
(dp3380
g54
(dp3381
sg63
g3335
sg56
(lp3382
g49
(g70
g51
NtRp3383
(dp3384
g54
(dp3385
g74
g75
ssg63
g3379
sg56
(lp3386
g340
asbag49
(g70
g51
NtRp3387
(dp3388
g54
(dp3389
g81
g82
ssg63
g3379
sg56
(lp3390
S':'
asbag49
(g70
g51
NtRp3391
(dp3392
g54
(dp3393
sg63
g3379
sg56
(lp3394
g49
(g50
g51
NtRp3395
(dp3396
g54
(dp3397
g62
I3
ssg63
g3391
sg56
(lp3398
S''
asbasbasbag49
(g65
g51
NtRp3399
(dp3400
g54
(dp3401
sg63
g3335
sg56
(lp3402
g49
(g70
g51
NtRp3403
(dp3404
g54
(dp3405
g74
g75
ssg63
g3399
sg56
(lp3406
g361
asbag49
(g70
g51
NtRp3407
(dp3408
g54
(dp3409
g81
g82
ssg63
g3399
sg56
(lp3410
S':'
asbag49
(g70
g51
NtRp3411
(dp3412
g54
(dp3413
sg63
g3399
sg56
(lp3414
g49
(g50
g51
NtRp3415
(dp3416
g54
(dp3417
g62
I3
ssg63
g3411
sg56
(lp3418
S''
asbasbasbag49
(g65
g51
NtRp3419
(dp3420
g54
(dp3421
sg63
g3335
sg56
(lp3422
g49
(g70
g51
NtRp3423
(dp3424
g54
(dp3425
g74
g75
ssg63
g3419
sg56
(lp3426
g382
asbag49
(g70
g51
NtRp3427
(dp3428
g54
(dp3429
g81
g82
ssg63
g3419
sg56
(lp3430
S':'
asbag49
(g70
g51
NtRp3431
(dp3432
g54
(dp3433
sg63
g3419
sg56
(lp3434
g49
(g50
g51
NtRp3435
(dp3436
g54
(dp3437
g62
I3
ssg63
g3431
sg56
(lp3438
S'/'
asbasbasbag49
(g65
g51
NtRp3439
(dp3440
g54
(dp3441
sg63
g3335
sg56
(lp3442
g49
(g70
g51
NtRp3443
(dp3444
g54
(dp3445
g74
g75
ssg63
g3439
sg56
(lp3446
g403
asbag49
(g70
g51
NtRp3447
(dp3448
g54
(dp3449
g81
g82
ssg63
g3439
sg56
(lp3450
S':'
asbag49
(g70
g51
NtRp3451
(dp3452
g54
(dp3453
sg63
g3439
sg56
(lp3454
g49
(g50
g51
NtRp3455
(dp3456
g54
(dp3457
g62
I3
ssg63
g3451
sg56
(lp3458
S''
asbasbasbag49
(g65
g51
NtRp3459
(dp3460
g54
(dp3461
sg63
g3335
sg56
(lp3462
g49
(g70
g51
NtRp3463
(dp3464
g54
(dp3465
g74
g75
ssg63
g3459
sg56
(lp3466
g424
asbag49
(g70
g51
NtRp3467
(dp3468
g54
(dp3469
g81
g82
ssg63
g3459
sg56
(lp3470
S':'
asbag49
(g70
g51
NtRp3471
(dp3472
g54
(dp3473
sg63
g3459
sg56
(lp3474
g49
(g50
g51
NtRp3475
(dp3476
g54
(dp3477
g62
I3
ssg63
g3471
sg56
(lp3478
S''
asbasbasbasbasbasbasbasbasbasbasbag49
(g65
g51
NtRp3479
(dp3480
g54
(dp3481
sg63
g3265
sg56
(lp3482
g49
(g70
g51
NtRp3483
(dp3484
g54
(dp3485
g74
g75
ssg63
g3479
sg56
(lp3486
S'delimiters'
p3487
asbag49
(g70
g51
NtRp3488
(dp3489
g54
(dp3490
g81
g82
ssg63
g3479
sg56
(lp3491
S':'
asbag49
(g70
g51
NtRp3492
(dp3493
g54
(dp3494
sg63
g3479
sg56
(lp3495
g49
(g50
g51
NtRp3496
(dp3497
g54
(dp3498
g62
I5
ssg63
g3492
sg56
(lp3499
g49
(g58
g51
NtRp3500
(dp3501
g54
(dp3502
g62
I4
ssg63
Nsg56
(lp3503
g49
(g65
g51
NtRp3504
(dp3505
g54
(dp3506
sg63
g3500
sg56
(lp3507
g49
(g70
g51
NtRp3508
(dp3509
g54
(dp3510
sg63
g3504
sg56
(lp3511
g49
(g50
g51
NtRp3512
(dp3513
g54
(dp3514
g62
I4
ssg63
g3508
sg56
(lp3515
S'{{'
p3516
asbasbasbag49
(g65
g51
NtRp3517
(dp3518
g54
(dp3519
sg63
g3500
sg56
(lp3520
g49
(g70
g51
NtRp3521
(dp3522
g54
(dp3523
sg63
g3517
sg56
(lp3524
g49
(g50
g51
NtRp3525
(dp3526
g54
(dp3527
g62
I4
ssg63
g3521
sg56
(lp3528
S'}}'
p3529
asbasbasbasbasbasbasbag49
(g65
g51
NtRp3530
(dp3531
g54
(dp3532
sg63
g3265
sg56
(lp3533
g49
(g70
g51
NtRp3534
(dp3535
g54
(dp3536
g74
g75
ssg63
g3530
sg56
(lp3537
S'files'
p3538
asbag49
(g70
g51
NtRp3539
(dp3540
g54
(dp3541
g81
g82
ssg63
g3530
sg56
(lp3542
S':'
asbag49
(g70
g51
NtRp3543
(dp3544
g54
(dp3545
sg63
g3530
sg56
(lp3546
g49
(g50
g51
NtRp3547
(dp3548
g54
(dp3549
g62
I5
ssg63
g3543
sg56
(lp3550
g49
(g58
g51
NtRp3551
(dp3552
g54
(dp3553
g62
I4
ssg63
Nsg56
(lp3554
sbasbasbasbag49
(g65
g51
NtRp3555
(dp3556
g54
(dp3557
sg63
g3265
sg56
(lp3558
g49
(g70
g51
NtRp3559
(dp3560
g54
(dp3561
g74
g75
ssg63
g3555
sg56
(lp3562
S'flash'
p3563
asbag49
(g70
g51
NtRp3564
(dp3565
g54
(dp3566
g81
g82
ssg63
g3555
sg56
(lp3567
S':'
asbag49
(g70
g51
NtRp3568
(dp3569
g54
(dp3570
sg63
g3555
sg56
(lp3571
g49
(g50
g51
NtRp3572
(dp3573
g54
(dp3574
g62
I5
ssg63
g3568
sg56
(lp3575
S''
asbasbasbag49
(g65
g51
NtRp3576
(dp3577
g54
(dp3578
sg63
g3265
sg56
(lp3579
g49
(g70
g51
NtRp3580
(dp3581
g54
(dp3582
g74
g75
ssg63
g3576
sg56
(lp3583
S'generic_patterns'
p3584
asbag49
(g70
g51
NtRp3585
(dp3586
g54
(dp3587
g81
g82
ssg63
g3576
sg56
(lp3588
S':'
asbag49
(g70
g51
NtRp3589
(dp3590
g54
(dp3591
sg63
g3576
sg56
(lp3592
g49
(g50
g51
NtRp3593
(dp3594
g54
(dp3595
g62
I5
ssg63
g3589
sg56
(lp3596
g49
(g58
g51
NtRp3597
(dp3598
g54
(dp3599
g62
I4
ssg63
Nsg56
(lp3600
g49
(g65
g51
NtRp3601
(dp3602
g54
(dp3603
sg63
g3597
sg56
(lp3604
g49
(g70
g51
NtRp3605
(dp3606
g54
(dp3607
sg63
g3601
sg56
(lp3608
g49
(g50
g51
NtRp3609
(dp3610
g54
(dp3611
g62
I4
ssg63
g3605
sg56
(lp3612
S'*'
asbasbasbasbasbasbasbag49
(g65
g51
NtRp3613
(dp3614
g54
(dp3615
sg63
g3265
sg56
(lp3616
g49
(g70
g51
NtRp3617
(dp3618
g54
(dp3619
g74
g75
ssg63
g3613
sg56
(lp3620
S'google_analytics_id'
p3621
asbag49
(g70
g51
NtRp3622
(dp3623
g54
(dp3624
g81
g82
ssg63
g3613
sg56
(lp3625
S':'
asbag49
(g70
g51
NtRp3626
(dp3627
g54
(dp3628
sg63
g3613
sg56
(lp3629
g49
(g50
g51
NtRp3630
(dp3631
g54
(dp3632
g62
I5
ssg63
g3626
sg56
(lp3633
S'None'
p3634
asbasbasbag49
(g65
g51
NtRp3635
(dp3636
g54
(dp3637
sg63
g3265
sg56
(lp3638
g49
(g70
g51
NtRp3639
(dp3640
g54
(dp3641
g74
g75
ssg63
g3635
sg56
(lp3642
S'headers'
p3643
asbag49
(g70
g51
NtRp3644
(dp3645
g54
(dp3646
g81
g82
ssg63
g3635
sg56
(lp3647
S':'
asbag49
(g70
g51
NtRp3648
(dp3649
g54
(dp3650
sg63
g3635
sg56
(lp3651
g49
(g50
g51
NtRp3652
(dp3653
g54
(dp3654
g62
I5
ssg63
g3648
sg56
(lp3655
g49
(g58
g51
NtRp3656
(dp3657
g54
(dp3658
g62
I4
ssg63
Nsg56
(lp3659
g49
(g65
g51
NtRp3660
(dp3661
g54
(dp3662
sg63
g3656
sg56
(lp3663
g49
(g70
g51
NtRp3664
(dp3665
g54
(dp3666
g74
g75
ssg63
g3660
sg56
(lp3667
S'X-Powered-By'
p3668
asbag49
(g70
g51
NtRp3669
(dp3670
g54
(dp3671
g81
g82
ssg63
g3660
sg56
(lp3672
S':'
asbag49
(g70
g51
NtRp3673
(dp3674
g54
(dp3675
sg63
g3660
sg56
(lp3676
g49
(g50
g51
NtRp3677
(dp3678
g54
(dp3679
g62
I4
ssg63
g3673
sg56
(lp3680
S'web2py'
p3681
asbasbasbasbasbasbasbag49
(g65
g51
NtRp3682
(dp3683
g54
(dp3684
sg63
g3265
sg56
(lp3685
g49
(g70
g51
NtRp3686
(dp3687
g54
(dp3688
g74
g75
ssg63
g3682
sg56
(lp3689
S'logo'
p3690
asbag49
(g70
g51
NtRp3691
(dp3692
g54
(dp3693
g81
g82
ssg63
g3682
sg56
(lp3694
S':'
asbag49
(g70
g51
NtRp3695
(dp3696
g54
(dp3697
sg63
g3682
sg56
(lp3698
g49
(g50
g51
NtRp3699
(dp3700
g54
(dp3701
g62
I5
ssg63
g3695
sg56
(lp3702
g49
(cgluon.html
A
p3703
g51
NtRp3704
(dp3705
g54
(dp3706
S'_class'
p3707
S'brand'
p3708
sS'_href'
p3709
S'http://www.web2py.com/'
p3710
ssg63
Nsg56
(lp3711
g49
(cgluon.html
B
p3712
g51
NtRp3713
(dp3714
g54
(dp3715
sg63
g3704
sg56
(lp3716
S'web'
p3717
ag49
(cgluon.html
SPAN
p3718
g51
NtRp3719
(dp3720
g54
(dp3721
sg63
g3713
sg56
(lp3722
I2
asbaS'py'
p3723
asbacgluon.html
XML_unpickle
p3724
(S's\r\x00\x00\x00&trade;&nbsp;'
tRp3725
asbasbasbasbag49
(g65
g51
NtRp3726
(dp3727
g54
(dp3728
sg63
g3265
sg56
(lp3729
g49
(g70
g51
NtRp3730
(dp3731
g54
(dp3732
g74
g75
ssg63
g3726
sg56
(lp3733
S'menu'
p3734
asbag49
(g70
g51
NtRp3735
(dp3736
g54
(dp3737
g81
g82
ssg63
g3726
sg56
(lp3738
S':'
asbag49
(g70
g51
NtRp3739
(dp3740
g54
(dp3741
sg63
g3726
sg56
(lp3742
g49
(g50
g51
NtRp3743
(dp3744
g54
(dp3745
g62
I5
ssg63
g3739
sg56
(lp3746
g49
(g58
g51
NtRp3747
(dp3748
g54
(dp3749
g62
I4
ssg63
Nsg56
(lp3750
g49
(g65
g51
NtRp3751
(dp3752
g54
(dp3753
sg63
g3747
sg56
(lp3754
g49
(g70
g51
NtRp3755
(dp3756
g54
(dp3757
sg63
g3751
sg56
(lp3758
g49
(g50
g51
NtRp3759
(dp3760
g54
(dp3761
g62
I4
ssg63
g3755
sg56
(lp3762
g49
(g58
g51
NtRp3763
(dp3764
g54
(dp3765
g62
I3
ssg63
Nsg56
(lp3766
g49
(g65
g51
NtRp3767
(dp3768
g54
(dp3769
sg63
g3763
sg56
(lp3770
g49
(g70
g51
NtRp3771
(dp3772
g54
(dp3773
sg63
g3767
sg56
(lp3774
g49
(g50
g51
NtRp3775
(dp3776
g54
(dp3777
g62
I3
ssg63
g3771
sg56
(lp3778
cgluon.languages
lazyT_unpickle
p3779
(S't\x04\x00\x00\x00Home'
tRp3780
asbasbasbag49
(g65
g51
NtRp3781
(dp3782
g54
(dp3783
sg63
g3763
sg56
(lp3784
g49
(g70
g51
NtRp3785
(dp3786
g54
(dp3787
sg63
g3781
sg56
(lp3788
g49
(g50
g51
NtRp3789
(dp3790
g54
(dp3791
g62
I3
ssg63
g3785
sg56
(lp3792
g92
asbasbasbag49
(g65
g51
NtRp3793
(dp3794
g54
(dp3795
sg63
g3763
sg56
(lp3796
g49
(g70
g51
NtRp3797
(dp3798
g54
(dp3799
sg63
g3793
sg56
(lp3800
g49
(g50
g51
NtRp3801
(dp3802
g54
(dp3803
g62
I3
ssg63
g3797
sg56
(lp3804
S'/hellow/default/index'
p3805
asbasbasbag49
(g65
g51
NtRp3806
(dp3807
g54
(dp3808
sg63
g3763
sg56
(lp3809
g49
(g70
g51
NtRp3810
(dp3811
g54
(dp3812
sg63
g3806
sg56
(lp3813
g49
(g50
g51
NtRp3814
(dp3815
g54
(dp3816
g62
I3
ssg63
g3810
sg56
(lp3817
g49
(g58
g51
NtRp3818
(dp3819
g54
(dp3820
g62
I2
ssg63
Nsg56
(lp3821
sbasbasbasbasbasbasbasbag49
(g65
g51
NtRp3822
(dp3823
g54
(dp3824
sg63
g3747
sg56
(lp3825
g49
(g70
g51
NtRp3826
(dp3827
g54
(dp3828
sg63
g3822
sg56
(lp3829
g49
(g50
g51
NtRp3830
(dp3831
g54
(dp3832
g62
I4
ssg63
g3826
sg56
(lp3833
g49
(g58
g51
NtRp3834
(dp3835
g54
(dp3836
g62
I3
ssg63
Nsg56
(lp3837
g49
(g65
g51
NtRp3838
(dp3839
g54
(dp3840
sg63
g3834
sg56
(lp3841
g49
(g70
g51
NtRp3842
(dp3843
g54
(dp3844
sg63
g3838
sg56
(lp3845
g49
(g50
g51
NtRp3846
(dp3847
g54
(dp3848
g62
I3
ssg63
g3842
sg56
(lp3849
g49
(g3718
g51
NtRp3850
(dp3851
g54
(dp3852
g3707
S'highlighted'
p3853
ssg63
Nsg56
(lp3854
g3681
asbasbasbasbag49
(g65
g51
NtRp3855
(dp3856
g54
(dp3857
sg63
g3834
sg56
(lp3858
g49
(g70
g51
NtRp3859
(dp3860
g54
(dp3861
sg63
g3855
sg56
(lp3862
g49
(g50
g51
NtRp3863
(dp3864
g54
(dp3865
g62
I3
ssg63
g3859
sg56
(lp3866
g92
asbasbasbag49
(g65
g51
NtRp3867
(dp3868
g54
(dp3869
sg63
g3834
sg56
(lp3870
g49
(g70
g51
NtRp3871
(dp3872
g54
(dp3873
sg63
g3867
sg56
(lp3874
g49
(g50
g51
NtRp3875
(dp3876
g54
(dp3877
g62
I3
ssg63
g3871
sg56
(lp3878
S'http://web2py.com'
p3879
asbasbasbag49
(g65
g51
NtRp3880
(dp3881
g54
(dp3882
sg63
g3834
sg56
(lp3883
g49
(g70
g51
NtRp3884
(dp3885
g54
(dp3886
sg63
g3880
sg56
(lp3887
g49
(g50
g51
NtRp3888
(dp3889
g54
(dp3890
g62
I3
ssg63
g3884
sg56
(lp3891
g49
(g58
g51
NtRp3892
(dp3893
g54
(dp3894
g62
I2
ssg63
Nsg56
(lp3895
g49
(g65
g51
NtRp3896
(dp3897
g54
(dp3898
sg63
g3892
sg56
(lp3899
g49
(g70
g51
NtRp3900
(dp3901
g54
(dp3902
sg63
g3896
sg56
(lp3903
g49
(g50
g51
NtRp3904
(dp3905
g54
(dp3906
g62
I2
ssg63
g3900
sg56
(lp3907
g49
(g58
g51
NtRp3908
(dp3909
g54
(dp3910
g62
I1
ssg63
Nsg56
(lp3911
g49
(g65
g51
NtRp3912
(dp3913
g54
(dp3914
sg63
g3908
sg56
(lp3915
g49
(g70
g51
NtRp3916
(dp3917
g54
(dp3918
sg63
g3912
sg56
(lp3919
g49
(g50
g51
NtRp3920
(dp3921
g54
(dp3922
g62
I1
ssg63
g3916
sg56
(lp3923
g3779
(S's\x08\x00\x00\x00My Sites'
tRp3924
asbasbasbag49
(g65
g51
NtRp3925
(dp3926
g54
(dp3927
sg63
g3908
sg56
(lp3928
g49
(g70
g51
NtRp3929
(dp3930
g54
(dp3931
sg63
g3925
sg56
(lp3932
g49
(g50
g51
NtRp3933
(dp3934
g54
(dp3935
g62
I1
ssg63
g3929
sg56
(lp3936
I00
asbasbasbag49
(g65
g51
NtRp3937
(dp3938
g54
(dp3939
sg63
g3908
sg56
(lp3940
g49
(g70
g51
NtRp3941
(dp3942
g54
(dp3943
sg63
g3937
sg56
(lp3944
g49
(g50
g51
NtRp3945
(dp3946
g54
(dp3947
g62
I1
ssg63
g3941
sg56
(lp3948
S'/admin/default/site'
p3949
asbasbasbasbasbasbasbag49
(g65
g51
NtRp3950
(dp3951
g54
(dp3952
sg63
g3892
sg56
(lp3953
g49
(g70
g51
NtRp3954
(dp3955
g54
(dp3956
sg63
g3950
sg56
(lp3957
g49
(g50
g51
NtRp3958
(dp3959
g54
(dp3960
g62
I2
ssg63
g3954
sg56
(lp3961
g49
(g58
g51
NtRp3962
(dp3963
g54
(dp3964
g62
I1
ssg63
Nsg56
(lp3965
g49
(g65
g51
NtRp3966
(dp3967
g54
(dp3968
sg63
g3962
sg56
(lp3969
g49
(g70
g51
NtRp3970
(dp3971
g54
(dp3972
sg63
g3966
sg56
(lp3973
g49
(g50
g51
NtRp3974
(dp3975
g54
(dp3976
g62
I1
ssg63
g3970
sg56
(lp3977
g3779
(S's\x08\x00\x00\x00This App'
tRp3978
asbasbasbag49
(g65
g51
NtRp3979
(dp3980
g54
(dp3981
sg63
g3962
sg56
(lp3982
g49
(g70
g51
NtRp3983
(dp3984
g54
(dp3985
sg63
g3979
sg56
(lp3986
g49
(g50
g51
NtRp3987
(dp3988
g54
(dp3989
g62
I1
ssg63
g3983
sg56
(lp3990
I00
asbasbasbag49
(g65
g51
NtRp3991
(dp3992
g54
(dp3993
sg63
g3962
sg56
(lp3994
g49
(g70
g51
NtRp3995
(dp3996
g54
(dp3997
sg63
g3991
sg56
(lp3998
g49
(g50
g51
NtRp3999
(dp4000
g54
(dp4001
g62
I1
ssg63
g3995
sg56
(lp4002
S'/admin/default/design/hellow'
p4003
asbasbasbag49
(g65
g51
NtRp4004
(dp4005
g54
(dp4006
sg63
g3962
sg56
(lp4007
g49
(g70
g51
NtRp4008
(dp4009
g54
(dp4010
sg63
g4004
sg56
(lp4011
g49
(g50
g51
NtRp4012
(dp4013
g54
(dp4014
g62
I1
ssg63
g4008
sg56
(lp4015
(lp4016
(g3779
(S't\n\x00\x00\x00Controller'
tRp4017
I00
S'/admin/default/edit/hellow/controllers/game.py'
tp4018
a(g3779
(S't\x04\x00\x00\x00View'
tRp4019
I00
S'/admin/default/edit/hellow/views/game/show.html'
tp4020
a(g3779
(S't\x06\x00\x00\x00Layout'
tRp4021
I00
S'/admin/default/edit/hellow/views/layout.html'
tp4022
a(g3779
(S't\n\x00\x00\x00Stylesheet'
tRp4023
I00
S'/admin/default/edit/hellow/static/css/web2py.css'
tp4024
a(g3779
(S's\x08\x00\x00\x00DB Model'
tRp4025
I00
S'/admin/default/edit/hellow/models/db.py'
tp4026
a(g3779
(S's\n\x00\x00\x00Menu Model'
tRp4027
I00
S'/admin/default/edit/hellow/models/menu.py'
tp4028
a(g3779
(S't\x08\x00\x00\x00Database'
tRp4029
I00
S'/hellow/appadmin/index'
tp4030
a(g3779
(S't\x06\x00\x00\x00Errors'
tRp4031
I00
S'/admin/default/errors/hellow'
tp4032
a(g3779
(S't\x05\x00\x00\x00About'
tRp4033
I00
S'/admin/default/about/hellow'
tp4034
aasbasbasbasbasbasbasbag49
(g65
g51
NtRp4035
(dp4036
g54
(dp4037
sg63
g3892
sg56
(lp4038
g49
(g70
g51
NtRp4039
(dp4040
g54
(dp4041
sg63
g4035
sg56
(lp4042
g49
(g50
g51
NtRp4043
(dp4044
g54
(dp4045
g62
I2
ssg63
g4039
sg56
(lp4046
g49
(g58
g51
NtRp4047
(dp4048
g54
(dp4049
g62
I1
ssg63
Nsg56
(lp4050
g49
(g65
g51
NtRp4051
(dp4052
g54
(dp4053
sg63
g4047
sg56
(lp4054
g49
(g70
g51
NtRp4055
(dp4056
g54
(dp4057
sg63
g4051
sg56
(lp4058
g49
(g50
g51
NtRp4059
(dp4060
g54
(dp4061
g62
I1
ssg63
g4055
sg56
(lp4062
S'web2py.com'
p4063
asbasbasbag49
(g65
g51
NtRp4064
(dp4065
g54
(dp4066
sg63
g4047
sg56
(lp4067
g49
(g70
g51
NtRp4068
(dp4069
g54
(dp4070
sg63
g4064
sg56
(lp4071
g49
(g50
g51
NtRp4072
(dp4073
g54
(dp4074
g62
I1
ssg63
g4068
sg56
(lp4075
I00
asbasbasbag49
(g65
g51
NtRp4076
(dp4077
g54
(dp4078
sg63
g4047
sg56
(lp4079
g49
(g70
g51
NtRp4080
(dp4081
g54
(dp4082
sg63
g4076
sg56
(lp4083
g49
(g50
g51
NtRp4084
(dp4085
g54
(dp4086
g62
I1
ssg63
g4080
sg56
(lp4087
S'http://www.web2py.com'
p4088
asbasbasbag49
(g65
g51
NtRp4089
(dp4090
g54
(dp4091
sg63
g4047
sg56
(lp4092
g49
(g70
g51
NtRp4093
(dp4094
g54
(dp4095
sg63
g4089
sg56
(lp4096
g49
(g50
g51
NtRp4097
(dp4098
g54
(dp4099
g62
I1
ssg63
g4093
sg56
(lp4100
(lp4101
(g3779
(S't\x08\x00\x00\x00Download'
tRp4102
I00
S'http://www.web2py.com/examples/default/download'
p4103
tp4104
a(g3779
(S't\x07\x00\x00\x00Support'
tRp4105
I00
S'http://www.web2py.com/examples/default/support'
p4106
tp4107
a(g3779
(S't\x04\x00\x00\x00Demo'
tRp4108
I00
S'http://web2py.com/demo_admin'
p4109
tp4110
a(g3779
(S's\x0e\x00\x00\x00Quick Examples'
tRp4111
I00
S'http://web2py.com/examples/default/examples'
p4112
tp4113
a(g3779
(S't\x03\x00\x00\x00FAQ'
tRp4114
I00
S'http://web2py.com/AlterEgo'
p4115
tp4116
a(g3779
(S't\x06\x00\x00\x00Videos'
tRp4117
I00
S'http://www.web2py.com/examples/default/videos/'
p4118
tp4119
a(g3779
(S's\x11\x00\x00\x00Free Applications'
tRp4120
I00
S'http://web2py.com/appliances'
p4121
tp4122
a(g3779
(S't\x07\x00\x00\x00Plugins'
tRp4123
I00
S'http://web2py.com/plugins'
p4124
tp4125
a(g3779
(S't\x07\x00\x00\x00Layouts'
tRp4126
I00
S'http://web2py.com/layouts'
p4127
tp4128
a(g3779
(S't\x07\x00\x00\x00Recipes'
tRp4129
I00
S'http://web2pyslices.com/'
p4130
tp4131
a(g3779
(S't\x08\x00\x00\x00Semantic'
tRp4132
I00
S'http://web2py.com/semantic'
p4133
tp4134
aasbasbasbasbasbasbasbag49
(g65
g51
NtRp4135
(dp4136
g54
(dp4137
sg63
g3892
sg56
(lp4138
g49
(g70
g51
NtRp4139
(dp4140
g54
(dp4141
sg63
g4135
sg56
(lp4142
g49
(g50
g51
NtRp4143
(dp4144
g54
(dp4145
g62
I2
ssg63
g4139
sg56
(lp4146
g49
(g58
g51
NtRp4147
(dp4148
g54
(dp4149
g62
I1
ssg63
Nsg56
(lp4150
g49
(g65
g51
NtRp4151
(dp4152
g54
(dp4153
sg63
g4147
sg56
(lp4154
g49
(g70
g51
NtRp4155
(dp4156
g54
(dp4157
sg63
g4151
sg56
(lp4158
g49
(g50
g51
NtRp4159
(dp4160
g54
(dp4161
g62
I1
ssg63
g4155
sg56
(lp4162
g3779
(S't\r\x00\x00\x00Documentation'
tRp4163
asbasbasbag49
(g65
g51
NtRp4164
(dp4165
g54
(dp4166
sg63
g4147
sg56
(lp4167
g49
(g70
g51
NtRp4168
(dp4169
g54
(dp4170
sg63
g4164
sg56
(lp4171
g49
(g50
g51
NtRp4172
(dp4173
g54
(dp4174
g62
I1
ssg63
g4168
sg56
(lp4175
I00
asbasbasbag49
(g65
g51
NtRp4176
(dp4177
g54
(dp4178
sg63
g4147
sg56
(lp4179
g49
(g70
g51
NtRp4180
(dp4181
g54
(dp4182
sg63
g4176
sg56
(lp4183
g49
(g50
g51
NtRp4184
(dp4185
g54
(dp4186
g62
I1
ssg63
g4180
sg56
(lp4187
S'http://www.web2py.com/book'
p4188
asbasbasbag49
(g65
g51
NtRp4189
(dp4190
g54
(dp4191
sg63
g4147
sg56
(lp4192
g49
(g70
g51
NtRp4193
(dp4194
g54
(dp4195
sg63
g4189
sg56
(lp4196
g49
(g50
g51
NtRp4197
(dp4198
g54
(dp4199
g62
I1
ssg63
g4193
sg56
(lp4200
(lp4201
(g3779
(S't\x07\x00\x00\x00Preface'
tRp4202
I00
S'http://www.web2py.com/book/default/chapter/00'
p4203
tp4204
a(g3779
(S't\x0c\x00\x00\x00Introduction'
tRp4205
I00
S'http://www.web2py.com/book/default/chapter/01'
p4206
tp4207
a(g3779
(S't\x06\x00\x00\x00Python'
tRp4208
I00
S'http://www.web2py.com/book/default/chapter/02'
p4209
tp4210
a(g3779
(S't\x08\x00\x00\x00Overview'
tRp4211
I00
S'http://www.web2py.com/book/default/chapter/03'
p4212
tp4213
a(g3779
(S's\x08\x00\x00\x00The Core'
tRp4214
I00
S'http://www.web2py.com/book/default/chapter/04'
p4215
tp4216
a(g3779
(S's\t\x00\x00\x00The Views'
tRp4217
I00
S'http://www.web2py.com/book/default/chapter/05'
p4218
tp4219
a(g3779
(S't\x08\x00\x00\x00Database'
tRp4220
I00
S'http://www.web2py.com/book/default/chapter/06'
p4221
tp4222
a(g3779
(S's\x14\x00\x00\x00Forms and Validators'
tRp4223
I00
S'http://www.web2py.com/book/default/chapter/07'
p4224
tp4225
a(g3779
(S's\r\x00\x00\x00Email and SMS'
tRp4226
I00
S'http://www.web2py.com/book/default/chapter/08'
p4227
tp4228
a(g3779
(S's\x0e\x00\x00\x00Access Control'
tRp4229
I00
S'http://www.web2py.com/book/default/chapter/09'
p4230
tp4231
a(g3779
(S't\x08\x00\x00\x00Services'
tRp4232
I00
S'http://www.web2py.com/book/default/chapter/10'
p4233
tp4234
a(g3779
(S's\x0c\x00\x00\x00Ajax Recipes'
tRp4235
I00
S'http://www.web2py.com/book/default/chapter/11'
p4236
tp4237
a(g3779
(S's\x16\x00\x00\x00Components and Plugins'
tRp4238
I00
S'http://www.web2py.com/book/default/chapter/12'
p4239
tp4240
a(g3779
(S's\x12\x00\x00\x00Deployment Recipes'
tRp4241
I00
S'http://www.web2py.com/book/default/chapter/13'
p4242
tp4243
a(g3779
(S's\r\x00\x00\x00Other Recipes'
tRp4244
I00
S'http://www.web2py.com/book/default/chapter/14'
p4245
tp4246
a(g3779
(S's\r\x00\x00\x00Buy this book'
tRp4247
I00
S'http://stores.lulu.com/web2py'
p4248
tp4249
aasbasbasbasbasbasbasbag49
(g65
g51
NtRp4250
(dp4251
g54
(dp4252
sg63
g3892
sg56
(lp4253
g49
(g70
g51
NtRp4254
(dp4255
g54
(dp4256
sg63
g4250
sg56
(lp4257
g49
(g50
g51
NtRp4258
(dp4259
g54
(dp4260
g62
I2
ssg63
g4254
sg56
(lp4261
g49
(g58
g51
NtRp4262
(dp4263
g54
(dp4264
g62
I1
ssg63
Nsg56
(lp4265
g49
(g65
g51
NtRp4266
(dp4267
g54
(dp4268
sg63
g4262
sg56
(lp4269
g49
(g70
g51
NtRp4270
(dp4271
g54
(dp4272
sg63
g4266
sg56
(lp4273
g49
(g50
g51
NtRp4274
(dp4275
g54
(dp4276
g62
I1
ssg63
g4270
sg56
(lp4277
g3779
(S't\t\x00\x00\x00Community'
tRp4278
asbasbasbag49
(g65
g51
NtRp4279
(dp4280
g54
(dp4281
sg63
g4262
sg56
(lp4282
g49
(g70
g51
NtRp4283
(dp4284
g54
(dp4285
sg63
g4279
sg56
(lp4286
g49
(g50
g51
NtRp4287
(dp4288
g54
(dp4289
g62
I1
ssg63
g4283
sg56
(lp4290
I00
asbasbasbag49
(g65
g51
NtRp4291
(dp4292
g54
(dp4293
sg63
g4262
sg56
(lp4294
g49
(g70
g51
NtRp4295
(dp4296
g54
(dp4297
sg63
g4291
sg56
(lp4298
g49
(g50
g51
NtRp4299
(dp4300
g54
(dp4301
g62
I1
ssg63
g4295
sg56
(lp4302
Nasbasbasbag49
(g65
g51
NtRp4303
(dp4304
g54
(dp4305
sg63
g4262
sg56
(lp4306
g49
(g70
g51
NtRp4307
(dp4308
g54
(dp4309
sg63
g4303
sg56
(lp4310
g49
(g50
g51
NtRp4311
(dp4312
g54
(dp4313
g62
I1
ssg63
g4307
sg56
(lp4314
(lp4315
(g3779
(S't\x06\x00\x00\x00Groups'
tRp4316
I00
S'http://www.web2py.com/examples/default/usergroups'
p4317
tp4318
a(g3779
(S't\x07\x00\x00\x00Twitter'
tRp4319
I00
S'http://twitter.com/web2py'
p4320
tp4321
a(g3779
(S's\t\x00\x00\x00Live Chat'
tRp4322
I00
S'http://webchat.freenode.net/?channels=web2py'
p4323
tp4324
aasbasbasbasbasbasbasbag49
(g65
g51
NtRp4325
(dp4326
g54
(dp4327
sg63
g3892
sg56
(lp4328
g49
(g70
g51
NtRp4329
(dp4330
g54
(dp4331
sg63
g4325
sg56
(lp4332
g49
(g50
g51
NtRp4333
(dp4334
g54
(dp4335
g62
I2
ssg63
g4329
sg56
(lp4336
g49
(g58
g51
NtRp4337
(dp4338
g54
(dp4339
g62
I1
ssg63
Nsg56
(lp4340
g49
(g65
g51
NtRp4341
(dp4342
g54
(dp4343
sg63
g4337
sg56
(lp4344
g49
(g70
g51
NtRp4345
(dp4346
g54
(dp4347
sg63
g4341
sg56
(lp4348
g49
(g50
g51
NtRp4349
(dp4350
g54
(dp4351
g62
I1
ssg63
g4345
sg56
(lp4352
g3779
(S't\x07\x00\x00\x00Plugins'
tRp4353
asbasbasbag49
(g65
g51
NtRp4354
(dp4355
g54
(dp4356
sg63
g4337
sg56
(lp4357
g49
(g70
g51
NtRp4358
(dp4359
g54
(dp4360
sg63
g4354
sg56
(lp4361
g49
(g50
g51
NtRp4362
(dp4363
g54
(dp4364
g62
I1
ssg63
g4358
sg56
(lp4365
I00
asbasbasbag49
(g65
g51
NtRp4366
(dp4367
g54
(dp4368
sg63
g4337
sg56
(lp4369
g49
(g70
g51
NtRp4370
(dp4371
g54
(dp4372
sg63
g4366
sg56
(lp4373
g49
(g50
g51
NtRp4374
(dp4375
g54
(dp4376
g62
I1
ssg63
g4370
sg56
(lp4377
Nasbasbasbag49
(g65
g51
NtRp4378
(dp4379
g54
(dp4380
sg63
g4337
sg56
(lp4381
g49
(g70
g51
NtRp4382
(dp4383
g54
(dp4384
sg63
g4378
sg56
(lp4385
g49
(g50
g51
NtRp4386
(dp4387
g54
(dp4388
g62
I1
ssg63
g4382
sg56
(lp4389
(lp4390
(S'plugin_wiki'
p4391
I00
S'http://web2py.com/examples/default/download'
p4392
tp4393
a(g3779
(S's\r\x00\x00\x00Other Plugins'
tRp4394
I00
g4124
tp4395
a(g3779
(S's\x0e\x00\x00\x00Layout Plugins'
tRp4396
I00
g4127
tp4397
aasbasbasbasbasbasbasbasbasbasbasbasbasbasbasbasbasbasbasbag49
(g65
g51
NtRp4398
(dp4399
g54
(dp4400
sg63
g3265
sg56
(lp4401
g49
(g70
g51
NtRp4402
(dp4403
g54
(dp4404
g74
g75
ssg63
g4398
sg56
(lp4405
S'meta'
p4406
asbag49
(g70
g51
NtRp4407
(dp4408
g54
(dp4409
g81
g82
ssg63
g4398
sg56
(lp4410
S':'
asbag49
(g70
g51
NtRp4411
(dp4412
g54
(dp4413
sg63
g4398
sg56
(lp4414
g49
(g50
g51
NtRp4415
(dp4416
g54
(dp4417
g62
I5
ssg63
g4411
sg56
(lp4418
g49
(g58
g51
NtRp4419
(dp4420
g54
(dp4421
g62
I4
ssg63
Nsg56
(lp4422
g49
(g65
g51
NtRp4423
(dp4424
g54
(dp4425
sg63
g4419
sg56
(lp4426
g49
(g70
g51
NtRp4427
(dp4428
g54
(dp4429
g74
g75
ssg63
g4423
sg56
(lp4430
S'author'
p4431
asbag49
(g70
g51
NtRp4432
(dp4433
g54
(dp4434
g81
g82
ssg63
g4423
sg56
(lp4435
S':'
asbag49
(g70
g51
NtRp4436
(dp4437
g54
(dp4438
sg63
g4423
sg56
(lp4439
g49
(g50
g51
NtRp4440
(dp4441
g54
(dp4442
g62
I4
ssg63
g4436
sg56
(lp4443
S'Your Name <you@example.com>'
p4444
asbasbasbag49
(g65
g51
NtRp4445
(dp4446
g54
(dp4447
sg63
g4419
sg56
(lp4448
g49
(g70
g51
NtRp4449
(dp4450
g54
(dp4451
g74
g75
ssg63
g4445
sg56
(lp4452
S'description'
p4453
asbag49
(g70
g51
NtRp4454
(dp4455
g54
(dp4456
g81
g82
ssg63
g4445
sg56
(lp4457
S':'
asbag49
(g70
g51
NtRp4458
(dp4459
g54
(dp4460
sg63
g4445
sg56
(lp4461
g49
(g50
g51
NtRp4462
(dp4463
g54
(dp4464
g62
I4
ssg63
g4458
sg56
(lp4465
S'a cool new app'
p4466
asbasbasbag49
(g65
g51
NtRp4467
(dp4468
g54
(dp4469
sg63
g4419
sg56
(lp4470
g49
(g70
g51
NtRp4471
(dp4472
g54
(dp4473
g74
g75
ssg63
g4467
sg56
(lp4474
S'generator'
p4475
asbag49
(g70
g51
NtRp4476
(dp4477
g54
(dp4478
g81
g82
ssg63
g4467
sg56
(lp4479
S':'
asbag49
(g70
g51
NtRp4480
(dp4481
g54
(dp4482
sg63
g4467
sg56
(lp4483
g49
(g50
g51
NtRp4484
(dp4485
g54
(dp4486
g62
I4
ssg63
g4480
sg56
(lp4487
S'Web2py Web Framework'
p4488
asbasbasbag49
(g65
g51
NtRp4489
(dp4490
g54
(dp4491
sg63
g4419
sg56
(lp4492
g49
(g70
g51
NtRp4493
(dp4494
g54
(dp4495
g74
g75
ssg63
g4489
sg56
(lp4496
S'keywords'
p4497
asbag49
(g70
g51
NtRp4498
(dp4499
g54
(dp4500
g81
g82
ssg63
g4489
sg56
(lp4501
S':'
asbag49
(g70
g51
NtRp4502
(dp4503
g54
(dp4504
sg63
g4489
sg56
(lp4505
g49
(g50
g51
NtRp4506
(dp4507
g54
(dp4508
g62
I4
ssg63
g4502
sg56
(lp4509
S'web2py, python, framework'
p4510
asbasbasbasbasbasbasbag49
(g65
g51
NtRp4511
(dp4512
g54
(dp4513
sg63
g3265
sg56
(lp4514
g49
(g70
g51
NtRp4515
(dp4516
g54
(dp4517
g74
g75
ssg63
g4511
sg56
(lp4518
S'models_to_run'
p4519
asbag49
(g70
g51
NtRp4520
(dp4521
g54
(dp4522
g81
g82
ssg63
g4511
sg56
(lp4523
S':'
asbag49
(g70
g51
NtRp4524
(dp4525
g54
(dp4526
sg63
g4511
sg56
(lp4527
g49
(g50
g51
NtRp4528
(dp4529
g54
(dp4530
g62
I5
ssg63
g4524
sg56
(lp4531
g49
(g58
g51
NtRp4532
(dp4533
g54
(dp4534
g62
I4
ssg63
Nsg56
(lp4535
g49
(g65
g51
NtRp4536
(dp4537
g54
(dp4538
sg63
g4532
sg56
(lp4539
g49
(g70
g51
NtRp4540
(dp4541
g54
(dp4542
sg63
g4536
sg56
(lp4543
g49
(g50
g51
NtRp4544
(dp4545
g54
(dp4546
g62
I4
ssg63
g4540
sg56
(lp4547
S'^\\w+\\.py$'
p4548
asbasbasbag49
(g65
g51
NtRp4549
(dp4550
g54
(dp4551
sg63
g4532
sg56
(lp4552
g49
(g70
g51
NtRp4553
(dp4554
g54
(dp4555
sg63
g4549
sg56
(lp4556
g49
(g50
g51
NtRp4557
(dp4558
g54
(dp4559
g62
I4
ssg63
g4553
sg56
(lp4560
S'^game/\\w+\\.py$'
p4561
asbasbasbag49
(g65
g51
NtRp4562
(dp4563
g54
(dp4564
sg63
g4532
sg56
(lp4565
g49
(g70
g51
NtRp4566
(dp4567
g54
(dp4568
sg63
g4562
sg56
(lp4569
g49
(g50
g51
NtRp4570
(dp4571
g54
(dp4572
g62
I4
ssg63
g4566
sg56
(lp4573
S'^game/show/\\w+\\.py$'
p4574
asbasbasbasbasbasbasbag49
(g65
g51
NtRp4575
(dp4576
g54
(dp4577
sg63
g3265
sg56
(lp4578
g49
(g70
g51
NtRp4579
(dp4580
g54
(dp4581
g74
g75
ssg63
g4575
sg56
(lp4582
S'postprocessing'
p4583
asbag49
(g70
g51
NtRp4584
(dp4585
g54
(dp4586
g81
g82
ssg63
g4575
sg56
(lp4587
S':'
asbag49
(g70
g51
NtRp4588
(dp4589
g54
(dp4590
sg63
g4575
sg56
(lp4591
g49
(g50
g51
NtRp4592
(dp4593
g54
(dp4594
g62
I5
ssg63
g4588
sg56
(lp4595
g49
(g58
g51
NtRp4596
(dp4597
g54
(dp4598
g62
I4
ssg63
Nsg56
(lp4599
sbasbasbasbag49
(g65
g51
NtRp4600
(dp4601
g54
(dp4602
sg63
g3265
sg56
(lp4603
g49
(g70
g51
NtRp4604
(dp4605
g54
(dp4606
g74
g75
ssg63
g4600
sg56
(lp4607
S'session_cookie_expires'
p4608
asbag49
(g70
g51
NtRp4609
(dp4610
g54
(dp4611
g81
g82
ssg63
g4600
sg56
(lp4612
S':'
asbag49
(g70
g51
NtRp4613
(dp4614
g54
(dp4615
sg63
g4600
sg56
(lp4616
g49
(g50
g51
NtRp4617
(dp4618
g54
(dp4619
g62
I5
ssg63
g4613
sg56
(lp4620
S'None'
p4621
asbasbasbag49
(g65
g51
NtRp4622
(dp4623
g54
(dp4624
sg63
g3265
sg56
(lp4625
g49
(g70
g51
NtRp4626
(dp4627
g54
(dp4628
g74
g75
ssg63
g4622
sg56
(lp4629
S'session_data_name'
p4630
asbag49
(g70
g51
NtRp4631
(dp4632
g54
(dp4633
g81
g82
ssg63
g4622
sg56
(lp4634
S':'
asbag49
(g70
g51
NtRp4635
(dp4636
g54
(dp4637
sg63
g4622
sg56
(lp4638
g49
(g50
g51
NtRp4639
(dp4640
g54
(dp4641
g62
I5
ssg63
g4635
sg56
(lp4642
S'session_data_hellow'
p4643
asbasbasbag49
(g65
g51
NtRp4644
(dp4645
g54
(dp4646
sg63
g3265
sg56
(lp4647
g49
(g70
g51
NtRp4648
(dp4649
g54
(dp4650
g74
g75
ssg63
g4644
sg56
(lp4651
S'session_file'
p4652
asbag49
(g70
g51
NtRp4653
(dp4654
g54
(dp4655
g81
g82
ssg63
g4644
sg56
(lp4656
S':'
asbag49
(g70
g51
NtRp4657
(dp4658
g54
(dp4659
sg63
g4644
sg56
(lp4660
g49
(g50
g51
NtRp4661
(dp4662
g54
(dp4663
g62
I5
ssg63
g4657
sg56
(lp4664
S"<open file '/Users/zamechek/Downloads/web2py/web2py.app/Contents/Resources/applications/hellow/sessions/127.0.0.1-bbea59f2-333e-4593-a45c-2c44a5133d77', mode 'rb+' at 0x8058b18>"
p4665
asbasbasbag49
(g65
g51
NtRp4666
(dp4667
g54
(dp4668
sg63
g3265
sg56
(lp4669
g49
(g70
g51
NtRp4670
(dp4671
g54
(dp4672
g74
g75
ssg63
g4666
sg56
(lp4673
S'session_filename'
p4674
asbag49
(g70
g51
NtRp4675
(dp4676
g54
(dp4677
g81
g82
ssg63
g4666
sg56
(lp4678
S':'
asbag49
(g70
g51
NtRp4679
(dp4680
g54
(dp4681
sg63
g4666
sg56
(lp4682
g49
(g50
g51
NtRp4683
(dp4684
g54
(dp4685
g62
I5
ssg63
g4679
sg56
(lp4686
S'/Users/zamechek/Downloads/web2py/web2py.app/Contents/Resources/applications/hellow/sessions/127.0.0.1-bbea59f2-333e-4593-a45c-2c44a5133d77'
p4687
asbasbasbag49
(g65
g51
NtRp4688
(dp4689
g54
(dp4690
sg63
g3265
sg56
(lp4691
g49
(g70
g51
NtRp4692
(dp4693
g54
(dp4694
g74
g75
ssg63
g4688
sg56
(lp4695
S'session_id'
p4696
asbag49
(g70
g51
NtRp4697
(dp4698
g54
(dp4699
g81
g82
ssg63
g4688
sg56
(lp4700
S':'
asbag49
(g70
g51
NtRp4701
(dp4702
g54
(dp4703
sg63
g4688
sg56
(lp4704
g49
(g50
g51
NtRp4705
(dp4706
g54
(dp4707
g62
I5
ssg63
g4701
sg56
(lp4708
g458
asbasbasbag49
(g65
g51
NtRp4709
(dp4710
g54
(dp4711
sg63
g3265
sg56
(lp4712
g49
(g70
g51
NtRp4713
(dp4714
g54
(dp4715
g74
g75
ssg63
g4709
sg56
(lp4716
S'session_id_name'
p4717
asbag49
(g70
g51
NtRp4718
(dp4719
g54
(dp4720
g81
g82
ssg63
g4709
sg56
(lp4721
S':'
asbag49
(g70
g51
NtRp4722
(dp4723
g54
(dp4724
sg63
g4709
sg56
(lp4725
g49
(g50
g51
NtRp4726
(dp4727
g54
(dp4728
g62
I5
ssg63
g4722
sg56
(lp4729
g3322
asbasbasbag49
(g65
g51
NtRp4730
(dp4731
g54
(dp4732
sg63
g3265
sg56
(lp4733
g49
(g70
g51
NtRp4734
(dp4735
g54
(dp4736
g74
g75
ssg63
g4730
sg56
(lp4737
S'session_locked'
p4738
asbag49
(g70
g51
NtRp4739
(dp4740
g54
(dp4741
g81
g82
ssg63
g4730
sg56
(lp4742
S':'
asbag49
(g70
g51
NtRp4743
(dp4744
g54
(dp4745
sg63
g4730
sg56
(lp4746
g49
(g50
g51
NtRp4747
(dp4748
g54
(dp4749
g62
I5
ssg63
g4743
sg56
(lp4750
g928
asbasbasbag49
(g65
g51
NtRp4751
(dp4752
g54
(dp4753
sg63
g3265
sg56
(lp4754
g49
(g70
g51
NtRp4755
(dp4756
g54
(dp4757
g74
g75
ssg63
g4751
sg56
(lp4758
S'session_new'
p4759
asbag49
(g70
g51
NtRp4760
(dp4761
g54
(dp4762
g81
g82
ssg63
g4751
sg56
(lp4763
S':'
asbag49
(g70
g51
NtRp4764
(dp4765
g54
(dp4766
sg63
g4751
sg56
(lp4767
g49
(g50
g51
NtRp4768
(dp4769
g54
(dp4770
g62
I5
ssg63
g4764
sg56
(lp4771
g92
asbasbasbag49
(g65
g51
NtRp4772
(dp4773
g54
(dp4774
sg63
g3265
sg56
(lp4775
g49
(g70
g51
NtRp4776
(dp4777
g54
(dp4778
g74
g75
ssg63
g4772
sg56
(lp4779
S'session_storage_type'
p4780
asbag49
(g70
g51
NtRp4781
(dp4782
g54
(dp4783
g81
g82
ssg63
g4772
sg56
(lp4784
S':'
asbag49
(g70
g51
NtRp4785
(dp4786
g54
(dp4787
sg63
g4772
sg56
(lp4788
g49
(g50
g51
NtRp4789
(dp4790
g54
(dp4791
g62
I5
ssg63
g4785
sg56
(lp4792
g3143
asbasbasbag49
(g65
g51
NtRp4793
(dp4794
g54
(dp4795
sg63
g3265
sg56
(lp4796
g49
(g70
g51
NtRp4797
(dp4798
g54
(dp4799
g74
g75
ssg63
g4793
sg56
(lp4800
S'status'
p4801
asbag49
(g70
g51
NtRp4802
(dp4803
g54
(dp4804
g81
g82
ssg63
g4793
sg56
(lp4805
S':'
asbag49
(g70
g51
NtRp4806
(dp4807
g54
(dp4808
sg63
g4793
sg56
(lp4809
g49
(g50
g51
NtRp4810
(dp4811
g54
(dp4812
g62
I5
ssg63
g4806
sg56
(lp4813
S'200'
p4814
asbasbasbag49
(g65
g51
NtRp4815
(dp4816
g54
(dp4817
sg63
g3265
sg56
(lp4818
g49
(g70
g51
NtRp4819
(dp4820
g54
(dp4821
g74
g75
ssg63
g4815
sg56
(lp4822
S'subtitle'
p4823
asbag49
(g70
g51
NtRp4824
(dp4825
g54
(dp4826
g81
g82
ssg63
g4815
sg56
(lp4827
S':'
asbag49
(g70
g51
NtRp4828
(dp4829
g54
(dp4830
sg63
g4815
sg56
(lp4831
g49
(g50
g51
NtRp4832
(dp4833
g54
(dp4834
g62
I5
ssg63
g4828
sg56
(lp4835
g3779
(S's\r\x00\x00\x00customize me!'
tRp4836
asbasbasbag49
(g65
g51
NtRp4837
(dp4838
g54
(dp4839
sg63
g3265
sg56
(lp4840
g49
(g70
g51
NtRp4841
(dp4842
g54
(dp4843
g74
g75
ssg63
g4837
sg56
(lp4844
S'title'
p4845
asbag49
(g70
g51
NtRp4846
(dp4847
g54
(dp4848
g81
g82
ssg63
g4837
sg56
(lp4849
S':'
asbag49
(g70
g51
NtRp4850
(dp4851
g54
(dp4852
sg63
g4837
sg56
(lp4853
g49
(g50
g51
NtRp4854
(dp4855
g54
(dp4856
g62
I5
ssg63
g4850
sg56
(lp4857
S'Hellow'
p4858
asbasbasbag49
(g65
g51
NtRp4859
(dp4860
g54
(dp4861
sg63
g3265
sg56
(lp4862
g49
(g70
g51
NtRp4863
(dp4864
g54
(dp4865
g74
g75
ssg63
g4859
sg56
(lp4866
S'view'
p4867
asbag49
(g70
g51
NtRp4868
(dp4869
g54
(dp4870
g81
g82
ssg63
g4859
sg56
(lp4871
S':'
asbag49
(g70
g51
NtRp4872
(dp4873
g54
(dp4874
sg63
g4859
sg56
(lp4875
g49
(g50
g51
NtRp4876
(dp4877
g54
(dp4878
g62
I5
ssg63
g4872
sg56
(lp4879
S'game/show.html'
p4880
asbasbasbasbasbsS'locals'
p4881
(dp4882
S'game'
p4883
S"<Row {'auth_user': 1, 'balance': 99, 'id': 1}>"
p4884
sS'rows'
p4885
S'<Rows (3)>'
p4886
sssS'traceback'
p4887
S'Traceback (most recent call last):\n  File "/home/mdipierro/web2py/gluon/restricted.py", line 212, in restricted\n  File "/Users/zamechek/Downloads/web2py/web2py.app/Contents/Resources/applications/hellow/controllers/game.py", line 40, in <module>\n  File "/home/mdipierro/web2py/gluon/globals.py", line 193, in <lambda>\n  File "/Users/zamechek/Downloads/web2py/web2py.app/Contents/Resources/applications/hellow/controllers/game.py", line 14, in show\n  File "/Users/zamechek/Downloads/web2py/web2py.app/Contents/Resources/applications/hellow/controllers/game.py", line 21, in form_from_factory\nTypeError: __init__() got an unexpected keyword argument \'ids\'\n'
p4888
s.