(dp1
S'output'
p2
S"<type 'exceptions.TypeError'> unbound method xml() must be called with Rows instance as first argument (got nothing instead)"
p3
sS'layer'
p4
S'/Users/zamechek/Downloads/web2py/web2py.app/Contents/Resources/applications/hellow/views/game/show.html'
p5
sS'code'
p6
S'response.write(\'<!--[if HTML5]><![endif]-->\\n<!DOCTYPE html>\\n<!-- paulirish.com/2008/conditional-stylesheets-vs-css-hacks-answer-neither/ -->\\n<!--[if lt IE 7]><html class="ie ie6 ie-lte9 ie-lte8 ie-lte7 no-js" lang="\', escape=False)\nresponse.write(T.accepted_language or \'en\')\nresponse.write(\'"> <![endif]-->\\n<!--[if IE 7]><html class="ie ie7 ie-lte9 ie-lte8 ie-lte7 no-js" lang="\', escape=False)\nresponse.write(T.accepted_language or \'en\')\nresponse.write(\'"> <![endif]-->\\n<!--[if IE 8]><html class="ie ie8 ie-lte9 ie-lte8 no-js" lang="\', escape=False)\nresponse.write(T.accepted_language or \'en\')\nresponse.write(\'"> <![endif]-->\\n<!--[if IE 9]><html class="ie9 ie-lte9 no-js" lang="\', escape=False)\nresponse.write(T.accepted_language or \'en\')\nresponse.write(\'"> <![endif]-->\\n<!--[if (gt IE 9)|!(IE)]><!--> <html class="no-js" lang="\', escape=False)\nresponse.write(T.accepted_language or \'en\')\nresponse.write(\'"> <!--<![endif]-->\\n<head>\\n<title>\', escape=False)\nresponse.write(response.title or request.application)\nresponse.write(\'</title>\\n  <!--[if !HTML5]>\\n      <meta http-equiv="X-UA-Compatible" content="IE=edge\', escape=False)\nresponse.write(not request.is_local and \',chrome=1\' or \'\')\nresponse.write(\'">\\n  <![endif]-->\\n  <!-- www.phpied.com/conditional-comments-block-downloads/ -->\\n  <!-- Always force latest IE rendering engine\\n       (even in intranet) & Chrome Frame\\n       Remove this if you use the .htaccess -->\\n\\t   \\n  <meta charset="utf-8" />\\n\\n  <!-- http://dev.w3.org/html5/markup/meta.name.html -->\\n  <meta name="application-name" content="\', escape=False)\nresponse.write(request.application)\nresponse.write(\'" />\\n\\n  <!-- Speaking of Google, don\\\'t forget to set your site up:\\n       http://google.com/webmasters -->\\n  <meta name="google-site-verification" content="" />\\n\\n  <!--  Mobile Viewport Fix\\n        j.mp/mobileviewport & davidbcalhoun.com/2010/viewport-metatag\\n        device-width: Occupy full width of the screen in its current orientation\\n        initial-scale = 1.0 retains dimensions instead of zooming out if page height > device height\\n        user-scalable = yes allows the user to zoom in -->\\n  <meta name="viewport" content="width=device-width, initial-scale=1.0" />\\n\\n  <link rel="shortcut icon" href="\', escape=False)\nresponse.write(URL(\'static\',\'images/favicon.ico\'))\nresponse.write(\'" type="image/x-icon">\\n  <link rel="apple-touch-icon" href="\', escape=False)\nresponse.write(URL(\'static\',\'images/favicon.png\'))\nresponse.write(\'">\\n\\n  <!-- All JavaScript at the bottom, except for Modernizr which enables\\n       HTML5 elements & feature detects -->\\n  <script src="\', escape=False)\nresponse.write(URL(\'static\',\'js/modernizr.custom.js\'))\nresponse.write(\'"></script>\\n\\n  <!-- include stylesheets -->\\n  \', escape=False)\nresponse.files.append(URL(\'static\',\'css/web2py.css\'))\nresponse.files.append(URL(\'static\',\'css/bootstrap.min.css\'))\nresponse.files.append(URL(\'static\',\'css/bootstrap-responsive.min.css\'))\nresponse.files.append(URL(\'static\',\'css/web2py_bootstrap.css\'))\nresponse.write(\'\\n\\n  \', escape=False)\nresponse.write(\'<script type="text/javascript"><!--\\n    // These variables are used by the web2py_ajax_init function in web2py_ajax.js (which is loaded below).\\n    var w2p_ajax_confirm_message = "\', escape=False)\nresponse.write(T(\'Are you sure you want to delete this object?\'))\nresponse.write(\'";\\n    var w2p_ajax_date_format = "\', escape=False)\nresponse.write(T(\'%Y-%m-%d\'))\nresponse.write(\'";\\n    var w2p_ajax_datetime_format = "\', escape=False)\nresponse.write(T(\'%Y-%m-%d %H:%M:%S\'))\nresponse.write(\'";\\n    var ajax_error_500 = \\\'\', escape=False)\nresponse.write(XML(T(\'An error occured, please %s the page\') % A(T(\'reload\'), _href=URL(args=request.args, vars=request.vars))))\nresponse.write("\'\\n    //--></script>\\n", escape=False)\nresponse.files.insert(0,URL(\'static\',\'js/jquery.js\'))\nresponse.files.insert(1,URL(\'static\',\'css/calendar.css\'))\nresponse.files.insert(2,URL(\'static\',\'js/calendar.js\'))\nresponse.files.insert(3,URL(\'static\',\'js/web2py.js\'))\nresponse.include_meta()\nresponse.include_files()\nresponse.write(\'\\n\', escape=False)\nresponse.write(\'\\n\\n  \', escape=False)\n# using sidebars need to know what sidebar you want to use\nleft_sidebar_enabled = globals().get(\'left_sidebar_enabled\',False)\nright_sidebar_enabled = globals().get(\'right_sidebar_enabled\',False)\nmiddle_columns = {0:\'span12\',1:\'span9\',2:\'span6\'}[\n(left_sidebar_enabled and 1 or 0)+(right_sidebar_enabled and 1 or 0)]\nresponse.write(\'\\n\\n  <!-- uncomment here to load jquery-ui\\n       <link rel="stylesheet" href="http://ajax.googleapis.com/ajax/libs/jqueryui/1.8.16/themes/base/jquery-ui.css" type="text/css" media="all" />\\n       <script src="http://ajax.googleapis.com/ajax/libs/jqueryui/1.8.16/jquery-ui.min.js" type="text/javascript"></script>\\n       uncomment to load jquery-ui //-->\\n  <noscript><link href="\', escape=False)\nresponse.write(URL(\'static\', \'css/web2py_bootstrap_nojs.css\'))\nresponse.write(\'" rel="stylesheet" type="text/css" /></noscript>\\n  \', escape=False)\nresponse.write(\'\\n</head>\\n\\n<body>\\n  <!-- Navbar ================================================== -->\\n  <div class="navbar navbar-inverse navbar-fixed-top">\\n    <div class="flash">\', escape=False)\nresponse.write(response.flash or \'\')\nresponse.write(\'</div>\\n    <div class="navbar-inner">\\n      <div class="container">\\n        <!-- the next tag is necessary for bootstrap menus, do not remove -->\\n        <button type="button" class="btn btn-navbar" data-toggle="collapse" data-target=".nav-collapse">\\n          <span class="icon-bar"></span>\\n          <span class="icon-bar"></span>\\n          <span class="icon-bar"></span>\\n        </button>\\n\\t\', escape=False)\nresponse.write(response.logo or \'\')\nresponse.write(\'\\n        <ul id="navbar" class="nav pull-right">\', escape=False)\nresponse.write(\'auth\' in globals() and auth.navbar(mode="dropdown") or \'\')\nresponse.write(\'</ul>\\n        <div class="nav-collapse">\\n          \', escape=False)\nis_mobile=request.user_agent().is_mobile\nresponse.write(\'\\n          \', escape=False)\nif response.menu:\n    response.write(\'\\n          \', escape=False)\n    response.write(MENU(response.menu, _class=\'mobile-menu nav\' if is_mobile else \'nav\',mobile=is_mobile,li_class=\'dropdown\',ul_class=\'dropdown-menu\'))\n    response.write(\'\\n          \', escape=False)\n    pass\nresponse.write(\'\\n        </div><!--/.nav-collapse -->\\n      </div>\\n    </div>\\n  </div><!--/top navbar -->\\n\\n  <div class="container">\\n    <!-- Masthead ================================================== -->\\n    <header class="mastheader row" id="header">\\n        <div class="span12">\\n            <div class="page-header">\\n                <h1>\\n                    \', escape=False)\nresponse.write(response.title or request.application)\nresponse.write(\'\\n                    <small>\', escape=False)\nresponse.write(response.subtitle or \'\')\nresponse.write(\'</small>\\n                </h1>\\n            </div>\\n        </div>\\n    </header>\\n\\n    <section id="main" class="main row">\\n        \', escape=False)\nif left_sidebar_enabled:\n    response.write(\'\\n        <div class="span3 left-sidebar">\\n            \', escape=False)\n    response.write(\'\\n            <h3>Left Sidebar</h3>\\n            <p></p>\\n            \', escape=False)\n    response.write(\'\\n        </div>\\n        \', escape=False)\n    pass\nresponse.write(\'\\n\\n        <div class="\', escape=False)\nresponse.write(middle_columns)\nresponse.write(\'">\\n            \', escape=False)\nresponse.write(\'\\n            \', escape=False)\nresponse.write(\'\\n<h1>Game \', escape=False)\nresponse.write(gameid)\nresponse.write(\'</h1>\\n<div>\\n\\t<ul>\\n        <li>Name = \', escape=False)\nresponse.write(name)\nresponse.write(\'</li>\\n        <li>Balance = \', escape=False)\nresponse.write(balance)\nresponse.write(\'</li>\\n    </ul>\\n\\t<h2>Select Slot to Play</h2>\\n<!-- \\t<form>\\n\\t        \', escape=False)\nfor row in slots:\n    response.write(\' <input type="radio" name="slot" value=\', escape=False)\n    response.write(row.id)\n    response.write(\'> \', escape=False)\n    response.write(row.id)\n    response.write(\'<br>\', escape=False)\n    pass\nresponse.write(\'\\n\\t        Bet: <input type="text" name="bet"><br>\\n\\t    \\t<input type="submit" value="Submit">\\n\\t    </form>  -->\\n<!--     \', escape=False)\nresponse.write(form)\nresponse.write(\' -->\\n    \', escape=False)\nresponse.write(otherForm)\nresponse.write(\'\\n    \', escape=False)\nresponse.write(rowstype)\nresponse.write(\'\\n\\t<h2>Submitted variables</h2>\\n\\t\', escape=False)\nresponse.write(BEAUTIFY(request.vars))\nresponse.write(\'\\n\\t<h2>Errors in form</h2>\\n\\t\', escape=False)\nresponse.write(BEAUTIFY(form.errors))\nresponse.write(\'\\n</div>\\n\', escape=False)\nresponse.write(\'\\n            \', escape=False)\nresponse.write(\'\\n        </div>\\n\\n        \', escape=False)\nif right_sidebar_enabled:\n    response.write(\'\\n        <div class="span3">\\n            \', escape=False)\n    response.write(\'\\n            <h3>Right Sidebar</h3>\\n            <p></p>\\n            \', escape=False)\n    response.write(\'\\n        </div>\\n        \', escape=False)\n    pass\nresponse.write(\'\\n    </section><!--/main-->\\n\\n    <!-- Footer ================================================== -->\\n    <div class="row">\\n        <footer class="footer span12" id="footer">\\n            <div class="footer-content">\\n                \', escape=False)\nresponse.write(\' <!-- this is default footer -->\\n                <div class="copyright pull-left">\', escape=False)\nresponse.write(T(\'Copyright\'))\nresponse.write(\' &#169; \', escape=False)\nresponse.write(request.now.year)\nresponse.write(\'</div>\\n                <div id="poweredBy" class="pull-right">\\n                    \', escape=False)\nresponse.write(T(\'Powered by\'))\nresponse.write(\'\\n                    <a href="http://www.web2py.com/">web2py</a>\\n                </div>\\n                \', escape=False)\nresponse.write(\'\\n            </div>\\n        </footer>\\n    </div>\\n\\n  </div> <!-- /container -->\\n\\n  <!-- The javascript =============================================\\n       (Placed at the end of the document so the pages load faster) -->\\n  <script src="\', escape=False)\nresponse.write(URL(\'static\',\'js/bootstrap.min.js\'))\nresponse.write(\'"></script>\\n  <script src="\', escape=False)\nresponse.write(URL(\'static\',\'js/web2py_bootstrap.js\'))\nresponse.write(\'"></script>\\n  <!--[if lt IE 7 ]>\\n      <script src="\', escape=False)\nresponse.write(URL(\'static\',\'js/dd_belatedpng.js\'))\nresponse.write(\'"></script>\\n      <script> DD_belatedPNG.fix(\\\'img, .png_bg\\\'); //fix any <img> or .png_bg background-images </script>\\n      <![endif]-->\\n  \\n  \', escape=False)\nif response.google_analytics_id:\n    response.write(\'\\n  <script src="\', escape=False)\n    response.write(URL(\'static\',\'js/analytics.min.js\'))\n    response.write(\'"></script>\\n  <script type="text/javascript">\\n  analytics.initialize({\\n    \\\'Google Analytics\\\':{trackingId:\\\'\', escape=False)\n    response.write(response.google_analytics_id)\n    response.write("\'} \\n  });</script>\\n  ", escape=False)\n    pass\nresponse.write(\'\\n  <script src="\', escape=False)\nresponse.write(URL(\'static\',\'js/share.js\',vars=dict(static=URL(\'static\',\'images\'))))\nresponse.write(\'"></script>\\n</body>\\n</html>\\n\\n\', escape=False)'
p7
sS'snapshot'
p8
(dp9
S'exception'
p10
(dp11
S'__hash__'
p12
S"<method-wrapper '__hash__' of exceptions.TypeError object at 0x8e02260>"
p13
sS'__setattr__'
p14
S"<method-wrapper '__setattr__' of exceptions.TypeError object at 0x8e02260>"
p15
sS'__reduce_ex__'
p16
S'<built-in method __reduce_ex__ of exceptions.TypeError object at 0x8e02260>'
p17
sS'__getslice__'
p18
S"<method-wrapper '__getslice__' of exceptions.TypeError object at 0x8e02260>"
p19
sS'__getitem__'
p20
S"<method-wrapper '__getitem__' of exceptions.TypeError object at 0x8e02260>"
p21
sS'__setstate__'
p22
S'<built-in method __setstate__ of exceptions.TypeError object at 0x8e02260>'
p23
sS'__reduce__'
p24
S'<built-in method __reduce__ of exceptions.TypeError object at 0x8e02260>'
p25
sS'__str__'
p26
S"<method-wrapper '__str__' of exceptions.TypeError object at 0x8e02260>"
p27
sS'args'
p28
S"('unbound method xml() must be called with Rows instance as first argument (got nothing instead)',)"
p29
sS'__getattribute__'
p30
S"<method-wrapper '__getattribute__' of exceptions.TypeError object at 0x8e02260>"
p31
sS'__class__'
p32
S"<type 'exceptions.TypeError'>"
p33
sS'__delattr__'
p34
S"<method-wrapper '__delattr__' of exceptions.TypeError object at 0x8e02260>"
p35
sS'__repr__'
p36
S"<method-wrapper '__repr__' of exceptions.TypeError object at 0x8e02260>"
p37
sS'__dict__'
p38
S'{}'
p39
sS'__doc__'
p40
S"'Inappropriate argument type.'"
p41
sS'__init__'
p42
S"<method-wrapper '__init__' of exceptions.TypeError object at 0x8e02260>"
p43
sS'__new__'
p44
S'<built-in method __new__ of type object at 0x5fa140>'
p45
ssS'evalue'
p46
S'unbound method xml() must be called with Rows instance as first argument (got nothing instead)'
p47
sS'request'
p48
ccopy_reg
_reconstructor
p49
(cgluon.html
BEAUTIFY
p50
c__builtin__
object
p51
NtRp52
(dp53
S'attributes'
p54
(dp55
sS'components'
p56
(lp57
g49
(cgluon.html
TABLE
p58
g51
NtRp59
(dp60
g54
(dp61
S'level'
p62
I5
ssS'parent'
p63
Nsg56
(lp64
g49
(cgluon.html
TR
p65
g51
NtRp66
(dp67
g54
(dp68
sg63
g59
sg56
(lp69
g49
(cgluon.html
TD
p70
g51
NtRp71
(dp72
g54
(dp73
S'_style'
p74
S'font-weight:bold;vertical-align:top'
p75
ssg63
g66
sg56
(lp76
S'ajax'
p77
asbag49
(g70
g51
NtRp78
(dp79
g54
(dp80
S'_valign'
p81
S'top'
p82
ssg63
g66
sg56
(lp83
S':'
asbag49
(g70
g51
NtRp84
(dp85
g54
(dp86
sg63
g66
sg56
(lp87
g49
(g50
g51
NtRp88
(dp89
g54
(dp90
g62
I5
ssg63
g84
sg56
(lp91
S'False'
p92
asbasbasbag49
(g65
g51
NtRp93
(dp94
g54
(dp95
sg63
g59
sg56
(lp96
g49
(g70
g51
NtRp97
(dp98
g54
(dp99
g74
g75
ssg63
g93
sg56
(lp100
S'application'
p101
asbag49
(g70
g51
NtRp102
(dp103
g54
(dp104
g81
g82
ssg63
g93
sg56
(lp105
S':'
asbag49
(g70
g51
NtRp106
(dp107
g54
(dp108
sg63
g93
sg56
(lp109
g49
(g50
g51
NtRp110
(dp111
g54
(dp112
g62
I5
ssg63
g106
sg56
(lp113
S'hellow'
p114
asbasbasbag49
(g65
g51
NtRp115
(dp116
g54
(dp117
sg63
g59
sg56
(lp118
g49
(g70
g51
NtRp119
(dp120
g54
(dp121
g74
g75
ssg63
g115
sg56
(lp122
g28
asbag49
(g70
g51
NtRp123
(dp124
g54
(dp125
g81
g82
ssg63
g115
sg56
(lp126
S':'
asbag49
(g70
g51
NtRp127
(dp128
g54
(dp129
sg63
g115
sg56
(lp130
g49
(g50
g51
NtRp131
(dp132
g54
(dp133
g62
I5
ssg63
g127
sg56
(lp134
g49
(g58
g51
NtRp135
(dp136
g54
(dp137
g62
I4
ssg63
Nsg56
(lp138
g49
(g65
g51
NtRp139
(dp140
g54
(dp141
sg63
g135
sg56
(lp142
g49
(g70
g51
NtRp143
(dp144
g54
(dp145
sg63
g139
sg56
(lp146
g49
(g50
g51
NtRp147
(dp148
g54
(dp149
g62
I4
ssg63
g143
sg56
(lp150
S'1'
asbasbasbasbasbasbasbag49
(g65
g51
NtRp151
(dp152
g54
(dp153
sg63
g59
sg56
(lp154
g49
(g70
g51
NtRp155
(dp156
g54
(dp157
g74
g75
ssg63
g151
sg56
(lp158
S'body'
p159
asbag49
(g70
g51
NtRp160
(dp161
g54
(dp162
g81
g82
ssg63
g151
sg56
(lp163
S':'
asbag49
(g70
g51
NtRp164
(dp165
g54
(dp166
sg63
g151
sg56
(lp167
g49
(g50
g51
NtRp168
(dp169
g54
(dp170
g62
I5
ssg63
g164
sg56
(lp171
S'<cStringIO.StringO object at 0x3b63620>'
p172
asbasbasbag49
(g65
g51
NtRp173
(dp174
g54
(dp175
sg63
g59
sg56
(lp176
g49
(g70
g51
NtRp177
(dp178
g54
(dp179
g74
g75
ssg63
g173
sg56
(lp180
S'cid'
p181
asbag49
(g70
g51
NtRp182
(dp183
g54
(dp184
g81
g82
ssg63
g173
sg56
(lp185
S':'
asbag49
(g70
g51
NtRp186
(dp187
g54
(dp188
sg63
g173
sg56
(lp189
g49
(g50
g51
NtRp190
(dp191
g54
(dp192
g62
I5
ssg63
g186
sg56
(lp193
S'None'
p194
asbasbasbag49
(g65
g51
NtRp195
(dp196
g54
(dp197
sg63
g59
sg56
(lp198
g49
(g70
g51
NtRp199
(dp200
g54
(dp201
g74
g75
ssg63
g195
sg56
(lp202
S'client'
p203
asbag49
(g70
g51
NtRp204
(dp205
g54
(dp206
g81
g82
ssg63
g195
sg56
(lp207
S':'
asbag49
(g70
g51
NtRp208
(dp209
g54
(dp210
sg63
g195
sg56
(lp211
g49
(g50
g51
NtRp212
(dp213
g54
(dp214
g62
I5
ssg63
g208
sg56
(lp215
S'127.0.0.1'
p216
asbasbasbag49
(g65
g51
NtRp217
(dp218
g54
(dp219
sg63
g59
sg56
(lp220
g49
(g70
g51
NtRp221
(dp222
g54
(dp223
g74
g75
ssg63
g217
sg56
(lp224
S'controller'
p225
asbag49
(g70
g51
NtRp226
(dp227
g54
(dp228
g81
g82
ssg63
g217
sg56
(lp229
S':'
asbag49
(g70
g51
NtRp230
(dp231
g54
(dp232
sg63
g217
sg56
(lp233
g49
(g50
g51
NtRp234
(dp235
g54
(dp236
g62
I5
ssg63
g230
sg56
(lp237
S'game'
p238
asbasbasbag49
(g65
g51
NtRp239
(dp240
g54
(dp241
sg63
g59
sg56
(lp242
g49
(g70
g51
NtRp243
(dp244
g54
(dp245
g74
g75
ssg63
g239
sg56
(lp246
S'cookies'
p247
asbag49
(g70
g51
NtRp248
(dp249
g54
(dp250
g81
g82
ssg63
g239
sg56
(lp251
S':'
asbag49
(g70
g51
NtRp252
(dp253
g54
(dp254
sg63
g239
sg56
(lp255
g49
(g50
g51
NtRp256
(dp257
g54
(dp258
g62
I5
ssg63
g252
sg56
(lp259
g49
(g58
g51
NtRp260
(dp261
g54
(dp262
g62
I4
ssg63
Nsg56
(lp263
g49
(g65
g51
NtRp264
(dp265
g54
(dp266
sg63
g260
sg56
(lp267
g49
(g70
g51
NtRp268
(dp269
g54
(dp270
g74
g75
ssg63
g264
sg56
(lp271
S'session_id_admin'
p272
asbag49
(g70
g51
NtRp273
(dp274
g54
(dp275
g81
g82
ssg63
g264
sg56
(lp276
S':'
asbag49
(g70
g51
NtRp277
(dp278
g54
(dp279
sg63
g264
sg56
(lp280
g49
(g50
g51
NtRp281
(dp282
g54
(dp283
g62
I4
ssg63
g277
sg56
(lp284
S'127.0.0.1-bf448199-cadc-41e3-b1a7-bed302e89a3e'
p285
ag49
(g58
g51
NtRp286
(dp287
g54
(dp288
g62
I3
ssg63
Nsg56
(lp289
g49
(g65
g51
NtRp290
(dp291
g54
(dp292
sg63
g286
sg56
(lp293
g49
(g70
g51
NtRp294
(dp295
g54
(dp296
g74
g75
ssg63
g290
sg56
(lp297
S'comment'
p298
asbag49
(g70
g51
NtRp299
(dp300
g54
(dp301
g81
g82
ssg63
g290
sg56
(lp302
S':'
asbag49
(g70
g51
NtRp303
(dp304
g54
(dp305
sg63
g290
sg56
(lp306
g49
(g50
g51
NtRp307
(dp308
g54
(dp309
g62
I3
ssg63
g303
sg56
(lp310
S''
asbasbasbag49
(g65
g51
NtRp311
(dp312
g54
(dp313
sg63
g286
sg56
(lp314
g49
(g70
g51
NtRp315
(dp316
g54
(dp317
g74
g75
ssg63
g311
sg56
(lp318
S'domain'
p319
asbag49
(g70
g51
NtRp320
(dp321
g54
(dp322
g81
g82
ssg63
g311
sg56
(lp323
S':'
asbag49
(g70
g51
NtRp324
(dp325
g54
(dp326
sg63
g311
sg56
(lp327
g49
(g50
g51
NtRp328
(dp329
g54
(dp330
g62
I3
ssg63
g324
sg56
(lp331
S''
asbasbasbag49
(g65
g51
NtRp332
(dp333
g54
(dp334
sg63
g286
sg56
(lp335
g49
(g70
g51
NtRp336
(dp337
g54
(dp338
g74
g75
ssg63
g332
sg56
(lp339
S'expires'
p340
asbag49
(g70
g51
NtRp341
(dp342
g54
(dp343
g81
g82
ssg63
g332
sg56
(lp344
S':'
asbag49
(g70
g51
NtRp345
(dp346
g54
(dp347
sg63
g332
sg56
(lp348
g49
(g50
g51
NtRp349
(dp350
g54
(dp351
g62
I3
ssg63
g345
sg56
(lp352
S''
asbasbasbag49
(g65
g51
NtRp353
(dp354
g54
(dp355
sg63
g286
sg56
(lp356
g49
(g70
g51
NtRp357
(dp358
g54
(dp359
g74
g75
ssg63
g353
sg56
(lp360
S'max-age'
p361
asbag49
(g70
g51
NtRp362
(dp363
g54
(dp364
g81
g82
ssg63
g353
sg56
(lp365
S':'
asbag49
(g70
g51
NtRp366
(dp367
g54
(dp368
sg63
g353
sg56
(lp369
g49
(g50
g51
NtRp370
(dp371
g54
(dp372
g62
I3
ssg63
g366
sg56
(lp373
S''
asbasbasbag49
(g65
g51
NtRp374
(dp375
g54
(dp376
sg63
g286
sg56
(lp377
g49
(g70
g51
NtRp378
(dp379
g54
(dp380
g74
g75
ssg63
g374
sg56
(lp381
S'path'
p382
asbag49
(g70
g51
NtRp383
(dp384
g54
(dp385
g81
g82
ssg63
g374
sg56
(lp386
S':'
asbag49
(g70
g51
NtRp387
(dp388
g54
(dp389
sg63
g374
sg56
(lp390
g49
(g50
g51
NtRp391
(dp392
g54
(dp393
g62
I3
ssg63
g387
sg56
(lp394
S''
asbasbasbag49
(g65
g51
NtRp395
(dp396
g54
(dp397
sg63
g286
sg56
(lp398
g49
(g70
g51
NtRp399
(dp400
g54
(dp401
g74
g75
ssg63
g395
sg56
(lp402
S'secure'
p403
asbag49
(g70
g51
NtRp404
(dp405
g54
(dp406
g81
g82
ssg63
g395
sg56
(lp407
S':'
asbag49
(g70
g51
NtRp408
(dp409
g54
(dp410
sg63
g395
sg56
(lp411
g49
(g50
g51
NtRp412
(dp413
g54
(dp414
g62
I3
ssg63
g408
sg56
(lp415
S''
asbasbasbag49
(g65
g51
NtRp416
(dp417
g54
(dp418
sg63
g286
sg56
(lp419
g49
(g70
g51
NtRp420
(dp421
g54
(dp422
g74
g75
ssg63
g416
sg56
(lp423
S'version'
p424
asbag49
(g70
g51
NtRp425
(dp426
g54
(dp427
g81
g82
ssg63
g416
sg56
(lp428
S':'
asbag49
(g70
g51
NtRp429
(dp430
g54
(dp431
sg63
g416
sg56
(lp432
g49
(g50
g51
NtRp433
(dp434
g54
(dp435
g62
I3
ssg63
g429
sg56
(lp436
S''
asbasbasbasbasbasbasbag49
(g65
g51
NtRp437
(dp438
g54
(dp439
sg63
g260
sg56
(lp440
g49
(g70
g51
NtRp441
(dp442
g54
(dp443
g74
g75
ssg63
g437
sg56
(lp444
S'session_id_hellow'
p445
asbag49
(g70
g51
NtRp446
(dp447
g54
(dp448
g81
g82
ssg63
g437
sg56
(lp449
S':'
asbag49
(g70
g51
NtRp450
(dp451
g54
(dp452
sg63
g437
sg56
(lp453
g49
(g50
g51
NtRp454
(dp455
g54
(dp456
g62
I4
ssg63
g450
sg56
(lp457
S'127.0.0.1-bbea59f2-333e-4593-a45c-2c44a5133d77'
p458
ag49
(g58
g51
NtRp459
(dp460
g54
(dp461
g62
I3
ssg63
Nsg56
(lp462
g49
(g65
g51
NtRp463
(dp464
g54
(dp465
sg63
g459
sg56
(lp466
g49
(g70
g51
NtRp467
(dp468
g54
(dp469
g74
g75
ssg63
g463
sg56
(lp470
g298
asbag49
(g70
g51
NtRp471
(dp472
g54
(dp473
g81
g82
ssg63
g463
sg56
(lp474
S':'
asbag49
(g70
g51
NtRp475
(dp476
g54
(dp477
sg63
g463
sg56
(lp478
g49
(g50
g51
NtRp479
(dp480
g54
(dp481
g62
I3
ssg63
g475
sg56
(lp482
S''
asbasbasbag49
(g65
g51
NtRp483
(dp484
g54
(dp485
sg63
g459
sg56
(lp486
g49
(g70
g51
NtRp487
(dp488
g54
(dp489
g74
g75
ssg63
g483
sg56
(lp490
g319
asbag49
(g70
g51
NtRp491
(dp492
g54
(dp493
g81
g82
ssg63
g483
sg56
(lp494
S':'
asbag49
(g70
g51
NtRp495
(dp496
g54
(dp497
sg63
g483
sg56
(lp498
g49
(g50
g51
NtRp499
(dp500
g54
(dp501
g62
I3
ssg63
g495
sg56
(lp502
S''
asbasbasbag49
(g65
g51
NtRp503
(dp504
g54
(dp505
sg63
g459
sg56
(lp506
g49
(g70
g51
NtRp507
(dp508
g54
(dp509
g74
g75
ssg63
g503
sg56
(lp510
g340
asbag49
(g70
g51
NtRp511
(dp512
g54
(dp513
g81
g82
ssg63
g503
sg56
(lp514
S':'
asbag49
(g70
g51
NtRp515
(dp516
g54
(dp517
sg63
g503
sg56
(lp518
g49
(g50
g51
NtRp519
(dp520
g54
(dp521
g62
I3
ssg63
g515
sg56
(lp522
S''
asbasbasbag49
(g65
g51
NtRp523
(dp524
g54
(dp525
sg63
g459
sg56
(lp526
g49
(g70
g51
NtRp527
(dp528
g54
(dp529
g74
g75
ssg63
g523
sg56
(lp530
g361
asbag49
(g70
g51
NtRp531
(dp532
g54
(dp533
g81
g82
ssg63
g523
sg56
(lp534
S':'
asbag49
(g70
g51
NtRp535
(dp536
g54
(dp537
sg63
g523
sg56
(lp538
g49
(g50
g51
NtRp539
(dp540
g54
(dp541
g62
I3
ssg63
g535
sg56
(lp542
S''
asbasbasbag49
(g65
g51
NtRp543
(dp544
g54
(dp545
sg63
g459
sg56
(lp546
g49
(g70
g51
NtRp547
(dp548
g54
(dp549
g74
g75
ssg63
g543
sg56
(lp550
g382
asbag49
(g70
g51
NtRp551
(dp552
g54
(dp553
g81
g82
ssg63
g543
sg56
(lp554
S':'
asbag49
(g70
g51
NtRp555
(dp556
g54
(dp557
sg63
g543
sg56
(lp558
g49
(g50
g51
NtRp559
(dp560
g54
(dp561
g62
I3
ssg63
g555
sg56
(lp562
S''
asbasbasbag49
(g65
g51
NtRp563
(dp564
g54
(dp565
sg63
g459
sg56
(lp566
g49
(g70
g51
NtRp567
(dp568
g54
(dp569
g74
g75
ssg63
g563
sg56
(lp570
g403
asbag49
(g70
g51
NtRp571
(dp572
g54
(dp573
g81
g82
ssg63
g563
sg56
(lp574
S':'
asbag49
(g70
g51
NtRp575
(dp576
g54
(dp577
sg63
g563
sg56
(lp578
g49
(g50
g51
NtRp579
(dp580
g54
(dp581
g62
I3
ssg63
g575
sg56
(lp582
S''
asbasbasbag49
(g65
g51
NtRp583
(dp584
g54
(dp585
sg63
g459
sg56
(lp586
g49
(g70
g51
NtRp587
(dp588
g54
(dp589
g74
g75
ssg63
g583
sg56
(lp590
g424
asbag49
(g70
g51
NtRp591
(dp592
g54
(dp593
g81
g82
ssg63
g583
sg56
(lp594
S':'
asbag49
(g70
g51
NtRp595
(dp596
g54
(dp597
sg63
g583
sg56
(lp598
g49
(g50
g51
NtRp599
(dp600
g54
(dp601
g62
I3
ssg63
g595
sg56
(lp602
S''
asbasbasbasbasbasbasbag49
(g65
g51
NtRp603
(dp604
g54
(dp605
sg63
g260
sg56
(lp606
g49
(g70
g51
NtRp607
(dp608
g54
(dp609
g74
g75
ssg63
g603
sg56
(lp610
S'session_id_welcome'
p611
asbag49
(g70
g51
NtRp612
(dp613
g54
(dp614
g81
g82
ssg63
g603
sg56
(lp615
S':'
asbag49
(g70
g51
NtRp616
(dp617
g54
(dp618
sg63
g603
sg56
(lp619
g49
(g50
g51
NtRp620
(dp621
g54
(dp622
g62
I4
ssg63
g616
sg56
(lp623
S'127.0.0.1-dfebfa33-25aa-4072-bce4-08f7e89e2d04'
p624
ag49
(g58
g51
NtRp625
(dp626
g54
(dp627
g62
I3
ssg63
Nsg56
(lp628
g49
(g65
g51
NtRp629
(dp630
g54
(dp631
sg63
g625
sg56
(lp632
g49
(g70
g51
NtRp633
(dp634
g54
(dp635
g74
g75
ssg63
g629
sg56
(lp636
g298
asbag49
(g70
g51
NtRp637
(dp638
g54
(dp639
g81
g82
ssg63
g629
sg56
(lp640
S':'
asbag49
(g70
g51
NtRp641
(dp642
g54
(dp643
sg63
g629
sg56
(lp644
g49
(g50
g51
NtRp645
(dp646
g54
(dp647
g62
I3
ssg63
g641
sg56
(lp648
S''
asbasbasbag49
(g65
g51
NtRp649
(dp650
g54
(dp651
sg63
g625
sg56
(lp652
g49
(g70
g51
NtRp653
(dp654
g54
(dp655
g74
g75
ssg63
g649
sg56
(lp656
g319
asbag49
(g70
g51
NtRp657
(dp658
g54
(dp659
g81
g82
ssg63
g649
sg56
(lp660
S':'
asbag49
(g70
g51
NtRp661
(dp662
g54
(dp663
sg63
g649
sg56
(lp664
g49
(g50
g51
NtRp665
(dp666
g54
(dp667
g62
I3
ssg63
g661
sg56
(lp668
S''
asbasbasbag49
(g65
g51
NtRp669
(dp670
g54
(dp671
sg63
g625
sg56
(lp672
g49
(g70
g51
NtRp673
(dp674
g54
(dp675
g74
g75
ssg63
g669
sg56
(lp676
g340
asbag49
(g70
g51
NtRp677
(dp678
g54
(dp679
g81
g82
ssg63
g669
sg56
(lp680
S':'
asbag49
(g70
g51
NtRp681
(dp682
g54
(dp683
sg63
g669
sg56
(lp684
g49
(g50
g51
NtRp685
(dp686
g54
(dp687
g62
I3
ssg63
g681
sg56
(lp688
S''
asbasbasbag49
(g65
g51
NtRp689
(dp690
g54
(dp691
sg63
g625
sg56
(lp692
g49
(g70
g51
NtRp693
(dp694
g54
(dp695
g74
g75
ssg63
g689
sg56
(lp696
g361
asbag49
(g70
g51
NtRp697
(dp698
g54
(dp699
g81
g82
ssg63
g689
sg56
(lp700
S':'
asbag49
(g70
g51
NtRp701
(dp702
g54
(dp703
sg63
g689
sg56
(lp704
g49
(g50
g51
NtRp705
(dp706
g54
(dp707
g62
I3
ssg63
g701
sg56
(lp708
S''
asbasbasbag49
(g65
g51
NtRp709
(dp710
g54
(dp711
sg63
g625
sg56
(lp712
g49
(g70
g51
NtRp713
(dp714
g54
(dp715
g74
g75
ssg63
g709
sg56
(lp716
g382
asbag49
(g70
g51
NtRp717
(dp718
g54
(dp719
g81
g82
ssg63
g709
sg56
(lp720
S':'
asbag49
(g70
g51
NtRp721
(dp722
g54
(dp723
sg63
g709
sg56
(lp724
g49
(g50
g51
NtRp725
(dp726
g54
(dp727
g62
I3
ssg63
g721
sg56
(lp728
S''
asbasbasbag49
(g65
g51
NtRp729
(dp730
g54
(dp731
sg63
g625
sg56
(lp732
g49
(g70
g51
NtRp733
(dp734
g54
(dp735
g74
g75
ssg63
g729
sg56
(lp736
g403
asbag49
(g70
g51
NtRp737
(dp738
g54
(dp739
g81
g82
ssg63
g729
sg56
(lp740
S':'
asbag49
(g70
g51
NtRp741
(dp742
g54
(dp743
sg63
g729
sg56
(lp744
g49
(g50
g51
NtRp745
(dp746
g54
(dp747
g62
I3
ssg63
g741
sg56
(lp748
S''
asbasbasbag49
(g65
g51
NtRp749
(dp750
g54
(dp751
sg63
g625
sg56
(lp752
g49
(g70
g51
NtRp753
(dp754
g54
(dp755
g74
g75
ssg63
g749
sg56
(lp756
g424
asbag49
(g70
g51
NtRp757
(dp758
g54
(dp759
g81
g82
ssg63
g749
sg56
(lp760
S':'
asbag49
(g70
g51
NtRp761
(dp762
g54
(dp763
sg63
g749
sg56
(lp764
g49
(g50
g51
NtRp765
(dp766
g54
(dp767
g62
I3
ssg63
g761
sg56
(lp768
S''
asbasbasbasbasbasbasbasbasbasbasbag49
(g65
g51
NtRp769
(dp770
g54
(dp771
sg63
g59
sg56
(lp772
g49
(g70
g51
NtRp773
(dp774
g54
(dp775
g74
g75
ssg63
g769
sg56
(lp776
S'env'
p777
asbag49
(g70
g51
NtRp778
(dp779
g54
(dp780
g81
g82
ssg63
g769
sg56
(lp781
S':'
asbag49
(g70
g51
NtRp782
(dp783
g54
(dp784
sg63
g769
sg56
(lp785
g49
(g50
g51
NtRp786
(dp787
g54
(dp788
g62
I5
ssg63
g782
sg56
(lp789
g49
(g58
g51
NtRp790
(dp791
g54
(dp792
g62
I4
ssg63
Nsg56
(lp793
g49
(g65
g51
NtRp794
(dp795
g54
(dp796
sg63
g790
sg56
(lp797
g49
(g70
g51
NtRp798
(dp799
g54
(dp800
g74
g75
ssg63
g794
sg56
(lp801
S'app_folders'
p802
asbag49
(g70
g51
NtRp803
(dp804
g54
(dp805
g81
g82
ssg63
g794
sg56
(lp806
S':'
asbag49
(g70
g51
NtRp807
(dp808
g54
(dp809
sg63
g794
sg56
(lp810
g49
(g50
g51
NtRp811
(dp812
g54
(dp813
g62
I4
ssg63
g807
sg56
(lp814
S"set(['/Users/zamechek/Downloads/web2py/web2py.app/Contents/Resources/applications/hellow/', '/Users/zamechek/Downloads/web2py/web2py.app/Contents/Resources/applications/admin/', '/Users/zamechek/Downloads/web2py/web2py.app/Contents/Resources/applications/welcome/'])"
p815
asbasbasbag49
(g65
g51
NtRp816
(dp817
g54
(dp818
sg63
g790
sg56
(lp819
g49
(g70
g51
NtRp820
(dp821
g54
(dp822
g74
g75
ssg63
g816
sg56
(lp823
S'applications_parent'
p824
asbag49
(g70
g51
NtRp825
(dp826
g54
(dp827
g81
g82
ssg63
g816
sg56
(lp828
S':'
asbag49
(g70
g51
NtRp829
(dp830
g54
(dp831
sg63
g816
sg56
(lp832
g49
(g50
g51
NtRp833
(dp834
g54
(dp835
g62
I4
ssg63
g829
sg56
(lp836
S'/Users/zamechek/Downloads/web2py/web2py.app/Contents/Resources'
p837
asbasbasbag49
(g65
g51
NtRp838
(dp839
g54
(dp840
sg63
g790
sg56
(lp841
g49
(g70
g51
NtRp842
(dp843
g54
(dp844
g74
g75
ssg63
g838
sg56
(lp845
S'cmd_args'
p846
asbag49
(g70
g51
NtRp847
(dp848
g54
(dp849
g81
g82
ssg63
g838
sg56
(lp850
S':'
asbag49
(g70
g51
NtRp851
(dp852
g54
(dp853
sg63
g838
sg56
(lp854
g49
(g50
g51
NtRp855
(dp856
g54
(dp857
g62
I4
ssg63
g851
sg56
(lp858
g49
(g58
g51
NtRp859
(dp860
g54
(dp861
g62
I3
ssg63
Nsg56
(lp862
sbasbasbasbag49
(g65
g51
NtRp863
(dp864
g54
(dp865
sg63
g790
sg56
(lp866
g49
(g70
g51
NtRp867
(dp868
g54
(dp869
g74
g75
ssg63
g863
sg56
(lp870
S'cmd_options'
p871
asbag49
(g70
g51
NtRp872
(dp873
g54
(dp874
g81
g82
ssg63
g863
sg56
(lp875
S':'
asbag49
(g70
g51
NtRp876
(dp877
g54
(dp878
sg63
g863
sg56
(lp879
g49
(g50
g51
NtRp880
(dp881
g54
(dp882
g62
I4
ssg63
g876
sg56
(lp883
S"<Values at 0x478bf58: {'verbose': False, 'ip': '127.0.0.1', 'with_scheduler': False, 'ips': ['130.91.149.119'], 'shutdown_timeout': 5, 'taskbar': False, 'port': 8000, 'maxthreads': None, 'softcron': False, 'server_name': 'hntvlan5310374.wlan.sas.upenn.edu', 'bpython': False, 'nogui': False, 'pid_filename': 'httpserver.pid', 'extcron': False, 'runcron': False, 'run_system_tests': False, 'test': None, 'folder': '/Users/zamechek/Downloads/web2py/web2py.app/Contents/Resources', 'config': '', 'import_models': False, 'winservice': '', 'shell': None, 'run': '', 'log_filename': 'httpserver.log', 'debuglevel': 30, 'args': [''], 'socket_timeout': 5, 'ssl_ca_certificate': None, 'scheduler': None, 'profiler_filename': None, 'ssl_private_key': '', 'scheduler_groups': None, 'password': '<ask>', 'request_queue_size': 5, 'ssl_certificate': '', 'cronjob': False, 'numthreads': None, 'quiet': False, 'interfaces': None, 'minthreads': None, 'timeout': 10, 'plain': False, 'nobanner': False}>"
p884
asbasbasbag49
(g65
g51
NtRp885
(dp886
g54
(dp887
sg63
g790
sg56
(lp888
g49
(g70
g51
NtRp889
(dp890
g54
(dp891
g74
g75
ssg63
g885
sg56
(lp892
S'db_sessions'
p893
asbag49
(g70
g51
NtRp894
(dp895
g54
(dp896
g81
g82
ssg63
g885
sg56
(lp897
S':'
asbag49
(g70
g51
NtRp898
(dp899
g54
(dp900
sg63
g885
sg56
(lp901
g49
(g50
g51
NtRp902
(dp903
g54
(dp904
g62
I4
ssg63
g898
sg56
(lp905
S'set([])'
p906
asbasbasbag49
(g65
g51
NtRp907
(dp908
g54
(dp909
sg63
g790
sg56
(lp910
g49
(g70
g51
NtRp911
(dp912
g54
(dp913
g74
g75
ssg63
g907
sg56
(lp914
S'debugging'
p915
asbag49
(g70
g51
NtRp916
(dp917
g54
(dp918
g81
g82
ssg63
g907
sg56
(lp919
S':'
asbag49
(g70
g51
NtRp920
(dp921
g54
(dp922
sg63
g907
sg56
(lp923
g49
(g50
g51
NtRp924
(dp925
g54
(dp926
g62
I4
ssg63
g920
sg56
(lp927
S'True'
p928
asbasbasbag49
(g65
g51
NtRp929
(dp930
g54
(dp931
sg63
g790
sg56
(lp932
g49
(g70
g51
NtRp933
(dp934
g54
(dp935
g74
g75
ssg63
g929
sg56
(lp936
S'gluon_parent'
p937
asbag49
(g70
g51
NtRp938
(dp939
g54
(dp940
g81
g82
ssg63
g929
sg56
(lp941
S':'
asbag49
(g70
g51
NtRp942
(dp943
g54
(dp944
sg63
g929
sg56
(lp945
g49
(g50
g51
NtRp946
(dp947
g54
(dp948
g62
I4
ssg63
g942
sg56
(lp949
S'/Users/zamechek/Downloads/web2py/web2py.app/Contents/Resources'
p950
asbasbasbag49
(g65
g51
NtRp951
(dp952
g54
(dp953
sg63
g790
sg56
(lp954
g49
(g70
g51
NtRp955
(dp956
g54
(dp957
g74
g75
ssg63
g951
sg56
(lp958
S'http_accept'
p959
asbag49
(g70
g51
NtRp960
(dp961
g54
(dp962
g81
g82
ssg63
g951
sg56
(lp963
S':'
asbag49
(g70
g51
NtRp964
(dp965
g54
(dp966
sg63
g951
sg56
(lp967
g49
(g50
g51
NtRp968
(dp969
g54
(dp970
g62
I4
ssg63
g964
sg56
(lp971
S'text/html,application/xhtml+xml,application/xml;q=0.9,*/*;q=0.8'
p972
asbasbasbag49
(g65
g51
NtRp973
(dp974
g54
(dp975
sg63
g790
sg56
(lp976
g49
(g70
g51
NtRp977
(dp978
g54
(dp979
g74
g75
ssg63
g973
sg56
(lp980
S'http_accept_charset'
p981
asbag49
(g70
g51
NtRp982
(dp983
g54
(dp984
g81
g82
ssg63
g973
sg56
(lp985
S':'
asbag49
(g70
g51
NtRp986
(dp987
g54
(dp988
sg63
g973
sg56
(lp989
g49
(g50
g51
NtRp990
(dp991
g54
(dp992
g62
I4
ssg63
g986
sg56
(lp993
S'ISO-8859-1,utf-8;q=0.7,*;q=0.3'
p994
asbasbasbag49
(g65
g51
NtRp995
(dp996
g54
(dp997
sg63
g790
sg56
(lp998
g49
(g70
g51
NtRp999
(dp1000
g54
(dp1001
g74
g75
ssg63
g995
sg56
(lp1002
S'http_accept_encoding'
p1003
asbag49
(g70
g51
NtRp1004
(dp1005
g54
(dp1006
g81
g82
ssg63
g995
sg56
(lp1007
S':'
asbag49
(g70
g51
NtRp1008
(dp1009
g54
(dp1010
sg63
g995
sg56
(lp1011
g49
(g50
g51
NtRp1012
(dp1013
g54
(dp1014
g62
I4
ssg63
g1008
sg56
(lp1015
S'gzip,deflate,sdch'
p1016
asbasbasbag49
(g65
g51
NtRp1017
(dp1018
g54
(dp1019
sg63
g790
sg56
(lp1020
g49
(g70
g51
NtRp1021
(dp1022
g54
(dp1023
g74
g75
ssg63
g1017
sg56
(lp1024
S'http_accept_language'
p1025
asbag49
(g70
g51
NtRp1026
(dp1027
g54
(dp1028
g81
g82
ssg63
g1017
sg56
(lp1029
S':'
asbag49
(g70
g51
NtRp1030
(dp1031
g54
(dp1032
sg63
g1017
sg56
(lp1033
g49
(g50
g51
NtRp1034
(dp1035
g54
(dp1036
g62
I4
ssg63
g1030
sg56
(lp1037
S'en-US,en;q=0.8'
p1038
asbasbasbag49
(g65
g51
NtRp1039
(dp1040
g54
(dp1041
sg63
g790
sg56
(lp1042
g49
(g70
g51
NtRp1043
(dp1044
g54
(dp1045
g74
g75
ssg63
g1039
sg56
(lp1046
S'http_cache_control'
p1047
asbag49
(g70
g51
NtRp1048
(dp1049
g54
(dp1050
g81
g82
ssg63
g1039
sg56
(lp1051
S':'
asbag49
(g70
g51
NtRp1052
(dp1053
g54
(dp1054
sg63
g1039
sg56
(lp1055
g49
(g50
g51
NtRp1056
(dp1057
g54
(dp1058
g62
I4
ssg63
g1052
sg56
(lp1059
S'max-age=0'
p1060
asbasbasbag49
(g65
g51
NtRp1061
(dp1062
g54
(dp1063
sg63
g790
sg56
(lp1064
g49
(g70
g51
NtRp1065
(dp1066
g54
(dp1067
g74
g75
ssg63
g1061
sg56
(lp1068
S'http_connection'
p1069
asbag49
(g70
g51
NtRp1070
(dp1071
g54
(dp1072
g81
g82
ssg63
g1061
sg56
(lp1073
S':'
asbag49
(g70
g51
NtRp1074
(dp1075
g54
(dp1076
sg63
g1061
sg56
(lp1077
g49
(g50
g51
NtRp1078
(dp1079
g54
(dp1080
g62
I4
ssg63
g1074
sg56
(lp1081
S'keep-alive'
p1082
asbasbasbag49
(g65
g51
NtRp1083
(dp1084
g54
(dp1085
sg63
g790
sg56
(lp1086
g49
(g70
g51
NtRp1087
(dp1088
g54
(dp1089
g74
g75
ssg63
g1083
sg56
(lp1090
S'http_cookie'
p1091
asbag49
(g70
g51
NtRp1092
(dp1093
g54
(dp1094
g81
g82
ssg63
g1083
sg56
(lp1095
S':'
asbag49
(g70
g51
NtRp1096
(dp1097
g54
(dp1098
sg63
g1083
sg56
(lp1099
g49
(g50
g51
NtRp1100
(dp1101
g54
(dp1102
g62
I4
ssg63
g1096
sg56
(lp1103
S'_define_session=BAh7CEkiD3Nlc3Npb25faWQGOgZFRkkiJTVmM2YzOTE4ZmYyNzY4ZDRjYjY5YjcyOGNkZTAxODEwBjsAVEkiEF9jc3JmX3Rva2VuBjsARkkiMVY4MTBXWE1hdGNGUGR0ZzhxeStGc3FiajlCNzB6UkpqcHZUalZJNjRFNms9BjsARkkiGXdhcmRlbi51c2VyLnVzZXIua2V5BjsAVFsISSIJVXNlcgY7AEZbBmkGSSIiJDJhJDEwJGxpeDBzN29QMk5ocFJWZUl4RXZ4WXUGOwBU--36fb82eb40ee1558fc8e56b5bce1c04bba1a6c00; _bs_session=BAh7B0kiD3Nlc3Npb25faWQGOgZFRkkiJWFhOTlmNjdkODEzYjIwNGMyNGUwMTZmNjlkMDBjMjlhBjsAVEkiEF9jc3JmX3Rva2VuBjsARkkiMUJjek16b0JSUDluYk5MekI0YlNTMklPb2Q3V3pNQzJXcHQ1enY1RDgrT3c9BjsARg%3D%3D--80cc0f5e6211d60923eda39a15903de5a280521a; _table_session=BAh7B0kiD3Nlc3Npb25faWQGOgZFRkkiJTdhZTA3MzFhMGMxM2Q4YTAxZGQ3ZTNlMDM2ODIwOWY3BjsAVEkiEF9jc3JmX3Rva2VuBjsARkkiMWxKWVRtT3hGU3dxT0tnbmJ1OG1iL3FXSW9jWVRJdnZhZHJmNTN2b1BqR2M9BjsARg%3D%3D--a8b8801fe97e379d91991be9a0d21a60f46bc09e; _usertable_session=BAh7CEkiD3Nlc3Npb25faWQGOgZFRkkiJTRmY2NiMWMyOTE1ZThhYzE1MzVlYmU3ODMxZjdhM2NmBjsAVEkiEF9jc3JmX3Rva2VuBjsARkkiMXlibkQxRk5wVVFFU05OcDVxMEQvUURSZWRJQVlRY1JwYTdoSkRucEtlYXc9BjsARkkiCmZsYXNoBjsARm86JUFjdGlvbkRpc3BhdGNoOjpGbGFzaDo6Rmxhc2hIYXNoCToKQHVzZWRvOghTZXQGOgpAaGFzaHsAOgxAY2xvc2VkRjoNQGZsYXNoZXN7BjoLbm90aWNlSSItRmllbGQgcmVsYXRpb24gd2FzIHN1Y2Nlc3NmdWxseSBjcmVhdGVkLgY7AEY6CUBub3cw--c455129d4f2ca1e085c6ad184fd200aecc0b7061; _tbls_session=BAh7B0kiD3Nlc3Npb25faWQGOgZFRkkiJWY5MmM2Mzk2ZWQ0M2ZlODZkN2E5YjMxYmViOTU4NTI2BjsAVEkiEF9jc3JmX3Rva2VuBjsARkkiMVZjemQ4UGhpZXhnaEhnOUE2alRCRmdGSXFBclViMFhwQlo5Ulg2VTRhdFk9BjsARg%3D%3D--53586c2b8499a2c56c427cd8b8e3de116331bd4d; _typel_session=BAh7CEkiD3Nlc3Npb25faWQGOgZFRkkiJWQzMjkxZGExNGY5ZTQzNzIzZTk5MWZmZTM0NDY2NTFiBjsAVEkiEF9jc3JmX3Rva2VuBjsARkkiMWM5cVg1c3pKalpQSjd3Yk5lanQ5alpjZW4zRmNOVXdQS29YNExGOXJIUWM9BjsARkkiGXdhcmRlbi51c2VyLnVzZXIua2V5BjsAVFsISSIJVXNlcgY7AEZbBmkGSSIiJDJhJDEwJEVybm5aY0RTdm9sRjRETENhdjRveGUGOwBU--df06a9ed1ab2763964f111c2534c9f2a3630c12c; _ampersand_factory_session=BAh7CUkiD3Nlc3Npb25faWQGOgZFRkkiJWI2NTFmMThjZDNkMWU4NTNhNmI4OWU1MjNhYjMyZmQ0BjsAVEkiDWluc3RhbmNlBjsARmkGSSIQX2NzcmZfdG9rZW4GOwBGSSIxTEtBZER3MFlQQUV6Nmh1NW95TG4vUTFGcFdXa1ozWTVJaUx5aXh4ZndTVT0GOwBGSSIbd2FyZGVuLnVzZXIud29ya2VyLmtleQY7AFRbCEkiC1dvcmtlcgY7AEZbBmkGSSIiJDJhJDEwJGlEdndMRmhzQXB5eE1tLnhjMFM2di4GOwBU--e6bc7e5d4e945842bb7862fd547d433b3c7bfdcb; _lang_session=BAh7B0kiD3Nlc3Npb25faWQGOgZFRkkiJTY2YzI4YTY5NDkzNzE1ZGIzYzUwNWM3ZDg2ZmY1MWNiBjsAVEkiEF9jc3JmX3Rva2VuBjsARkkiMVdVczNjYnUvY2tZaHFvMVlwLy9zemdCcFliUytKdTlUTGZ3M1RIUlI3aHc9BjsARg%3D%3D--52f16b665cb4cfc5b54cea21c7b082ab6b75b1bf; session_id_welcome=127.0.0.1-dfebfa33-25aa-4072-bce4-08f7e89e2d04; session_id_hellow=127.0.0.1-bbea59f2-333e-4593-a45c-2c44a5133d77; session_id_admin=127.0.0.1-bf448199-cadc-41e3-b1a7-bed302e89a3e'
p1104
asbasbasbag49
(g65
g51
NtRp1105
(dp1106
g54
(dp1107
sg63
g790
sg56
(lp1108
g49
(g70
g51
NtRp1109
(dp1110
g54
(dp1111
g74
g75
ssg63
g1105
sg56
(lp1112
S'http_host'
p1113
asbag49
(g70
g51
NtRp1114
(dp1115
g54
(dp1116
g81
g82
ssg63
g1105
sg56
(lp1117
S':'
asbag49
(g70
g51
NtRp1118
(dp1119
g54
(dp1120
sg63
g1105
sg56
(lp1121
g49
(g50
g51
NtRp1122
(dp1123
g54
(dp1124
g62
I4
ssg63
g1118
sg56
(lp1125
S'localhost:8887'
p1126
asbasbasbag49
(g65
g51
NtRp1127
(dp1128
g54
(dp1129
sg63
g790
sg56
(lp1130
g49
(g70
g51
NtRp1131
(dp1132
g54
(dp1133
g74
g75
ssg63
g1127
sg56
(lp1134
S'http_user_agent'
p1135
asbag49
(g70
g51
NtRp1136
(dp1137
g54
(dp1138
g81
g82
ssg63
g1127
sg56
(lp1139
S':'
asbag49
(g70
g51
NtRp1140
(dp1141
g54
(dp1142
sg63
g1127
sg56
(lp1143
g49
(g50
g51
NtRp1144
(dp1145
g54
(dp1146
g62
I4
ssg63
g1140
sg56
(lp1147
S'Mozilla/5.0 (Macintosh; Intel Mac OS X 10_8_3) AppleWebKit/537.22 (KHTML, like Gecko) Chrome/25.0.1364.172 Safari/537.22'
p1148
asbasbasbag49
(g65
g51
NtRp1149
(dp1150
g54
(dp1151
sg63
g790
sg56
(lp1152
g49
(g70
g51
NtRp1153
(dp1154
g54
(dp1155
g74
g75
ssg63
g1149
sg56
(lp1156
S'is_jython'
p1157
asbag49
(g70
g51
NtRp1158
(dp1159
g54
(dp1160
g81
g82
ssg63
g1149
sg56
(lp1161
S':'
asbag49
(g70
g51
NtRp1162
(dp1163
g54
(dp1164
sg63
g1149
sg56
(lp1165
g49
(g50
g51
NtRp1166
(dp1167
g54
(dp1168
g62
I4
ssg63
g1162
sg56
(lp1169
g92
asbasbasbag49
(g65
g51
NtRp1170
(dp1171
g54
(dp1172
sg63
g790
sg56
(lp1173
g49
(g70
g51
NtRp1174
(dp1175
g54
(dp1176
g74
g75
ssg63
g1170
sg56
(lp1177
S'is_pypy'
p1178
asbag49
(g70
g51
NtRp1179
(dp1180
g54
(dp1181
g81
g82
ssg63
g1170
sg56
(lp1182
S':'
asbag49
(g70
g51
NtRp1183
(dp1184
g54
(dp1185
sg63
g1170
sg56
(lp1186
g49
(g50
g51
NtRp1187
(dp1188
g54
(dp1189
g62
I4
ssg63
g1183
sg56
(lp1190
g92
asbasbasbag49
(g65
g51
NtRp1191
(dp1192
g54
(dp1193
sg63
g790
sg56
(lp1194
g49
(g70
g51
NtRp1195
(dp1196
g54
(dp1197
g74
g75
ssg63
g1191
sg56
(lp1198
S'local_hosts'
p1199
asbag49
(g70
g51
NtRp1200
(dp1201
g54
(dp1202
g81
g82
ssg63
g1191
sg56
(lp1203
S':'
asbag49
(g70
g51
NtRp1204
(dp1205
g54
(dp1206
sg63
g1191
sg56
(lp1207
g49
(g50
g51
NtRp1208
(dp1209
g54
(dp1210
g62
I4
ssg63
g1204
sg56
(lp1211
g49
(g58
g51
NtRp1212
(dp1213
g54
(dp1214
g62
I3
ssg63
Nsg56
(lp1215
g49
(g65
g51
NtRp1216
(dp1217
g54
(dp1218
sg63
g1212
sg56
(lp1219
g49
(g70
g51
NtRp1220
(dp1221
g54
(dp1222
sg63
g1216
sg56
(lp1223
g49
(g50
g51
NtRp1224
(dp1225
g54
(dp1226
g62
I3
ssg63
g1220
sg56
(lp1227
S'::1'
p1228
asbasbasbag49
(g65
g51
NtRp1229
(dp1230
g54
(dp1231
sg63
g1212
sg56
(lp1232
g49
(g70
g51
NtRp1233
(dp1234
g54
(dp1235
sg63
g1229
sg56
(lp1236
g49
(g50
g51
NtRp1237
(dp1238
g54
(dp1239
g62
I3
ssg63
g1233
sg56
(lp1240
S'130.91.149.119'
p1241
asbasbasbag49
(g65
g51
NtRp1242
(dp1243
g54
(dp1244
sg63
g1212
sg56
(lp1245
g49
(g70
g51
NtRp1246
(dp1247
g54
(dp1248
sg63
g1242
sg56
(lp1249
g49
(g50
g51
NtRp1250
(dp1251
g54
(dp1252
g62
I3
ssg63
g1246
sg56
(lp1253
S'::ffff:127.0.0.1'
p1254
asbasbasbag49
(g65
g51
NtRp1255
(dp1256
g54
(dp1257
sg63
g1212
sg56
(lp1258
g49
(g70
g51
NtRp1259
(dp1260
g54
(dp1261
sg63
g1255
sg56
(lp1262
g49
(g50
g51
NtRp1263
(dp1264
g54
(dp1265
g62
I3
ssg63
g1259
sg56
(lp1266
S'127.0.0.1'
p1267
asbasbasbag49
(g65
g51
NtRp1268
(dp1269
g54
(dp1270
sg63
g1212
sg56
(lp1271
g49
(g70
g51
NtRp1272
(dp1273
g54
(dp1274
sg63
g1268
sg56
(lp1275
g49
(g50
g51
NtRp1276
(dp1277
g54
(dp1278
g62
I3
ssg63
g1272
sg56
(lp1279
S'hntvlan5310374.wlan.sas.upenn.edu'
p1280
asbasbasbasbasbasbasbag49
(g65
g51
NtRp1281
(dp1282
g54
(dp1283
sg63
g790
sg56
(lp1284
g49
(g70
g51
NtRp1285
(dp1286
g54
(dp1287
g74
g75
ssg63
g1281
sg56
(lp1288
S'path_info'
p1289
asbag49
(g70
g51
NtRp1290
(dp1291
g54
(dp1292
g81
g82
ssg63
g1281
sg56
(lp1293
S':'
asbag49
(g70
g51
NtRp1294
(dp1295
g54
(dp1296
sg63
g1281
sg56
(lp1297
g49
(g50
g51
NtRp1298
(dp1299
g54
(dp1300
g62
I4
ssg63
g1294
sg56
(lp1301
S'/hellow/game/show/1'
p1302
asbasbasbag49
(g65
g51
NtRp1303
(dp1304
g54
(dp1305
sg63
g790
sg56
(lp1306
g49
(g70
g51
NtRp1307
(dp1308
g54
(dp1309
g74
g75
ssg63
g1303
sg56
(lp1310
S'query_string'
p1311
asbag49
(g70
g51
NtRp1312
(dp1313
g54
(dp1314
g81
g82
ssg63
g1303
sg56
(lp1315
S':'
asbag49
(g70
g51
NtRp1316
(dp1317
g54
(dp1318
sg63
g1303
sg56
(lp1319
g49
(g50
g51
NtRp1320
(dp1321
g54
(dp1322
g62
I4
ssg63
g1316
sg56
(lp1323
S''
asbasbasbag49
(g65
g51
NtRp1324
(dp1325
g54
(dp1326
sg63
g790
sg56
(lp1327
g49
(g70
g51
NtRp1328
(dp1329
g54
(dp1330
g74
g75
ssg63
g1324
sg56
(lp1331
S'remote_addr'
p1332
asbag49
(g70
g51
NtRp1333
(dp1334
g54
(dp1335
g81
g82
ssg63
g1324
sg56
(lp1336
S':'
asbag49
(g70
g51
NtRp1337
(dp1338
g54
(dp1339
sg63
g1324
sg56
(lp1340
g49
(g50
g51
NtRp1341
(dp1342
g54
(dp1343
g62
I4
ssg63
g1337
sg56
(lp1344
g216
asbasbasbag49
(g65
g51
NtRp1345
(dp1346
g54
(dp1347
sg63
g790
sg56
(lp1348
g49
(g70
g51
NtRp1349
(dp1350
g54
(dp1351
g74
g75
ssg63
g1345
sg56
(lp1352
S'remote_port'
p1353
asbag49
(g70
g51
NtRp1354
(dp1355
g54
(dp1356
g81
g82
ssg63
g1345
sg56
(lp1357
S':'
asbag49
(g70
g51
NtRp1358
(dp1359
g54
(dp1360
sg63
g1345
sg56
(lp1361
g49
(g50
g51
NtRp1362
(dp1363
g54
(dp1364
g62
I4
ssg63
g1358
sg56
(lp1365
S'58709'
p1366
asbasbasbag49
(g65
g51
NtRp1367
(dp1368
g54
(dp1369
sg63
g790
sg56
(lp1370
g49
(g70
g51
NtRp1371
(dp1372
g54
(dp1373
g74
g75
ssg63
g1367
sg56
(lp1374
S'request_method'
p1375
asbag49
(g70
g51
NtRp1376
(dp1377
g54
(dp1378
g81
g82
ssg63
g1367
sg56
(lp1379
S':'
asbag49
(g70
g51
NtRp1380
(dp1381
g54
(dp1382
sg63
g1367
sg56
(lp1383
g49
(g50
g51
NtRp1384
(dp1385
g54
(dp1386
g62
I4
ssg63
g1380
sg56
(lp1387
S'GET'
p1388
asbasbasbag49
(g65
g51
NtRp1389
(dp1390
g54
(dp1391
sg63
g790
sg56
(lp1392
g49
(g70
g51
NtRp1393
(dp1394
g54
(dp1395
g74
g75
ssg63
g1389
sg56
(lp1396
S'request_uri'
p1397
asbag49
(g70
g51
NtRp1398
(dp1399
g54
(dp1400
g81
g82
ssg63
g1389
sg56
(lp1401
S':'
asbag49
(g70
g51
NtRp1402
(dp1403
g54
(dp1404
sg63
g1389
sg56
(lp1405
g49
(g50
g51
NtRp1406
(dp1407
g54
(dp1408
g62
I4
ssg63
g1402
sg56
(lp1409
g1302
asbasbasbag49
(g65
g51
NtRp1410
(dp1411
g54
(dp1412
sg63
g790
sg56
(lp1413
g49
(g70
g51
NtRp1414
(dp1415
g54
(dp1416
g74
g75
ssg63
g1410
sg56
(lp1417
S'script_name'
p1418
asbag49
(g70
g51
NtRp1419
(dp1420
g54
(dp1421
g81
g82
ssg63
g1410
sg56
(lp1422
S':'
asbag49
(g70
g51
NtRp1423
(dp1424
g54
(dp1425
sg63
g1410
sg56
(lp1426
g49
(g50
g51
NtRp1427
(dp1428
g54
(dp1429
g62
I4
ssg63
g1423
sg56
(lp1430
S''
asbasbasbag49
(g65
g51
NtRp1431
(dp1432
g54
(dp1433
sg63
g790
sg56
(lp1434
g49
(g70
g51
NtRp1435
(dp1436
g54
(dp1437
g74
g75
ssg63
g1431
sg56
(lp1438
S'server_name'
p1439
asbag49
(g70
g51
NtRp1440
(dp1441
g54
(dp1442
g81
g82
ssg63
g1431
sg56
(lp1443
S':'
asbag49
(g70
g51
NtRp1444
(dp1445
g54
(dp1446
sg63
g1431
sg56
(lp1447
g49
(g50
g51
NtRp1448
(dp1449
g54
(dp1450
g62
I4
ssg63
g1444
sg56
(lp1451
S'hntvlan5310374.wlan.sas.upenn.edu'
p1452
asbasbasbag49
(g65
g51
NtRp1453
(dp1454
g54
(dp1455
sg63
g790
sg56
(lp1456
g49
(g70
g51
NtRp1457
(dp1458
g54
(dp1459
g74
g75
ssg63
g1453
sg56
(lp1460
S'server_port'
p1461
asbag49
(g70
g51
NtRp1462
(dp1463
g54
(dp1464
g81
g82
ssg63
g1453
sg56
(lp1465
S':'
asbag49
(g70
g51
NtRp1466
(dp1467
g54
(dp1468
sg63
g1453
sg56
(lp1469
g49
(g50
g51
NtRp1470
(dp1471
g54
(dp1472
g62
I4
ssg63
g1466
sg56
(lp1473
S'8887'
p1474
asbasbasbag49
(g65
g51
NtRp1475
(dp1476
g54
(dp1477
sg63
g790
sg56
(lp1478
g49
(g70
g51
NtRp1479
(dp1480
g54
(dp1481
g74
g75
ssg63
g1475
sg56
(lp1482
S'server_protocol'
p1483
asbag49
(g70
g51
NtRp1484
(dp1485
g54
(dp1486
g81
g82
ssg63
g1475
sg56
(lp1487
S':'
asbag49
(g70
g51
NtRp1488
(dp1489
g54
(dp1490
sg63
g1475
sg56
(lp1491
g49
(g50
g51
NtRp1492
(dp1493
g54
(dp1494
g62
I4
ssg63
g1488
sg56
(lp1495
S'HTTP/1.1'
p1496
asbasbasbag49
(g65
g51
NtRp1497
(dp1498
g54
(dp1499
sg63
g790
sg56
(lp1500
g49
(g70
g51
NtRp1501
(dp1502
g54
(dp1503
g74
g75
ssg63
g1497
sg56
(lp1504
S'server_software'
p1505
asbag49
(g70
g51
NtRp1506
(dp1507
g54
(dp1508
g81
g82
ssg63
g1497
sg56
(lp1509
S':'
asbag49
(g70
g51
NtRp1510
(dp1511
g54
(dp1512
sg63
g1497
sg56
(lp1513
g49
(g50
g51
NtRp1514
(dp1515
g54
(dp1516
g62
I4
ssg63
g1510
sg56
(lp1517
S'Rocket 1.2.6'
p1518
asbasbasbag49
(g65
g51
NtRp1519
(dp1520
g54
(dp1521
sg63
g790
sg56
(lp1522
g49
(g70
g51
NtRp1523
(dp1524
g54
(dp1525
g74
g75
ssg63
g1519
sg56
(lp1526
S'web2py_path'
p1527
asbag49
(g70
g51
NtRp1528
(dp1529
g54
(dp1530
g81
g82
ssg63
g1519
sg56
(lp1531
S':'
asbag49
(g70
g51
NtRp1532
(dp1533
g54
(dp1534
sg63
g1519
sg56
(lp1535
g49
(g50
g51
NtRp1536
(dp1537
g54
(dp1538
g62
I4
ssg63
g1532
sg56
(lp1539
g837
asbasbasbag49
(g65
g51
NtRp1540
(dp1541
g54
(dp1542
sg63
g790
sg56
(lp1543
g49
(g70
g51
NtRp1544
(dp1545
g54
(dp1546
g74
g75
ssg63
g1540
sg56
(lp1547
S'web2py_version'
p1548
asbag49
(g70
g51
NtRp1549
(dp1550
g54
(dp1551
g81
g82
ssg63
g1540
sg56
(lp1552
S':'
asbag49
(g70
g51
NtRp1553
(dp1554
g54
(dp1555
sg63
g1540
sg56
(lp1556
g49
(g50
g51
NtRp1557
(dp1558
g54
(dp1559
g62
I4
ssg63
g1553
sg56
(lp1560
g49
(g58
g51
NtRp1561
(dp1562
g54
(dp1563
g62
I3
ssg63
Nsg56
(lp1564
g49
(g65
g51
NtRp1565
(dp1566
g54
(dp1567
sg63
g1561
sg56
(lp1568
g49
(g70
g51
NtRp1569
(dp1570
g54
(dp1571
sg63
g1565
sg56
(lp1572
g49
(g50
g51
NtRp1573
(dp1574
g54
(dp1575
g62
I3
ssg63
g1569
sg56
(lp1576
S'2'
asbasbasbag49
(g65
g51
NtRp1577
(dp1578
g54
(dp1579
sg63
g1561
sg56
(lp1580
g49
(g70
g51
NtRp1581
(dp1582
g54
(dp1583
sg63
g1577
sg56
(lp1584
g49
(g50
g51
NtRp1585
(dp1586
g54
(dp1587
g62
I3
ssg63
g1581
sg56
(lp1588
S'4'
asbasbasbag49
(g65
g51
NtRp1589
(dp1590
g54
(dp1591
sg63
g1561
sg56
(lp1592
g49
(g70
g51
NtRp1593
(dp1594
g54
(dp1595
sg63
g1589
sg56
(lp1596
g49
(g50
g51
NtRp1597
(dp1598
g54
(dp1599
g62
I3
ssg63
g1593
sg56
(lp1600
S'5'
asbasbasbag49
(g65
g51
NtRp1601
(dp1602
g54
(dp1603
sg63
g1561
sg56
(lp1604
g49
(g70
g51
NtRp1605
(dp1606
g54
(dp1607
sg63
g1601
sg56
(lp1608
g49
(g50
g51
NtRp1609
(dp1610
g54
(dp1611
g62
I3
ssg63
g1605
sg56
(lp1612
S'stable'
p1613
asbasbasbag49
(g65
g51
NtRp1614
(dp1615
g54
(dp1616
sg63
g1561
sg56
(lp1617
g49
(g70
g51
NtRp1618
(dp1619
g54
(dp1620
sg63
g1614
sg56
(lp1621
g49
(g50
g51
NtRp1622
(dp1623
g54
(dp1624
g62
I3
ssg63
g1618
sg56
(lp1625
S'datetime.datetime(2013, 3, 18, 22, 46, 22)'
p1626
asbasbasbasbasbasbasbag49
(g65
g51
NtRp1627
(dp1628
g54
(dp1629
sg63
g790
sg56
(lp1630
g49
(g70
g51
NtRp1631
(dp1632
g54
(dp1633
g74
g75
ssg63
g1627
sg56
(lp1634
S'wsgi_errors'
p1635
asbag49
(g70
g51
NtRp1636
(dp1637
g54
(dp1638
g81
g82
ssg63
g1627
sg56
(lp1639
S':'
asbag49
(g70
g51
NtRp1640
(dp1641
g54
(dp1642
sg63
g1627
sg56
(lp1643
g49
(g50
g51
NtRp1644
(dp1645
g54
(dp1646
g62
I4
ssg63
g1640
sg56
(lp1647
S"<open file '<stderr>', mode 'w' at 0x540b0>"
p1648
asbasbasbag49
(g65
g51
NtRp1649
(dp1650
g54
(dp1651
sg63
g790
sg56
(lp1652
g49
(g70
g51
NtRp1653
(dp1654
g54
(dp1655
g74
g75
ssg63
g1649
sg56
(lp1656
S'wsgi_file_wrapper'
p1657
asbag49
(g70
g51
NtRp1658
(dp1659
g54
(dp1660
g81
g82
ssg63
g1649
sg56
(lp1661
S':'
asbag49
(g70
g51
NtRp1662
(dp1663
g54
(dp1664
sg63
g1649
sg56
(lp1665
g49
(g50
g51
NtRp1666
(dp1667
g54
(dp1668
g62
I4
ssg63
g1662
sg56
(lp1669
S'<class wsgiref.util.FileWrapper at 0x4761060>'
p1670
asbasbasbag49
(g65
g51
NtRp1671
(dp1672
g54
(dp1673
sg63
g790
sg56
(lp1674
g49
(g70
g51
NtRp1675
(dp1676
g54
(dp1677
g74
g75
ssg63
g1671
sg56
(lp1678
S'wsgi_input'
p1679
asbag49
(g70
g51
NtRp1680
(dp1681
g54
(dp1682
g81
g82
ssg63
g1671
sg56
(lp1683
S':'
asbag49
(g70
g51
NtRp1684
(dp1685
g54
(dp1686
sg63
g1671
sg56
(lp1687
g49
(g50
g51
NtRp1688
(dp1689
g54
(dp1690
g62
I4
ssg63
g1684
sg56
(lp1691
S'<socket._fileobject object at 0x4312470>'
p1692
asbasbasbag49
(g65
g51
NtRp1693
(dp1694
g54
(dp1695
sg63
g790
sg56
(lp1696
g49
(g70
g51
NtRp1697
(dp1698
g54
(dp1699
g74
g75
ssg63
g1693
sg56
(lp1700
S'wsgi_multiprocess'
p1701
asbag49
(g70
g51
NtRp1702
(dp1703
g54
(dp1704
g81
g82
ssg63
g1693
sg56
(lp1705
S':'
asbag49
(g70
g51
NtRp1706
(dp1707
g54
(dp1708
sg63
g1693
sg56
(lp1709
g49
(g50
g51
NtRp1710
(dp1711
g54
(dp1712
g62
I4
ssg63
g1706
sg56
(lp1713
g92
asbasbasbag49
(g65
g51
NtRp1714
(dp1715
g54
(dp1716
sg63
g790
sg56
(lp1717
g49
(g70
g51
NtRp1718
(dp1719
g54
(dp1720
g74
g75
ssg63
g1714
sg56
(lp1721
S'wsgi_multithread'
p1722
asbag49
(g70
g51
NtRp1723
(dp1724
g54
(dp1725
g81
g82
ssg63
g1714
sg56
(lp1726
S':'
asbag49
(g70
g51
NtRp1727
(dp1728
g54
(dp1729
sg63
g1714
sg56
(lp1730
g49
(g50
g51
NtRp1731
(dp1732
g54
(dp1733
g62
I4
ssg63
g1727
sg56
(lp1734
g928
asbasbasbag49
(g65
g51
NtRp1735
(dp1736
g54
(dp1737
sg63
g790
sg56
(lp1738
g49
(g70
g51
NtRp1739
(dp1740
g54
(dp1741
g74
g75
ssg63
g1735
sg56
(lp1742
S'wsgi_run_once'
p1743
asbag49
(g70
g51
NtRp1744
(dp1745
g54
(dp1746
g81
g82
ssg63
g1735
sg56
(lp1747
S':'
asbag49
(g70
g51
NtRp1748
(dp1749
g54
(dp1750
sg63
g1735
sg56
(lp1751
g49
(g50
g51
NtRp1752
(dp1753
g54
(dp1754
g62
I4
ssg63
g1748
sg56
(lp1755
g92
asbasbasbag49
(g65
g51
NtRp1756
(dp1757
g54
(dp1758
sg63
g790
sg56
(lp1759
g49
(g70
g51
NtRp1760
(dp1761
g54
(dp1762
g74
g75
ssg63
g1756
sg56
(lp1763
S'wsgi_url_scheme'
p1764
asbag49
(g70
g51
NtRp1765
(dp1766
g54
(dp1767
g81
g82
ssg63
g1756
sg56
(lp1768
S':'
asbag49
(g70
g51
NtRp1769
(dp1770
g54
(dp1771
sg63
g1756
sg56
(lp1772
g49
(g50
g51
NtRp1773
(dp1774
g54
(dp1775
g62
I4
ssg63
g1769
sg56
(lp1776
S'http'
p1777
asbasbasbag49
(g65
g51
NtRp1778
(dp1779
g54
(dp1780
sg63
g790
sg56
(lp1781
g49
(g70
g51
NtRp1782
(dp1783
g54
(dp1784
g74
g75
ssg63
g1778
sg56
(lp1785
S'wsgi_version'
p1786
asbag49
(g70
g51
NtRp1787
(dp1788
g54
(dp1789
g81
g82
ssg63
g1778
sg56
(lp1790
S':'
asbag49
(g70
g51
NtRp1791
(dp1792
g54
(dp1793
sg63
g1778
sg56
(lp1794
g49
(g50
g51
NtRp1795
(dp1796
g54
(dp1797
g62
I4
ssg63
g1791
sg56
(lp1798
g49
(g58
g51
NtRp1799
(dp1800
g54
(dp1801
g62
I3
ssg63
Nsg56
(lp1802
g49
(g65
g51
NtRp1803
(dp1804
g54
(dp1805
sg63
g1799
sg56
(lp1806
g49
(g70
g51
NtRp1807
(dp1808
g54
(dp1809
sg63
g1803
sg56
(lp1810
g49
(g50
g51
NtRp1811
(dp1812
g54
(dp1813
g62
I3
ssg63
g1807
sg56
(lp1814
S'1'
asbasbasbag49
(g65
g51
NtRp1815
(dp1816
g54
(dp1817
sg63
g1799
sg56
(lp1818
g49
(g70
g51
NtRp1819
(dp1820
g54
(dp1821
sg63
g1815
sg56
(lp1822
g49
(g50
g51
NtRp1823
(dp1824
g54
(dp1825
g62
I3
ssg63
g1819
sg56
(lp1826
S'0'
asbasbasbasbasbasbasbasbasbasbasbag49
(g65
g51
NtRp1827
(dp1828
g54
(dp1829
sg63
g59
sg56
(lp1830
g49
(g70
g51
NtRp1831
(dp1832
g54
(dp1833
g74
g75
ssg63
g1827
sg56
(lp1834
S'extension'
p1835
asbag49
(g70
g51
NtRp1836
(dp1837
g54
(dp1838
g81
g82
ssg63
g1827
sg56
(lp1839
S':'
asbag49
(g70
g51
NtRp1840
(dp1841
g54
(dp1842
sg63
g1827
sg56
(lp1843
g49
(g50
g51
NtRp1844
(dp1845
g54
(dp1846
g62
I5
ssg63
g1840
sg56
(lp1847
S'html'
p1848
asbasbasbag49
(g65
g51
NtRp1849
(dp1850
g54
(dp1851
sg63
g59
sg56
(lp1852
g49
(g70
g51
NtRp1853
(dp1854
g54
(dp1855
g74
g75
ssg63
g1849
sg56
(lp1856
S'folder'
p1857
asbag49
(g70
g51
NtRp1858
(dp1859
g54
(dp1860
g81
g82
ssg63
g1849
sg56
(lp1861
S':'
asbag49
(g70
g51
NtRp1862
(dp1863
g54
(dp1864
sg63
g1849
sg56
(lp1865
g49
(g50
g51
NtRp1866
(dp1867
g54
(dp1868
g62
I5
ssg63
g1862
sg56
(lp1869
S'/Users/zamechek/Downloads/web2py/web2py.app/Contents/Resources/applications/hellow/'
p1870
asbasbasbag49
(g65
g51
NtRp1871
(dp1872
g54
(dp1873
sg63
g59
sg56
(lp1874
g49
(g70
g51
NtRp1875
(dp1876
g54
(dp1877
g74
g75
ssg63
g1871
sg56
(lp1878
S'function'
p1879
asbag49
(g70
g51
NtRp1880
(dp1881
g54
(dp1882
g81
g82
ssg63
g1871
sg56
(lp1883
S':'
asbag49
(g70
g51
NtRp1884
(dp1885
g54
(dp1886
sg63
g1871
sg56
(lp1887
g49
(g50
g51
NtRp1888
(dp1889
g54
(dp1890
g62
I5
ssg63
g1884
sg56
(lp1891
S'show'
p1892
asbasbasbag49
(g65
g51
NtRp1893
(dp1894
g54
(dp1895
sg63
g59
sg56
(lp1896
g49
(g70
g51
NtRp1897
(dp1898
g54
(dp1899
g74
g75
ssg63
g1893
sg56
(lp1900
S'get_vars'
p1901
asbag49
(g70
g51
NtRp1902
(dp1903
g54
(dp1904
g81
g82
ssg63
g1893
sg56
(lp1905
S':'
asbag49
(g70
g51
NtRp1906
(dp1907
g54
(dp1908
sg63
g1893
sg56
(lp1909
g49
(g50
g51
NtRp1910
(dp1911
g54
(dp1912
g62
I5
ssg63
g1906
sg56
(lp1913
g49
(g58
g51
NtRp1914
(dp1915
g54
(dp1916
g62
I4
ssg63
Nsg56
(lp1917
sbasbasbasbag49
(g65
g51
NtRp1918
(dp1919
g54
(dp1920
sg63
g59
sg56
(lp1921
g49
(g70
g51
NtRp1922
(dp1923
g54
(dp1924
g74
g75
ssg63
g1918
sg56
(lp1925
S'global_settings'
p1926
asbag49
(g70
g51
NtRp1927
(dp1928
g54
(dp1929
g81
g82
ssg63
g1918
sg56
(lp1930
S':'
asbag49
(g70
g51
NtRp1931
(dp1932
g54
(dp1933
sg63
g1918
sg56
(lp1934
g49
(g50
g51
NtRp1935
(dp1936
g54
(dp1937
g62
I5
ssg63
g1931
sg56
(lp1938
g49
(g58
g51
NtRp1939
(dp1940
g54
(dp1941
g62
I4
ssg63
Nsg56
(lp1942
g49
(g65
g51
NtRp1943
(dp1944
g54
(dp1945
sg63
g1939
sg56
(lp1946
g49
(g70
g51
NtRp1947
(dp1948
g54
(dp1949
g74
g75
ssg63
g1943
sg56
(lp1950
g802
asbag49
(g70
g51
NtRp1951
(dp1952
g54
(dp1953
g81
g82
ssg63
g1943
sg56
(lp1954
S':'
asbag49
(g70
g51
NtRp1955
(dp1956
g54
(dp1957
sg63
g1943
sg56
(lp1958
g49
(g50
g51
NtRp1959
(dp1960
g54
(dp1961
g62
I4
ssg63
g1955
sg56
(lp1962
S"set(['/Users/zamechek/Downloads/web2py/web2py.app/Contents/Resources/applications/hellow/', '/Users/zamechek/Downloads/web2py/web2py.app/Contents/Resources/applications/admin/', '/Users/zamechek/Downloads/web2py/web2py.app/Contents/Resources/applications/welcome/'])"
p1963
asbasbasbag49
(g65
g51
NtRp1964
(dp1965
g54
(dp1966
sg63
g1939
sg56
(lp1967
g49
(g70
g51
NtRp1968
(dp1969
g54
(dp1970
g74
g75
ssg63
g1964
sg56
(lp1971
g824
asbag49
(g70
g51
NtRp1972
(dp1973
g54
(dp1974
g81
g82
ssg63
g1964
sg56
(lp1975
S':'
asbag49
(g70
g51
NtRp1976
(dp1977
g54
(dp1978
sg63
g1964
sg56
(lp1979
g49
(g50
g51
NtRp1980
(dp1981
g54
(dp1982
g62
I4
ssg63
g1976
sg56
(lp1983
g837
asbasbasbag49
(g65
g51
NtRp1984
(dp1985
g54
(dp1986
sg63
g1939
sg56
(lp1987
g49
(g70
g51
NtRp1988
(dp1989
g54
(dp1990
g74
g75
ssg63
g1984
sg56
(lp1991
g846
asbag49
(g70
g51
NtRp1992
(dp1993
g54
(dp1994
g81
g82
ssg63
g1984
sg56
(lp1995
S':'
asbag49
(g70
g51
NtRp1996
(dp1997
g54
(dp1998
sg63
g1984
sg56
(lp1999
g49
(g50
g51
NtRp2000
(dp2001
g54
(dp2002
g62
I4
ssg63
g1996
sg56
(lp2003
g49
(g58
g51
NtRp2004
(dp2005
g54
(dp2006
g62
I3
ssg63
Nsg56
(lp2007
sbasbasbasbag49
(g65
g51
NtRp2008
(dp2009
g54
(dp2010
sg63
g1939
sg56
(lp2011
g49
(g70
g51
NtRp2012
(dp2013
g54
(dp2014
g74
g75
ssg63
g2008
sg56
(lp2015
g871
asbag49
(g70
g51
NtRp2016
(dp2017
g54
(dp2018
g81
g82
ssg63
g2008
sg56
(lp2019
S':'
asbag49
(g70
g51
NtRp2020
(dp2021
g54
(dp2022
sg63
g2008
sg56
(lp2023
g49
(g50
g51
NtRp2024
(dp2025
g54
(dp2026
g62
I4
ssg63
g2020
sg56
(lp2027
S"<Values at 0x478bf58: {'verbose': False, 'ip': '127.0.0.1', 'with_scheduler': False, 'ips': ['130.91.149.119'], 'shutdown_timeout': 5, 'taskbar': False, 'port': 8000, 'maxthreads': None, 'softcron': False, 'server_name': 'hntvlan5310374.wlan.sas.upenn.edu', 'bpython': False, 'nogui': False, 'pid_filename': 'httpserver.pid', 'extcron': False, 'runcron': False, 'run_system_tests': False, 'test': None, 'folder': '/Users/zamechek/Downloads/web2py/web2py.app/Contents/Resources', 'config': '', 'import_models': False, 'winservice': '', 'shell': None, 'run': '', 'log_filename': 'httpserver.log', 'debuglevel': 30, 'args': [''], 'socket_timeout': 5, 'ssl_ca_certificate': None, 'scheduler': None, 'profiler_filename': None, 'ssl_private_key': '', 'scheduler_groups': None, 'password': '<ask>', 'request_queue_size': 5, 'ssl_certificate': '', 'cronjob': False, 'numthreads': None, 'quiet': False, 'interfaces': None, 'minthreads': None, 'timeout': 10, 'plain': False, 'nobanner': False}>"
p2028
asbasbasbag49
(g65
g51
NtRp2029
(dp2030
g54
(dp2031
sg63
g1939
sg56
(lp2032
g49
(g70
g51
NtRp2033
(dp2034
g54
(dp2035
g74
g75
ssg63
g2029
sg56
(lp2036
g893
asbag49
(g70
g51
NtRp2037
(dp2038
g54
(dp2039
g81
g82
ssg63
g2029
sg56
(lp2040
S':'
asbag49
(g70
g51
NtRp2041
(dp2042
g54
(dp2043
sg63
g2029
sg56
(lp2044
g49
(g50
g51
NtRp2045
(dp2046
g54
(dp2047
g62
I4
ssg63
g2041
sg56
(lp2048
S'set([])'
p2049
asbasbasbag49
(g65
g51
NtRp2050
(dp2051
g54
(dp2052
sg63
g1939
sg56
(lp2053
g49
(g70
g51
NtRp2054
(dp2055
g54
(dp2056
g74
g75
ssg63
g2050
sg56
(lp2057
g915
asbag49
(g70
g51
NtRp2058
(dp2059
g54
(dp2060
g81
g82
ssg63
g2050
sg56
(lp2061
S':'
asbag49
(g70
g51
NtRp2062
(dp2063
g54
(dp2064
sg63
g2050
sg56
(lp2065
g49
(g50
g51
NtRp2066
(dp2067
g54
(dp2068
g62
I4
ssg63
g2062
sg56
(lp2069
g928
asbasbasbag49
(g65
g51
NtRp2070
(dp2071
g54
(dp2072
sg63
g1939
sg56
(lp2073
g49
(g70
g51
NtRp2074
(dp2075
g54
(dp2076
g74
g75
ssg63
g2070
sg56
(lp2077
g937
asbag49
(g70
g51
NtRp2078
(dp2079
g54
(dp2080
g81
g82
ssg63
g2070
sg56
(lp2081
S':'
asbag49
(g70
g51
NtRp2082
(dp2083
g54
(dp2084
sg63
g2070
sg56
(lp2085
g49
(g50
g51
NtRp2086
(dp2087
g54
(dp2088
g62
I4
ssg63
g2082
sg56
(lp2089
g950
asbasbasbag49
(g65
g51
NtRp2090
(dp2091
g54
(dp2092
sg63
g1939
sg56
(lp2093
g49
(g70
g51
NtRp2094
(dp2095
g54
(dp2096
g74
g75
ssg63
g2090
sg56
(lp2097
g1157
asbag49
(g70
g51
NtRp2098
(dp2099
g54
(dp2100
g81
g82
ssg63
g2090
sg56
(lp2101
S':'
asbag49
(g70
g51
NtRp2102
(dp2103
g54
(dp2104
sg63
g2090
sg56
(lp2105
g49
(g50
g51
NtRp2106
(dp2107
g54
(dp2108
g62
I4
ssg63
g2102
sg56
(lp2109
g92
asbasbasbag49
(g65
g51
NtRp2110
(dp2111
g54
(dp2112
sg63
g1939
sg56
(lp2113
g49
(g70
g51
NtRp2114
(dp2115
g54
(dp2116
g74
g75
ssg63
g2110
sg56
(lp2117
g1178
asbag49
(g70
g51
NtRp2118
(dp2119
g54
(dp2120
g81
g82
ssg63
g2110
sg56
(lp2121
S':'
asbag49
(g70
g51
NtRp2122
(dp2123
g54
(dp2124
sg63
g2110
sg56
(lp2125
g49
(g50
g51
NtRp2126
(dp2127
g54
(dp2128
g62
I4
ssg63
g2122
sg56
(lp2129
g92
asbasbasbag49
(g65
g51
NtRp2130
(dp2131
g54
(dp2132
sg63
g1939
sg56
(lp2133
g49
(g70
g51
NtRp2134
(dp2135
g54
(dp2136
g74
g75
ssg63
g2130
sg56
(lp2137
g1199
asbag49
(g70
g51
NtRp2138
(dp2139
g54
(dp2140
g81
g82
ssg63
g2130
sg56
(lp2141
S':'
asbag49
(g70
g51
NtRp2142
(dp2143
g54
(dp2144
sg63
g2130
sg56
(lp2145
g49
(g50
g51
NtRp2146
(dp2147
g54
(dp2148
g62
I4
ssg63
g2142
sg56
(lp2149
g49
(g58
g51
NtRp2150
(dp2151
g54
(dp2152
g62
I3
ssg63
Nsg56
(lp2153
g49
(g65
g51
NtRp2154
(dp2155
g54
(dp2156
sg63
g2150
sg56
(lp2157
g49
(g70
g51
NtRp2158
(dp2159
g54
(dp2160
sg63
g2154
sg56
(lp2161
g49
(g50
g51
NtRp2162
(dp2163
g54
(dp2164
g62
I3
ssg63
g2158
sg56
(lp2165
g1228
asbasbasbag49
(g65
g51
NtRp2166
(dp2167
g54
(dp2168
sg63
g2150
sg56
(lp2169
g49
(g70
g51
NtRp2170
(dp2171
g54
(dp2172
sg63
g2166
sg56
(lp2173
g49
(g50
g51
NtRp2174
(dp2175
g54
(dp2176
g62
I3
ssg63
g2170
sg56
(lp2177
g1241
asbasbasbag49
(g65
g51
NtRp2178
(dp2179
g54
(dp2180
sg63
g2150
sg56
(lp2181
g49
(g70
g51
NtRp2182
(dp2183
g54
(dp2184
sg63
g2178
sg56
(lp2185
g49
(g50
g51
NtRp2186
(dp2187
g54
(dp2188
g62
I3
ssg63
g2182
sg56
(lp2189
g1254
asbasbasbag49
(g65
g51
NtRp2190
(dp2191
g54
(dp2192
sg63
g2150
sg56
(lp2193
g49
(g70
g51
NtRp2194
(dp2195
g54
(dp2196
sg63
g2190
sg56
(lp2197
g49
(g50
g51
NtRp2198
(dp2199
g54
(dp2200
g62
I3
ssg63
g2194
sg56
(lp2201
g1267
asbasbasbag49
(g65
g51
NtRp2202
(dp2203
g54
(dp2204
sg63
g2150
sg56
(lp2205
g49
(g70
g51
NtRp2206
(dp2207
g54
(dp2208
sg63
g2202
sg56
(lp2209
g49
(g50
g51
NtRp2210
(dp2211
g54
(dp2212
g62
I3
ssg63
g2206
sg56
(lp2213
g1280
asbasbasbasbasbasbasbag49
(g65
g51
NtRp2214
(dp2215
g54
(dp2216
sg63
g1939
sg56
(lp2217
g49
(g70
g51
NtRp2218
(dp2219
g54
(dp2220
g74
g75
ssg63
g2214
sg56
(lp2221
g1548
asbag49
(g70
g51
NtRp2222
(dp2223
g54
(dp2224
g81
g82
ssg63
g2214
sg56
(lp2225
S':'
asbag49
(g70
g51
NtRp2226
(dp2227
g54
(dp2228
sg63
g2214
sg56
(lp2229
g49
(g50
g51
NtRp2230
(dp2231
g54
(dp2232
g62
I4
ssg63
g2226
sg56
(lp2233
g49
(g58
g51
NtRp2234
(dp2235
g54
(dp2236
g62
I3
ssg63
Nsg56
(lp2237
g49
(g65
g51
NtRp2238
(dp2239
g54
(dp2240
sg63
g2234
sg56
(lp2241
g49
(g70
g51
NtRp2242
(dp2243
g54
(dp2244
sg63
g2238
sg56
(lp2245
g49
(g50
g51
NtRp2246
(dp2247
g54
(dp2248
g62
I3
ssg63
g2242
sg56
(lp2249
S'2'
asbasbasbag49
(g65
g51
NtRp2250
(dp2251
g54
(dp2252
sg63
g2234
sg56
(lp2253
g49
(g70
g51
NtRp2254
(dp2255
g54
(dp2256
sg63
g2250
sg56
(lp2257
g49
(g50
g51
NtRp2258
(dp2259
g54
(dp2260
g62
I3
ssg63
g2254
sg56
(lp2261
S'4'
asbasbasbag49
(g65
g51
NtRp2262
(dp2263
g54
(dp2264
sg63
g2234
sg56
(lp2265
g49
(g70
g51
NtRp2266
(dp2267
g54
(dp2268
sg63
g2262
sg56
(lp2269
g49
(g50
g51
NtRp2270
(dp2271
g54
(dp2272
g62
I3
ssg63
g2266
sg56
(lp2273
S'5'
asbasbasbag49
(g65
g51
NtRp2274
(dp2275
g54
(dp2276
sg63
g2234
sg56
(lp2277
g49
(g70
g51
NtRp2278
(dp2279
g54
(dp2280
sg63
g2274
sg56
(lp2281
g49
(g50
g51
NtRp2282
(dp2283
g54
(dp2284
g62
I3
ssg63
g2278
sg56
(lp2285
g1613
asbasbasbag49
(g65
g51
NtRp2286
(dp2287
g54
(dp2288
sg63
g2234
sg56
(lp2289
g49
(g70
g51
NtRp2290
(dp2291
g54
(dp2292
sg63
g2286
sg56
(lp2293
g49
(g50
g51
NtRp2294
(dp2295
g54
(dp2296
g62
I3
ssg63
g2290
sg56
(lp2297
S'datetime.datetime(2013, 3, 18, 22, 46, 22)'
p2298
asbasbasbasbasbasbasbasbasbasbasbag49
(g65
g51
NtRp2299
(dp2300
g54
(dp2301
sg63
g59
sg56
(lp2302
g49
(g70
g51
NtRp2303
(dp2304
g54
(dp2305
g74
g75
ssg63
g2299
sg56
(lp2306
S'is_https'
p2307
asbag49
(g70
g51
NtRp2308
(dp2309
g54
(dp2310
g81
g82
ssg63
g2299
sg56
(lp2311
S':'
asbag49
(g70
g51
NtRp2312
(dp2313
g54
(dp2314
sg63
g2299
sg56
(lp2315
g49
(g50
g51
NtRp2316
(dp2317
g54
(dp2318
g62
I5
ssg63
g2312
sg56
(lp2319
g92
asbasbasbag49
(g65
g51
NtRp2320
(dp2321
g54
(dp2322
sg63
g59
sg56
(lp2323
g49
(g70
g51
NtRp2324
(dp2325
g54
(dp2326
g74
g75
ssg63
g2320
sg56
(lp2327
S'is_local'
p2328
asbag49
(g70
g51
NtRp2329
(dp2330
g54
(dp2331
g81
g82
ssg63
g2320
sg56
(lp2332
S':'
asbag49
(g70
g51
NtRp2333
(dp2334
g54
(dp2335
sg63
g2320
sg56
(lp2336
g49
(g50
g51
NtRp2337
(dp2338
g54
(dp2339
g62
I5
ssg63
g2333
sg56
(lp2340
g928
asbasbasbag49
(g65
g51
NtRp2341
(dp2342
g54
(dp2343
sg63
g59
sg56
(lp2344
g49
(g70
g51
NtRp2345
(dp2346
g54
(dp2347
g74
g75
ssg63
g2341
sg56
(lp2348
S'is_restful'
p2349
asbag49
(g70
g51
NtRp2350
(dp2351
g54
(dp2352
g81
g82
ssg63
g2341
sg56
(lp2353
S':'
asbag49
(g70
g51
NtRp2354
(dp2355
g54
(dp2356
sg63
g2341
sg56
(lp2357
g49
(g50
g51
NtRp2358
(dp2359
g54
(dp2360
g62
I5
ssg63
g2354
sg56
(lp2361
g92
asbasbasbag49
(g65
g51
NtRp2362
(dp2363
g54
(dp2364
sg63
g59
sg56
(lp2365
g49
(g70
g51
NtRp2366
(dp2367
g54
(dp2368
g74
g75
ssg63
g2362
sg56
(lp2369
S'now'
p2370
asbag49
(g70
g51
NtRp2371
(dp2372
g54
(dp2373
g81
g82
ssg63
g2362
sg56
(lp2374
S':'
asbag49
(g70
g51
NtRp2375
(dp2376
g54
(dp2377
sg63
g2362
sg56
(lp2378
g49
(g50
g51
NtRp2379
(dp2380
g54
(dp2381
g62
I5
ssg63
g2375
sg56
(lp2382
S'datetime.datetime(2013, 3, 27, 13, 53, 43, 356029)'
p2383
asbasbasbag49
(g65
g51
NtRp2384
(dp2385
g54
(dp2386
sg63
g59
sg56
(lp2387
g49
(g70
g51
NtRp2388
(dp2389
g54
(dp2390
g74
g75
ssg63
g2384
sg56
(lp2391
S'post_vars'
p2392
asbag49
(g70
g51
NtRp2393
(dp2394
g54
(dp2395
g81
g82
ssg63
g2384
sg56
(lp2396
S':'
asbag49
(g70
g51
NtRp2397
(dp2398
g54
(dp2399
sg63
g2384
sg56
(lp2400
g49
(g50
g51
NtRp2401
(dp2402
g54
(dp2403
g62
I5
ssg63
g2397
sg56
(lp2404
g49
(g58
g51
NtRp2405
(dp2406
g54
(dp2407
g62
I4
ssg63
Nsg56
(lp2408
sbasbasbasbag49
(g65
g51
NtRp2409
(dp2410
g54
(dp2411
sg63
g59
sg56
(lp2412
g49
(g70
g51
NtRp2413
(dp2414
g54
(dp2415
g74
g75
ssg63
g2409
sg56
(lp2416
S'raw_args'
p2417
asbag49
(g70
g51
NtRp2418
(dp2419
g54
(dp2420
g81
g82
ssg63
g2409
sg56
(lp2421
S':'
asbag49
(g70
g51
NtRp2422
(dp2423
g54
(dp2424
sg63
g2409
sg56
(lp2425
g49
(g50
g51
NtRp2426
(dp2427
g54
(dp2428
g62
I5
ssg63
g2422
sg56
(lp2429
S'1'
asbasbasbag49
(g65
g51
NtRp2430
(dp2431
g54
(dp2432
sg63
g59
sg56
(lp2433
g49
(g70
g51
NtRp2434
(dp2435
g54
(dp2436
g74
g75
ssg63
g2430
sg56
(lp2437
S'raw_extension'
p2438
asbag49
(g70
g51
NtRp2439
(dp2440
g54
(dp2441
g81
g82
ssg63
g2430
sg56
(lp2442
S':'
asbag49
(g70
g51
NtRp2443
(dp2444
g54
(dp2445
sg63
g2430
sg56
(lp2446
g49
(g50
g51
NtRp2447
(dp2448
g54
(dp2449
g62
I5
ssg63
g2443
sg56
(lp2450
S'None'
p2451
asbasbasbag49
(g65
g51
NtRp2452
(dp2453
g54
(dp2454
sg63
g59
sg56
(lp2455
g49
(g70
g51
NtRp2456
(dp2457
g54
(dp2458
g74
g75
ssg63
g2452
sg56
(lp2459
S'url'
p2460
asbag49
(g70
g51
NtRp2461
(dp2462
g54
(dp2463
g81
g82
ssg63
g2452
sg56
(lp2464
S':'
asbag49
(g70
g51
NtRp2465
(dp2466
g54
(dp2467
sg63
g2452
sg56
(lp2468
g49
(g50
g51
NtRp2469
(dp2470
g54
(dp2471
g62
I5
ssg63
g2465
sg56
(lp2472
g1302
asbasbasbag49
(g65
g51
NtRp2473
(dp2474
g54
(dp2475
sg63
g59
sg56
(lp2476
g49
(g70
g51
NtRp2477
(dp2478
g54
(dp2479
g74
g75
ssg63
g2473
sg56
(lp2480
S'utcnow'
p2481
asbag49
(g70
g51
NtRp2482
(dp2483
g54
(dp2484
g81
g82
ssg63
g2473
sg56
(lp2485
S':'
asbag49
(g70
g51
NtRp2486
(dp2487
g54
(dp2488
sg63
g2473
sg56
(lp2489
g49
(g50
g51
NtRp2490
(dp2491
g54
(dp2492
g62
I5
ssg63
g2486
sg56
(lp2493
S'datetime.datetime(2013, 3, 27, 17, 53, 43, 356041)'
p2494
asbasbasbag49
(g65
g51
NtRp2495
(dp2496
g54
(dp2497
sg63
g59
sg56
(lp2498
g49
(g70
g51
NtRp2499
(dp2500
g54
(dp2501
g74
g75
ssg63
g2495
sg56
(lp2502
S'uuid'
p2503
asbag49
(g70
g51
NtRp2504
(dp2505
g54
(dp2506
g81
g82
ssg63
g2495
sg56
(lp2507
S':'
asbag49
(g70
g51
NtRp2508
(dp2509
g54
(dp2510
sg63
g2495
sg56
(lp2511
g49
(g50
g51
NtRp2512
(dp2513
g54
(dp2514
g62
I5
ssg63
g2508
sg56
(lp2515
S'hellow/127.0.0.1.2013-03-27.13-53-43.9d97ac92-e618-432a-ba6d-1fee6e2ac8fa'
p2516
asbasbasbag49
(g65
g51
NtRp2517
(dp2518
g54
(dp2519
sg63
g59
sg56
(lp2520
g49
(g70
g51
NtRp2521
(dp2522
g54
(dp2523
g74
g75
ssg63
g2517
sg56
(lp2524
S'vars'
p2525
asbag49
(g70
g51
NtRp2526
(dp2527
g54
(dp2528
g81
g82
ssg63
g2517
sg56
(lp2529
S':'
asbag49
(g70
g51
NtRp2530
(dp2531
g54
(dp2532
sg63
g2517
sg56
(lp2533
g49
(g50
g51
NtRp2534
(dp2535
g54
(dp2536
g62
I5
ssg63
g2530
sg56
(lp2537
g49
(g58
g51
NtRp2538
(dp2539
g54
(dp2540
g62
I4
ssg63
Nsg56
(lp2541
sbasbasbasbag49
(g65
g51
NtRp2542
(dp2543
g54
(dp2544
sg63
g59
sg56
(lp2545
g49
(g70
g51
NtRp2546
(dp2547
g54
(dp2548
g74
g75
ssg63
g2542
sg56
(lp2549
S'wsgi'
p2550
asbag49
(g70
g51
NtRp2551
(dp2552
g54
(dp2553
g81
g82
ssg63
g2542
sg56
(lp2554
S':'
asbag49
(g70
g51
NtRp2555
(dp2556
g54
(dp2557
sg63
g2542
sg56
(lp2558
g49
(g50
g51
NtRp2559
(dp2560
g54
(dp2561
g62
I5
ssg63
g2555
sg56
(lp2562
g49
(g58
g51
NtRp2563
(dp2564
g54
(dp2565
g62
I4
ssg63
Nsg56
(lp2566
g49
(g65
g51
NtRp2567
(dp2568
g54
(dp2569
sg63
g2563
sg56
(lp2570
g49
(g70
g51
NtRp2571
(dp2572
g54
(dp2573
g74
g75
ssg63
g2567
sg56
(lp2574
S'environ'
p2575
asbag49
(g70
g51
NtRp2576
(dp2577
g54
(dp2578
g81
g82
ssg63
g2567
sg56
(lp2579
S':'
asbag49
(g70
g51
NtRp2580
(dp2581
g54
(dp2582
sg63
g2567
sg56
(lp2583
g49
(g50
g51
NtRp2584
(dp2585
g54
(dp2586
g62
I4
ssg63
g2580
sg56
(lp2587
g49
(g58
g51
NtRp2588
(dp2589
g54
(dp2590
g62
I3
ssg63
Nsg56
(lp2591
g49
(g65
g51
NtRp2592
(dp2593
g54
(dp2594
sg63
g2588
sg56
(lp2595
g49
(g70
g51
NtRp2596
(dp2597
g54
(dp2598
g74
g75
ssg63
g2592
sg56
(lp2599
S'HTTP_ACCEPT'
p2600
asbag49
(g70
g51
NtRp2601
(dp2602
g54
(dp2603
g81
g82
ssg63
g2592
sg56
(lp2604
S':'
asbag49
(g70
g51
NtRp2605
(dp2606
g54
(dp2607
sg63
g2592
sg56
(lp2608
g49
(g50
g51
NtRp2609
(dp2610
g54
(dp2611
g62
I3
ssg63
g2605
sg56
(lp2612
g972
asbasbasbag49
(g65
g51
NtRp2613
(dp2614
g54
(dp2615
sg63
g2588
sg56
(lp2616
g49
(g70
g51
NtRp2617
(dp2618
g54
(dp2619
g74
g75
ssg63
g2613
sg56
(lp2620
S'HTTP_ACCEPT_CHARSET'
p2621
asbag49
(g70
g51
NtRp2622
(dp2623
g54
(dp2624
g81
g82
ssg63
g2613
sg56
(lp2625
S':'
asbag49
(g70
g51
NtRp2626
(dp2627
g54
(dp2628
sg63
g2613
sg56
(lp2629
g49
(g50
g51
NtRp2630
(dp2631
g54
(dp2632
g62
I3
ssg63
g2626
sg56
(lp2633
g994
asbasbasbag49
(g65
g51
NtRp2634
(dp2635
g54
(dp2636
sg63
g2588
sg56
(lp2637
g49
(g70
g51
NtRp2638
(dp2639
g54
(dp2640
g74
g75
ssg63
g2634
sg56
(lp2641
S'HTTP_ACCEPT_ENCODING'
p2642
asbag49
(g70
g51
NtRp2643
(dp2644
g54
(dp2645
g81
g82
ssg63
g2634
sg56
(lp2646
S':'
asbag49
(g70
g51
NtRp2647
(dp2648
g54
(dp2649
sg63
g2634
sg56
(lp2650
g49
(g50
g51
NtRp2651
(dp2652
g54
(dp2653
g62
I3
ssg63
g2647
sg56
(lp2654
g1016
asbasbasbag49
(g65
g51
NtRp2655
(dp2656
g54
(dp2657
sg63
g2588
sg56
(lp2658
g49
(g70
g51
NtRp2659
(dp2660
g54
(dp2661
g74
g75
ssg63
g2655
sg56
(lp2662
S'HTTP_ACCEPT_LANGUAGE'
p2663
asbag49
(g70
g51
NtRp2664
(dp2665
g54
(dp2666
g81
g82
ssg63
g2655
sg56
(lp2667
S':'
asbag49
(g70
g51
NtRp2668
(dp2669
g54
(dp2670
sg63
g2655
sg56
(lp2671
g49
(g50
g51
NtRp2672
(dp2673
g54
(dp2674
g62
I3
ssg63
g2668
sg56
(lp2675
g1038
asbasbasbag49
(g65
g51
NtRp2676
(dp2677
g54
(dp2678
sg63
g2588
sg56
(lp2679
g49
(g70
g51
NtRp2680
(dp2681
g54
(dp2682
g74
g75
ssg63
g2676
sg56
(lp2683
S'HTTP_CACHE_CONTROL'
p2684
asbag49
(g70
g51
NtRp2685
(dp2686
g54
(dp2687
g81
g82
ssg63
g2676
sg56
(lp2688
S':'
asbag49
(g70
g51
NtRp2689
(dp2690
g54
(dp2691
sg63
g2676
sg56
(lp2692
g49
(g50
g51
NtRp2693
(dp2694
g54
(dp2695
g62
I3
ssg63
g2689
sg56
(lp2696
g1060
asbasbasbag49
(g65
g51
NtRp2697
(dp2698
g54
(dp2699
sg63
g2588
sg56
(lp2700
g49
(g70
g51
NtRp2701
(dp2702
g54
(dp2703
g74
g75
ssg63
g2697
sg56
(lp2704
S'HTTP_CONNECTION'
p2705
asbag49
(g70
g51
NtRp2706
(dp2707
g54
(dp2708
g81
g82
ssg63
g2697
sg56
(lp2709
S':'
asbag49
(g70
g51
NtRp2710
(dp2711
g54
(dp2712
sg63
g2697
sg56
(lp2713
g49
(g50
g51
NtRp2714
(dp2715
g54
(dp2716
g62
I3
ssg63
g2710
sg56
(lp2717
g1082
asbasbasbag49
(g65
g51
NtRp2718
(dp2719
g54
(dp2720
sg63
g2588
sg56
(lp2721
g49
(g70
g51
NtRp2722
(dp2723
g54
(dp2724
g74
g75
ssg63
g2718
sg56
(lp2725
S'HTTP_COOKIE'
p2726
asbag49
(g70
g51
NtRp2727
(dp2728
g54
(dp2729
g81
g82
ssg63
g2718
sg56
(lp2730
S':'
asbag49
(g70
g51
NtRp2731
(dp2732
g54
(dp2733
sg63
g2718
sg56
(lp2734
g49
(g50
g51
NtRp2735
(dp2736
g54
(dp2737
g62
I3
ssg63
g2731
sg56
(lp2738
g1104
asbasbasbag49
(g65
g51
NtRp2739
(dp2740
g54
(dp2741
sg63
g2588
sg56
(lp2742
g49
(g70
g51
NtRp2743
(dp2744
g54
(dp2745
g74
g75
ssg63
g2739
sg56
(lp2746
S'HTTP_HOST'
p2747
asbag49
(g70
g51
NtRp2748
(dp2749
g54
(dp2750
g81
g82
ssg63
g2739
sg56
(lp2751
S':'
asbag49
(g70
g51
NtRp2752
(dp2753
g54
(dp2754
sg63
g2739
sg56
(lp2755
g49
(g50
g51
NtRp2756
(dp2757
g54
(dp2758
g62
I3
ssg63
g2752
sg56
(lp2759
g1126
asbasbasbag49
(g65
g51
NtRp2760
(dp2761
g54
(dp2762
sg63
g2588
sg56
(lp2763
g49
(g70
g51
NtRp2764
(dp2765
g54
(dp2766
g74
g75
ssg63
g2760
sg56
(lp2767
S'HTTP_USER_AGENT'
p2768
asbag49
(g70
g51
NtRp2769
(dp2770
g54
(dp2771
g81
g82
ssg63
g2760
sg56
(lp2772
S':'
asbag49
(g70
g51
NtRp2773
(dp2774
g54
(dp2775
sg63
g2760
sg56
(lp2776
g49
(g50
g51
NtRp2777
(dp2778
g54
(dp2779
g62
I3
ssg63
g2773
sg56
(lp2780
g1148
asbasbasbag49
(g65
g51
NtRp2781
(dp2782
g54
(dp2783
sg63
g2588
sg56
(lp2784
g49
(g70
g51
NtRp2785
(dp2786
g54
(dp2787
g74
g75
ssg63
g2781
sg56
(lp2788
S'PATH_INFO'
p2789
asbag49
(g70
g51
NtRp2790
(dp2791
g54
(dp2792
g81
g82
ssg63
g2781
sg56
(lp2793
S':'
asbag49
(g70
g51
NtRp2794
(dp2795
g54
(dp2796
sg63
g2781
sg56
(lp2797
g49
(g50
g51
NtRp2798
(dp2799
g54
(dp2800
g62
I3
ssg63
g2794
sg56
(lp2801
g1302
asbasbasbag49
(g65
g51
NtRp2802
(dp2803
g54
(dp2804
sg63
g2588
sg56
(lp2805
g49
(g70
g51
NtRp2806
(dp2807
g54
(dp2808
g74
g75
ssg63
g2802
sg56
(lp2809
S'QUERY_STRING'
p2810
asbag49
(g70
g51
NtRp2811
(dp2812
g54
(dp2813
g81
g82
ssg63
g2802
sg56
(lp2814
S':'
asbag49
(g70
g51
NtRp2815
(dp2816
g54
(dp2817
sg63
g2802
sg56
(lp2818
g49
(g50
g51
NtRp2819
(dp2820
g54
(dp2821
g62
I3
ssg63
g2815
sg56
(lp2822
S''
asbasbasbag49
(g65
g51
NtRp2823
(dp2824
g54
(dp2825
sg63
g2588
sg56
(lp2826
g49
(g70
g51
NtRp2827
(dp2828
g54
(dp2829
g74
g75
ssg63
g2823
sg56
(lp2830
S'REMOTE_ADDR'
p2831
asbag49
(g70
g51
NtRp2832
(dp2833
g54
(dp2834
g81
g82
ssg63
g2823
sg56
(lp2835
S':'
asbag49
(g70
g51
NtRp2836
(dp2837
g54
(dp2838
sg63
g2823
sg56
(lp2839
g49
(g50
g51
NtRp2840
(dp2841
g54
(dp2842
g62
I3
ssg63
g2836
sg56
(lp2843
g216
asbasbasbag49
(g65
g51
NtRp2844
(dp2845
g54
(dp2846
sg63
g2588
sg56
(lp2847
g49
(g70
g51
NtRp2848
(dp2849
g54
(dp2850
g74
g75
ssg63
g2844
sg56
(lp2851
S'REMOTE_PORT'
p2852
asbag49
(g70
g51
NtRp2853
(dp2854
g54
(dp2855
g81
g82
ssg63
g2844
sg56
(lp2856
S':'
asbag49
(g70
g51
NtRp2857
(dp2858
g54
(dp2859
sg63
g2844
sg56
(lp2860
g49
(g50
g51
NtRp2861
(dp2862
g54
(dp2863
g62
I3
ssg63
g2857
sg56
(lp2864
g1366
asbasbasbag49
(g65
g51
NtRp2865
(dp2866
g54
(dp2867
sg63
g2588
sg56
(lp2868
g49
(g70
g51
NtRp2869
(dp2870
g54
(dp2871
g74
g75
ssg63
g2865
sg56
(lp2872
S'REQUEST_METHOD'
p2873
asbag49
(g70
g51
NtRp2874
(dp2875
g54
(dp2876
g81
g82
ssg63
g2865
sg56
(lp2877
S':'
asbag49
(g70
g51
NtRp2878
(dp2879
g54
(dp2880
sg63
g2865
sg56
(lp2881
g49
(g50
g51
NtRp2882
(dp2883
g54
(dp2884
g62
I3
ssg63
g2878
sg56
(lp2885
g1388
asbasbasbag49
(g65
g51
NtRp2886
(dp2887
g54
(dp2888
sg63
g2588
sg56
(lp2889
g49
(g70
g51
NtRp2890
(dp2891
g54
(dp2892
g74
g75
ssg63
g2886
sg56
(lp2893
S'REQUEST_URI'
p2894
asbag49
(g70
g51
NtRp2895
(dp2896
g54
(dp2897
g81
g82
ssg63
g2886
sg56
(lp2898
S':'
asbag49
(g70
g51
NtRp2899
(dp2900
g54
(dp2901
sg63
g2886
sg56
(lp2902
g49
(g50
g51
NtRp2903
(dp2904
g54
(dp2905
g62
I3
ssg63
g2899
sg56
(lp2906
g1302
asbasbasbag49
(g65
g51
NtRp2907
(dp2908
g54
(dp2909
sg63
g2588
sg56
(lp2910
g49
(g70
g51
NtRp2911
(dp2912
g54
(dp2913
g74
g75
ssg63
g2907
sg56
(lp2914
S'SCRIPT_NAME'
p2915
asbag49
(g70
g51
NtRp2916
(dp2917
g54
(dp2918
g81
g82
ssg63
g2907
sg56
(lp2919
S':'
asbag49
(g70
g51
NtRp2920
(dp2921
g54
(dp2922
sg63
g2907
sg56
(lp2923
g49
(g50
g51
NtRp2924
(dp2925
g54
(dp2926
g62
I3
ssg63
g2920
sg56
(lp2927
S''
asbasbasbag49
(g65
g51
NtRp2928
(dp2929
g54
(dp2930
sg63
g2588
sg56
(lp2931
g49
(g70
g51
NtRp2932
(dp2933
g54
(dp2934
g74
g75
ssg63
g2928
sg56
(lp2935
S'SERVER_NAME'
p2936
asbag49
(g70
g51
NtRp2937
(dp2938
g54
(dp2939
g81
g82
ssg63
g2928
sg56
(lp2940
S':'
asbag49
(g70
g51
NtRp2941
(dp2942
g54
(dp2943
sg63
g2928
sg56
(lp2944
g49
(g50
g51
NtRp2945
(dp2946
g54
(dp2947
g62
I3
ssg63
g2941
sg56
(lp2948
g1452
asbasbasbag49
(g65
g51
NtRp2949
(dp2950
g54
(dp2951
sg63
g2588
sg56
(lp2952
g49
(g70
g51
NtRp2953
(dp2954
g54
(dp2955
g74
g75
ssg63
g2949
sg56
(lp2956
S'SERVER_PORT'
p2957
asbag49
(g70
g51
NtRp2958
(dp2959
g54
(dp2960
g81
g82
ssg63
g2949
sg56
(lp2961
S':'
asbag49
(g70
g51
NtRp2962
(dp2963
g54
(dp2964
sg63
g2949
sg56
(lp2965
g49
(g50
g51
NtRp2966
(dp2967
g54
(dp2968
g62
I3
ssg63
g2962
sg56
(lp2969
g1474
asbasbasbag49
(g65
g51
NtRp2970
(dp2971
g54
(dp2972
sg63
g2588
sg56
(lp2973
g49
(g70
g51
NtRp2974
(dp2975
g54
(dp2976
g74
g75
ssg63
g2970
sg56
(lp2977
S'SERVER_PROTOCOL'
p2978
asbag49
(g70
g51
NtRp2979
(dp2980
g54
(dp2981
g81
g82
ssg63
g2970
sg56
(lp2982
S':'
asbag49
(g70
g51
NtRp2983
(dp2984
g54
(dp2985
sg63
g2970
sg56
(lp2986
g49
(g50
g51
NtRp2987
(dp2988
g54
(dp2989
g62
I3
ssg63
g2983
sg56
(lp2990
g1496
asbasbasbag49
(g65
g51
NtRp2991
(dp2992
g54
(dp2993
sg63
g2588
sg56
(lp2994
g49
(g70
g51
NtRp2995
(dp2996
g54
(dp2997
g74
g75
ssg63
g2991
sg56
(lp2998
S'SERVER_SOFTWARE'
p2999
asbag49
(g70
g51
NtRp3000
(dp3001
g54
(dp3002
g81
g82
ssg63
g2991
sg56
(lp3003
S':'
asbag49
(g70
g51
NtRp3004
(dp3005
g54
(dp3006
sg63
g2991
sg56
(lp3007
g49
(g50
g51
NtRp3008
(dp3009
g54
(dp3010
g62
I3
ssg63
g3004
sg56
(lp3011
g1518
asbasbasbag49
(g65
g51
NtRp3012
(dp3013
g54
(dp3014
sg63
g2588
sg56
(lp3015
g49
(g70
g51
NtRp3016
(dp3017
g54
(dp3018
g74
g75
ssg63
g3012
sg56
(lp3019
S'wsgi.errors'
p3020
asbag49
(g70
g51
NtRp3021
(dp3022
g54
(dp3023
g81
g82
ssg63
g3012
sg56
(lp3024
S':'
asbag49
(g70
g51
NtRp3025
(dp3026
g54
(dp3027
sg63
g3012
sg56
(lp3028
g49
(g50
g51
NtRp3029
(dp3030
g54
(dp3031
g62
I3
ssg63
g3025
sg56
(lp3032
S"<open file '<stderr>', mode 'w' at 0x540b0>"
p3033
asbasbasbag49
(g65
g51
NtRp3034
(dp3035
g54
(dp3036
sg63
g2588
sg56
(lp3037
g49
(g70
g51
NtRp3038
(dp3039
g54
(dp3040
g74
g75
ssg63
g3034
sg56
(lp3041
S'wsgi.file_wrapper'
p3042
asbag49
(g70
g51
NtRp3043
(dp3044
g54
(dp3045
g81
g82
ssg63
g3034
sg56
(lp3046
S':'
asbag49
(g70
g51
NtRp3047
(dp3048
g54
(dp3049
sg63
g3034
sg56
(lp3050
g49
(g50
g51
NtRp3051
(dp3052
g54
(dp3053
g62
I3
ssg63
g3047
sg56
(lp3054
S'<class wsgiref.util.FileWrapper at 0x4761060>'
p3055
asbasbasbag49
(g65
g51
NtRp3056
(dp3057
g54
(dp3058
sg63
g2588
sg56
(lp3059
g49
(g70
g51
NtRp3060
(dp3061
g54
(dp3062
g74
g75
ssg63
g3056
sg56
(lp3063
S'wsgi.input'
p3064
asbag49
(g70
g51
NtRp3065
(dp3066
g54
(dp3067
g81
g82
ssg63
g3056
sg56
(lp3068
S':'
asbag49
(g70
g51
NtRp3069
(dp3070
g54
(dp3071
sg63
g3056
sg56
(lp3072
g49
(g50
g51
NtRp3073
(dp3074
g54
(dp3075
g62
I3
ssg63
g3069
sg56
(lp3076
S'<cStringIO.StringO object at 0x3b63620>'
p3077
asbasbasbag49
(g65
g51
NtRp3078
(dp3079
g54
(dp3080
sg63
g2588
sg56
(lp3081
g49
(g70
g51
NtRp3082
(dp3083
g54
(dp3084
g74
g75
ssg63
g3078
sg56
(lp3085
S'wsgi.multiprocess'
p3086
asbag49
(g70
g51
NtRp3087
(dp3088
g54
(dp3089
g81
g82
ssg63
g3078
sg56
(lp3090
S':'
asbag49
(g70
g51
NtRp3091
(dp3092
g54
(dp3093
sg63
g3078
sg56
(lp3094
g49
(g50
g51
NtRp3095
(dp3096
g54
(dp3097
g62
I3
ssg63
g3091
sg56
(lp3098
g92
asbasbasbag49
(g65
g51
NtRp3099
(dp3100
g54
(dp3101
sg63
g2588
sg56
(lp3102
g49
(g70
g51
NtRp3103
(dp3104
g54
(dp3105
g74
g75
ssg63
g3099
sg56
(lp3106
S'wsgi.multithread'
p3107
asbag49
(g70
g51
NtRp3108
(dp3109
g54
(dp3110
g81
g82
ssg63
g3099
sg56
(lp3111
S':'
asbag49
(g70
g51
NtRp3112
(dp3113
g54
(dp3114
sg63
g3099
sg56
(lp3115
g49
(g50
g51
NtRp3116
(dp3117
g54
(dp3118
g62
I3
ssg63
g3112
sg56
(lp3119
g928
asbasbasbag49
(g65
g51
NtRp3120
(dp3121
g54
(dp3122
sg63
g2588
sg56
(lp3123
g49
(g70
g51
NtRp3124
(dp3125
g54
(dp3126
g74
g75
ssg63
g3120
sg56
(lp3127
S'wsgi.run_once'
p3128
asbag49
(g70
g51
NtRp3129
(dp3130
g54
(dp3131
g81
g82
ssg63
g3120
sg56
(lp3132
S':'
asbag49
(g70
g51
NtRp3133
(dp3134
g54
(dp3135
sg63
g3120
sg56
(lp3136
g49
(g50
g51
NtRp3137
(dp3138
g54
(dp3139
g62
I3
ssg63
g3133
sg56
(lp3140
g92
asbasbasbag49
(g65
g51
NtRp3141
(dp3142
g54
(dp3143
sg63
g2588
sg56
(lp3144
g49
(g70
g51
NtRp3145
(dp3146
g54
(dp3147
g74
g75
ssg63
g3141
sg56
(lp3148
S'wsgi.url_scheme'
p3149
asbag49
(g70
g51
NtRp3150
(dp3151
g54
(dp3152
g81
g82
ssg63
g3141
sg56
(lp3153
S':'
asbag49
(g70
g51
NtRp3154
(dp3155
g54
(dp3156
sg63
g3141
sg56
(lp3157
g49
(g50
g51
NtRp3158
(dp3159
g54
(dp3160
g62
I3
ssg63
g3154
sg56
(lp3161
g1777
asbasbasbag49
(g65
g51
NtRp3162
(dp3163
g54
(dp3164
sg63
g2588
sg56
(lp3165
g49
(g70
g51
NtRp3166
(dp3167
g54
(dp3168
g74
g75
ssg63
g3162
sg56
(lp3169
S'wsgi.version'
p3170
asbag49
(g70
g51
NtRp3171
(dp3172
g54
(dp3173
g81
g82
ssg63
g3162
sg56
(lp3174
S':'
asbag49
(g70
g51
NtRp3175
(dp3176
g54
(dp3177
sg63
g3162
sg56
(lp3178
g49
(g50
g51
NtRp3179
(dp3180
g54
(dp3181
g62
I3
ssg63
g3175
sg56
(lp3182
S'1'
asbasbasbasbasbasbasbasbasbasbasbasbasbsS'frames'
p3183
(lp3184
(dp3185
S'file'
p3186
S'/home/mdipierro/web2py/gluon/restricted.py'
p3187
sS'dump'
p3188
(dp3189
sS'lnum'
p3190
I212
sS'lines'
p3191
(dp3192
sS'call'
p3193
S'(code=\'response.write(\\\'<!--[if HTML5]><![endif]-->\\\\n<!D..."></script>\\\\n</body>\\\\n</html>\\\\n\\\\n\\\', escape=False)\', environment={\'A\': <class \'gluon.html.A\'>, \'Auth\': <class \'gluon.tools.Auth\'>, \'B\': <class \'gluon.html.B\'>, \'BEAUTIFY\': <class \'gluon.html.BEAUTIFY\'>, \'BODY\': <class \'gluon.html.BODY\'>, \'BR\': <class \'gluon.html.BR\'>, \'BUTTON\': <class \'gluon.html.BUTTON\'>, \'CAT\': <class \'gluon.html.CAT\'>, \'CENTER\': <class \'gluon.html.CENTER\'>, \'CLEANUP\': <class \'gluon.validators.CLEANUP\'>, ...}, layer=\'/Users/zamechek/Downloads/web2py/web2py.app/Cont...esources/applications/hellow/views/game/show.html\')'
p3194
sS'func'
p3195
S'restricted'
p3196
sa(dp3197
g3186
S'/Users/zamechek/Downloads/web2py/web2py.app/Contents/Resources/applications/hellow/views/game/show.html'
p3198
sg3188
(dp3199
sg3190
I101
sg3191
(dp3200
I96
S'response.write(\'\\n\\t        Bet: <input type="text" name="bet"><br>\\n\\t    \\t<input type="submit" value="Submit">\\n\\t    </form>  -->\\n<!--     \', escape=False)'
p3201
sI97
S'response.write(form)'
p3202
sI98
S"response.write(' -->\\n    ', escape=False)"
p3203
sI99
S'response.write(otherForm)'
p3204
sI100
S"response.write('\\n    ', escape=False)"
p3205
sI101
S'response.write(rowstype)'
p3206
sI102
S"response.write('\\n\\t<h2>Submitted variables</h2>\\n\\t', escape=False)"
p3207
sI103
S'response.write(BEAUTIFY(request.vars))'
p3208
sI104
S"response.write('\\n\\t<h2>Errors in form</h2>\\n\\t', escape=False)"
p3209
sI105
S'response.write(BEAUTIFY(form.errors))'
p3210
sI106
S"response.write('\\n</div>\\n', escape=False)"
p3211
sI107
S"response.write('\\n            ', escape=False)"
p3212
sI108
S"response.write('\\n        </div>\\n\\n        ', escape=False)"
p3213
sI109
S'if right_sidebar_enabled:'
p3214
sI110
S'    response.write(\'\\n        <div class="span3">\\n            \', escape=False)'
p3215
sI111
S"    response.write('\\n            <h3>Right Sidebar</h3>\\n            <p></p>\\n            ', escape=False)"
p3216
sI92
S"    response.write('> ', escape=False)"
p3217
sI93
S'    response.write(row.id)'
p3218
sI94
S"    response.write('<br>', escape=False)"
p3219
sI95
S'    pass'
p3220
ssg3193
S'()'
p3221
sg3195
S'<module>'
p3222
sa(dp3223
g3186
S'/home/mdipierro/web2py/gluon/globals.py'
p3224
sg3188
(dp3225
sg3190
I202
sg3191
(dp3226
sg3193
S"(self=<Storage {'body': <cStringIO.StringO object at 0...lambda> at 0x95dec70>, 'view': 'game/show.html'}>, data=<class 'gluon.dal.Rows'>, escape=True)"
p3227
sg3195
S'write'
p3228
sa(dp3229
g3186
S'/home/mdipierro/web2py/gluon/html.py'
p3230
sg3188
(dp3231
sg3190
I120
sg3191
(dp3232
sg3193
S"(data=<class 'gluon.dal.Rows'>, quote=True)"
p3233
sg3195
S'xmlescape'
p3234
sasS'pyver'
p3235
S'Python 2.5.1: /Users/zamechek/Downloads/web2py/web2py.app/Contents/MacOS/python'
p3236
sS'session'
p3237
g49
(g50
g51
NtRp3238
(dp3239
g54
(dp3240
sg56
(lp3241
g49
(g58
g51
NtRp3242
(dp3243
g54
(dp3244
g62
I5
ssg63
Nsg56
(lp3245
g49
(g65
g51
NtRp3246
(dp3247
g54
(dp3248
sg63
g3242
sg56
(lp3249
g49
(g70
g51
NtRp3250
(dp3251
g54
(dp3252
g74
g75
ssg63
g3246
sg56
(lp3253
S'last_orderby'
p3254
asbag49
(g70
g51
NtRp3255
(dp3256
g54
(dp3257
g81
g82
ssg63
g3246
sg56
(lp3258
S':'
asbag49
(g70
g51
NtRp3259
(dp3260
g54
(dp3261
sg63
g3246
sg56
(lp3262
g49
(g50
g51
NtRp3263
(dp3264
g54
(dp3265
g62
I5
ssg63
g3259
sg56
(lp3266
S'None'
p3267
asbasbasbag49
(g65
g51
NtRp3268
(dp3269
g54
(dp3270
sg63
g3242
sg56
(lp3271
g49
(g70
g51
NtRp3272
(dp3273
g54
(dp3274
g74
g75
ssg63
g3268
sg56
(lp3275
S'last_query'
p3276
asbag49
(g70
g51
NtRp3277
(dp3278
g54
(dp3279
g81
g82
ssg63
g3268
sg56
(lp3280
S':'
asbag49
(g70
g51
NtRp3281
(dp3282
g54
(dp3283
sg63
g3268
sg56
(lp3284
g49
(g50
g51
NtRp3285
(dp3286
g54
(dp3287
g62
I5
ssg63
g3281
sg56
(lp3288
S'db.game_slots.id>0'
p3289
asbasbasbasbasbsS'etype'
p3290
S"<type 'exceptions.TypeError'>"
p3291
sS'date'
p3292
S'Wed Mar 27 13:53:43 2013'
p3293
sS'response'
p3294
g49
(g50
g51
NtRp3295
(dp3296
g54
(dp3297
sg56
(lp3298
g49
(g58
g51
NtRp3299
(dp3300
g54
(dp3301
g62
I5
ssg63
Nsg56
(lp3302
g49
(g65
g51
NtRp3303
(dp3304
g54
(dp3305
sg63
g3299
sg56
(lp3306
g49
(g70
g51
NtRp3307
(dp3308
g54
(dp3309
g74
g75
ssg63
g3303
sg56
(lp3310
g159
asbag49
(g70
g51
NtRp3311
(dp3312
g54
(dp3313
g81
g82
ssg63
g3303
sg56
(lp3314
S':'
asbag49
(g70
g51
NtRp3315
(dp3316
g54
(dp3317
sg63
g3303
sg56
(lp3318
g49
(g50
g51
NtRp3319
(dp3320
g54
(dp3321
g62
I5
ssg63
g3315
sg56
(lp3322
S'<cStringIO.StringO object at 0x3b63a40>'
p3323
asbasbasbag49
(g65
g51
NtRp3324
(dp3325
g54
(dp3326
sg63
g3299
sg56
(lp3327
g49
(g70
g51
NtRp3328
(dp3329
g54
(dp3330
g74
g75
ssg63
g3324
sg56
(lp3331
g247
asbag49
(g70
g51
NtRp3332
(dp3333
g54
(dp3334
g81
g82
ssg63
g3324
sg56
(lp3335
S':'
asbag49
(g70
g51
NtRp3336
(dp3337
g54
(dp3338
sg63
g3324
sg56
(lp3339
g49
(g50
g51
NtRp3340
(dp3341
g54
(dp3342
g62
I5
ssg63
g3336
sg56
(lp3343
g49
(g58
g51
NtRp3344
(dp3345
g54
(dp3346
g62
I4
ssg63
Nsg56
(lp3347
g49
(g65
g51
NtRp3348
(dp3349
g54
(dp3350
sg63
g3344
sg56
(lp3351
g49
(g70
g51
NtRp3352
(dp3353
g54
(dp3354
g74
g75
ssg63
g3348
sg56
(lp3355
S'session_id_hellow'
p3356
asbag49
(g70
g51
NtRp3357
(dp3358
g54
(dp3359
g81
g82
ssg63
g3348
sg56
(lp3360
S':'
asbag49
(g70
g51
NtRp3361
(dp3362
g54
(dp3363
sg63
g3348
sg56
(lp3364
g49
(g50
g51
NtRp3365
(dp3366
g54
(dp3367
g62
I4
ssg63
g3361
sg56
(lp3368
g458
ag49
(g58
g51
NtRp3369
(dp3370
g54
(dp3371
g62
I3
ssg63
Nsg56
(lp3372
g49
(g65
g51
NtRp3373
(dp3374
g54
(dp3375
sg63
g3369
sg56
(lp3376
g49
(g70
g51
NtRp3377
(dp3378
g54
(dp3379
g74
g75
ssg63
g3373
sg56
(lp3380
g298
asbag49
(g70
g51
NtRp3381
(dp3382
g54
(dp3383
g81
g82
ssg63
g3373
sg56
(lp3384
S':'
asbag49
(g70
g51
NtRp3385
(dp3386
g54
(dp3387
sg63
g3373
sg56
(lp3388
g49
(g50
g51
NtRp3389
(dp3390
g54
(dp3391
g62
I3
ssg63
g3385
sg56
(lp3392
S''
asbasbasbag49
(g65
g51
NtRp3393
(dp3394
g54
(dp3395
sg63
g3369
sg56
(lp3396
g49
(g70
g51
NtRp3397
(dp3398
g54
(dp3399
g74
g75
ssg63
g3393
sg56
(lp3400
g319
asbag49
(g70
g51
NtRp3401
(dp3402
g54
(dp3403
g81
g82
ssg63
g3393
sg56
(lp3404
S':'
asbag49
(g70
g51
NtRp3405
(dp3406
g54
(dp3407
sg63
g3393
sg56
(lp3408
g49
(g50
g51
NtRp3409
(dp3410
g54
(dp3411
g62
I3
ssg63
g3405
sg56
(lp3412
S''
asbasbasbag49
(g65
g51
NtRp3413
(dp3414
g54
(dp3415
sg63
g3369
sg56
(lp3416
g49
(g70
g51
NtRp3417
(dp3418
g54
(dp3419
g74
g75
ssg63
g3413
sg56
(lp3420
g340
asbag49
(g70
g51
NtRp3421
(dp3422
g54
(dp3423
g81
g82
ssg63
g3413
sg56
(lp3424
S':'
asbag49
(g70
g51
NtRp3425
(dp3426
g54
(dp3427
sg63
g3413
sg56
(lp3428
g49
(g50
g51
NtRp3429
(dp3430
g54
(dp3431
g62
I3
ssg63
g3425
sg56
(lp3432
S''
asbasbasbag49
(g65
g51
NtRp3433
(dp3434
g54
(dp3435
sg63
g3369
sg56
(lp3436
g49
(g70
g51
NtRp3437
(dp3438
g54
(dp3439
g74
g75
ssg63
g3433
sg56
(lp3440
g361
asbag49
(g70
g51
NtRp3441
(dp3442
g54
(dp3443
g81
g82
ssg63
g3433
sg56
(lp3444
S':'
asbag49
(g70
g51
NtRp3445
(dp3446
g54
(dp3447
sg63
g3433
sg56
(lp3448
g49
(g50
g51
NtRp3449
(dp3450
g54
(dp3451
g62
I3
ssg63
g3445
sg56
(lp3452
S''
asbasbasbag49
(g65
g51
NtRp3453
(dp3454
g54
(dp3455
sg63
g3369
sg56
(lp3456
g49
(g70
g51
NtRp3457
(dp3458
g54
(dp3459
g74
g75
ssg63
g3453
sg56
(lp3460
g382
asbag49
(g70
g51
NtRp3461
(dp3462
g54
(dp3463
g81
g82
ssg63
g3453
sg56
(lp3464
S':'
asbag49
(g70
g51
NtRp3465
(dp3466
g54
(dp3467
sg63
g3453
sg56
(lp3468
g49
(g50
g51
NtRp3469
(dp3470
g54
(dp3471
g62
I3
ssg63
g3465
sg56
(lp3472
S'/'
asbasbasbag49
(g65
g51
NtRp3473
(dp3474
g54
(dp3475
sg63
g3369
sg56
(lp3476
g49
(g70
g51
NtRp3477
(dp3478
g54
(dp3479
g74
g75
ssg63
g3473
sg56
(lp3480
g403
asbag49
(g70
g51
NtRp3481
(dp3482
g54
(dp3483
g81
g82
ssg63
g3473
sg56
(lp3484
S':'
asbag49
(g70
g51
NtRp3485
(dp3486
g54
(dp3487
sg63
g3473
sg56
(lp3488
g49
(g50
g51
NtRp3489
(dp3490
g54
(dp3491
g62
I3
ssg63
g3485
sg56
(lp3492
S''
asbasbasbag49
(g65
g51
NtRp3493
(dp3494
g54
(dp3495
sg63
g3369
sg56
(lp3496
g49
(g70
g51
NtRp3497
(dp3498
g54
(dp3499
g74
g75
ssg63
g3493
sg56
(lp3500
g424
asbag49
(g70
g51
NtRp3501
(dp3502
g54
(dp3503
g81
g82
ssg63
g3493
sg56
(lp3504
S':'
asbag49
(g70
g51
NtRp3505
(dp3506
g54
(dp3507
sg63
g3493
sg56
(lp3508
g49
(g50
g51
NtRp3509
(dp3510
g54
(dp3511
g62
I3
ssg63
g3505
sg56
(lp3512
S''
asbasbasbasbasbasbasbasbasbasbasbag49
(g65
g51
NtRp3513
(dp3514
g54
(dp3515
sg63
g3299
sg56
(lp3516
g49
(g70
g51
NtRp3517
(dp3518
g54
(dp3519
g74
g75
ssg63
g3513
sg56
(lp3520
S'delimiters'
p3521
asbag49
(g70
g51
NtRp3522
(dp3523
g54
(dp3524
g81
g82
ssg63
g3513
sg56
(lp3525
S':'
asbag49
(g70
g51
NtRp3526
(dp3527
g54
(dp3528
sg63
g3513
sg56
(lp3529
g49
(g50
g51
NtRp3530
(dp3531
g54
(dp3532
g62
I5
ssg63
g3526
sg56
(lp3533
g49
(g58
g51
NtRp3534
(dp3535
g54
(dp3536
g62
I4
ssg63
Nsg56
(lp3537
g49
(g65
g51
NtRp3538
(dp3539
g54
(dp3540
sg63
g3534
sg56
(lp3541
g49
(g70
g51
NtRp3542
(dp3543
g54
(dp3544
sg63
g3538
sg56
(lp3545
g49
(g50
g51
NtRp3546
(dp3547
g54
(dp3548
g62
I4
ssg63
g3542
sg56
(lp3549
S'{{'
p3550
asbasbasbag49
(g65
g51
NtRp3551
(dp3552
g54
(dp3553
sg63
g3534
sg56
(lp3554
g49
(g70
g51
NtRp3555
(dp3556
g54
(dp3557
sg63
g3551
sg56
(lp3558
g49
(g50
g51
NtRp3559
(dp3560
g54
(dp3561
g62
I4
ssg63
g3555
sg56
(lp3562
S'}}'
p3563
asbasbasbasbasbasbasbag49
(g65
g51
NtRp3564
(dp3565
g54
(dp3566
sg63
g3299
sg56
(lp3567
g49
(g70
g51
NtRp3568
(dp3569
g54
(dp3570
g74
g75
ssg63
g3564
sg56
(lp3571
S'files'
p3572
asbag49
(g70
g51
NtRp3573
(dp3574
g54
(dp3575
g81
g82
ssg63
g3564
sg56
(lp3576
S':'
asbag49
(g70
g51
NtRp3577
(dp3578
g54
(dp3579
sg63
g3564
sg56
(lp3580
g49
(g50
g51
NtRp3581
(dp3582
g54
(dp3583
g62
I5
ssg63
g3577
sg56
(lp3584
g49
(g58
g51
NtRp3585
(dp3586
g54
(dp3587
g62
I4
ssg63
Nsg56
(lp3588
g49
(g65
g51
NtRp3589
(dp3590
g54
(dp3591
sg63
g3585
sg56
(lp3592
g49
(g70
g51
NtRp3593
(dp3594
g54
(dp3595
sg63
g3589
sg56
(lp3596
g49
(g50
g51
NtRp3597
(dp3598
g54
(dp3599
g62
I4
ssg63
g3593
sg56
(lp3600
S'/hellow/static/js/jquery.js'
p3601
asbasbasbag49
(g65
g51
NtRp3602
(dp3603
g54
(dp3604
sg63
g3585
sg56
(lp3605
g49
(g70
g51
NtRp3606
(dp3607
g54
(dp3608
sg63
g3602
sg56
(lp3609
g49
(g50
g51
NtRp3610
(dp3611
g54
(dp3612
g62
I4
ssg63
g3606
sg56
(lp3613
S'/hellow/static/css/calendar.css'
p3614
asbasbasbag49
(g65
g51
NtRp3615
(dp3616
g54
(dp3617
sg63
g3585
sg56
(lp3618
g49
(g70
g51
NtRp3619
(dp3620
g54
(dp3621
sg63
g3615
sg56
(lp3622
g49
(g50
g51
NtRp3623
(dp3624
g54
(dp3625
g62
I4
ssg63
g3619
sg56
(lp3626
S'/hellow/static/js/calendar.js'
p3627
asbasbasbag49
(g65
g51
NtRp3628
(dp3629
g54
(dp3630
sg63
g3585
sg56
(lp3631
g49
(g70
g51
NtRp3632
(dp3633
g54
(dp3634
sg63
g3628
sg56
(lp3635
g49
(g50
g51
NtRp3636
(dp3637
g54
(dp3638
g62
I4
ssg63
g3632
sg56
(lp3639
S'/hellow/static/js/web2py.js'
p3640
asbasbasbag49
(g65
g51
NtRp3641
(dp3642
g54
(dp3643
sg63
g3585
sg56
(lp3644
g49
(g70
g51
NtRp3645
(dp3646
g54
(dp3647
sg63
g3641
sg56
(lp3648
g49
(g50
g51
NtRp3649
(dp3650
g54
(dp3651
g62
I4
ssg63
g3645
sg56
(lp3652
S'/hellow/static/css/web2py.css'
p3653
asbasbasbag49
(g65
g51
NtRp3654
(dp3655
g54
(dp3656
sg63
g3585
sg56
(lp3657
g49
(g70
g51
NtRp3658
(dp3659
g54
(dp3660
sg63
g3654
sg56
(lp3661
g49
(g50
g51
NtRp3662
(dp3663
g54
(dp3664
g62
I4
ssg63
g3658
sg56
(lp3665
S'/hellow/static/css/bootstrap.min.css'
p3666
asbasbasbag49
(g65
g51
NtRp3667
(dp3668
g54
(dp3669
sg63
g3585
sg56
(lp3670
g49
(g70
g51
NtRp3671
(dp3672
g54
(dp3673
sg63
g3667
sg56
(lp3674
g49
(g50
g51
NtRp3675
(dp3676
g54
(dp3677
g62
I4
ssg63
g3671
sg56
(lp3678
S'/hellow/static/css/bootstrap-responsive.min.css'
p3679
asbasbasbag49
(g65
g51
NtRp3680
(dp3681
g54
(dp3682
sg63
g3585
sg56
(lp3683
g49
(g70
g51
NtRp3684
(dp3685
g54
(dp3686
sg63
g3680
sg56
(lp3687
g49
(g50
g51
NtRp3688
(dp3689
g54
(dp3690
g62
I4
ssg63
g3684
sg56
(lp3691
S'/hellow/static/css/web2py_bootstrap.css'
p3692
asbasbasbasbasbasbasbag49
(g65
g51
NtRp3693
(dp3694
g54
(dp3695
sg63
g3299
sg56
(lp3696
g49
(g70
g51
NtRp3697
(dp3698
g54
(dp3699
g74
g75
ssg63
g3693
sg56
(lp3700
S'flash'
p3701
asbag49
(g70
g51
NtRp3702
(dp3703
g54
(dp3704
g81
g82
ssg63
g3693
sg56
(lp3705
S':'
asbag49
(g70
g51
NtRp3706
(dp3707
g54
(dp3708
sg63
g3693
sg56
(lp3709
g49
(g50
g51
NtRp3710
(dp3711
g54
(dp3712
g62
I5
ssg63
g3706
sg56
(lp3713
S'please fill out the form'
p3714
asbasbasbag49
(g65
g51
NtRp3715
(dp3716
g54
(dp3717
sg63
g3299
sg56
(lp3718
g49
(g70
g51
NtRp3719
(dp3720
g54
(dp3721
g74
g75
ssg63
g3715
sg56
(lp3722
S'generic_patterns'
p3723
asbag49
(g70
g51
NtRp3724
(dp3725
g54
(dp3726
g81
g82
ssg63
g3715
sg56
(lp3727
S':'
asbag49
(g70
g51
NtRp3728
(dp3729
g54
(dp3730
sg63
g3715
sg56
(lp3731
g49
(g50
g51
NtRp3732
(dp3733
g54
(dp3734
g62
I5
ssg63
g3728
sg56
(lp3735
g49
(g58
g51
NtRp3736
(dp3737
g54
(dp3738
g62
I4
ssg63
Nsg56
(lp3739
g49
(g65
g51
NtRp3740
(dp3741
g54
(dp3742
sg63
g3736
sg56
(lp3743
g49
(g70
g51
NtRp3744
(dp3745
g54
(dp3746
sg63
g3740
sg56
(lp3747
g49
(g50
g51
NtRp3748
(dp3749
g54
(dp3750
g62
I4
ssg63
g3744
sg56
(lp3751
S'*'
asbasbasbasbasbasbasbag49
(g65
g51
NtRp3752
(dp3753
g54
(dp3754
sg63
g3299
sg56
(lp3755
g49
(g70
g51
NtRp3756
(dp3757
g54
(dp3758
g74
g75
ssg63
g3752
sg56
(lp3759
S'google_analytics_id'
p3760
asbag49
(g70
g51
NtRp3761
(dp3762
g54
(dp3763
g81
g82
ssg63
g3752
sg56
(lp3764
S':'
asbag49
(g70
g51
NtRp3765
(dp3766
g54
(dp3767
sg63
g3752
sg56
(lp3768
g49
(g50
g51
NtRp3769
(dp3770
g54
(dp3771
g62
I5
ssg63
g3765
sg56
(lp3772
S'None'
p3773
asbasbasbag49
(g65
g51
NtRp3774
(dp3775
g54
(dp3776
sg63
g3299
sg56
(lp3777
g49
(g70
g51
NtRp3778
(dp3779
g54
(dp3780
g74
g75
ssg63
g3774
sg56
(lp3781
S'headers'
p3782
asbag49
(g70
g51
NtRp3783
(dp3784
g54
(dp3785
g81
g82
ssg63
g3774
sg56
(lp3786
S':'
asbag49
(g70
g51
NtRp3787
(dp3788
g54
(dp3789
sg63
g3774
sg56
(lp3790
g49
(g50
g51
NtRp3791
(dp3792
g54
(dp3793
g62
I5
ssg63
g3787
sg56
(lp3794
g49
(g58
g51
NtRp3795
(dp3796
g54
(dp3797
g62
I4
ssg63
Nsg56
(lp3798
g49
(g65
g51
NtRp3799
(dp3800
g54
(dp3801
sg63
g3795
sg56
(lp3802
g49
(g70
g51
NtRp3803
(dp3804
g54
(dp3805
g74
g75
ssg63
g3799
sg56
(lp3806
S'X-Powered-By'
p3807
asbag49
(g70
g51
NtRp3808
(dp3809
g54
(dp3810
g81
g82
ssg63
g3799
sg56
(lp3811
S':'
asbag49
(g70
g51
NtRp3812
(dp3813
g54
(dp3814
sg63
g3799
sg56
(lp3815
g49
(g50
g51
NtRp3816
(dp3817
g54
(dp3818
g62
I4
ssg63
g3812
sg56
(lp3819
S'web2py'
p3820
asbasbasbasbasbasbasbag49
(g65
g51
NtRp3821
(dp3822
g54
(dp3823
sg63
g3299
sg56
(lp3824
g49
(g70
g51
NtRp3825
(dp3826
g54
(dp3827
g74
g75
ssg63
g3821
sg56
(lp3828
S'logo'
p3829
asbag49
(g70
g51
NtRp3830
(dp3831
g54
(dp3832
g81
g82
ssg63
g3821
sg56
(lp3833
S':'
asbag49
(g70
g51
NtRp3834
(dp3835
g54
(dp3836
sg63
g3821
sg56
(lp3837
g49
(g50
g51
NtRp3838
(dp3839
g54
(dp3840
g62
I5
ssg63
g3834
sg56
(lp3841
g49
(cgluon.html
A
p3842
g51
NtRp3843
(dp3844
g54
(dp3845
S'_class'
p3846
S'brand'
p3847
sS'_href'
p3848
S'http://www.web2py.com/'
p3849
ssg63
Nsg56
(lp3850
g49
(cgluon.html
B
p3851
g51
NtRp3852
(dp3853
g54
(dp3854
sg63
g3843
sg56
(lp3855
S'web'
p3856
ag49
(cgluon.html
SPAN
p3857
g51
NtRp3858
(dp3859
g54
(dp3860
sg63
g3852
sg56
(lp3861
I2
asbaS'py'
p3862
asbacgluon.html
XML_unpickle
p3863
(S's\r\x00\x00\x00&trade;&nbsp;'
tRp3864
asbasbasbasbag49
(g65
g51
NtRp3865
(dp3866
g54
(dp3867
sg63
g3299
sg56
(lp3868
g49
(g70
g51
NtRp3869
(dp3870
g54
(dp3871
g74
g75
ssg63
g3865
sg56
(lp3872
S'menu'
p3873
asbag49
(g70
g51
NtRp3874
(dp3875
g54
(dp3876
g81
g82
ssg63
g3865
sg56
(lp3877
S':'
asbag49
(g70
g51
NtRp3878
(dp3879
g54
(dp3880
sg63
g3865
sg56
(lp3881
g49
(g50
g51
NtRp3882
(dp3883
g54
(dp3884
g62
I5
ssg63
g3878
sg56
(lp3885
g49
(g58
g51
NtRp3886
(dp3887
g54
(dp3888
g62
I4
ssg63
Nsg56
(lp3889
g49
(g65
g51
NtRp3890
(dp3891
g54
(dp3892
sg63
g3886
sg56
(lp3893
g49
(g70
g51
NtRp3894
(dp3895
g54
(dp3896
sg63
g3890
sg56
(lp3897
g49
(g50
g51
NtRp3898
(dp3899
g54
(dp3900
g62
I4
ssg63
g3894
sg56
(lp3901
g49
(g58
g51
NtRp3902
(dp3903
g54
(dp3904
g62
I3
ssg63
Nsg56
(lp3905
g49
(g65
g51
NtRp3906
(dp3907
g54
(dp3908
sg63
g3902
sg56
(lp3909
g49
(g70
g51
NtRp3910
(dp3911
g54
(dp3912
sg63
g3906
sg56
(lp3913
g49
(g50
g51
NtRp3914
(dp3915
g54
(dp3916
g62
I3
ssg63
g3910
sg56
(lp3917
cgluon.languages
lazyT_unpickle
p3918
(S't\x04\x00\x00\x00Home'
tRp3919
asbasbasbag49
(g65
g51
NtRp3920
(dp3921
g54
(dp3922
sg63
g3902
sg56
(lp3923
g49
(g70
g51
NtRp3924
(dp3925
g54
(dp3926
sg63
g3920
sg56
(lp3927
g49
(g50
g51
NtRp3928
(dp3929
g54
(dp3930
g62
I3
ssg63
g3924
sg56
(lp3931
g92
asbasbasbag49
(g65
g51
NtRp3932
(dp3933
g54
(dp3934
sg63
g3902
sg56
(lp3935
g49
(g70
g51
NtRp3936
(dp3937
g54
(dp3938
sg63
g3932
sg56
(lp3939
g49
(g50
g51
NtRp3940
(dp3941
g54
(dp3942
g62
I3
ssg63
g3936
sg56
(lp3943
S'/hellow/default/index'
p3944
asbasbasbag49
(g65
g51
NtRp3945
(dp3946
g54
(dp3947
sg63
g3902
sg56
(lp3948
g49
(g70
g51
NtRp3949
(dp3950
g54
(dp3951
sg63
g3945
sg56
(lp3952
g49
(g50
g51
NtRp3953
(dp3954
g54
(dp3955
g62
I3
ssg63
g3949
sg56
(lp3956
g49
(g58
g51
NtRp3957
(dp3958
g54
(dp3959
g62
I2
ssg63
Nsg56
(lp3960
sbasbasbasbasbasbasbasbag49
(g65
g51
NtRp3961
(dp3962
g54
(dp3963
sg63
g3886
sg56
(lp3964
g49
(g70
g51
NtRp3965
(dp3966
g54
(dp3967
sg63
g3961
sg56
(lp3968
g49
(g50
g51
NtRp3969
(dp3970
g54
(dp3971
g62
I4
ssg63
g3965
sg56
(lp3972
g49
(g58
g51
NtRp3973
(dp3974
g54
(dp3975
g62
I3
ssg63
Nsg56
(lp3976
g49
(g65
g51
NtRp3977
(dp3978
g54
(dp3979
sg63
g3973
sg56
(lp3980
g49
(g70
g51
NtRp3981
(dp3982
g54
(dp3983
sg63
g3977
sg56
(lp3984
g49
(g50
g51
NtRp3985
(dp3986
g54
(dp3987
g62
I3
ssg63
g3981
sg56
(lp3988
g49
(g3857
g51
NtRp3989
(dp3990
g54
(dp3991
g3846
S'highlighted'
p3992
ssg63
g49
(g3842
g51
NtRp3993
(dp3994
g54
(dp3995
g3848
S'http://web2py.com'
p3996
ssg63
g49
(cgluon.html
LI
p3997
g51
NtRp3998
(dp3999
g54
(dp4000
g3846
S'dropdown'
p4001
ssg63
g49
(cgluon.html
UL
p4002
g51
NtRp4003
(dp4004
g54
(dp4005
S'mobile'
p4006
I00
sS'ul_class'
p4007
S'dropdown-menu'
p4008
sS'li_last'
p4009
S'web2py-menu-last'
p4010
sS'li_class'
p4011
g4001
sS'li_first'
p4012
S'web2py-menu-first'
p4013
sg3846
S'nav'
p4014
sS'li_active'
p4015
S'web2py-menu-active'
p4016
ssg63
Nsg56
(lp4017
g49
(g3997
g51
NtRp4018
(dp4019
g54
(dp4020
g3846
g4013
ssg63
g4003
sg56
(lp4021
g49
(g3842
g51
NtRp4022
(dp4023
g54
(dp4024
g3848
g3944
ssg63
g4018
sg56
(lp4025
g3919
asbasbag3998
asbsg56
(lp4026
g3993
ag49
(g4002
g51
NtRp4027
(dp4028
g54
(dp4029
g3846
g4008
ssg63
g3998
sg56
(lp4030
g49
(g3997
g51
NtRp4031
(dp4032
g54
(dp4033
sg63
g4027
sg56
(lp4034
g49
(g3842
g51
NtRp4035
(dp4036
g54
(dp4037
g3848
S'/admin/default/site'
p4038
ssg63
g4031
sg56
(lp4039
g3918
(S's\x08\x00\x00\x00My Sites'
tRp4040
asbasbag49
(g3997
g51
NtRp4041
(dp4042
g54
(dp4043
g3846
g4001
ssg63
g4027
sg56
(lp4044
g49
(g3842
g51
NtRp4045
(dp4046
g54
(dp4047
g3848
S'/admin/default/design/hellow'
p4048
ssg63
g4041
sg56
(lp4049
g3918
(S's\x08\x00\x00\x00This App'
tRp4050
asbag49
(g4002
g51
NtRp4051
(dp4052
g54
(dp4053
g3846
g4008
ssg63
g4041
sg56
(lp4054
g49
(g3997
g51
NtRp4055
(dp4056
g54
(dp4057
sg63
g4051
sg56
(lp4058
g49
(g3842
g51
NtRp4059
(dp4060
g54
(dp4061
g3848
S'/admin/default/edit/hellow/controllers/game.py'
p4062
ssg63
g4055
sg56
(lp4063
g3918
(S't\n\x00\x00\x00Controller'
tRp4064
asbasbag49
(g3997
g51
NtRp4065
(dp4066
g54
(dp4067
sg63
g4051
sg56
(lp4068
g49
(g3842
g51
NtRp4069
(dp4070
g54
(dp4071
g3848
S'/admin/default/edit/hellow/views/game/show.html'
p4072
ssg63
g4065
sg56
(lp4073
g3918
(S't\x04\x00\x00\x00View'
tRp4074
asbasbag49
(g3997
g51
NtRp4075
(dp4076
g54
(dp4077
sg63
g4051
sg56
(lp4078
g49
(g3842
g51
NtRp4079
(dp4080
g54
(dp4081
g3848
S'/admin/default/edit/hellow/views/layout.html'
p4082
ssg63
g4075
sg56
(lp4083
g3918
(S't\x06\x00\x00\x00Layout'
tRp4084
asbasbag49
(g3997
g51
NtRp4085
(dp4086
g54
(dp4087
sg63
g4051
sg56
(lp4088
g49
(g3842
g51
NtRp4089
(dp4090
g54
(dp4091
g3848
S'/admin/default/edit/hellow/static/css/web2py.css'
p4092
ssg63
g4085
sg56
(lp4093
g3918
(S't\n\x00\x00\x00Stylesheet'
tRp4094
asbasbag49
(g3997
g51
NtRp4095
(dp4096
g54
(dp4097
sg63
g4051
sg56
(lp4098
g49
(g3842
g51
NtRp4099
(dp4100
g54
(dp4101
g3848
S'/admin/default/edit/hellow/models/db.py'
p4102
ssg63
g4095
sg56
(lp4103
g3918
(S's\x08\x00\x00\x00DB Model'
tRp4104
asbasbag49
(g3997
g51
NtRp4105
(dp4106
g54
(dp4107
sg63
g4051
sg56
(lp4108
g49
(g3842
g51
NtRp4109
(dp4110
g54
(dp4111
g3848
S'/admin/default/edit/hellow/models/menu.py'
p4112
ssg63
g4105
sg56
(lp4113
g3918
(S's\n\x00\x00\x00Menu Model'
tRp4114
asbasbag49
(g3997
g51
NtRp4115
(dp4116
g54
(dp4117
sg63
g4051
sg56
(lp4118
g49
(g3842
g51
NtRp4119
(dp4120
g54
(dp4121
g3848
S'/hellow/appadmin/index'
p4122
ssg63
g4115
sg56
(lp4123
g3918
(S't\x08\x00\x00\x00Database'
tRp4124
asbasbag49
(g3997
g51
NtRp4125
(dp4126
g54
(dp4127
sg63
g4051
sg56
(lp4128
g49
(g3842
g51
NtRp4129
(dp4130
g54
(dp4131
g3848
S'/admin/default/errors/hellow'
p4132
ssg63
g4125
sg56
(lp4133
g3918
(S't\x06\x00\x00\x00Errors'
tRp4134
asbasbag49
(g3997
g51
NtRp4135
(dp4136
g54
(dp4137
sg63
g4051
sg56
(lp4138
g49
(g3842
g51
NtRp4139
(dp4140
g54
(dp4141
g3848
S'/admin/default/about/hellow'
p4142
ssg63
g4135
sg56
(lp4143
g3918
(S't\x05\x00\x00\x00About'
tRp4144
asbasbasbasbag49
(g3997
g51
NtRp4145
(dp4146
g54
(dp4147
g3846
g4001
ssg63
g4027
sg56
(lp4148
g49
(g3842
g51
NtRp4149
(dp4150
g54
(dp4151
g3848
S'http://www.web2py.com'
p4152
ssg63
g4145
sg56
(lp4153
S'web2py.com'
p4154
asbag49
(g4002
g51
NtRp4155
(dp4156
g54
(dp4157
g3846
g4008
ssg63
g4145
sg56
(lp4158
g49
(g3997
g51
NtRp4159
(dp4160
g54
(dp4161
sg63
g4155
sg56
(lp4162
g49
(g3842
g51
NtRp4163
(dp4164
g54
(dp4165
g3848
S'http://www.web2py.com/examples/default/download'
p4166
ssg63
g4159
sg56
(lp4167
g3918
(S't\x08\x00\x00\x00Download'
tRp4168
asbasbag49
(g3997
g51
NtRp4169
(dp4170
g54
(dp4171
sg63
g4155
sg56
(lp4172
g49
(g3842
g51
NtRp4173
(dp4174
g54
(dp4175
g3848
S'http://www.web2py.com/examples/default/support'
p4176
ssg63
g4169
sg56
(lp4177
g3918
(S't\x07\x00\x00\x00Support'
tRp4178
asbasbag49
(g3997
g51
NtRp4179
(dp4180
g54
(dp4181
sg63
g4155
sg56
(lp4182
g49
(g3842
g51
NtRp4183
(dp4184
g54
(dp4185
g3848
S'http://web2py.com/demo_admin'
p4186
ssg63
g4179
sg56
(lp4187
g3918
(S't\x04\x00\x00\x00Demo'
tRp4188
asbasbag49
(g3997
g51
NtRp4189
(dp4190
g54
(dp4191
sg63
g4155
sg56
(lp4192
g49
(g3842
g51
NtRp4193
(dp4194
g54
(dp4195
g3848
S'http://web2py.com/examples/default/examples'
p4196
ssg63
g4189
sg56
(lp4197
g3918
(S's\x0e\x00\x00\x00Quick Examples'
tRp4198
asbasbag49
(g3997
g51
NtRp4199
(dp4200
g54
(dp4201
sg63
g4155
sg56
(lp4202
g49
(g3842
g51
NtRp4203
(dp4204
g54
(dp4205
g3848
S'http://web2py.com/AlterEgo'
p4206
ssg63
g4199
sg56
(lp4207
g3918
(S't\x03\x00\x00\x00FAQ'
tRp4208
asbasbag49
(g3997
g51
NtRp4209
(dp4210
g54
(dp4211
sg63
g4155
sg56
(lp4212
g49
(g3842
g51
NtRp4213
(dp4214
g54
(dp4215
g3848
S'http://www.web2py.com/examples/default/videos/'
p4216
ssg63
g4209
sg56
(lp4217
g3918
(S't\x06\x00\x00\x00Videos'
tRp4218
asbasbag49
(g3997
g51
NtRp4219
(dp4220
g54
(dp4221
sg63
g4155
sg56
(lp4222
g49
(g3842
g51
NtRp4223
(dp4224
g54
(dp4225
g3848
S'http://web2py.com/appliances'
p4226
ssg63
g4219
sg56
(lp4227
g3918
(S's\x11\x00\x00\x00Free Applications'
tRp4228
asbasbag49
(g3997
g51
NtRp4229
(dp4230
g54
(dp4231
sg63
g4155
sg56
(lp4232
g49
(g3842
g51
NtRp4233
(dp4234
g54
(dp4235
g3848
S'http://web2py.com/plugins'
p4236
ssg63
g4229
sg56
(lp4237
g3918
(S't\x07\x00\x00\x00Plugins'
tRp4238
asbasbag49
(g3997
g51
NtRp4239
(dp4240
g54
(dp4241
sg63
g4155
sg56
(lp4242
g49
(g3842
g51
NtRp4243
(dp4244
g54
(dp4245
g3848
S'http://web2py.com/layouts'
p4246
ssg63
g4239
sg56
(lp4247
g3918
(S't\x07\x00\x00\x00Layouts'
tRp4248
asbasbag49
(g3997
g51
NtRp4249
(dp4250
g54
(dp4251
sg63
g4155
sg56
(lp4252
g49
(g3842
g51
NtRp4253
(dp4254
g54
(dp4255
g3848
S'http://web2pyslices.com/'
p4256
ssg63
g4249
sg56
(lp4257
g3918
(S't\x07\x00\x00\x00Recipes'
tRp4258
asbasbag49
(g3997
g51
NtRp4259
(dp4260
g54
(dp4261
sg63
g4155
sg56
(lp4262
g49
(g3842
g51
NtRp4263
(dp4264
g54
(dp4265
g3848
S'http://web2py.com/semantic'
p4266
ssg63
g4259
sg56
(lp4267
g3918
(S't\x08\x00\x00\x00Semantic'
tRp4268
asbasbasbasbag49
(g3997
g51
NtRp4269
(dp4270
g54
(dp4271
g3846
g4001
ssg63
g4027
sg56
(lp4272
g49
(g3842
g51
NtRp4273
(dp4274
g54
(dp4275
g3848
S'http://www.web2py.com/book'
p4276
ssg63
g4269
sg56
(lp4277
g3918
(S't\r\x00\x00\x00Documentation'
tRp4278
asbag49
(g4002
g51
NtRp4279
(dp4280
g54
(dp4281
g3846
g4008
ssg63
g4269
sg56
(lp4282
g49
(g3997
g51
NtRp4283
(dp4284
g54
(dp4285
sg63
g4279
sg56
(lp4286
g49
(g3842
g51
NtRp4287
(dp4288
g54
(dp4289
g3848
S'http://www.web2py.com/book/default/chapter/00'
p4290
ssg63
g4283
sg56
(lp4291
g3918
(S't\x07\x00\x00\x00Preface'
tRp4292
asbasbag49
(g3997
g51
NtRp4293
(dp4294
g54
(dp4295
sg63
g4279
sg56
(lp4296
g49
(g3842
g51
NtRp4297
(dp4298
g54
(dp4299
g3848
S'http://www.web2py.com/book/default/chapter/01'
p4300
ssg63
g4293
sg56
(lp4301
g3918
(S't\x0c\x00\x00\x00Introduction'
tRp4302
asbasbag49
(g3997
g51
NtRp4303
(dp4304
g54
(dp4305
sg63
g4279
sg56
(lp4306
g49
(g3842
g51
NtRp4307
(dp4308
g54
(dp4309
g3848
S'http://www.web2py.com/book/default/chapter/02'
p4310
ssg63
g4303
sg56
(lp4311
g3918
(S't\x06\x00\x00\x00Python'
tRp4312
asbasbag49
(g3997
g51
NtRp4313
(dp4314
g54
(dp4315
sg63
g4279
sg56
(lp4316
g49
(g3842
g51
NtRp4317
(dp4318
g54
(dp4319
g3848
S'http://www.web2py.com/book/default/chapter/03'
p4320
ssg63
g4313
sg56
(lp4321
g3918
(S't\x08\x00\x00\x00Overview'
tRp4322
asbasbag49
(g3997
g51
NtRp4323
(dp4324
g54
(dp4325
sg63
g4279
sg56
(lp4326
g49
(g3842
g51
NtRp4327
(dp4328
g54
(dp4329
g3848
S'http://www.web2py.com/book/default/chapter/04'
p4330
ssg63
g4323
sg56
(lp4331
g3918
(S's\x08\x00\x00\x00The Core'
tRp4332
asbasbag49
(g3997
g51
NtRp4333
(dp4334
g54
(dp4335
sg63
g4279
sg56
(lp4336
g49
(g3842
g51
NtRp4337
(dp4338
g54
(dp4339
g3848
S'http://www.web2py.com/book/default/chapter/05'
p4340
ssg63
g4333
sg56
(lp4341
g3918
(S's\t\x00\x00\x00The Views'
tRp4342
asbasbag49
(g3997
g51
NtRp4343
(dp4344
g54
(dp4345
sg63
g4279
sg56
(lp4346
g49
(g3842
g51
NtRp4347
(dp4348
g54
(dp4349
g3848
S'http://www.web2py.com/book/default/chapter/06'
p4350
ssg63
g4343
sg56
(lp4351
g3918
(S't\x08\x00\x00\x00Database'
tRp4352
asbasbag49
(g3997
g51
NtRp4353
(dp4354
g54
(dp4355
sg63
g4279
sg56
(lp4356
g49
(g3842
g51
NtRp4357
(dp4358
g54
(dp4359
g3848
S'http://www.web2py.com/book/default/chapter/07'
p4360
ssg63
g4353
sg56
(lp4361
g3918
(S's\x14\x00\x00\x00Forms and Validators'
tRp4362
asbasbag49
(g3997
g51
NtRp4363
(dp4364
g54
(dp4365
sg63
g4279
sg56
(lp4366
g49
(g3842
g51
NtRp4367
(dp4368
g54
(dp4369
g3848
S'http://www.web2py.com/book/default/chapter/08'
p4370
ssg63
g4363
sg56
(lp4371
g3918
(S's\r\x00\x00\x00Email and SMS'
tRp4372
asbasbag49
(g3997
g51
NtRp4373
(dp4374
g54
(dp4375
sg63
g4279
sg56
(lp4376
g49
(g3842
g51
NtRp4377
(dp4378
g54
(dp4379
g3848
S'http://www.web2py.com/book/default/chapter/09'
p4380
ssg63
g4373
sg56
(lp4381
g3918
(S's\x0e\x00\x00\x00Access Control'
tRp4382
asbasbag49
(g3997
g51
NtRp4383
(dp4384
g54
(dp4385
sg63
g4279
sg56
(lp4386
g49
(g3842
g51
NtRp4387
(dp4388
g54
(dp4389
g3848
S'http://www.web2py.com/book/default/chapter/10'
p4390
ssg63
g4383
sg56
(lp4391
g3918
(S't\x08\x00\x00\x00Services'
tRp4392
asbasbag49
(g3997
g51
NtRp4393
(dp4394
g54
(dp4395
sg63
g4279
sg56
(lp4396
g49
(g3842
g51
NtRp4397
(dp4398
g54
(dp4399
g3848
S'http://www.web2py.com/book/default/chapter/11'
p4400
ssg63
g4393
sg56
(lp4401
g3918
(S's\x0c\x00\x00\x00Ajax Recipes'
tRp4402
asbasbag49
(g3997
g51
NtRp4403
(dp4404
g54
(dp4405
sg63
g4279
sg56
(lp4406
g49
(g3842
g51
NtRp4407
(dp4408
g54
(dp4409
g3848
S'http://www.web2py.com/book/default/chapter/12'
p4410
ssg63
g4403
sg56
(lp4411
g3918
(S's\x16\x00\x00\x00Components and Plugins'
tRp4412
asbasbag49
(g3997
g51
NtRp4413
(dp4414
g54
(dp4415
sg63
g4279
sg56
(lp4416
g49
(g3842
g51
NtRp4417
(dp4418
g54
(dp4419
g3848
S'http://www.web2py.com/book/default/chapter/13'
p4420
ssg63
g4413
sg56
(lp4421
g3918
(S's\x12\x00\x00\x00Deployment Recipes'
tRp4422
asbasbag49
(g3997
g51
NtRp4423
(dp4424
g54
(dp4425
sg63
g4279
sg56
(lp4426
g49
(g3842
g51
NtRp4427
(dp4428
g54
(dp4429
g3848
S'http://www.web2py.com/book/default/chapter/14'
p4430
ssg63
g4423
sg56
(lp4431
g3918
(S's\r\x00\x00\x00Other Recipes'
tRp4432
asbasbag49
(g3997
g51
NtRp4433
(dp4434
g54
(dp4435
sg63
g4279
sg56
(lp4436
g49
(g3842
g51
NtRp4437
(dp4438
g54
(dp4439
g3848
S'http://stores.lulu.com/web2py'
p4440
ssg63
g4433
sg56
(lp4441
g3918
(S's\r\x00\x00\x00Buy this book'
tRp4442
asbasbasbasbag49
(g3997
g51
NtRp4443
(dp4444
g54
(dp4445
g3846
g4001
ssg63
g4027
sg56
(lp4446
g49
(g3842
g51
NtRp4447
(dp4448
g54
(dp4449
S'_onclick'
p4450
S'javascript:void(0);return false;'
p4451
sg3848
S'#'
ssg63
g4443
sg56
(lp4452
g3918
(S't\t\x00\x00\x00Community'
tRp4453
asbag49
(g4002
g51
NtRp4454
(dp4455
g54
(dp4456
g3846
g4008
ssg63
g4443
sg56
(lp4457
g49
(g3997
g51
NtRp4458
(dp4459
g54
(dp4460
sg63
g4454
sg56
(lp4461
g49
(g3842
g51
NtRp4462
(dp4463
g54
(dp4464
g3848
S'http://www.web2py.com/examples/default/usergroups'
p4465
ssg63
g4458
sg56
(lp4466
g3918
(S't\x06\x00\x00\x00Groups'
tRp4467
asbasbag49
(g3997
g51
NtRp4468
(dp4469
g54
(dp4470
sg63
g4454
sg56
(lp4471
g49
(g3842
g51
NtRp4472
(dp4473
g54
(dp4474
g3848
S'http://twitter.com/web2py'
p4475
ssg63
g4468
sg56
(lp4476
g3918
(S't\x07\x00\x00\x00Twitter'
tRp4477
asbasbag49
(g3997
g51
NtRp4478
(dp4479
g54
(dp4480
sg63
g4454
sg56
(lp4481
g49
(g3842
g51
NtRp4482
(dp4483
g54
(dp4484
g3848
S'http://webchat.freenode.net/?channels=web2py'
p4485
ssg63
g4478
sg56
(lp4486
g3918
(S's\t\x00\x00\x00Live Chat'
tRp4487
asbasbasbasbag49
(g3997
g51
NtRp4488
(dp4489
g54
(dp4490
g3846
g4001
ssg63
g4027
sg56
(lp4491
g49
(g3842
g51
NtRp4492
(dp4493
g54
(dp4494
g4450
g4451
sg3848
S'#'
ssg63
g4488
sg56
(lp4495
g3918
(S't\x07\x00\x00\x00Plugins'
tRp4496
asbag49
(g4002
g51
NtRp4497
(dp4498
g54
(dp4499
g3846
g4008
ssg63
g4488
sg56
(lp4500
g49
(g3997
g51
NtRp4501
(dp4502
g54
(dp4503
sg63
g4497
sg56
(lp4504
g49
(g3842
g51
NtRp4505
(dp4506
g54
(dp4507
g3848
S'http://web2py.com/examples/default/download'
p4508
ssg63
g4501
sg56
(lp4509
S'plugin_wiki'
p4510
asbasbag49
(g3997
g51
NtRp4511
(dp4512
g54
(dp4513
sg63
g4497
sg56
(lp4514
g49
(g3842
g51
NtRp4515
(dp4516
g54
(dp4517
g3848
g4236
ssg63
g4511
sg56
(lp4518
g3918
(S's\r\x00\x00\x00Other Plugins'
tRp4519
asbasbag49
(g3997
g51
NtRp4520
(dp4521
g54
(dp4522
sg63
g4497
sg56
(lp4523
g49
(g3842
g51
NtRp4524
(dp4525
g54
(dp4526
g3848
g4246
ssg63
g4520
sg56
(lp4527
g3918
(S's\x0e\x00\x00\x00Layout Plugins'
tRp4528
asbasbasbasbasbasbsg56
(lp4529
g3989
asbsg56
(lp4530
g3820
asbasbasbasbag49
(g65
g51
NtRp4531
(dp4532
g54
(dp4533
sg63
g3973
sg56
(lp4534
g49
(g70
g51
NtRp4535
(dp4536
g54
(dp4537
sg63
g4531
sg56
(lp4538
g49
(g50
g51
NtRp4539
(dp4540
g54
(dp4541
g62
I3
ssg63
g4535
sg56
(lp4542
g92
asbasbasbag49
(g65
g51
NtRp4543
(dp4544
g54
(dp4545
sg63
g3973
sg56
(lp4546
g49
(g70
g51
NtRp4547
(dp4548
g54
(dp4549
sg63
g4543
sg56
(lp4550
g49
(g50
g51
NtRp4551
(dp4552
g54
(dp4553
g62
I3
ssg63
g4547
sg56
(lp4554
g3996
asbasbasbag49
(g65
g51
NtRp4555
(dp4556
g54
(dp4557
sg63
g3973
sg56
(lp4558
g49
(g70
g51
NtRp4559
(dp4560
g54
(dp4561
sg63
g4555
sg56
(lp4562
g49
(g50
g51
NtRp4563
(dp4564
g54
(dp4565
g62
I3
ssg63
g4559
sg56
(lp4566
g49
(g58
g51
NtRp4567
(dp4568
g54
(dp4569
g62
I2
ssg63
Nsg56
(lp4570
g49
(g65
g51
NtRp4571
(dp4572
g54
(dp4573
sg63
g4567
sg56
(lp4574
g49
(g70
g51
NtRp4575
(dp4576
g54
(dp4577
sg63
g4571
sg56
(lp4578
g49
(g50
g51
NtRp4579
(dp4580
g54
(dp4581
g62
I2
ssg63
g4575
sg56
(lp4582
g49
(g58
g51
NtRp4583
(dp4584
g54
(dp4585
g62
I1
ssg63
Nsg56
(lp4586
g49
(g65
g51
NtRp4587
(dp4588
g54
(dp4589
sg63
g4583
sg56
(lp4590
g49
(g70
g51
NtRp4591
(dp4592
g54
(dp4593
sg63
g4587
sg56
(lp4594
g49
(g50
g51
NtRp4595
(dp4596
g54
(dp4597
g62
I1
ssg63
g4591
sg56
(lp4598
g4040
asbasbasbag49
(g65
g51
NtRp4599
(dp4600
g54
(dp4601
sg63
g4583
sg56
(lp4602
g49
(g70
g51
NtRp4603
(dp4604
g54
(dp4605
sg63
g4599
sg56
(lp4606
g49
(g50
g51
NtRp4607
(dp4608
g54
(dp4609
g62
I1
ssg63
g4603
sg56
(lp4610
I00
asbasbasbag49
(g65
g51
NtRp4611
(dp4612
g54
(dp4613
sg63
g4583
sg56
(lp4614
g49
(g70
g51
NtRp4615
(dp4616
g54
(dp4617
sg63
g4611
sg56
(lp4618
g49
(g50
g51
NtRp4619
(dp4620
g54
(dp4621
g62
I1
ssg63
g4615
sg56
(lp4622
g4038
asbasbasbasbasbasbasbag49
(g65
g51
NtRp4623
(dp4624
g54
(dp4625
sg63
g4567
sg56
(lp4626
g49
(g70
g51
NtRp4627
(dp4628
g54
(dp4629
sg63
g4623
sg56
(lp4630
g49
(g50
g51
NtRp4631
(dp4632
g54
(dp4633
g62
I2
ssg63
g4627
sg56
(lp4634
g49
(g58
g51
NtRp4635
(dp4636
g54
(dp4637
g62
I1
ssg63
Nsg56
(lp4638
g49
(g65
g51
NtRp4639
(dp4640
g54
(dp4641
sg63
g4635
sg56
(lp4642
g49
(g70
g51
NtRp4643
(dp4644
g54
(dp4645
sg63
g4639
sg56
(lp4646
g49
(g50
g51
NtRp4647
(dp4648
g54
(dp4649
g62
I1
ssg63
g4643
sg56
(lp4650
g4050
asbasbasbag49
(g65
g51
NtRp4651
(dp4652
g54
(dp4653
sg63
g4635
sg56
(lp4654
g49
(g70
g51
NtRp4655
(dp4656
g54
(dp4657
sg63
g4651
sg56
(lp4658
g49
(g50
g51
NtRp4659
(dp4660
g54
(dp4661
g62
I1
ssg63
g4655
sg56
(lp4662
I00
asbasbasbag49
(g65
g51
NtRp4663
(dp4664
g54
(dp4665
sg63
g4635
sg56
(lp4666
g49
(g70
g51
NtRp4667
(dp4668
g54
(dp4669
sg63
g4663
sg56
(lp4670
g49
(g50
g51
NtRp4671
(dp4672
g54
(dp4673
g62
I1
ssg63
g4667
sg56
(lp4674
g4048
asbasbasbag49
(g65
g51
NtRp4675
(dp4676
g54
(dp4677
sg63
g4635
sg56
(lp4678
g49
(g70
g51
NtRp4679
(dp4680
g54
(dp4681
sg63
g4675
sg56
(lp4682
g49
(g50
g51
NtRp4683
(dp4684
g54
(dp4685
g62
I1
ssg63
g4679
sg56
(lp4686
(lp4687
(g4064
I00
g4062
tp4688
a(g4074
I00
g4072
tp4689
a(g4084
I00
g4082
tp4690
a(g4094
I00
g4092
tp4691
a(g4104
I00
g4102
tp4692
a(g4114
I00
g4112
tp4693
a(g4124
I00
g4122
tp4694
a(g4134
I00
g4132
tp4695
a(g4144
I00
g4142
tp4696
aasbasbasbasbasbasbasbag49
(g65
g51
NtRp4697
(dp4698
g54
(dp4699
sg63
g4567
sg56
(lp4700
g49
(g70
g51
NtRp4701
(dp4702
g54
(dp4703
sg63
g4697
sg56
(lp4704
g49
(g50
g51
NtRp4705
(dp4706
g54
(dp4707
g62
I2
ssg63
g4701
sg56
(lp4708
g49
(g58
g51
NtRp4709
(dp4710
g54
(dp4711
g62
I1
ssg63
Nsg56
(lp4712
g49
(g65
g51
NtRp4713
(dp4714
g54
(dp4715
sg63
g4709
sg56
(lp4716
g49
(g70
g51
NtRp4717
(dp4718
g54
(dp4719
sg63
g4713
sg56
(lp4720
g49
(g50
g51
NtRp4721
(dp4722
g54
(dp4723
g62
I1
ssg63
g4717
sg56
(lp4724
g4154
asbasbasbag49
(g65
g51
NtRp4725
(dp4726
g54
(dp4727
sg63
g4709
sg56
(lp4728
g49
(g70
g51
NtRp4729
(dp4730
g54
(dp4731
sg63
g4725
sg56
(lp4732
g49
(g50
g51
NtRp4733
(dp4734
g54
(dp4735
g62
I1
ssg63
g4729
sg56
(lp4736
I00
asbasbasbag49
(g65
g51
NtRp4737
(dp4738
g54
(dp4739
sg63
g4709
sg56
(lp4740
g49
(g70
g51
NtRp4741
(dp4742
g54
(dp4743
sg63
g4737
sg56
(lp4744
g49
(g50
g51
NtRp4745
(dp4746
g54
(dp4747
g62
I1
ssg63
g4741
sg56
(lp4748
g4152
asbasbasbag49
(g65
g51
NtRp4749
(dp4750
g54
(dp4751
sg63
g4709
sg56
(lp4752
g49
(g70
g51
NtRp4753
(dp4754
g54
(dp4755
sg63
g4749
sg56
(lp4756
g49
(g50
g51
NtRp4757
(dp4758
g54
(dp4759
g62
I1
ssg63
g4753
sg56
(lp4760
(lp4761
(g4168
I00
g4166
tp4762
a(g4178
I00
g4176
tp4763
a(g4188
I00
g4186
tp4764
a(g4198
I00
g4196
tp4765
a(g4208
I00
g4206
tp4766
a(g4218
I00
g4216
tp4767
a(g4228
I00
g4226
tp4768
a(g4238
I00
g4236
tp4769
a(g4248
I00
g4246
tp4770
a(g4258
I00
g4256
tp4771
a(g4268
I00
g4266
tp4772
aasbasbasbasbasbasbasbag49
(g65
g51
NtRp4773
(dp4774
g54
(dp4775
sg63
g4567
sg56
(lp4776
g49
(g70
g51
NtRp4777
(dp4778
g54
(dp4779
sg63
g4773
sg56
(lp4780
g49
(g50
g51
NtRp4781
(dp4782
g54
(dp4783
g62
I2
ssg63
g4777
sg56
(lp4784
g49
(g58
g51
NtRp4785
(dp4786
g54
(dp4787
g62
I1
ssg63
Nsg56
(lp4788
g49
(g65
g51
NtRp4789
(dp4790
g54
(dp4791
sg63
g4785
sg56
(lp4792
g49
(g70
g51
NtRp4793
(dp4794
g54
(dp4795
sg63
g4789
sg56
(lp4796
g49
(g50
g51
NtRp4797
(dp4798
g54
(dp4799
g62
I1
ssg63
g4793
sg56
(lp4800
g4278
asbasbasbag49
(g65
g51
NtRp4801
(dp4802
g54
(dp4803
sg63
g4785
sg56
(lp4804
g49
(g70
g51
NtRp4805
(dp4806
g54
(dp4807
sg63
g4801
sg56
(lp4808
g49
(g50
g51
NtRp4809
(dp4810
g54
(dp4811
g62
I1
ssg63
g4805
sg56
(lp4812
I00
asbasbasbag49
(g65
g51
NtRp4813
(dp4814
g54
(dp4815
sg63
g4785
sg56
(lp4816
g49
(g70
g51
NtRp4817
(dp4818
g54
(dp4819
sg63
g4813
sg56
(lp4820
g49
(g50
g51
NtRp4821
(dp4822
g54
(dp4823
g62
I1
ssg63
g4817
sg56
(lp4824
g4276
asbasbasbag49
(g65
g51
NtRp4825
(dp4826
g54
(dp4827
sg63
g4785
sg56
(lp4828
g49
(g70
g51
NtRp4829
(dp4830
g54
(dp4831
sg63
g4825
sg56
(lp4832
g49
(g50
g51
NtRp4833
(dp4834
g54
(dp4835
g62
I1
ssg63
g4829
sg56
(lp4836
(lp4837
(g4292
I00
g4290
tp4838
a(g4302
I00
g4300
tp4839
a(g4312
I00
g4310
tp4840
a(g4322
I00
g4320
tp4841
a(g4332
I00
g4330
tp4842
a(g4342
I00
g4340
tp4843
a(g4352
I00
g4350
tp4844
a(g4362
I00
g4360
tp4845
a(g4372
I00
g4370
tp4846
a(g4382
I00
g4380
tp4847
a(g4392
I00
g4390
tp4848
a(g4402
I00
g4400
tp4849
a(g4412
I00
g4410
tp4850
a(g4422
I00
g4420
tp4851
a(g4432
I00
g4430
tp4852
a(g4442
I00
g4440
tp4853
aasbasbasbasbasbasbasbag49
(g65
g51
NtRp4854
(dp4855
g54
(dp4856
sg63
g4567
sg56
(lp4857
g49
(g70
g51
NtRp4858
(dp4859
g54
(dp4860
sg63
g4854
sg56
(lp4861
g49
(g50
g51
NtRp4862
(dp4863
g54
(dp4864
g62
I2
ssg63
g4858
sg56
(lp4865
g49
(g58
g51
NtRp4866
(dp4867
g54
(dp4868
g62
I1
ssg63
Nsg56
(lp4869
g49
(g65
g51
NtRp4870
(dp4871
g54
(dp4872
sg63
g4866
sg56
(lp4873
g49
(g70
g51
NtRp4874
(dp4875
g54
(dp4876
sg63
g4870
sg56
(lp4877
g49
(g50
g51
NtRp4878
(dp4879
g54
(dp4880
g62
I1
ssg63
g4874
sg56
(lp4881
g4453
asbasbasbag49
(g65
g51
NtRp4882
(dp4883
g54
(dp4884
sg63
g4866
sg56
(lp4885
g49
(g70
g51
NtRp4886
(dp4887
g54
(dp4888
sg63
g4882
sg56
(lp4889
g49
(g50
g51
NtRp4890
(dp4891
g54
(dp4892
g62
I1
ssg63
g4886
sg56
(lp4893
I00
asbasbasbag49
(g65
g51
NtRp4894
(dp4895
g54
(dp4896
sg63
g4866
sg56
(lp4897
g49
(g70
g51
NtRp4898
(dp4899
g54
(dp4900
sg63
g4894
sg56
(lp4901
g49
(g50
g51
NtRp4902
(dp4903
g54
(dp4904
g62
I1
ssg63
g4898
sg56
(lp4905
Nasbasbasbag49
(g65
g51
NtRp4906
(dp4907
g54
(dp4908
sg63
g4866
sg56
(lp4909
g49
(g70
g51
NtRp4910
(dp4911
g54
(dp4912
sg63
g4906
sg56
(lp4913
g49
(g50
g51
NtRp4914
(dp4915
g54
(dp4916
g62
I1
ssg63
g4910
sg56
(lp4917
(lp4918
(g4467
I00
g4465
tp4919
a(g4477
I00
g4475
tp4920
a(g4487
I00
g4485
tp4921
aasbasbasbasbasbasbasbag49
(g65
g51
NtRp4922
(dp4923
g54
(dp4924
sg63
g4567
sg56
(lp4925
g49
(g70
g51
NtRp4926
(dp4927
g54
(dp4928
sg63
g4922
sg56
(lp4929
g49
(g50
g51
NtRp4930
(dp4931
g54
(dp4932
g62
I2
ssg63
g4926
sg56
(lp4933
g49
(g58
g51
NtRp4934
(dp4935
g54
(dp4936
g62
I1
ssg63
Nsg56
(lp4937
g49
(g65
g51
NtRp4938
(dp4939
g54
(dp4940
sg63
g4934
sg56
(lp4941
g49
(g70
g51
NtRp4942
(dp4943
g54
(dp4944
sg63
g4938
sg56
(lp4945
g49
(g50
g51
NtRp4946
(dp4947
g54
(dp4948
g62
I1
ssg63
g4942
sg56
(lp4949
g4496
asbasbasbag49
(g65
g51
NtRp4950
(dp4951
g54
(dp4952
sg63
g4934
sg56
(lp4953
g49
(g70
g51
NtRp4954
(dp4955
g54
(dp4956
sg63
g4950
sg56
(lp4957
g49
(g50
g51
NtRp4958
(dp4959
g54
(dp4960
g62
I1
ssg63
g4954
sg56
(lp4961
I00
asbasbasbag49
(g65
g51
NtRp4962
(dp4963
g54
(dp4964
sg63
g4934
sg56
(lp4965
g49
(g70
g51
NtRp4966
(dp4967
g54
(dp4968
sg63
g4962
sg56
(lp4969
g49
(g50
g51
NtRp4970
(dp4971
g54
(dp4972
g62
I1
ssg63
g4966
sg56
(lp4973
Nasbasbasbag49
(g65
g51
NtRp4974
(dp4975
g54
(dp4976
sg63
g4934
sg56
(lp4977
g49
(g70
g51
NtRp4978
(dp4979
g54
(dp4980
sg63
g4974
sg56
(lp4981
g49
(g50
g51
NtRp4982
(dp4983
g54
(dp4984
g62
I1
ssg63
g4978
sg56
(lp4985
(lp4986
(g4510
I00
g4508
tp4987
a(g4519
I00
g4236
tp4988
a(g4528
I00
g4246
tp4989
aasbasbasbasbasbasbasbasbasbasbasbasbasbasbasbasbasbasbasbag49
(g65
g51
NtRp4990
(dp4991
g54
(dp4992
sg63
g3299
sg56
(lp4993
g49
(g70
g51
NtRp4994
(dp4995
g54
(dp4996
g74
g75
ssg63
g4990
sg56
(lp4997
S'meta'
p4998
asbag49
(g70
g51
NtRp4999
(dp5000
g54
(dp5001
g81
g82
ssg63
g4990
sg56
(lp5002
S':'
asbag49
(g70
g51
NtRp5003
(dp5004
g54
(dp5005
sg63
g4990
sg56
(lp5006
g49
(g50
g51
NtRp5007
(dp5008
g54
(dp5009
g62
I5
ssg63
g5003
sg56
(lp5010
g49
(g58
g51
NtRp5011
(dp5012
g54
(dp5013
g62
I4
ssg63
Nsg56
(lp5014
g49
(g65
g51
NtRp5015
(dp5016
g54
(dp5017
sg63
g5011
sg56
(lp5018
g49
(g70
g51
NtRp5019
(dp5020
g54
(dp5021
g74
g75
ssg63
g5015
sg56
(lp5022
S'author'
p5023
asbag49
(g70
g51
NtRp5024
(dp5025
g54
(dp5026
g81
g82
ssg63
g5015
sg56
(lp5027
S':'
asbag49
(g70
g51
NtRp5028
(dp5029
g54
(dp5030
sg63
g5015
sg56
(lp5031
g49
(g50
g51
NtRp5032
(dp5033
g54
(dp5034
g62
I4
ssg63
g5028
sg56
(lp5035
S'Your Name <you@example.com>'
p5036
asbasbasbag49
(g65
g51
NtRp5037
(dp5038
g54
(dp5039
sg63
g5011
sg56
(lp5040
g49
(g70
g51
NtRp5041
(dp5042
g54
(dp5043
g74
g75
ssg63
g5037
sg56
(lp5044
S'description'
p5045
asbag49
(g70
g51
NtRp5046
(dp5047
g54
(dp5048
g81
g82
ssg63
g5037
sg56
(lp5049
S':'
asbag49
(g70
g51
NtRp5050
(dp5051
g54
(dp5052
sg63
g5037
sg56
(lp5053
g49
(g50
g51
NtRp5054
(dp5055
g54
(dp5056
g62
I4
ssg63
g5050
sg56
(lp5057
S'a cool new app'
p5058
asbasbasbag49
(g65
g51
NtRp5059
(dp5060
g54
(dp5061
sg63
g5011
sg56
(lp5062
g49
(g70
g51
NtRp5063
(dp5064
g54
(dp5065
g74
g75
ssg63
g5059
sg56
(lp5066
S'generator'
p5067
asbag49
(g70
g51
NtRp5068
(dp5069
g54
(dp5070
g81
g82
ssg63
g5059
sg56
(lp5071
S':'
asbag49
(g70
g51
NtRp5072
(dp5073
g54
(dp5074
sg63
g5059
sg56
(lp5075
g49
(g50
g51
NtRp5076
(dp5077
g54
(dp5078
g62
I4
ssg63
g5072
sg56
(lp5079
S'Web2py Web Framework'
p5080
asbasbasbag49
(g65
g51
NtRp5081
(dp5082
g54
(dp5083
sg63
g5011
sg56
(lp5084
g49
(g70
g51
NtRp5085
(dp5086
g54
(dp5087
g74
g75
ssg63
g5081
sg56
(lp5088
S'keywords'
p5089
asbag49
(g70
g51
NtRp5090
(dp5091
g54
(dp5092
g81
g82
ssg63
g5081
sg56
(lp5093
S':'
asbag49
(g70
g51
NtRp5094
(dp5095
g54
(dp5096
sg63
g5081
sg56
(lp5097
g49
(g50
g51
NtRp5098
(dp5099
g54
(dp5100
g62
I4
ssg63
g5094
sg56
(lp5101
S'web2py, python, framework'
p5102
asbasbasbasbasbasbasbag49
(g65
g51
NtRp5103
(dp5104
g54
(dp5105
sg63
g3299
sg56
(lp5106
g49
(g70
g51
NtRp5107
(dp5108
g54
(dp5109
g74
g75
ssg63
g5103
sg56
(lp5110
S'models_to_run'
p5111
asbag49
(g70
g51
NtRp5112
(dp5113
g54
(dp5114
g81
g82
ssg63
g5103
sg56
(lp5115
S':'
asbag49
(g70
g51
NtRp5116
(dp5117
g54
(dp5118
sg63
g5103
sg56
(lp5119
g49
(g50
g51
NtRp5120
(dp5121
g54
(dp5122
g62
I5
ssg63
g5116
sg56
(lp5123
g49
(g58
g51
NtRp5124
(dp5125
g54
(dp5126
g62
I4
ssg63
Nsg56
(lp5127
g49
(g65
g51
NtRp5128
(dp5129
g54
(dp5130
sg63
g5124
sg56
(lp5131
g49
(g70
g51
NtRp5132
(dp5133
g54
(dp5134
sg63
g5128
sg56
(lp5135
g49
(g50
g51
NtRp5136
(dp5137
g54
(dp5138
g62
I4
ssg63
g5132
sg56
(lp5139
S'^\\w+\\.py$'
p5140
asbasbasbag49
(g65
g51
NtRp5141
(dp5142
g54
(dp5143
sg63
g5124
sg56
(lp5144
g49
(g70
g51
NtRp5145
(dp5146
g54
(dp5147
sg63
g5141
sg56
(lp5148
g49
(g50
g51
NtRp5149
(dp5150
g54
(dp5151
g62
I4
ssg63
g5145
sg56
(lp5152
S'^game/\\w+\\.py$'
p5153
asbasbasbag49
(g65
g51
NtRp5154
(dp5155
g54
(dp5156
sg63
g5124
sg56
(lp5157
g49
(g70
g51
NtRp5158
(dp5159
g54
(dp5160
sg63
g5154
sg56
(lp5161
g49
(g50
g51
NtRp5162
(dp5163
g54
(dp5164
g62
I4
ssg63
g5158
sg56
(lp5165
S'^game/show/\\w+\\.py$'
p5166
asbasbasbasbasbasbasbag49
(g65
g51
NtRp5167
(dp5168
g54
(dp5169
sg63
g3299
sg56
(lp5170
g49
(g70
g51
NtRp5171
(dp5172
g54
(dp5173
g74
g75
ssg63
g5167
sg56
(lp5174
S'postprocessing'
p5175
asbag49
(g70
g51
NtRp5176
(dp5177
g54
(dp5178
g81
g82
ssg63
g5167
sg56
(lp5179
S':'
asbag49
(g70
g51
NtRp5180
(dp5181
g54
(dp5182
sg63
g5167
sg56
(lp5183
g49
(g50
g51
NtRp5184
(dp5185
g54
(dp5186
g62
I5
ssg63
g5180
sg56
(lp5187
g49
(g58
g51
NtRp5188
(dp5189
g54
(dp5190
g62
I4
ssg63
Nsg56
(lp5191
sbasbasbasbag49
(g65
g51
NtRp5192
(dp5193
g54
(dp5194
sg63
g3299
sg56
(lp5195
g49
(g70
g51
NtRp5196
(dp5197
g54
(dp5198
g74
g75
ssg63
g5192
sg56
(lp5199
S'session_cookie_expires'
p5200
asbag49
(g70
g51
NtRp5201
(dp5202
g54
(dp5203
g81
g82
ssg63
g5192
sg56
(lp5204
S':'
asbag49
(g70
g51
NtRp5205
(dp5206
g54
(dp5207
sg63
g5192
sg56
(lp5208
g49
(g50
g51
NtRp5209
(dp5210
g54
(dp5211
g62
I5
ssg63
g5205
sg56
(lp5212
S'None'
p5213
asbasbasbag49
(g65
g51
NtRp5214
(dp5215
g54
(dp5216
sg63
g3299
sg56
(lp5217
g49
(g70
g51
NtRp5218
(dp5219
g54
(dp5220
g74
g75
ssg63
g5214
sg56
(lp5221
S'session_data_name'
p5222
asbag49
(g70
g51
NtRp5223
(dp5224
g54
(dp5225
g81
g82
ssg63
g5214
sg56
(lp5226
S':'
asbag49
(g70
g51
NtRp5227
(dp5228
g54
(dp5229
sg63
g5214
sg56
(lp5230
g49
(g50
g51
NtRp5231
(dp5232
g54
(dp5233
g62
I5
ssg63
g5227
sg56
(lp5234
S'session_data_hellow'
p5235
asbasbasbag49
(g65
g51
NtRp5236
(dp5237
g54
(dp5238
sg63
g3299
sg56
(lp5239
g49
(g70
g51
NtRp5240
(dp5241
g54
(dp5242
g74
g75
ssg63
g5236
sg56
(lp5243
S'session_file'
p5244
asbag49
(g70
g51
NtRp5245
(dp5246
g54
(dp5247
g81
g82
ssg63
g5236
sg56
(lp5248
S':'
asbag49
(g70
g51
NtRp5249
(dp5250
g54
(dp5251
sg63
g5236
sg56
(lp5252
g49
(g50
g51
NtRp5253
(dp5254
g54
(dp5255
g62
I5
ssg63
g5249
sg56
(lp5256
S"<open file '/Users/zamechek/Downloads/web2py/web2py.app/Contents/Resources/applications/hellow/sessions/127.0.0.1-bbea59f2-333e-4593-a45c-2c44a5133d77', mode 'rb+' at 0x958ade8>"
p5257
asbasbasbag49
(g65
g51
NtRp5258
(dp5259
g54
(dp5260
sg63
g3299
sg56
(lp5261
g49
(g70
g51
NtRp5262
(dp5263
g54
(dp5264
g74
g75
ssg63
g5258
sg56
(lp5265
S'session_filename'
p5266
asbag49
(g70
g51
NtRp5267
(dp5268
g54
(dp5269
g81
g82
ssg63
g5258
sg56
(lp5270
S':'
asbag49
(g70
g51
NtRp5271
(dp5272
g54
(dp5273
sg63
g5258
sg56
(lp5274
g49
(g50
g51
NtRp5275
(dp5276
g54
(dp5277
g62
I5
ssg63
g5271
sg56
(lp5278
S'/Users/zamechek/Downloads/web2py/web2py.app/Contents/Resources/applications/hellow/sessions/127.0.0.1-bbea59f2-333e-4593-a45c-2c44a5133d77'
p5279
asbasbasbag49
(g65
g51
NtRp5280
(dp5281
g54
(dp5282
sg63
g3299
sg56
(lp5283
g49
(g70
g51
NtRp5284
(dp5285
g54
(dp5286
g74
g75
ssg63
g5280
sg56
(lp5287
S'session_id'
p5288
asbag49
(g70
g51
NtRp5289
(dp5290
g54
(dp5291
g81
g82
ssg63
g5280
sg56
(lp5292
S':'
asbag49
(g70
g51
NtRp5293
(dp5294
g54
(dp5295
sg63
g5280
sg56
(lp5296
g49
(g50
g51
NtRp5297
(dp5298
g54
(dp5299
g62
I5
ssg63
g5293
sg56
(lp5300
g458
asbasbasbag49
(g65
g51
NtRp5301
(dp5302
g54
(dp5303
sg63
g3299
sg56
(lp5304
g49
(g70
g51
NtRp5305
(dp5306
g54
(dp5307
g74
g75
ssg63
g5301
sg56
(lp5308
S'session_id_name'
p5309
asbag49
(g70
g51
NtRp5310
(dp5311
g54
(dp5312
g81
g82
ssg63
g5301
sg56
(lp5313
S':'
asbag49
(g70
g51
NtRp5314
(dp5315
g54
(dp5316
sg63
g5301
sg56
(lp5317
g49
(g50
g51
NtRp5318
(dp5319
g54
(dp5320
g62
I5
ssg63
g5314
sg56
(lp5321
g3356
asbasbasbag49
(g65
g51
NtRp5322
(dp5323
g54
(dp5324
sg63
g3299
sg56
(lp5325
g49
(g70
g51
NtRp5326
(dp5327
g54
(dp5328
g74
g75
ssg63
g5322
sg56
(lp5329
S'session_locked'
p5330
asbag49
(g70
g51
NtRp5331
(dp5332
g54
(dp5333
g81
g82
ssg63
g5322
sg56
(lp5334
S':'
asbag49
(g70
g51
NtRp5335
(dp5336
g54
(dp5337
sg63
g5322
sg56
(lp5338
g49
(g50
g51
NtRp5339
(dp5340
g54
(dp5341
g62
I5
ssg63
g5335
sg56
(lp5342
g928
asbasbasbag49
(g65
g51
NtRp5343
(dp5344
g54
(dp5345
sg63
g3299
sg56
(lp5346
g49
(g70
g51
NtRp5347
(dp5348
g54
(dp5349
g74
g75
ssg63
g5343
sg56
(lp5350
S'session_new'
p5351
asbag49
(g70
g51
NtRp5352
(dp5353
g54
(dp5354
g81
g82
ssg63
g5343
sg56
(lp5355
S':'
asbag49
(g70
g51
NtRp5356
(dp5357
g54
(dp5358
sg63
g5343
sg56
(lp5359
g49
(g50
g51
NtRp5360
(dp5361
g54
(dp5362
g62
I5
ssg63
g5356
sg56
(lp5363
g92
asbasbasbag49
(g65
g51
NtRp5364
(dp5365
g54
(dp5366
sg63
g3299
sg56
(lp5367
g49
(g70
g51
NtRp5368
(dp5369
g54
(dp5370
g74
g75
ssg63
g5364
sg56
(lp5371
S'session_storage_type'
p5372
asbag49
(g70
g51
NtRp5373
(dp5374
g54
(dp5375
g81
g82
ssg63
g5364
sg56
(lp5376
S':'
asbag49
(g70
g51
NtRp5377
(dp5378
g54
(dp5379
sg63
g5364
sg56
(lp5380
g49
(g50
g51
NtRp5381
(dp5382
g54
(dp5383
g62
I5
ssg63
g5377
sg56
(lp5384
g3186
asbasbasbag49
(g65
g51
NtRp5385
(dp5386
g54
(dp5387
sg63
g3299
sg56
(lp5388
g49
(g70
g51
NtRp5389
(dp5390
g54
(dp5391
g74
g75
ssg63
g5385
sg56
(lp5392
S'status'
p5393
asbag49
(g70
g51
NtRp5394
(dp5395
g54
(dp5396
g81
g82
ssg63
g5385
sg56
(lp5397
S':'
asbag49
(g70
g51
NtRp5398
(dp5399
g54
(dp5400
sg63
g5385
sg56
(lp5401
g49
(g50
g51
NtRp5402
(dp5403
g54
(dp5404
g62
I5
ssg63
g5398
sg56
(lp5405
S'200'
p5406
asbasbasbag49
(g65
g51
NtRp5407
(dp5408
g54
(dp5409
sg63
g3299
sg56
(lp5410
g49
(g70
g51
NtRp5411
(dp5412
g54
(dp5413
g74
g75
ssg63
g5407
sg56
(lp5414
S'subtitle'
p5415
asbag49
(g70
g51
NtRp5416
(dp5417
g54
(dp5418
g81
g82
ssg63
g5407
sg56
(lp5419
S':'
asbag49
(g70
g51
NtRp5420
(dp5421
g54
(dp5422
sg63
g5407
sg56
(lp5423
g49
(g50
g51
NtRp5424
(dp5425
g54
(dp5426
g62
I5
ssg63
g5420
sg56
(lp5427
g3918
(S's\r\x00\x00\x00customize me!'
tRp5428
asbasbasbag49
(g65
g51
NtRp5429
(dp5430
g54
(dp5431
sg63
g3299
sg56
(lp5432
g49
(g70
g51
NtRp5433
(dp5434
g54
(dp5435
g74
g75
ssg63
g5429
sg56
(lp5436
S'title'
p5437
asbag49
(g70
g51
NtRp5438
(dp5439
g54
(dp5440
g81
g82
ssg63
g5429
sg56
(lp5441
S':'
asbag49
(g70
g51
NtRp5442
(dp5443
g54
(dp5444
sg63
g5429
sg56
(lp5445
g49
(g50
g51
NtRp5446
(dp5447
g54
(dp5448
g62
I5
ssg63
g5442
sg56
(lp5449
S'Hellow'
p5450
asbasbasbag49
(g65
g51
NtRp5451
(dp5452
g54
(dp5453
sg63
g3299
sg56
(lp5454
g49
(g70
g51
NtRp5455
(dp5456
g54
(dp5457
g74
g75
ssg63
g5451
sg56
(lp5458
S'view'
p5459
asbag49
(g70
g51
NtRp5460
(dp5461
g54
(dp5462
g81
g82
ssg63
g5451
sg56
(lp5463
S':'
asbag49
(g70
g51
NtRp5464
(dp5465
g54
(dp5466
sg63
g5451
sg56
(lp5467
g49
(g50
g51
NtRp5468
(dp5469
g54
(dp5470
g62
I5
ssg63
g5464
sg56
(lp5471
S'game/show.html'
p5472
asbasbasbasbasbsS'locals'
p5473
(dp5474
S'quote'
p5475
g928
sS'data'
p5476
S"<class 'gluon.dal.Rows'>"
p5477
sssS'traceback'
p5478
S'Traceback (most recent call last):\n  File "/home/mdipierro/web2py/gluon/restricted.py", line 212, in restricted\n  File "/Users/zamechek/Downloads/web2py/web2py.app/Contents/Resources/applications/hellow/views/game/show.html", line 101, in <module>\n  File "/home/mdipierro/web2py/gluon/globals.py", line 202, in write\n  File "/home/mdipierro/web2py/gluon/html.py", line 120, in xmlescape\nTypeError: unbound method xml() must be called with Rows instance as first argument (got nothing instead)\n'
p5479
s.