(dp1
S'output'
p2
S"<type 'exceptions.AttributeError'> 'Table' object has no attribute 'auth_user.first_name'"
p3
sS'layer'
p4
S'/Users/zamechek/Downloads/web2py/web2py.app/Contents/Resources/applications/hellow/controllers/appadmin.py'
p5
sS'code'
p6
S'# -*- coding: utf-8 -*-\n\n# ##########################################################\n# ## make sure administrator is on localhost\n# ###########################################################\n\nimport os\nimport socket\nimport datetime\nimport copy\nimport gluon.contenttype\nimport gluon.fileutils\n\ntry:\n    import pygraphviz as pgv\nexcept ImportError:\n    pgv = None\n\nresponse.subtitle = \'Database Administration (appadmin)\'\n\n# ## critical --- make a copy of the environment\n\nglobal_env = copy.copy(globals())\nglobal_env[\'datetime\'] = datetime\n\nhttp_host = request.env.http_host.split(\':\')[0]\nremote_addr = request.env.remote_addr\ntry:\n    hosts = (http_host, socket.gethostname(),\n             socket.gethostbyname(http_host),\n             \'::1\', \'127.0.0.1\', \'::ffff:127.0.0.1\')\nexcept:\n    hosts = (http_host, )\n\nif request.env.http_x_forwarded_for or request.is_https:\n    session.secure()\nelif (remote_addr not in hosts) and (remote_addr != "127.0.0.1"):\n    raise HTTP(200, T(\'appadmin is disabled because insecure channel\'))\n\nif (request.application == \'admin\' and not session.authorized) or \\\n        (request.application != \'admin\' and not gluon.fileutils.check_credentials(request)):\n    redirect(URL(\'admin\', \'default\', \'index\',\n                 vars=dict(send=URL(args=request.args, vars=request.vars))))\n\nignore_rw = True\nresponse.view = \'appadmin.html\'\nresponse.menu = [[T(\'design\'), False, URL(\'admin\', \'default\', \'design\',\n                 args=[request.application])], [T(\'db\'), False,\n                 URL(\'index\')], [T(\'state\'), False,\n                 URL(\'state\')], [T(\'cache\'), False,\n                 URL(\'ccache\')]]\n\n# ##########################################################\n# ## auxiliary functions\n# ###########################################################\n\n\ndef get_databases(request):\n    dbs = {}\n    for (key, value) in global_env.items():\n        cond = False\n        try:\n            cond = isinstance(value, GQLDB)\n        except:\n            cond = isinstance(value, SQLDB)\n        if cond:\n            dbs[key] = value\n    return dbs\n\n\ndatabases = get_databases(None)\n\n\ndef eval_in_global_env(text):\n    exec (\'_ret=%s\' % text, {}, global_env)\n    return global_env[\'_ret\']\n\n\ndef get_database(request):\n    if request.args and request.args[0] in databases:\n        return eval_in_global_env(request.args[0])\n    else:\n        session.flash = T(\'invalid request\')\n        redirect(URL(\'index\'))\n\n\ndef get_table(request):\n    db = get_database(request)\n    if len(request.args) > 1 and request.args[1] in db.tables:\n        return (db, request.args[1])\n    else:\n        session.flash = T(\'invalid request\')\n        redirect(URL(\'index\'))\n\n\ndef get_query(request):\n    try:\n        return eval_in_global_env(request.vars.query)\n    except Exception:\n        return None\n\n\ndef query_by_table_type(tablename, db, request=request):\n    keyed = hasattr(db[tablename], \'_primarykey\')\n    if keyed:\n        firstkey = db[tablename][db[tablename]._primarykey[0]]\n        cond = \'>0\'\n        if firstkey.type in [\'string\', \'text\']:\n            cond = \'!=""\'\n        qry = \'%s.%s.%s%s\' % (\n            request.args[0], request.args[1], firstkey.name, cond)\n    else:\n        qry = \'%s.%s.id>0\' % tuple(request.args[:2])\n    return qry\n\n\n# ##########################################################\n# ## list all databases and tables\n# ###########################################################\ndef index():\n    return dict(databases=databases)\n\n\n# ##########################################################\n# ## insert a new record\n# ###########################################################\n\n\ndef insert():\n    (db, table) = get_table(request)\n    form = SQLFORM(db[table], ignore_rw=ignore_rw)\n    if form.accepts(request.vars, session):\n        response.flash = T(\'new record inserted\')\n    return dict(form=form, table=db[table])\n\n\n# ##########################################################\n# ## list all records in table and insert new record\n# ###########################################################\n\n\ndef download():\n    import os\n    db = get_database(request)\n    return response.download(request, db)\n\n\ndef csv():\n    import gluon.contenttype\n    response.headers[\'Content-Type\'] = \\\n        gluon.contenttype.contenttype(\'.csv\')\n    db = get_database(request)\n    query = get_query(request)\n    if not query:\n        return None\n    response.headers[\'Content-disposition\'] = \'attachment; filename=%s_%s.csv\'\\\n        % tuple(request.vars.query.split(\'.\')[:2])\n    return str(db(query, ignore_common_filters=True).select())\n\n\ndef import_csv(table, file):\n    table.import_from_csv_file(file)\n\n\ndef select():\n    import re\n    db = get_database(request)\n    dbname = request.args[0]\n    regex = re.compile(\'(?P<table>\\w+)\\.(?P<field>\\w+)=(?P<value>\\d+)\')\n    if len(request.args) > 1 and hasattr(db[request.args[1]], \'_primarykey\'):\n        regex = re.compile(\'(?P<table>\\w+)\\.(?P<field>\\w+)=(?P<value>.+)\')\n    if request.vars.query:\n        match = regex.match(request.vars.query)\n        if match:\n            request.vars.query = \'%s.%s.%s==%s\' % (request.args[0],\n                                                   match.group(\'table\'), match.group(\'field\'),\n                                                   match.group(\'value\'))\n    else:\n        request.vars.query = session.last_query\n    query = get_query(request)\n    if request.vars.start:\n        start = int(request.vars.start)\n    else:\n        start = 0\n    nrows = 0\n    stop = start + 100\n    table = None\n    rows = []\n    orderby = request.vars.orderby\n    if orderby:\n        orderby = dbname + \'.\' + orderby\n        if orderby == session.last_orderby:\n            if orderby[0] == \'~\':\n                orderby = orderby[1:]\n            else:\n                orderby = \'~\' + orderby\n    session.last_orderby = orderby\n    session.last_query = request.vars.query\n    form = FORM(TABLE(TR(T(\'Query:\'), \'\', INPUT(_style=\'width:400px\',\n                _name=\'query\', _value=request.vars.query or \'\',\n                requires=IS_NOT_EMPTY(\n                    error_message=T("Cannot be empty")))), TR(T(\'Update:\'),\n                INPUT(_name=\'update_check\', _type=\'checkbox\',\n                value=False), INPUT(_style=\'width:400px\',\n                _name=\'update_fields\', _value=request.vars.update_fields\n                                    or \'\')), TR(T(\'Delete:\'), INPUT(_name=\'delete_check\',\n                _class=\'delete\', _type=\'checkbox\', value=False), \'\'),\n                TR(\'\', \'\', INPUT(_type=\'submit\', _value=T(\'submit\')))),\n                _action=URL(r=request, args=request.args))\n\n    tb = None\n    if form.accepts(request.vars, formname=None):\n        regex = re.compile(request.args[0] + \'\\.(?P<table>\\w+)\\..+\')\n        match = regex.match(form.vars.query.strip())\n        if match:\n            table = match.group(\'table\')\n        try:\n            nrows = db(query).count()\n            if form.vars.update_check and form.vars.update_fields:\n                db(query).update(**eval_in_global_env(\'dict(%s)\'\n                                                      % form.vars.update_fields))\n                response.flash = T(\'%s %%{row} updated\', nrows)\n            elif form.vars.delete_check:\n                db(query).delete()\n                response.flash = T(\'%s %%{row} deleted\', nrows)\n            nrows = db(query).count()\n            if orderby:\n                rows = db(query, ignore_common_filters=True).select(limitby=(\n                    start, stop), orderby=eval_in_global_env(orderby))\n            else:\n                rows = db(query, ignore_common_filters=True).select(\n                    limitby=(start, stop))\n        except Exception, e:\n            import traceback\n            tb = traceback.format_exc()\n            (rows, nrows) = ([], 0)\n            response.flash = DIV(T(\'Invalid Query\'), PRE(str(e)))\n    # begin handle upload csv\n    csv_table = table or request.vars.table\n    if csv_table:\n        formcsv = FORM(str(T(\'or import from csv file\')) + " ",\n                       INPUT(_type=\'file\', _name=\'csvfile\'),\n                       INPUT(_type=\'hidden\', _value=csv_table, _name=\'table\'),\n                       INPUT(_type=\'submit\', _value=T(\'import\')))\n    else:\n        formcsv = None\n    if formcsv and formcsv.process().accepted:\n        try:\n            import_csv(db[request.vars.table],\n                       request.vars.csvfile.file)\n            response.flash = T(\'data uploaded\')\n        except Exception, e:\n            response.flash = DIV(T(\'unable to parse csv file\'), PRE(str(e)))\n    # end handle upload csv\n\n    return dict(\n        form=form,\n        table=table,\n        start=start,\n        stop=stop,\n        nrows=nrows,\n        rows=rows,\n        query=request.vars.query,\n        formcsv=formcsv,\n        tb=tb,\n    )\n\n\n# ##########################################################\n# ## edit delete one record\n# ###########################################################\n\n\ndef update():\n    (db, table) = get_table(request)\n    keyed = hasattr(db[table], \'_primarykey\')\n    record = None\n    if keyed:\n        key = [f for f in request.vars if f in db[table]._primarykey]\n        if key:\n            record = db(db[table][key[0]] == request.vars[key[\n                        0]], ignore_common_filters=True).select().first()\n    else:\n        record = db(db[table].id == request.args(\n            2), ignore_common_filters=True).select().first()\n\n    if not record:\n        qry = query_by_table_type(table, db)\n        session.flash = T(\'record does not exist\')\n        redirect(URL(\'select\', args=request.args[:1],\n                     vars=dict(query=qry)))\n\n    if keyed:\n        for k in db[table]._primarykey:\n            db[table][k].writable = False\n\n    form = SQLFORM(\n        db[table], record, deletable=True, delete_label=T(\'Check to delete\'),\n        ignore_rw=ignore_rw and not keyed,\n        linkto=URL(\'select\',\n                   args=request.args[:1]), upload=URL(r=request,\n                                                      f=\'download\', args=request.args[:1]))\n\n    if form.accepts(request.vars, session):\n        session.flash = T(\'done!\')\n        qry = query_by_table_type(table, db)\n        redirect(URL(\'select\', args=request.args[:1],\n                 vars=dict(query=qry)))\n    return dict(form=form, table=db[table])\n\n\n# ##########################################################\n# ## get global variables\n# ###########################################################\n\n\ndef state():\n    return dict()\n\n\ndef ccache():\n    cache.ram.initialize()\n    cache.disk.initialize()\n\n    form = FORM(\n        P(TAG.BUTTON(\n            T("Clear CACHE?"), _type="submit", _name="yes", _value="yes")),\n        P(TAG.BUTTON(\n            T("Clear RAM"), _type="submit", _name="ram", _value="ram")),\n        P(TAG.BUTTON(\n            T("Clear DISK"), _type="submit", _name="disk", _value="disk")),\n    )\n\n    if form.accepts(request.vars, session):\n        clear_ram = False\n        clear_disk = False\n        session.flash = ""\n        if request.vars.yes:\n            clear_ram = clear_disk = True\n        if request.vars.ram:\n            clear_ram = True\n        if request.vars.disk:\n            clear_disk = True\n\n        if clear_ram:\n            cache.ram.clear()\n            session.flash += T("Ram Cleared")\n        if clear_disk:\n            cache.disk.clear()\n            session.flash += T("Disk Cleared")\n\n        redirect(URL(r=request))\n\n    try:\n        from guppy import hpy\n        hp = hpy()\n    except ImportError:\n        hp = False\n\n    import shelve\n    import os\n    import copy\n    import time\n    import math\n    from gluon import portalocker\n\n    ram = {\n        \'entries\': 0,\n        \'bytes\': 0,\n        \'objects\': 0,\n        \'hits\': 0,\n        \'misses\': 0,\n        \'ratio\': 0,\n        \'oldest\': time.time(),\n        \'keys\': []\n    }\n    disk = copy.copy(ram)\n    total = copy.copy(ram)\n    disk[\'keys\'] = []\n    total[\'keys\'] = []\n\n    def GetInHMS(seconds):\n        hours = math.floor(seconds / 3600)\n        seconds -= hours * 3600\n        minutes = math.floor(seconds / 60)\n        seconds -= minutes * 60\n        seconds = math.floor(seconds)\n\n        return (hours, minutes, seconds)\n\n    for key, value in cache.ram.storage.iteritems():\n        if isinstance(value, dict):\n            ram[\'hits\'] = value[\'hit_total\'] - value[\'misses\']\n            ram[\'misses\'] = value[\'misses\']\n            try:\n                ram[\'ratio\'] = ram[\'hits\'] * 100 / value[\'hit_total\']\n            except (KeyError, ZeroDivisionError):\n                ram[\'ratio\'] = 0\n        else:\n            if hp:\n                ram[\'bytes\'] += hp.iso(value[1]).size\n                ram[\'objects\'] += hp.iso(value[1]).count\n            ram[\'entries\'] += 1\n            if value[0] < ram[\'oldest\']:\n                ram[\'oldest\'] = value[0]\n            ram[\'keys\'].append((key, GetInHMS(time.time() - value[0])))\n    folder = os.path.join(request.folder,\'cache\')\n    if not os.path.exists(folder):\n        os.mkdir(folder)\n    locker = open(os.path.join(folder, \'cache.lock\'), \'a\')\n    portalocker.lock(locker, portalocker.LOCK_EX)\n    disk_storage = shelve.open(\n        os.path.join(folder, \'cache.shelve\'))\n    try:\n        for key, value in disk_storage.items():\n            if isinstance(value, dict):\n                disk[\'hits\'] = value[\'hit_total\'] - value[\'misses\']\n                disk[\'misses\'] = value[\'misses\']\n                try:\n                    disk[\'ratio\'] = disk[\'hits\'] * 100 / value[\'hit_total\']\n                except (KeyError, ZeroDivisionError):\n                    disk[\'ratio\'] = 0\n            else:\n                if hp:\n                    disk[\'bytes\'] += hp.iso(value[1]).size\n                    disk[\'objects\'] += hp.iso(value[1]).count\n                disk[\'entries\'] += 1\n                if value[0] < disk[\'oldest\']:\n                    disk[\'oldest\'] = value[0]\n                disk[\'keys\'].append((key, GetInHMS(time.time() - value[0])))\n\n    finally:\n        portalocker.unlock(locker)\n        locker.close()\n        disk_storage.close()\n\n    total[\'entries\'] = ram[\'entries\'] + disk[\'entries\']\n    total[\'bytes\'] = ram[\'bytes\'] + disk[\'bytes\']\n    total[\'objects\'] = ram[\'objects\'] + disk[\'objects\']\n    total[\'hits\'] = ram[\'hits\'] + disk[\'hits\']\n    total[\'misses\'] = ram[\'misses\'] + disk[\'misses\']\n    total[\'keys\'] = ram[\'keys\'] + disk[\'keys\']\n    try:\n        total[\'ratio\'] = total[\'hits\'] * 100 / (total[\'hits\'] +\n                                                total[\'misses\'])\n    except (KeyError, ZeroDivisionError):\n        total[\'ratio\'] = 0\n\n    if disk[\'oldest\'] < ram[\'oldest\']:\n        total[\'oldest\'] = disk[\'oldest\']\n    else:\n        total[\'oldest\'] = ram[\'oldest\']\n\n    ram[\'oldest\'] = GetInHMS(time.time() - ram[\'oldest\'])\n    disk[\'oldest\'] = GetInHMS(time.time() - disk[\'oldest\'])\n    total[\'oldest\'] = GetInHMS(time.time() - total[\'oldest\'])\n\n    def key_table(keys):\n        return TABLE(\n            TR(TD(B(T(\'Key\'))), TD(B(T(\'Time in Cache (h:m:s)\')))),\n            *[TR(TD(k[0]), TD(\'%02d:%02d:%02d\' % k[1])) for k in keys],\n            **dict(_class=\'cache-keys\',\n                   _style="border-collapse: separate; border-spacing: .5em;"))\n\n    ram[\'keys\'] = key_table(ram[\'keys\'])\n    disk[\'keys\'] = key_table(disk[\'keys\'])\n    total[\'keys\'] = key_table(total[\'keys\'])\n\n    return dict(form=form, total=total,\n                ram=ram, disk=disk, object_stats=hp != False)\n\n\ndef table_template(table):\n    from gluon.html import TR, TD, TABLE, TAG\n\n    def FONT(*args, **kwargs):\n        return TAG.font(*args, **kwargs)\n\n    def types(field):\n        f_type = field.type\n        if not isinstance(f_type,str):\n            return \' \'\n        elif f_type == \'string\':\n            return field.length\n        elif f_type == \'id\':\n            return B(\'pk\')\n        elif f_type.startswith(\'reference\') or \\\n                f_type.startswith(\'list:reference\'):\n            return B(\'fk\')\n        else:\n            return \' \'\n\n    # This is horribe HTML but the only one graphiz understands\n    rows = []\n    cellpadding = 4\n    color = "#000000"\n    bgcolor = "#FFFFFF"\n    face = "Helvetica"\n    face_bold = "Helvetica Bold"\n    border = 0\n\n    rows.append(TR(TD(FONT(table, _face=face_bold, _color=bgcolor),\n                           _colspan=3, _cellpadding=cellpadding,\n                           _align="center", _bgcolor=color)))\n    for row in db[table]:\n        rows.append(TR(TD(FONT(row.name, _color=color, _face=face_bold),\n                              _align="left", _cellpadding=cellpadding,\n                              _border=border),\n                       TD(FONT(row.type, _color=color, _face=face),\n                               _align="left", _cellpadding=cellpadding,\n                               _border=border),\n                       TD(FONT(types(row), _color=color, _face=face),\n                               _align="center", _cellpadding=cellpadding,\n                               _border=border)))\n    return "< %s >" % TABLE(*rows, **dict(_bgcolor=bgcolor, _border=1,\n                                          _cellborder=0, _cellspacing=0)\n                             ).xml()\n\n\ndef bg_graph_model():\n    graph = pgv.AGraph(layout=\'dot\',  directed=True,  strict=False,  rankdir=\'LR\')\n    \n    subgraphs = dict()    \n    for tablename in db.tables:\n        if hasattr(db[tablename],\'_meta_graphmodel\'):\n            meta_graphmodel = db[tablename]._meta_graphmodel\n        else:\n            meta_graphmodel = dict(group=\'Undefined\', color=\'#ECECEC\')\n        \n        group = meta_graphmodel[\'group\'].replace(\' \', \'\') \n        if not subgraphs.has_key(group):\n            subgraphs[group] = dict(meta=meta_graphmodel, tables=[])\n            subgraphs[group][\'tables\'].append(tablename)\n        else:\n            subgraphs[group][\'tables\'].append(tablename)        \n      \n        graph.add_node(tablename, name=tablename, shape=\'plaintext\',\n                       label=table_template(tablename))\n    \n    for n, key in enumerate(subgraphs.iterkeys()):        \n        graph.subgraph(nbunch=subgraphs[key][\'tables\'],\n                    name=\'cluster%d\' % n,\n                    style=\'filled\',\n                    color=subgraphs[key][\'meta\'][\'color\'],\n                    label=subgraphs[key][\'meta\'][\'group\'])   \n\n    for tablename in db.tables:\n        for field in db[tablename]:\n            f_type = field.type\n            if isinstance(f_type,str) and (\n                f_type.startswith(\'reference\') or\n                f_type.startswith(\'list:reference\')):\n                referenced_table = f_type.split()[1].split(\'.\')[0]\n                n1 = graph.get_node(tablename)\n                n2 = graph.get_node(referenced_table)\n                graph.add_edge(n1, n2, color="#4C4C4C", label=\'\')\n\n    graph.layout()\n    #return graph.draw(format=\'png\', prog=\'dot\')\n    if not request.args:\n        return graph.draw(format=\'png\', prog=\'dot\')\n    else:       \n        response.headers[\'Content-Disposition\']=\'attachment;filename=graph.%s\'%request.args(0)\n        if request.args(0) == \'dot\':        \n            return graph.string()\n        else:\n            return graph.draw(format=request.args(0), prog=\'dot\')\n\ndef graph_model():    \n    return dict(databases=databases, pgv=pgv)\n\nresponse._vars=response._caller(insert)\n'
p7
sS'snapshot'
p8
(dp9
S'exception'
p10
(dp11
S'__hash__'
p12
S"<method-wrapper '__hash__' of exceptions.AttributeError object at 0xb810a80>"
p13
sS'__setattr__'
p14
S"<method-wrapper '__setattr__' of exceptions.AttributeError object at 0xb810a80>"
p15
sS'__reduce_ex__'
p16
S'<built-in method __reduce_ex__ of exceptions.AttributeError object at 0xb810a80>'
p17
sS'__getslice__'
p18
S"<method-wrapper '__getslice__' of exceptions.AttributeError object at 0xb810a80>"
p19
sS'__getitem__'
p20
S"<method-wrapper '__getitem__' of exceptions.AttributeError object at 0xb810a80>"
p21
sS'__setstate__'
p22
S'<built-in method __setstate__ of exceptions.AttributeError object at 0xb810a80>'
p23
sS'__reduce__'
p24
S'<built-in method __reduce__ of exceptions.AttributeError object at 0xb810a80>'
p25
sS'__str__'
p26
S"<method-wrapper '__str__' of exceptions.AttributeError object at 0xb810a80>"
p27
sS'args'
p28
S'("\'Table\' object has no attribute \'auth_user.first_name\'",)'
p29
sS'__getattribute__'
p30
S"<method-wrapper '__getattribute__' of exceptions.AttributeError object at 0xb810a80>"
p31
sS'__class__'
p32
S"<type 'exceptions.AttributeError'>"
p33
sS'__delattr__'
p34
S"<method-wrapper '__delattr__' of exceptions.AttributeError object at 0xb810a80>"
p35
sS'__repr__'
p36
S"<method-wrapper '__repr__' of exceptions.AttributeError object at 0xb810a80>"
p37
sS'__dict__'
p38
S'{}'
p39
sS'__doc__'
p40
S"'Attribute not found.'"
p41
sS'__init__'
p42
S"<method-wrapper '__init__' of exceptions.AttributeError object at 0xb810a80>"
p43
sS'__new__'
p44
S'<built-in method __new__ of type object at 0x5f94a0>'
p45
ssS'evalue'
p46
S"'Table' object has no attribute 'auth_user.first_name'"
p47
sS'request'
p48
ccopy_reg
_reconstructor
p49
(cgluon.html
BEAUTIFY
p50
c__builtin__
object
p51
NtRp52
(dp53
S'attributes'
p54
(dp55
sS'components'
p56
(lp57
g49
(cgluon.html
TABLE
p58
g51
NtRp59
(dp60
g54
(dp61
S'level'
p62
I5
ssS'parent'
p63
Nsg56
(lp64
g49
(cgluon.html
TR
p65
g51
NtRp66
(dp67
g54
(dp68
sg63
g59
sg56
(lp69
g49
(cgluon.html
TD
p70
g51
NtRp71
(dp72
g54
(dp73
S'_style'
p74
S'font-weight:bold;vertical-align:top'
p75
ssg63
g66
sg56
(lp76
S'ajax'
p77
asbag49
(g70
g51
NtRp78
(dp79
g54
(dp80
S'_valign'
p81
S'top'
p82
ssg63
g66
sg56
(lp83
S':'
asbag49
(g70
g51
NtRp84
(dp85
g54
(dp86
sg63
g66
sg56
(lp87
g49
(g50
g51
NtRp88
(dp89
g54
(dp90
g62
I5
ssg63
g84
sg56
(lp91
S'False'
p92
asbasbasbag49
(g65
g51
NtRp93
(dp94
g54
(dp95
sg63
g59
sg56
(lp96
g49
(g70
g51
NtRp97
(dp98
g54
(dp99
g74
g75
ssg63
g93
sg56
(lp100
S'application'
p101
asbag49
(g70
g51
NtRp102
(dp103
g54
(dp104
g81
g82
ssg63
g93
sg56
(lp105
S':'
asbag49
(g70
g51
NtRp106
(dp107
g54
(dp108
sg63
g93
sg56
(lp109
g49
(g50
g51
NtRp110
(dp111
g54
(dp112
g62
I5
ssg63
g106
sg56
(lp113
S'hellow'
p114
asbasbasbag49
(g65
g51
NtRp115
(dp116
g54
(dp117
sg63
g59
sg56
(lp118
g49
(g70
g51
NtRp119
(dp120
g54
(dp121
g74
g75
ssg63
g115
sg56
(lp122
g28
asbag49
(g70
g51
NtRp123
(dp124
g54
(dp125
g81
g82
ssg63
g115
sg56
(lp126
S':'
asbag49
(g70
g51
NtRp127
(dp128
g54
(dp129
sg63
g115
sg56
(lp130
g49
(g50
g51
NtRp131
(dp132
g54
(dp133
g62
I5
ssg63
g127
sg56
(lp134
g49
(g58
g51
NtRp135
(dp136
g54
(dp137
g62
I4
ssg63
Nsg56
(lp138
g49
(g65
g51
NtRp139
(dp140
g54
(dp141
sg63
g135
sg56
(lp142
g49
(g70
g51
NtRp143
(dp144
g54
(dp145
sg63
g139
sg56
(lp146
g49
(g50
g51
NtRp147
(dp148
g54
(dp149
g62
I4
ssg63
g143
sg56
(lp150
S'db'
p151
asbasbasbag49
(g65
g51
NtRp152
(dp153
g54
(dp154
sg63
g135
sg56
(lp155
g49
(g70
g51
NtRp156
(dp157
g54
(dp158
sg63
g152
sg56
(lp159
g49
(g50
g51
NtRp160
(dp161
g54
(dp162
g62
I4
ssg63
g156
sg56
(lp163
S'game_slots'
p164
asbasbasbasbasbasbasbag49
(g65
g51
NtRp165
(dp166
g54
(dp167
sg63
g59
sg56
(lp168
g49
(g70
g51
NtRp169
(dp170
g54
(dp171
g74
g75
ssg63
g165
sg56
(lp172
S'body'
p173
asbag49
(g70
g51
NtRp174
(dp175
g54
(dp176
g81
g82
ssg63
g165
sg56
(lp177
S':'
asbag49
(g70
g51
NtRp178
(dp179
g54
(dp180
sg63
g165
sg56
(lp181
g49
(g50
g51
NtRp182
(dp183
g54
(dp184
g62
I5
ssg63
g178
sg56
(lp185
S'<cStringIO.StringO object at 0xaaddca0>'
p186
asbasbasbag49
(g65
g51
NtRp187
(dp188
g54
(dp189
sg63
g59
sg56
(lp190
g49
(g70
g51
NtRp191
(dp192
g54
(dp193
g74
g75
ssg63
g187
sg56
(lp194
S'cid'
p195
asbag49
(g70
g51
NtRp196
(dp197
g54
(dp198
g81
g82
ssg63
g187
sg56
(lp199
S':'
asbag49
(g70
g51
NtRp200
(dp201
g54
(dp202
sg63
g187
sg56
(lp203
g49
(g50
g51
NtRp204
(dp205
g54
(dp206
g62
I5
ssg63
g200
sg56
(lp207
S'None'
p208
asbasbasbag49
(g65
g51
NtRp209
(dp210
g54
(dp211
sg63
g59
sg56
(lp212
g49
(g70
g51
NtRp213
(dp214
g54
(dp215
g74
g75
ssg63
g209
sg56
(lp216
S'client'
p217
asbag49
(g70
g51
NtRp218
(dp219
g54
(dp220
g81
g82
ssg63
g209
sg56
(lp221
S':'
asbag49
(g70
g51
NtRp222
(dp223
g54
(dp224
sg63
g209
sg56
(lp225
g49
(g50
g51
NtRp226
(dp227
g54
(dp228
g62
I5
ssg63
g222
sg56
(lp229
S'127.0.0.1'
p230
asbasbasbag49
(g65
g51
NtRp231
(dp232
g54
(dp233
sg63
g59
sg56
(lp234
g49
(g70
g51
NtRp235
(dp236
g54
(dp237
g74
g75
ssg63
g231
sg56
(lp238
S'controller'
p239
asbag49
(g70
g51
NtRp240
(dp241
g54
(dp242
g81
g82
ssg63
g231
sg56
(lp243
S':'
asbag49
(g70
g51
NtRp244
(dp245
g54
(dp246
sg63
g231
sg56
(lp247
g49
(g50
g51
NtRp248
(dp249
g54
(dp250
g62
I5
ssg63
g244
sg56
(lp251
S'appadmin'
p252
asbasbasbag49
(g65
g51
NtRp253
(dp254
g54
(dp255
sg63
g59
sg56
(lp256
g49
(g70
g51
NtRp257
(dp258
g54
(dp259
g74
g75
ssg63
g253
sg56
(lp260
S'cookies'
p261
asbag49
(g70
g51
NtRp262
(dp263
g54
(dp264
g81
g82
ssg63
g253
sg56
(lp265
S':'
asbag49
(g70
g51
NtRp266
(dp267
g54
(dp268
sg63
g253
sg56
(lp269
g49
(g50
g51
NtRp270
(dp271
g54
(dp272
g62
I5
ssg63
g266
sg56
(lp273
g49
(g58
g51
NtRp274
(dp275
g54
(dp276
g62
I4
ssg63
Nsg56
(lp277
g49
(g65
g51
NtRp278
(dp279
g54
(dp280
sg63
g274
sg56
(lp281
g49
(g70
g51
NtRp282
(dp283
g54
(dp284
g74
g75
ssg63
g278
sg56
(lp285
S'session_id_admin'
p286
asbag49
(g70
g51
NtRp287
(dp288
g54
(dp289
g81
g82
ssg63
g278
sg56
(lp290
S':'
asbag49
(g70
g51
NtRp291
(dp292
g54
(dp293
sg63
g278
sg56
(lp294
g49
(g50
g51
NtRp295
(dp296
g54
(dp297
g62
I4
ssg63
g291
sg56
(lp298
S'127.0.0.1-bf448199-cadc-41e3-b1a7-bed302e89a3e'
p299
ag49
(g58
g51
NtRp300
(dp301
g54
(dp302
g62
I3
ssg63
Nsg56
(lp303
g49
(g65
g51
NtRp304
(dp305
g54
(dp306
sg63
g300
sg56
(lp307
g49
(g70
g51
NtRp308
(dp309
g54
(dp310
g74
g75
ssg63
g304
sg56
(lp311
S'comment'
p312
asbag49
(g70
g51
NtRp313
(dp314
g54
(dp315
g81
g82
ssg63
g304
sg56
(lp316
S':'
asbag49
(g70
g51
NtRp317
(dp318
g54
(dp319
sg63
g304
sg56
(lp320
g49
(g50
g51
NtRp321
(dp322
g54
(dp323
g62
I3
ssg63
g317
sg56
(lp324
S''
asbasbasbag49
(g65
g51
NtRp325
(dp326
g54
(dp327
sg63
g300
sg56
(lp328
g49
(g70
g51
NtRp329
(dp330
g54
(dp331
g74
g75
ssg63
g325
sg56
(lp332
S'domain'
p333
asbag49
(g70
g51
NtRp334
(dp335
g54
(dp336
g81
g82
ssg63
g325
sg56
(lp337
S':'
asbag49
(g70
g51
NtRp338
(dp339
g54
(dp340
sg63
g325
sg56
(lp341
g49
(g50
g51
NtRp342
(dp343
g54
(dp344
g62
I3
ssg63
g338
sg56
(lp345
S''
asbasbasbag49
(g65
g51
NtRp346
(dp347
g54
(dp348
sg63
g300
sg56
(lp349
g49
(g70
g51
NtRp350
(dp351
g54
(dp352
g74
g75
ssg63
g346
sg56
(lp353
S'expires'
p354
asbag49
(g70
g51
NtRp355
(dp356
g54
(dp357
g81
g82
ssg63
g346
sg56
(lp358
S':'
asbag49
(g70
g51
NtRp359
(dp360
g54
(dp361
sg63
g346
sg56
(lp362
g49
(g50
g51
NtRp363
(dp364
g54
(dp365
g62
I3
ssg63
g359
sg56
(lp366
S''
asbasbasbag49
(g65
g51
NtRp367
(dp368
g54
(dp369
sg63
g300
sg56
(lp370
g49
(g70
g51
NtRp371
(dp372
g54
(dp373
g74
g75
ssg63
g367
sg56
(lp374
S'max-age'
p375
asbag49
(g70
g51
NtRp376
(dp377
g54
(dp378
g81
g82
ssg63
g367
sg56
(lp379
S':'
asbag49
(g70
g51
NtRp380
(dp381
g54
(dp382
sg63
g367
sg56
(lp383
g49
(g50
g51
NtRp384
(dp385
g54
(dp386
g62
I3
ssg63
g380
sg56
(lp387
S''
asbasbasbag49
(g65
g51
NtRp388
(dp389
g54
(dp390
sg63
g300
sg56
(lp391
g49
(g70
g51
NtRp392
(dp393
g54
(dp394
g74
g75
ssg63
g388
sg56
(lp395
S'path'
p396
asbag49
(g70
g51
NtRp397
(dp398
g54
(dp399
g81
g82
ssg63
g388
sg56
(lp400
S':'
asbag49
(g70
g51
NtRp401
(dp402
g54
(dp403
sg63
g388
sg56
(lp404
g49
(g50
g51
NtRp405
(dp406
g54
(dp407
g62
I3
ssg63
g401
sg56
(lp408
S''
asbasbasbag49
(g65
g51
NtRp409
(dp410
g54
(dp411
sg63
g300
sg56
(lp412
g49
(g70
g51
NtRp413
(dp414
g54
(dp415
g74
g75
ssg63
g409
sg56
(lp416
S'secure'
p417
asbag49
(g70
g51
NtRp418
(dp419
g54
(dp420
g81
g82
ssg63
g409
sg56
(lp421
S':'
asbag49
(g70
g51
NtRp422
(dp423
g54
(dp424
sg63
g409
sg56
(lp425
g49
(g50
g51
NtRp426
(dp427
g54
(dp428
g62
I3
ssg63
g422
sg56
(lp429
S''
asbasbasbag49
(g65
g51
NtRp430
(dp431
g54
(dp432
sg63
g300
sg56
(lp433
g49
(g70
g51
NtRp434
(dp435
g54
(dp436
g74
g75
ssg63
g430
sg56
(lp437
S'version'
p438
asbag49
(g70
g51
NtRp439
(dp440
g54
(dp441
g81
g82
ssg63
g430
sg56
(lp442
S':'
asbag49
(g70
g51
NtRp443
(dp444
g54
(dp445
sg63
g430
sg56
(lp446
g49
(g50
g51
NtRp447
(dp448
g54
(dp449
g62
I3
ssg63
g443
sg56
(lp450
S''
asbasbasbasbasbasbasbag49
(g65
g51
NtRp451
(dp452
g54
(dp453
sg63
g274
sg56
(lp454
g49
(g70
g51
NtRp455
(dp456
g54
(dp457
g74
g75
ssg63
g451
sg56
(lp458
S'session_id_hellow'
p459
asbag49
(g70
g51
NtRp460
(dp461
g54
(dp462
g81
g82
ssg63
g451
sg56
(lp463
S':'
asbag49
(g70
g51
NtRp464
(dp465
g54
(dp466
sg63
g451
sg56
(lp467
g49
(g50
g51
NtRp468
(dp469
g54
(dp470
g62
I4
ssg63
g464
sg56
(lp471
S'127.0.0.1-bbea59f2-333e-4593-a45c-2c44a5133d77'
p472
ag49
(g58
g51
NtRp473
(dp474
g54
(dp475
g62
I3
ssg63
Nsg56
(lp476
g49
(g65
g51
NtRp477
(dp478
g54
(dp479
sg63
g473
sg56
(lp480
g49
(g70
g51
NtRp481
(dp482
g54
(dp483
g74
g75
ssg63
g477
sg56
(lp484
g312
asbag49
(g70
g51
NtRp485
(dp486
g54
(dp487
g81
g82
ssg63
g477
sg56
(lp488
S':'
asbag49
(g70
g51
NtRp489
(dp490
g54
(dp491
sg63
g477
sg56
(lp492
g49
(g50
g51
NtRp493
(dp494
g54
(dp495
g62
I3
ssg63
g489
sg56
(lp496
S''
asbasbasbag49
(g65
g51
NtRp497
(dp498
g54
(dp499
sg63
g473
sg56
(lp500
g49
(g70
g51
NtRp501
(dp502
g54
(dp503
g74
g75
ssg63
g497
sg56
(lp504
g333
asbag49
(g70
g51
NtRp505
(dp506
g54
(dp507
g81
g82
ssg63
g497
sg56
(lp508
S':'
asbag49
(g70
g51
NtRp509
(dp510
g54
(dp511
sg63
g497
sg56
(lp512
g49
(g50
g51
NtRp513
(dp514
g54
(dp515
g62
I3
ssg63
g509
sg56
(lp516
S''
asbasbasbag49
(g65
g51
NtRp517
(dp518
g54
(dp519
sg63
g473
sg56
(lp520
g49
(g70
g51
NtRp521
(dp522
g54
(dp523
g74
g75
ssg63
g517
sg56
(lp524
g354
asbag49
(g70
g51
NtRp525
(dp526
g54
(dp527
g81
g82
ssg63
g517
sg56
(lp528
S':'
asbag49
(g70
g51
NtRp529
(dp530
g54
(dp531
sg63
g517
sg56
(lp532
g49
(g50
g51
NtRp533
(dp534
g54
(dp535
g62
I3
ssg63
g529
sg56
(lp536
S''
asbasbasbag49
(g65
g51
NtRp537
(dp538
g54
(dp539
sg63
g473
sg56
(lp540
g49
(g70
g51
NtRp541
(dp542
g54
(dp543
g74
g75
ssg63
g537
sg56
(lp544
g375
asbag49
(g70
g51
NtRp545
(dp546
g54
(dp547
g81
g82
ssg63
g537
sg56
(lp548
S':'
asbag49
(g70
g51
NtRp549
(dp550
g54
(dp551
sg63
g537
sg56
(lp552
g49
(g50
g51
NtRp553
(dp554
g54
(dp555
g62
I3
ssg63
g549
sg56
(lp556
S''
asbasbasbag49
(g65
g51
NtRp557
(dp558
g54
(dp559
sg63
g473
sg56
(lp560
g49
(g70
g51
NtRp561
(dp562
g54
(dp563
g74
g75
ssg63
g557
sg56
(lp564
g396
asbag49
(g70
g51
NtRp565
(dp566
g54
(dp567
g81
g82
ssg63
g557
sg56
(lp568
S':'
asbag49
(g70
g51
NtRp569
(dp570
g54
(dp571
sg63
g557
sg56
(lp572
g49
(g50
g51
NtRp573
(dp574
g54
(dp575
g62
I3
ssg63
g569
sg56
(lp576
S''
asbasbasbag49
(g65
g51
NtRp577
(dp578
g54
(dp579
sg63
g473
sg56
(lp580
g49
(g70
g51
NtRp581
(dp582
g54
(dp583
g74
g75
ssg63
g577
sg56
(lp584
g417
asbag49
(g70
g51
NtRp585
(dp586
g54
(dp587
g81
g82
ssg63
g577
sg56
(lp588
S':'
asbag49
(g70
g51
NtRp589
(dp590
g54
(dp591
sg63
g577
sg56
(lp592
g49
(g50
g51
NtRp593
(dp594
g54
(dp595
g62
I3
ssg63
g589
sg56
(lp596
S''
asbasbasbag49
(g65
g51
NtRp597
(dp598
g54
(dp599
sg63
g473
sg56
(lp600
g49
(g70
g51
NtRp601
(dp602
g54
(dp603
g74
g75
ssg63
g597
sg56
(lp604
g438
asbag49
(g70
g51
NtRp605
(dp606
g54
(dp607
g81
g82
ssg63
g597
sg56
(lp608
S':'
asbag49
(g70
g51
NtRp609
(dp610
g54
(dp611
sg63
g597
sg56
(lp612
g49
(g50
g51
NtRp613
(dp614
g54
(dp615
g62
I3
ssg63
g609
sg56
(lp616
S''
asbasbasbasbasbasbasbag49
(g65
g51
NtRp617
(dp618
g54
(dp619
sg63
g274
sg56
(lp620
g49
(g70
g51
NtRp621
(dp622
g54
(dp623
g74
g75
ssg63
g617
sg56
(lp624
S'session_id_welcome'
p625
asbag49
(g70
g51
NtRp626
(dp627
g54
(dp628
g81
g82
ssg63
g617
sg56
(lp629
S':'
asbag49
(g70
g51
NtRp630
(dp631
g54
(dp632
sg63
g617
sg56
(lp633
g49
(g50
g51
NtRp634
(dp635
g54
(dp636
g62
I4
ssg63
g630
sg56
(lp637
S'127.0.0.1-dfebfa33-25aa-4072-bce4-08f7e89e2d04'
p638
ag49
(g58
g51
NtRp639
(dp640
g54
(dp641
g62
I3
ssg63
Nsg56
(lp642
g49
(g65
g51
NtRp643
(dp644
g54
(dp645
sg63
g639
sg56
(lp646
g49
(g70
g51
NtRp647
(dp648
g54
(dp649
g74
g75
ssg63
g643
sg56
(lp650
g312
asbag49
(g70
g51
NtRp651
(dp652
g54
(dp653
g81
g82
ssg63
g643
sg56
(lp654
S':'
asbag49
(g70
g51
NtRp655
(dp656
g54
(dp657
sg63
g643
sg56
(lp658
g49
(g50
g51
NtRp659
(dp660
g54
(dp661
g62
I3
ssg63
g655
sg56
(lp662
S''
asbasbasbag49
(g65
g51
NtRp663
(dp664
g54
(dp665
sg63
g639
sg56
(lp666
g49
(g70
g51
NtRp667
(dp668
g54
(dp669
g74
g75
ssg63
g663
sg56
(lp670
g333
asbag49
(g70
g51
NtRp671
(dp672
g54
(dp673
g81
g82
ssg63
g663
sg56
(lp674
S':'
asbag49
(g70
g51
NtRp675
(dp676
g54
(dp677
sg63
g663
sg56
(lp678
g49
(g50
g51
NtRp679
(dp680
g54
(dp681
g62
I3
ssg63
g675
sg56
(lp682
S''
asbasbasbag49
(g65
g51
NtRp683
(dp684
g54
(dp685
sg63
g639
sg56
(lp686
g49
(g70
g51
NtRp687
(dp688
g54
(dp689
g74
g75
ssg63
g683
sg56
(lp690
g354
asbag49
(g70
g51
NtRp691
(dp692
g54
(dp693
g81
g82
ssg63
g683
sg56
(lp694
S':'
asbag49
(g70
g51
NtRp695
(dp696
g54
(dp697
sg63
g683
sg56
(lp698
g49
(g50
g51
NtRp699
(dp700
g54
(dp701
g62
I3
ssg63
g695
sg56
(lp702
S''
asbasbasbag49
(g65
g51
NtRp703
(dp704
g54
(dp705
sg63
g639
sg56
(lp706
g49
(g70
g51
NtRp707
(dp708
g54
(dp709
g74
g75
ssg63
g703
sg56
(lp710
g375
asbag49
(g70
g51
NtRp711
(dp712
g54
(dp713
g81
g82
ssg63
g703
sg56
(lp714
S':'
asbag49
(g70
g51
NtRp715
(dp716
g54
(dp717
sg63
g703
sg56
(lp718
g49
(g50
g51
NtRp719
(dp720
g54
(dp721
g62
I3
ssg63
g715
sg56
(lp722
S''
asbasbasbag49
(g65
g51
NtRp723
(dp724
g54
(dp725
sg63
g639
sg56
(lp726
g49
(g70
g51
NtRp727
(dp728
g54
(dp729
g74
g75
ssg63
g723
sg56
(lp730
g396
asbag49
(g70
g51
NtRp731
(dp732
g54
(dp733
g81
g82
ssg63
g723
sg56
(lp734
S':'
asbag49
(g70
g51
NtRp735
(dp736
g54
(dp737
sg63
g723
sg56
(lp738
g49
(g50
g51
NtRp739
(dp740
g54
(dp741
g62
I3
ssg63
g735
sg56
(lp742
S''
asbasbasbag49
(g65
g51
NtRp743
(dp744
g54
(dp745
sg63
g639
sg56
(lp746
g49
(g70
g51
NtRp747
(dp748
g54
(dp749
g74
g75
ssg63
g743
sg56
(lp750
g417
asbag49
(g70
g51
NtRp751
(dp752
g54
(dp753
g81
g82
ssg63
g743
sg56
(lp754
S':'
asbag49
(g70
g51
NtRp755
(dp756
g54
(dp757
sg63
g743
sg56
(lp758
g49
(g50
g51
NtRp759
(dp760
g54
(dp761
g62
I3
ssg63
g755
sg56
(lp762
S''
asbasbasbag49
(g65
g51
NtRp763
(dp764
g54
(dp765
sg63
g639
sg56
(lp766
g49
(g70
g51
NtRp767
(dp768
g54
(dp769
g74
g75
ssg63
g763
sg56
(lp770
g438
asbag49
(g70
g51
NtRp771
(dp772
g54
(dp773
g81
g82
ssg63
g763
sg56
(lp774
S':'
asbag49
(g70
g51
NtRp775
(dp776
g54
(dp777
sg63
g763
sg56
(lp778
g49
(g50
g51
NtRp779
(dp780
g54
(dp781
g62
I3
ssg63
g775
sg56
(lp782
S''
asbasbasbasbasbasbasbasbasbasbasbag49
(g65
g51
NtRp783
(dp784
g54
(dp785
sg63
g59
sg56
(lp786
g49
(g70
g51
NtRp787
(dp788
g54
(dp789
g74
g75
ssg63
g783
sg56
(lp790
S'env'
p791
asbag49
(g70
g51
NtRp792
(dp793
g54
(dp794
g81
g82
ssg63
g783
sg56
(lp795
S':'
asbag49
(g70
g51
NtRp796
(dp797
g54
(dp798
sg63
g783
sg56
(lp799
g49
(g50
g51
NtRp800
(dp801
g54
(dp802
g62
I5
ssg63
g796
sg56
(lp803
g49
(g58
g51
NtRp804
(dp805
g54
(dp806
g62
I4
ssg63
Nsg56
(lp807
g49
(g65
g51
NtRp808
(dp809
g54
(dp810
sg63
g804
sg56
(lp811
g49
(g70
g51
NtRp812
(dp813
g54
(dp814
g74
g75
ssg63
g808
sg56
(lp815
S'app_folders'
p816
asbag49
(g70
g51
NtRp817
(dp818
g54
(dp819
g81
g82
ssg63
g808
sg56
(lp820
S':'
asbag49
(g70
g51
NtRp821
(dp822
g54
(dp823
sg63
g808
sg56
(lp824
g49
(g50
g51
NtRp825
(dp826
g54
(dp827
g62
I4
ssg63
g821
sg56
(lp828
S"set(['/Users/zamechek/Downloads/web2py/web2py.app/Contents/Resources/applications/examples/', '/Users/zamechek/Downloads/web2py/web2py.app/Contents/Resources/applications/hellow/', '/Users/zamechek/Downloads/web2py/web2py.app/Contents/Resources/applications/admin/', '/Users/zamechek/Downloads/web2py/web2py.app/Contents/Resources/applications/slots/', '/Users/zamechek/Downloads/web2py/web2py.app/Contents/Resources/applications/welcome/'])"
p829
asbasbasbag49
(g65
g51
NtRp830
(dp831
g54
(dp832
sg63
g804
sg56
(lp833
g49
(g70
g51
NtRp834
(dp835
g54
(dp836
g74
g75
ssg63
g830
sg56
(lp837
S'applications_parent'
p838
asbag49
(g70
g51
NtRp839
(dp840
g54
(dp841
g81
g82
ssg63
g830
sg56
(lp842
S':'
asbag49
(g70
g51
NtRp843
(dp844
g54
(dp845
sg63
g830
sg56
(lp846
g49
(g50
g51
NtRp847
(dp848
g54
(dp849
g62
I4
ssg63
g843
sg56
(lp850
S'/Users/zamechek/Downloads/web2py/web2py.app/Contents/Resources'
p851
asbasbasbag49
(g65
g51
NtRp852
(dp853
g54
(dp854
sg63
g804
sg56
(lp855
g49
(g70
g51
NtRp856
(dp857
g54
(dp858
g74
g75
ssg63
g852
sg56
(lp859
S'cmd_args'
p860
asbag49
(g70
g51
NtRp861
(dp862
g54
(dp863
g81
g82
ssg63
g852
sg56
(lp864
S':'
asbag49
(g70
g51
NtRp865
(dp866
g54
(dp867
sg63
g852
sg56
(lp868
g49
(g50
g51
NtRp869
(dp870
g54
(dp871
g62
I4
ssg63
g865
sg56
(lp872
g49
(g58
g51
NtRp873
(dp874
g54
(dp875
g62
I3
ssg63
Nsg56
(lp876
sbasbasbasbag49
(g65
g51
NtRp877
(dp878
g54
(dp879
sg63
g804
sg56
(lp880
g49
(g70
g51
NtRp881
(dp882
g54
(dp883
g74
g75
ssg63
g877
sg56
(lp884
S'cmd_options'
p885
asbag49
(g70
g51
NtRp886
(dp887
g54
(dp888
g81
g82
ssg63
g877
sg56
(lp889
S':'
asbag49
(g70
g51
NtRp890
(dp891
g54
(dp892
sg63
g877
sg56
(lp893
g49
(g50
g51
NtRp894
(dp895
g54
(dp896
g62
I4
ssg63
g890
sg56
(lp897
S"<Values at 0x32c8f58: {'verbose': False, 'ip': '127.0.0.1', 'with_scheduler': False, 'ips': ['130.91.151.157'], 'shutdown_timeout': 5, 'taskbar': False, 'port': 8000, 'maxthreads': None, 'softcron': False, 'server_name': 'hntvlan531.0924.wlan.wireless-pennnet.upenn.edu', 'bpython': False, 'nogui': False, 'pid_filename': 'httpserver.pid', 'extcron': False, 'runcron': False, 'run_system_tests': False, 'test': None, 'folder': '/Users/zamechek/Downloads/web2py/web2py.app/Contents/Resources', 'config': '', 'import_models': False, 'winservice': '', 'shell': None, 'run': '', 'log_filename': 'httpserver.log', 'debuglevel': 30, 'args': [''], 'socket_timeout': 5, 'ssl_ca_certificate': None, 'scheduler': None, 'profiler_filename': None, 'ssl_private_key': '', 'scheduler_groups': None, 'password': '<ask>', 'request_queue_size': 5, 'ssl_certificate': '', 'cronjob': False, 'numthreads': None, 'quiet': False, 'interfaces': None, 'minthreads': None, 'timeout': 10, 'plain': False, 'nobanner': False}>"
p898
asbasbasbag49
(g65
g51
NtRp899
(dp900
g54
(dp901
sg63
g804
sg56
(lp902
g49
(g70
g51
NtRp903
(dp904
g54
(dp905
g74
g75
ssg63
g899
sg56
(lp906
S'db_sessions'
p907
asbag49
(g70
g51
NtRp908
(dp909
g54
(dp910
g81
g82
ssg63
g899
sg56
(lp911
S':'
asbag49
(g70
g51
NtRp912
(dp913
g54
(dp914
sg63
g899
sg56
(lp915
g49
(g50
g51
NtRp916
(dp917
g54
(dp918
g62
I4
ssg63
g912
sg56
(lp919
S'set([])'
p920
asbasbasbag49
(g65
g51
NtRp921
(dp922
g54
(dp923
sg63
g804
sg56
(lp924
g49
(g70
g51
NtRp925
(dp926
g54
(dp927
g74
g75
ssg63
g921
sg56
(lp928
S'debugging'
p929
asbag49
(g70
g51
NtRp930
(dp931
g54
(dp932
g81
g82
ssg63
g921
sg56
(lp933
S':'
asbag49
(g70
g51
NtRp934
(dp935
g54
(dp936
sg63
g921
sg56
(lp937
g49
(g50
g51
NtRp938
(dp939
g54
(dp940
g62
I4
ssg63
g934
sg56
(lp941
S'True'
p942
asbasbasbag49
(g65
g51
NtRp943
(dp944
g54
(dp945
sg63
g804
sg56
(lp946
g49
(g70
g51
NtRp947
(dp948
g54
(dp949
g74
g75
ssg63
g943
sg56
(lp950
S'gluon_parent'
p951
asbag49
(g70
g51
NtRp952
(dp953
g54
(dp954
g81
g82
ssg63
g943
sg56
(lp955
S':'
asbag49
(g70
g51
NtRp956
(dp957
g54
(dp958
sg63
g943
sg56
(lp959
g49
(g50
g51
NtRp960
(dp961
g54
(dp962
g62
I4
ssg63
g956
sg56
(lp963
S'/Users/zamechek/Downloads/web2py/web2py.app/Contents/Resources'
p964
asbasbasbag49
(g65
g51
NtRp965
(dp966
g54
(dp967
sg63
g804
sg56
(lp968
g49
(g70
g51
NtRp969
(dp970
g54
(dp971
g74
g75
ssg63
g965
sg56
(lp972
S'http_accept'
p973
asbag49
(g70
g51
NtRp974
(dp975
g54
(dp976
g81
g82
ssg63
g965
sg56
(lp977
S':'
asbag49
(g70
g51
NtRp978
(dp979
g54
(dp980
sg63
g965
sg56
(lp981
g49
(g50
g51
NtRp982
(dp983
g54
(dp984
g62
I4
ssg63
g978
sg56
(lp985
S'text/html,application/xhtml+xml,application/xml;q=0.9,*/*;q=0.8'
p986
asbasbasbag49
(g65
g51
NtRp987
(dp988
g54
(dp989
sg63
g804
sg56
(lp990
g49
(g70
g51
NtRp991
(dp992
g54
(dp993
g74
g75
ssg63
g987
sg56
(lp994
S'http_accept_charset'
p995
asbag49
(g70
g51
NtRp996
(dp997
g54
(dp998
g81
g82
ssg63
g987
sg56
(lp999
S':'
asbag49
(g70
g51
NtRp1000
(dp1001
g54
(dp1002
sg63
g987
sg56
(lp1003
g49
(g50
g51
NtRp1004
(dp1005
g54
(dp1006
g62
I4
ssg63
g1000
sg56
(lp1007
S'ISO-8859-1,utf-8;q=0.7,*;q=0.3'
p1008
asbasbasbag49
(g65
g51
NtRp1009
(dp1010
g54
(dp1011
sg63
g804
sg56
(lp1012
g49
(g70
g51
NtRp1013
(dp1014
g54
(dp1015
g74
g75
ssg63
g1009
sg56
(lp1016
S'http_accept_encoding'
p1017
asbag49
(g70
g51
NtRp1018
(dp1019
g54
(dp1020
g81
g82
ssg63
g1009
sg56
(lp1021
S':'
asbag49
(g70
g51
NtRp1022
(dp1023
g54
(dp1024
sg63
g1009
sg56
(lp1025
g49
(g50
g51
NtRp1026
(dp1027
g54
(dp1028
g62
I4
ssg63
g1022
sg56
(lp1029
S'gzip,deflate,sdch'
p1030
asbasbasbag49
(g65
g51
NtRp1031
(dp1032
g54
(dp1033
sg63
g804
sg56
(lp1034
g49
(g70
g51
NtRp1035
(dp1036
g54
(dp1037
g74
g75
ssg63
g1031
sg56
(lp1038
S'http_accept_language'
p1039
asbag49
(g70
g51
NtRp1040
(dp1041
g54
(dp1042
g81
g82
ssg63
g1031
sg56
(lp1043
S':'
asbag49
(g70
g51
NtRp1044
(dp1045
g54
(dp1046
sg63
g1031
sg56
(lp1047
g49
(g50
g51
NtRp1048
(dp1049
g54
(dp1050
g62
I4
ssg63
g1044
sg56
(lp1051
S'en-US,en;q=0.8'
p1052
asbasbasbag49
(g65
g51
NtRp1053
(dp1054
g54
(dp1055
sg63
g804
sg56
(lp1056
g49
(g70
g51
NtRp1057
(dp1058
g54
(dp1059
g74
g75
ssg63
g1053
sg56
(lp1060
S'http_connection'
p1061
asbag49
(g70
g51
NtRp1062
(dp1063
g54
(dp1064
g81
g82
ssg63
g1053
sg56
(lp1065
S':'
asbag49
(g70
g51
NtRp1066
(dp1067
g54
(dp1068
sg63
g1053
sg56
(lp1069
g49
(g50
g51
NtRp1070
(dp1071
g54
(dp1072
g62
I4
ssg63
g1066
sg56
(lp1073
S'keep-alive'
p1074
asbasbasbag49
(g65
g51
NtRp1075
(dp1076
g54
(dp1077
sg63
g804
sg56
(lp1078
g49
(g70
g51
NtRp1079
(dp1080
g54
(dp1081
g74
g75
ssg63
g1075
sg56
(lp1082
S'http_cookie'
p1083
asbag49
(g70
g51
NtRp1084
(dp1085
g54
(dp1086
g81
g82
ssg63
g1075
sg56
(lp1087
S':'
asbag49
(g70
g51
NtRp1088
(dp1089
g54
(dp1090
sg63
g1075
sg56
(lp1091
g49
(g50
g51
NtRp1092
(dp1093
g54
(dp1094
g62
I4
ssg63
g1088
sg56
(lp1095
S'_define_session=BAh7CEkiD3Nlc3Npb25faWQGOgZFRkkiJTVmM2YzOTE4ZmYyNzY4ZDRjYjY5YjcyOGNkZTAxODEwBjsAVEkiEF9jc3JmX3Rva2VuBjsARkkiMVY4MTBXWE1hdGNGUGR0ZzhxeStGc3FiajlCNzB6UkpqcHZUalZJNjRFNms9BjsARkkiGXdhcmRlbi51c2VyLnVzZXIua2V5BjsAVFsISSIJVXNlcgY7AEZbBmkGSSIiJDJhJDEwJGxpeDBzN29QMk5ocFJWZUl4RXZ4WXUGOwBU--36fb82eb40ee1558fc8e56b5bce1c04bba1a6c00; _bs_session=BAh7B0kiD3Nlc3Npb25faWQGOgZFRkkiJWFhOTlmNjdkODEzYjIwNGMyNGUwMTZmNjlkMDBjMjlhBjsAVEkiEF9jc3JmX3Rva2VuBjsARkkiMUJjek16b0JSUDluYk5MekI0YlNTMklPb2Q3V3pNQzJXcHQ1enY1RDgrT3c9BjsARg%3D%3D--80cc0f5e6211d60923eda39a15903de5a280521a; _table_session=BAh7B0kiD3Nlc3Npb25faWQGOgZFRkkiJTdhZTA3MzFhMGMxM2Q4YTAxZGQ3ZTNlMDM2ODIwOWY3BjsAVEkiEF9jc3JmX3Rva2VuBjsARkkiMWxKWVRtT3hGU3dxT0tnbmJ1OG1iL3FXSW9jWVRJdnZhZHJmNTN2b1BqR2M9BjsARg%3D%3D--a8b8801fe97e379d91991be9a0d21a60f46bc09e; _usertable_session=BAh7CEkiD3Nlc3Npb25faWQGOgZFRkkiJTRmY2NiMWMyOTE1ZThhYzE1MzVlYmU3ODMxZjdhM2NmBjsAVEkiEF9jc3JmX3Rva2VuBjsARkkiMXlibkQxRk5wVVFFU05OcDVxMEQvUURSZWRJQVlRY1JwYTdoSkRucEtlYXc9BjsARkkiCmZsYXNoBjsARm86JUFjdGlvbkRpc3BhdGNoOjpGbGFzaDo6Rmxhc2hIYXNoCToKQHVzZWRvOghTZXQGOgpAaGFzaHsAOgxAY2xvc2VkRjoNQGZsYXNoZXN7BjoLbm90aWNlSSItRmllbGQgcmVsYXRpb24gd2FzIHN1Y2Nlc3NmdWxseSBjcmVhdGVkLgY7AEY6CUBub3cw--c455129d4f2ca1e085c6ad184fd200aecc0b7061; _tbls_session=BAh7B0kiD3Nlc3Npb25faWQGOgZFRkkiJWY5MmM2Mzk2ZWQ0M2ZlODZkN2E5YjMxYmViOTU4NTI2BjsAVEkiEF9jc3JmX3Rva2VuBjsARkkiMVZjemQ4UGhpZXhnaEhnOUE2alRCRmdGSXFBclViMFhwQlo5Ulg2VTRhdFk9BjsARg%3D%3D--53586c2b8499a2c56c427cd8b8e3de116331bd4d; _typel_session=BAh7CEkiD3Nlc3Npb25faWQGOgZFRkkiJWQzMjkxZGExNGY5ZTQzNzIzZTk5MWZmZTM0NDY2NTFiBjsAVEkiEF9jc3JmX3Rva2VuBjsARkkiMWM5cVg1c3pKalpQSjd3Yk5lanQ5alpjZW4zRmNOVXdQS29YNExGOXJIUWM9BjsARkkiGXdhcmRlbi51c2VyLnVzZXIua2V5BjsAVFsISSIJVXNlcgY7AEZbBmkGSSIiJDJhJDEwJEVybm5aY0RTdm9sRjRETENhdjRveGUGOwBU--df06a9ed1ab2763964f111c2534c9f2a3630c12c; _ampersand_factory_session=BAh7CUkiD3Nlc3Npb25faWQGOgZFRkkiJWI2NTFmMThjZDNkMWU4NTNhNmI4OWU1MjNhYjMyZmQ0BjsAVEkiDWluc3RhbmNlBjsARmkGSSIQX2NzcmZfdG9rZW4GOwBGSSIxTEtBZER3MFlQQUV6Nmh1NW95TG4vUTFGcFdXa1ozWTVJaUx5aXh4ZndTVT0GOwBGSSIbd2FyZGVuLnVzZXIud29ya2VyLmtleQY7AFRbCEkiC1dvcmtlcgY7AEZbBmkGSSIiJDJhJDEwJGlEdndMRmhzQXB5eE1tLnhjMFM2di4GOwBU--e6bc7e5d4e945842bb7862fd547d433b3c7bfdcb; _lang_session=BAh7B0kiD3Nlc3Npb25faWQGOgZFRkkiJTY2YzI4YTY5NDkzNzE1ZGIzYzUwNWM3ZDg2ZmY1MWNiBjsAVEkiEF9jc3JmX3Rva2VuBjsARkkiMVdVczNjYnUvY2tZaHFvMVlwLy9zemdCcFliUytKdTlUTGZ3M1RIUlI3aHc9BjsARg%3D%3D--52f16b665cb4cfc5b54cea21c7b082ab6b75b1bf; session_id_welcome=127.0.0.1-dfebfa33-25aa-4072-bce4-08f7e89e2d04; session_id_admin=127.0.0.1-bf448199-cadc-41e3-b1a7-bed302e89a3e; session_id_hellow=127.0.0.1-bbea59f2-333e-4593-a45c-2c44a5133d77'
p1096
asbasbasbag49
(g65
g51
NtRp1097
(dp1098
g54
(dp1099
sg63
g804
sg56
(lp1100
g49
(g70
g51
NtRp1101
(dp1102
g54
(dp1103
g74
g75
ssg63
g1097
sg56
(lp1104
S'http_host'
p1105
asbag49
(g70
g51
NtRp1106
(dp1107
g54
(dp1108
g81
g82
ssg63
g1097
sg56
(lp1109
S':'
asbag49
(g70
g51
NtRp1110
(dp1111
g54
(dp1112
sg63
g1097
sg56
(lp1113
g49
(g50
g51
NtRp1114
(dp1115
g54
(dp1116
g62
I4
ssg63
g1110
sg56
(lp1117
S'localhost:8887'
p1118
asbasbasbag49
(g65
g51
NtRp1119
(dp1120
g54
(dp1121
sg63
g804
sg56
(lp1122
g49
(g70
g51
NtRp1123
(dp1124
g54
(dp1125
g74
g75
ssg63
g1119
sg56
(lp1126
S'http_referer'
p1127
asbag49
(g70
g51
NtRp1128
(dp1129
g54
(dp1130
g81
g82
ssg63
g1119
sg56
(lp1131
S':'
asbag49
(g70
g51
NtRp1132
(dp1133
g54
(dp1134
sg63
g1119
sg56
(lp1135
g49
(g50
g51
NtRp1136
(dp1137
g54
(dp1138
g62
I4
ssg63
g1132
sg56
(lp1139
S'http://localhost:8887/hellow/appadmin/index'
p1140
asbasbasbag49
(g65
g51
NtRp1141
(dp1142
g54
(dp1143
sg63
g804
sg56
(lp1144
g49
(g70
g51
NtRp1145
(dp1146
g54
(dp1147
g74
g75
ssg63
g1141
sg56
(lp1148
S'http_user_agent'
p1149
asbag49
(g70
g51
NtRp1150
(dp1151
g54
(dp1152
g81
g82
ssg63
g1141
sg56
(lp1153
S':'
asbag49
(g70
g51
NtRp1154
(dp1155
g54
(dp1156
sg63
g1141
sg56
(lp1157
g49
(g50
g51
NtRp1158
(dp1159
g54
(dp1160
g62
I4
ssg63
g1154
sg56
(lp1161
S'Mozilla/5.0 (Macintosh; Intel Mac OS X 10_8_3) AppleWebKit/537.22 (KHTML, like Gecko) Chrome/25.0.1364.172 Safari/537.22'
p1162
asbasbasbag49
(g65
g51
NtRp1163
(dp1164
g54
(dp1165
sg63
g804
sg56
(lp1166
g49
(g70
g51
NtRp1167
(dp1168
g54
(dp1169
g74
g75
ssg63
g1163
sg56
(lp1170
S'is_jython'
p1171
asbag49
(g70
g51
NtRp1172
(dp1173
g54
(dp1174
g81
g82
ssg63
g1163
sg56
(lp1175
S':'
asbag49
(g70
g51
NtRp1176
(dp1177
g54
(dp1178
sg63
g1163
sg56
(lp1179
g49
(g50
g51
NtRp1180
(dp1181
g54
(dp1182
g62
I4
ssg63
g1176
sg56
(lp1183
g92
asbasbasbag49
(g65
g51
NtRp1184
(dp1185
g54
(dp1186
sg63
g804
sg56
(lp1187
g49
(g70
g51
NtRp1188
(dp1189
g54
(dp1190
g74
g75
ssg63
g1184
sg56
(lp1191
S'is_pypy'
p1192
asbag49
(g70
g51
NtRp1193
(dp1194
g54
(dp1195
g81
g82
ssg63
g1184
sg56
(lp1196
S':'
asbag49
(g70
g51
NtRp1197
(dp1198
g54
(dp1199
sg63
g1184
sg56
(lp1200
g49
(g50
g51
NtRp1201
(dp1202
g54
(dp1203
g62
I4
ssg63
g1197
sg56
(lp1204
g92
asbasbasbag49
(g65
g51
NtRp1205
(dp1206
g54
(dp1207
sg63
g804
sg56
(lp1208
g49
(g70
g51
NtRp1209
(dp1210
g54
(dp1211
g74
g75
ssg63
g1205
sg56
(lp1212
S'local_hosts'
p1213
asbag49
(g70
g51
NtRp1214
(dp1215
g54
(dp1216
g81
g82
ssg63
g1205
sg56
(lp1217
S':'
asbag49
(g70
g51
NtRp1218
(dp1219
g54
(dp1220
sg63
g1205
sg56
(lp1221
g49
(g50
g51
NtRp1222
(dp1223
g54
(dp1224
g62
I4
ssg63
g1218
sg56
(lp1225
g49
(g58
g51
NtRp1226
(dp1227
g54
(dp1228
g62
I3
ssg63
Nsg56
(lp1229
g49
(g65
g51
NtRp1230
(dp1231
g54
(dp1232
sg63
g1226
sg56
(lp1233
g49
(g70
g51
NtRp1234
(dp1235
g54
(dp1236
sg63
g1230
sg56
(lp1237
g49
(g50
g51
NtRp1238
(dp1239
g54
(dp1240
g62
I3
ssg63
g1234
sg56
(lp1241
S'130.91.151.157'
p1242
asbasbasbag49
(g65
g51
NtRp1243
(dp1244
g54
(dp1245
sg63
g1226
sg56
(lp1246
g49
(g70
g51
NtRp1247
(dp1248
g54
(dp1249
sg63
g1243
sg56
(lp1250
g49
(g50
g51
NtRp1251
(dp1252
g54
(dp1253
g62
I3
ssg63
g1247
sg56
(lp1254
S'::1'
p1255
asbasbasbag49
(g65
g51
NtRp1256
(dp1257
g54
(dp1258
sg63
g1226
sg56
(lp1259
g49
(g70
g51
NtRp1260
(dp1261
g54
(dp1262
sg63
g1256
sg56
(lp1263
g49
(g50
g51
NtRp1264
(dp1265
g54
(dp1266
g62
I3
ssg63
g1260
sg56
(lp1267
S'::ffff:127.0.0.1'
p1268
asbasbasbag49
(g65
g51
NtRp1269
(dp1270
g54
(dp1271
sg63
g1226
sg56
(lp1272
g49
(g70
g51
NtRp1273
(dp1274
g54
(dp1275
sg63
g1269
sg56
(lp1276
g49
(g50
g51
NtRp1277
(dp1278
g54
(dp1279
g62
I3
ssg63
g1273
sg56
(lp1280
S'127.0.0.1'
p1281
asbasbasbag49
(g65
g51
NtRp1282
(dp1283
g54
(dp1284
sg63
g1226
sg56
(lp1285
g49
(g70
g51
NtRp1286
(dp1287
g54
(dp1288
sg63
g1282
sg56
(lp1289
g49
(g50
g51
NtRp1290
(dp1291
g54
(dp1292
g62
I3
ssg63
g1286
sg56
(lp1293
S'hntvlan531.0924.wlan.wireless-pennnet.upenn.edu'
p1294
asbasbasbasbasbasbasbag49
(g65
g51
NtRp1295
(dp1296
g54
(dp1297
sg63
g804
sg56
(lp1298
g49
(g70
g51
NtRp1299
(dp1300
g54
(dp1301
g74
g75
ssg63
g1295
sg56
(lp1302
S'path_info'
p1303
asbag49
(g70
g51
NtRp1304
(dp1305
g54
(dp1306
g81
g82
ssg63
g1295
sg56
(lp1307
S':'
asbag49
(g70
g51
NtRp1308
(dp1309
g54
(dp1310
sg63
g1295
sg56
(lp1311
g49
(g50
g51
NtRp1312
(dp1313
g54
(dp1314
g62
I4
ssg63
g1308
sg56
(lp1315
S'/hellow/appadmin/insert/db/game_slots'
p1316
asbasbasbag49
(g65
g51
NtRp1317
(dp1318
g54
(dp1319
sg63
g804
sg56
(lp1320
g49
(g70
g51
NtRp1321
(dp1322
g54
(dp1323
g74
g75
ssg63
g1317
sg56
(lp1324
S'query_string'
p1325
asbag49
(g70
g51
NtRp1326
(dp1327
g54
(dp1328
g81
g82
ssg63
g1317
sg56
(lp1329
S':'
asbag49
(g70
g51
NtRp1330
(dp1331
g54
(dp1332
sg63
g1317
sg56
(lp1333
g49
(g50
g51
NtRp1334
(dp1335
g54
(dp1336
g62
I4
ssg63
g1330
sg56
(lp1337
S''
asbasbasbag49
(g65
g51
NtRp1338
(dp1339
g54
(dp1340
sg63
g804
sg56
(lp1341
g49
(g70
g51
NtRp1342
(dp1343
g54
(dp1344
g74
g75
ssg63
g1338
sg56
(lp1345
S'remote_addr'
p1346
asbag49
(g70
g51
NtRp1347
(dp1348
g54
(dp1349
g81
g82
ssg63
g1338
sg56
(lp1350
S':'
asbag49
(g70
g51
NtRp1351
(dp1352
g54
(dp1353
sg63
g1338
sg56
(lp1354
g49
(g50
g51
NtRp1355
(dp1356
g54
(dp1357
g62
I4
ssg63
g1351
sg56
(lp1358
g230
asbasbasbag49
(g65
g51
NtRp1359
(dp1360
g54
(dp1361
sg63
g804
sg56
(lp1362
g49
(g70
g51
NtRp1363
(dp1364
g54
(dp1365
g74
g75
ssg63
g1359
sg56
(lp1366
S'remote_port'
p1367
asbag49
(g70
g51
NtRp1368
(dp1369
g54
(dp1370
g81
g82
ssg63
g1359
sg56
(lp1371
S':'
asbag49
(g70
g51
NtRp1372
(dp1373
g54
(dp1374
sg63
g1359
sg56
(lp1375
g49
(g50
g51
NtRp1376
(dp1377
g54
(dp1378
g62
I4
ssg63
g1372
sg56
(lp1379
S'54145'
p1380
asbasbasbag49
(g65
g51
NtRp1381
(dp1382
g54
(dp1383
sg63
g804
sg56
(lp1384
g49
(g70
g51
NtRp1385
(dp1386
g54
(dp1387
g74
g75
ssg63
g1381
sg56
(lp1388
S'request_method'
p1389
asbag49
(g70
g51
NtRp1390
(dp1391
g54
(dp1392
g81
g82
ssg63
g1381
sg56
(lp1393
S':'
asbag49
(g70
g51
NtRp1394
(dp1395
g54
(dp1396
sg63
g1381
sg56
(lp1397
g49
(g50
g51
NtRp1398
(dp1399
g54
(dp1400
g62
I4
ssg63
g1394
sg56
(lp1401
S'GET'
p1402
asbasbasbag49
(g65
g51
NtRp1403
(dp1404
g54
(dp1405
sg63
g804
sg56
(lp1406
g49
(g70
g51
NtRp1407
(dp1408
g54
(dp1409
g74
g75
ssg63
g1403
sg56
(lp1410
S'request_uri'
p1411
asbag49
(g70
g51
NtRp1412
(dp1413
g54
(dp1414
g81
g82
ssg63
g1403
sg56
(lp1415
S':'
asbag49
(g70
g51
NtRp1416
(dp1417
g54
(dp1418
sg63
g1403
sg56
(lp1419
g49
(g50
g51
NtRp1420
(dp1421
g54
(dp1422
g62
I4
ssg63
g1416
sg56
(lp1423
g1316
asbasbasbag49
(g65
g51
NtRp1424
(dp1425
g54
(dp1426
sg63
g804
sg56
(lp1427
g49
(g70
g51
NtRp1428
(dp1429
g54
(dp1430
g74
g75
ssg63
g1424
sg56
(lp1431
S'script_name'
p1432
asbag49
(g70
g51
NtRp1433
(dp1434
g54
(dp1435
g81
g82
ssg63
g1424
sg56
(lp1436
S':'
asbag49
(g70
g51
NtRp1437
(dp1438
g54
(dp1439
sg63
g1424
sg56
(lp1440
g49
(g50
g51
NtRp1441
(dp1442
g54
(dp1443
g62
I4
ssg63
g1437
sg56
(lp1444
S''
asbasbasbag49
(g65
g51
NtRp1445
(dp1446
g54
(dp1447
sg63
g804
sg56
(lp1448
g49
(g70
g51
NtRp1449
(dp1450
g54
(dp1451
g74
g75
ssg63
g1445
sg56
(lp1452
S'server_name'
p1453
asbag49
(g70
g51
NtRp1454
(dp1455
g54
(dp1456
g81
g82
ssg63
g1445
sg56
(lp1457
S':'
asbag49
(g70
g51
NtRp1458
(dp1459
g54
(dp1460
sg63
g1445
sg56
(lp1461
g49
(g50
g51
NtRp1462
(dp1463
g54
(dp1464
g62
I4
ssg63
g1458
sg56
(lp1465
S'hntvlan531.0924.wlan.wireless-pennnet.upenn.edu'
p1466
asbasbasbag49
(g65
g51
NtRp1467
(dp1468
g54
(dp1469
sg63
g804
sg56
(lp1470
g49
(g70
g51
NtRp1471
(dp1472
g54
(dp1473
g74
g75
ssg63
g1467
sg56
(lp1474
S'server_port'
p1475
asbag49
(g70
g51
NtRp1476
(dp1477
g54
(dp1478
g81
g82
ssg63
g1467
sg56
(lp1479
S':'
asbag49
(g70
g51
NtRp1480
(dp1481
g54
(dp1482
sg63
g1467
sg56
(lp1483
g49
(g50
g51
NtRp1484
(dp1485
g54
(dp1486
g62
I4
ssg63
g1480
sg56
(lp1487
S'8887'
p1488
asbasbasbag49
(g65
g51
NtRp1489
(dp1490
g54
(dp1491
sg63
g804
sg56
(lp1492
g49
(g70
g51
NtRp1493
(dp1494
g54
(dp1495
g74
g75
ssg63
g1489
sg56
(lp1496
S'server_protocol'
p1497
asbag49
(g70
g51
NtRp1498
(dp1499
g54
(dp1500
g81
g82
ssg63
g1489
sg56
(lp1501
S':'
asbag49
(g70
g51
NtRp1502
(dp1503
g54
(dp1504
sg63
g1489
sg56
(lp1505
g49
(g50
g51
NtRp1506
(dp1507
g54
(dp1508
g62
I4
ssg63
g1502
sg56
(lp1509
S'HTTP/1.1'
p1510
asbasbasbag49
(g65
g51
NtRp1511
(dp1512
g54
(dp1513
sg63
g804
sg56
(lp1514
g49
(g70
g51
NtRp1515
(dp1516
g54
(dp1517
g74
g75
ssg63
g1511
sg56
(lp1518
S'server_software'
p1519
asbag49
(g70
g51
NtRp1520
(dp1521
g54
(dp1522
g81
g82
ssg63
g1511
sg56
(lp1523
S':'
asbag49
(g70
g51
NtRp1524
(dp1525
g54
(dp1526
sg63
g1511
sg56
(lp1527
g49
(g50
g51
NtRp1528
(dp1529
g54
(dp1530
g62
I4
ssg63
g1524
sg56
(lp1531
S'Rocket 1.2.6'
p1532
asbasbasbag49
(g65
g51
NtRp1533
(dp1534
g54
(dp1535
sg63
g804
sg56
(lp1536
g49
(g70
g51
NtRp1537
(dp1538
g54
(dp1539
g74
g75
ssg63
g1533
sg56
(lp1540
S'web2py_path'
p1541
asbag49
(g70
g51
NtRp1542
(dp1543
g54
(dp1544
g81
g82
ssg63
g1533
sg56
(lp1545
S':'
asbag49
(g70
g51
NtRp1546
(dp1547
g54
(dp1548
sg63
g1533
sg56
(lp1549
g49
(g50
g51
NtRp1550
(dp1551
g54
(dp1552
g62
I4
ssg63
g1546
sg56
(lp1553
g851
asbasbasbag49
(g65
g51
NtRp1554
(dp1555
g54
(dp1556
sg63
g804
sg56
(lp1557
g49
(g70
g51
NtRp1558
(dp1559
g54
(dp1560
g74
g75
ssg63
g1554
sg56
(lp1561
S'web2py_version'
p1562
asbag49
(g70
g51
NtRp1563
(dp1564
g54
(dp1565
g81
g82
ssg63
g1554
sg56
(lp1566
S':'
asbag49
(g70
g51
NtRp1567
(dp1568
g54
(dp1569
sg63
g1554
sg56
(lp1570
g49
(g50
g51
NtRp1571
(dp1572
g54
(dp1573
g62
I4
ssg63
g1567
sg56
(lp1574
g49
(g58
g51
NtRp1575
(dp1576
g54
(dp1577
g62
I3
ssg63
Nsg56
(lp1578
g49
(g65
g51
NtRp1579
(dp1580
g54
(dp1581
sg63
g1575
sg56
(lp1582
g49
(g70
g51
NtRp1583
(dp1584
g54
(dp1585
sg63
g1579
sg56
(lp1586
g49
(g50
g51
NtRp1587
(dp1588
g54
(dp1589
g62
I3
ssg63
g1583
sg56
(lp1590
S'2'
asbasbasbag49
(g65
g51
NtRp1591
(dp1592
g54
(dp1593
sg63
g1575
sg56
(lp1594
g49
(g70
g51
NtRp1595
(dp1596
g54
(dp1597
sg63
g1591
sg56
(lp1598
g49
(g50
g51
NtRp1599
(dp1600
g54
(dp1601
g62
I3
ssg63
g1595
sg56
(lp1602
S'4'
asbasbasbag49
(g65
g51
NtRp1603
(dp1604
g54
(dp1605
sg63
g1575
sg56
(lp1606
g49
(g70
g51
NtRp1607
(dp1608
g54
(dp1609
sg63
g1603
sg56
(lp1610
g49
(g50
g51
NtRp1611
(dp1612
g54
(dp1613
g62
I3
ssg63
g1607
sg56
(lp1614
S'5'
asbasbasbag49
(g65
g51
NtRp1615
(dp1616
g54
(dp1617
sg63
g1575
sg56
(lp1618
g49
(g70
g51
NtRp1619
(dp1620
g54
(dp1621
sg63
g1615
sg56
(lp1622
g49
(g50
g51
NtRp1623
(dp1624
g54
(dp1625
g62
I3
ssg63
g1619
sg56
(lp1626
S'stable'
p1627
asbasbasbag49
(g65
g51
NtRp1628
(dp1629
g54
(dp1630
sg63
g1575
sg56
(lp1631
g49
(g70
g51
NtRp1632
(dp1633
g54
(dp1634
sg63
g1628
sg56
(lp1635
g49
(g50
g51
NtRp1636
(dp1637
g54
(dp1638
g62
I3
ssg63
g1632
sg56
(lp1639
S'datetime.datetime(2013, 3, 18, 22, 46, 22)'
p1640
asbasbasbasbasbasbasbag49
(g65
g51
NtRp1641
(dp1642
g54
(dp1643
sg63
g804
sg56
(lp1644
g49
(g70
g51
NtRp1645
(dp1646
g54
(dp1647
g74
g75
ssg63
g1641
sg56
(lp1648
S'wsgi_errors'
p1649
asbag49
(g70
g51
NtRp1650
(dp1651
g54
(dp1652
g81
g82
ssg63
g1641
sg56
(lp1653
S':'
asbag49
(g70
g51
NtRp1654
(dp1655
g54
(dp1656
sg63
g1641
sg56
(lp1657
g49
(g50
g51
NtRp1658
(dp1659
g54
(dp1660
g62
I4
ssg63
g1654
sg56
(lp1661
S"<open file '<stderr>', mode 'w' at 0x540b0>"
p1662
asbasbasbag49
(g65
g51
NtRp1663
(dp1664
g54
(dp1665
sg63
g804
sg56
(lp1666
g49
(g70
g51
NtRp1667
(dp1668
g54
(dp1669
g74
g75
ssg63
g1663
sg56
(lp1670
S'wsgi_file_wrapper'
p1671
asbag49
(g70
g51
NtRp1672
(dp1673
g54
(dp1674
g81
g82
ssg63
g1663
sg56
(lp1675
S':'
asbag49
(g70
g51
NtRp1676
(dp1677
g54
(dp1678
sg63
g1663
sg56
(lp1679
g49
(g50
g51
NtRp1680
(dp1681
g54
(dp1682
g62
I4
ssg63
g1676
sg56
(lp1683
S'<class wsgiref.util.FileWrapper at 0x329d060>'
p1684
asbasbasbag49
(g65
g51
NtRp1685
(dp1686
g54
(dp1687
sg63
g804
sg56
(lp1688
g49
(g70
g51
NtRp1689
(dp1690
g54
(dp1691
g74
g75
ssg63
g1685
sg56
(lp1692
S'wsgi_input'
p1693
asbag49
(g70
g51
NtRp1694
(dp1695
g54
(dp1696
g81
g82
ssg63
g1685
sg56
(lp1697
S':'
asbag49
(g70
g51
NtRp1698
(dp1699
g54
(dp1700
sg63
g1685
sg56
(lp1701
g49
(g50
g51
NtRp1702
(dp1703
g54
(dp1704
g62
I4
ssg63
g1698
sg56
(lp1705
S'<socket._fileobject object at 0xa457130>'
p1706
asbasbasbag49
(g65
g51
NtRp1707
(dp1708
g54
(dp1709
sg63
g804
sg56
(lp1710
g49
(g70
g51
NtRp1711
(dp1712
g54
(dp1713
g74
g75
ssg63
g1707
sg56
(lp1714
S'wsgi_multiprocess'
p1715
asbag49
(g70
g51
NtRp1716
(dp1717
g54
(dp1718
g81
g82
ssg63
g1707
sg56
(lp1719
S':'
asbag49
(g70
g51
NtRp1720
(dp1721
g54
(dp1722
sg63
g1707
sg56
(lp1723
g49
(g50
g51
NtRp1724
(dp1725
g54
(dp1726
g62
I4
ssg63
g1720
sg56
(lp1727
g92
asbasbasbag49
(g65
g51
NtRp1728
(dp1729
g54
(dp1730
sg63
g804
sg56
(lp1731
g49
(g70
g51
NtRp1732
(dp1733
g54
(dp1734
g74
g75
ssg63
g1728
sg56
(lp1735
S'wsgi_multithread'
p1736
asbag49
(g70
g51
NtRp1737
(dp1738
g54
(dp1739
g81
g82
ssg63
g1728
sg56
(lp1740
S':'
asbag49
(g70
g51
NtRp1741
(dp1742
g54
(dp1743
sg63
g1728
sg56
(lp1744
g49
(g50
g51
NtRp1745
(dp1746
g54
(dp1747
g62
I4
ssg63
g1741
sg56
(lp1748
g942
asbasbasbag49
(g65
g51
NtRp1749
(dp1750
g54
(dp1751
sg63
g804
sg56
(lp1752
g49
(g70
g51
NtRp1753
(dp1754
g54
(dp1755
g74
g75
ssg63
g1749
sg56
(lp1756
S'wsgi_run_once'
p1757
asbag49
(g70
g51
NtRp1758
(dp1759
g54
(dp1760
g81
g82
ssg63
g1749
sg56
(lp1761
S':'
asbag49
(g70
g51
NtRp1762
(dp1763
g54
(dp1764
sg63
g1749
sg56
(lp1765
g49
(g50
g51
NtRp1766
(dp1767
g54
(dp1768
g62
I4
ssg63
g1762
sg56
(lp1769
g92
asbasbasbag49
(g65
g51
NtRp1770
(dp1771
g54
(dp1772
sg63
g804
sg56
(lp1773
g49
(g70
g51
NtRp1774
(dp1775
g54
(dp1776
g74
g75
ssg63
g1770
sg56
(lp1777
S'wsgi_url_scheme'
p1778
asbag49
(g70
g51
NtRp1779
(dp1780
g54
(dp1781
g81
g82
ssg63
g1770
sg56
(lp1782
S':'
asbag49
(g70
g51
NtRp1783
(dp1784
g54
(dp1785
sg63
g1770
sg56
(lp1786
g49
(g50
g51
NtRp1787
(dp1788
g54
(dp1789
g62
I4
ssg63
g1783
sg56
(lp1790
S'http'
p1791
asbasbasbag49
(g65
g51
NtRp1792
(dp1793
g54
(dp1794
sg63
g804
sg56
(lp1795
g49
(g70
g51
NtRp1796
(dp1797
g54
(dp1798
g74
g75
ssg63
g1792
sg56
(lp1799
S'wsgi_version'
p1800
asbag49
(g70
g51
NtRp1801
(dp1802
g54
(dp1803
g81
g82
ssg63
g1792
sg56
(lp1804
S':'
asbag49
(g70
g51
NtRp1805
(dp1806
g54
(dp1807
sg63
g1792
sg56
(lp1808
g49
(g50
g51
NtRp1809
(dp1810
g54
(dp1811
g62
I4
ssg63
g1805
sg56
(lp1812
g49
(g58
g51
NtRp1813
(dp1814
g54
(dp1815
g62
I3
ssg63
Nsg56
(lp1816
g49
(g65
g51
NtRp1817
(dp1818
g54
(dp1819
sg63
g1813
sg56
(lp1820
g49
(g70
g51
NtRp1821
(dp1822
g54
(dp1823
sg63
g1817
sg56
(lp1824
g49
(g50
g51
NtRp1825
(dp1826
g54
(dp1827
g62
I3
ssg63
g1821
sg56
(lp1828
S'1'
asbasbasbag49
(g65
g51
NtRp1829
(dp1830
g54
(dp1831
sg63
g1813
sg56
(lp1832
g49
(g70
g51
NtRp1833
(dp1834
g54
(dp1835
sg63
g1829
sg56
(lp1836
g49
(g50
g51
NtRp1837
(dp1838
g54
(dp1839
g62
I3
ssg63
g1833
sg56
(lp1840
S'0'
asbasbasbasbasbasbasbasbasbasbasbag49
(g65
g51
NtRp1841
(dp1842
g54
(dp1843
sg63
g59
sg56
(lp1844
g49
(g70
g51
NtRp1845
(dp1846
g54
(dp1847
g74
g75
ssg63
g1841
sg56
(lp1848
S'extension'
p1849
asbag49
(g70
g51
NtRp1850
(dp1851
g54
(dp1852
g81
g82
ssg63
g1841
sg56
(lp1853
S':'
asbag49
(g70
g51
NtRp1854
(dp1855
g54
(dp1856
sg63
g1841
sg56
(lp1857
g49
(g50
g51
NtRp1858
(dp1859
g54
(dp1860
g62
I5
ssg63
g1854
sg56
(lp1861
S'html'
p1862
asbasbasbag49
(g65
g51
NtRp1863
(dp1864
g54
(dp1865
sg63
g59
sg56
(lp1866
g49
(g70
g51
NtRp1867
(dp1868
g54
(dp1869
g74
g75
ssg63
g1863
sg56
(lp1870
S'folder'
p1871
asbag49
(g70
g51
NtRp1872
(dp1873
g54
(dp1874
g81
g82
ssg63
g1863
sg56
(lp1875
S':'
asbag49
(g70
g51
NtRp1876
(dp1877
g54
(dp1878
sg63
g1863
sg56
(lp1879
g49
(g50
g51
NtRp1880
(dp1881
g54
(dp1882
g62
I5
ssg63
g1876
sg56
(lp1883
S'/Users/zamechek/Downloads/web2py/web2py.app/Contents/Resources/applications/hellow/'
p1884
asbasbasbag49
(g65
g51
NtRp1885
(dp1886
g54
(dp1887
sg63
g59
sg56
(lp1888
g49
(g70
g51
NtRp1889
(dp1890
g54
(dp1891
g74
g75
ssg63
g1885
sg56
(lp1892
S'function'
p1893
asbag49
(g70
g51
NtRp1894
(dp1895
g54
(dp1896
g81
g82
ssg63
g1885
sg56
(lp1897
S':'
asbag49
(g70
g51
NtRp1898
(dp1899
g54
(dp1900
sg63
g1885
sg56
(lp1901
g49
(g50
g51
NtRp1902
(dp1903
g54
(dp1904
g62
I5
ssg63
g1898
sg56
(lp1905
S'insert'
p1906
asbasbasbag49
(g65
g51
NtRp1907
(dp1908
g54
(dp1909
sg63
g59
sg56
(lp1910
g49
(g70
g51
NtRp1911
(dp1912
g54
(dp1913
g74
g75
ssg63
g1907
sg56
(lp1914
S'get_vars'
p1915
asbag49
(g70
g51
NtRp1916
(dp1917
g54
(dp1918
g81
g82
ssg63
g1907
sg56
(lp1919
S':'
asbag49
(g70
g51
NtRp1920
(dp1921
g54
(dp1922
sg63
g1907
sg56
(lp1923
g49
(g50
g51
NtRp1924
(dp1925
g54
(dp1926
g62
I5
ssg63
g1920
sg56
(lp1927
g49
(g58
g51
NtRp1928
(dp1929
g54
(dp1930
g62
I4
ssg63
Nsg56
(lp1931
sbasbasbasbag49
(g65
g51
NtRp1932
(dp1933
g54
(dp1934
sg63
g59
sg56
(lp1935
g49
(g70
g51
NtRp1936
(dp1937
g54
(dp1938
g74
g75
ssg63
g1932
sg56
(lp1939
S'global_settings'
p1940
asbag49
(g70
g51
NtRp1941
(dp1942
g54
(dp1943
g81
g82
ssg63
g1932
sg56
(lp1944
S':'
asbag49
(g70
g51
NtRp1945
(dp1946
g54
(dp1947
sg63
g1932
sg56
(lp1948
g49
(g50
g51
NtRp1949
(dp1950
g54
(dp1951
g62
I5
ssg63
g1945
sg56
(lp1952
g49
(g58
g51
NtRp1953
(dp1954
g54
(dp1955
g62
I4
ssg63
Nsg56
(lp1956
g49
(g65
g51
NtRp1957
(dp1958
g54
(dp1959
sg63
g1953
sg56
(lp1960
g49
(g70
g51
NtRp1961
(dp1962
g54
(dp1963
g74
g75
ssg63
g1957
sg56
(lp1964
g816
asbag49
(g70
g51
NtRp1965
(dp1966
g54
(dp1967
g81
g82
ssg63
g1957
sg56
(lp1968
S':'
asbag49
(g70
g51
NtRp1969
(dp1970
g54
(dp1971
sg63
g1957
sg56
(lp1972
g49
(g50
g51
NtRp1973
(dp1974
g54
(dp1975
g62
I4
ssg63
g1969
sg56
(lp1976
S"set(['/Users/zamechek/Downloads/web2py/web2py.app/Contents/Resources/applications/examples/', '/Users/zamechek/Downloads/web2py/web2py.app/Contents/Resources/applications/hellow/', '/Users/zamechek/Downloads/web2py/web2py.app/Contents/Resources/applications/admin/', '/Users/zamechek/Downloads/web2py/web2py.app/Contents/Resources/applications/slots/', '/Users/zamechek/Downloads/web2py/web2py.app/Contents/Resources/applications/welcome/'])"
p1977
asbasbasbag49
(g65
g51
NtRp1978
(dp1979
g54
(dp1980
sg63
g1953
sg56
(lp1981
g49
(g70
g51
NtRp1982
(dp1983
g54
(dp1984
g74
g75
ssg63
g1978
sg56
(lp1985
g838
asbag49
(g70
g51
NtRp1986
(dp1987
g54
(dp1988
g81
g82
ssg63
g1978
sg56
(lp1989
S':'
asbag49
(g70
g51
NtRp1990
(dp1991
g54
(dp1992
sg63
g1978
sg56
(lp1993
g49
(g50
g51
NtRp1994
(dp1995
g54
(dp1996
g62
I4
ssg63
g1990
sg56
(lp1997
g851
asbasbasbag49
(g65
g51
NtRp1998
(dp1999
g54
(dp2000
sg63
g1953
sg56
(lp2001
g49
(g70
g51
NtRp2002
(dp2003
g54
(dp2004
g74
g75
ssg63
g1998
sg56
(lp2005
g860
asbag49
(g70
g51
NtRp2006
(dp2007
g54
(dp2008
g81
g82
ssg63
g1998
sg56
(lp2009
S':'
asbag49
(g70
g51
NtRp2010
(dp2011
g54
(dp2012
sg63
g1998
sg56
(lp2013
g49
(g50
g51
NtRp2014
(dp2015
g54
(dp2016
g62
I4
ssg63
g2010
sg56
(lp2017
g49
(g58
g51
NtRp2018
(dp2019
g54
(dp2020
g62
I3
ssg63
Nsg56
(lp2021
sbasbasbasbag49
(g65
g51
NtRp2022
(dp2023
g54
(dp2024
sg63
g1953
sg56
(lp2025
g49
(g70
g51
NtRp2026
(dp2027
g54
(dp2028
g74
g75
ssg63
g2022
sg56
(lp2029
g885
asbag49
(g70
g51
NtRp2030
(dp2031
g54
(dp2032
g81
g82
ssg63
g2022
sg56
(lp2033
S':'
asbag49
(g70
g51
NtRp2034
(dp2035
g54
(dp2036
sg63
g2022
sg56
(lp2037
g49
(g50
g51
NtRp2038
(dp2039
g54
(dp2040
g62
I4
ssg63
g2034
sg56
(lp2041
S"<Values at 0x32c8f58: {'verbose': False, 'ip': '127.0.0.1', 'with_scheduler': False, 'ips': ['130.91.151.157'], 'shutdown_timeout': 5, 'taskbar': False, 'port': 8000, 'maxthreads': None, 'softcron': False, 'server_name': 'hntvlan531.0924.wlan.wireless-pennnet.upenn.edu', 'bpython': False, 'nogui': False, 'pid_filename': 'httpserver.pid', 'extcron': False, 'runcron': False, 'run_system_tests': False, 'test': None, 'folder': '/Users/zamechek/Downloads/web2py/web2py.app/Contents/Resources', 'config': '', 'import_models': False, 'winservice': '', 'shell': None, 'run': '', 'log_filename': 'httpserver.log', 'debuglevel': 30, 'args': [''], 'socket_timeout': 5, 'ssl_ca_certificate': None, 'scheduler': None, 'profiler_filename': None, 'ssl_private_key': '', 'scheduler_groups': None, 'password': '<ask>', 'request_queue_size': 5, 'ssl_certificate': '', 'cronjob': False, 'numthreads': None, 'quiet': False, 'interfaces': None, 'minthreads': None, 'timeout': 10, 'plain': False, 'nobanner': False}>"
p2042
asbasbasbag49
(g65
g51
NtRp2043
(dp2044
g54
(dp2045
sg63
g1953
sg56
(lp2046
g49
(g70
g51
NtRp2047
(dp2048
g54
(dp2049
g74
g75
ssg63
g2043
sg56
(lp2050
g907
asbag49
(g70
g51
NtRp2051
(dp2052
g54
(dp2053
g81
g82
ssg63
g2043
sg56
(lp2054
S':'
asbag49
(g70
g51
NtRp2055
(dp2056
g54
(dp2057
sg63
g2043
sg56
(lp2058
g49
(g50
g51
NtRp2059
(dp2060
g54
(dp2061
g62
I4
ssg63
g2055
sg56
(lp2062
S'set([])'
p2063
asbasbasbag49
(g65
g51
NtRp2064
(dp2065
g54
(dp2066
sg63
g1953
sg56
(lp2067
g49
(g70
g51
NtRp2068
(dp2069
g54
(dp2070
g74
g75
ssg63
g2064
sg56
(lp2071
g929
asbag49
(g70
g51
NtRp2072
(dp2073
g54
(dp2074
g81
g82
ssg63
g2064
sg56
(lp2075
S':'
asbag49
(g70
g51
NtRp2076
(dp2077
g54
(dp2078
sg63
g2064
sg56
(lp2079
g49
(g50
g51
NtRp2080
(dp2081
g54
(dp2082
g62
I4
ssg63
g2076
sg56
(lp2083
g942
asbasbasbag49
(g65
g51
NtRp2084
(dp2085
g54
(dp2086
sg63
g1953
sg56
(lp2087
g49
(g70
g51
NtRp2088
(dp2089
g54
(dp2090
g74
g75
ssg63
g2084
sg56
(lp2091
g951
asbag49
(g70
g51
NtRp2092
(dp2093
g54
(dp2094
g81
g82
ssg63
g2084
sg56
(lp2095
S':'
asbag49
(g70
g51
NtRp2096
(dp2097
g54
(dp2098
sg63
g2084
sg56
(lp2099
g49
(g50
g51
NtRp2100
(dp2101
g54
(dp2102
g62
I4
ssg63
g2096
sg56
(lp2103
g964
asbasbasbag49
(g65
g51
NtRp2104
(dp2105
g54
(dp2106
sg63
g1953
sg56
(lp2107
g49
(g70
g51
NtRp2108
(dp2109
g54
(dp2110
g74
g75
ssg63
g2104
sg56
(lp2111
g1171
asbag49
(g70
g51
NtRp2112
(dp2113
g54
(dp2114
g81
g82
ssg63
g2104
sg56
(lp2115
S':'
asbag49
(g70
g51
NtRp2116
(dp2117
g54
(dp2118
sg63
g2104
sg56
(lp2119
g49
(g50
g51
NtRp2120
(dp2121
g54
(dp2122
g62
I4
ssg63
g2116
sg56
(lp2123
g92
asbasbasbag49
(g65
g51
NtRp2124
(dp2125
g54
(dp2126
sg63
g1953
sg56
(lp2127
g49
(g70
g51
NtRp2128
(dp2129
g54
(dp2130
g74
g75
ssg63
g2124
sg56
(lp2131
g1192
asbag49
(g70
g51
NtRp2132
(dp2133
g54
(dp2134
g81
g82
ssg63
g2124
sg56
(lp2135
S':'
asbag49
(g70
g51
NtRp2136
(dp2137
g54
(dp2138
sg63
g2124
sg56
(lp2139
g49
(g50
g51
NtRp2140
(dp2141
g54
(dp2142
g62
I4
ssg63
g2136
sg56
(lp2143
g92
asbasbasbag49
(g65
g51
NtRp2144
(dp2145
g54
(dp2146
sg63
g1953
sg56
(lp2147
g49
(g70
g51
NtRp2148
(dp2149
g54
(dp2150
g74
g75
ssg63
g2144
sg56
(lp2151
g1213
asbag49
(g70
g51
NtRp2152
(dp2153
g54
(dp2154
g81
g82
ssg63
g2144
sg56
(lp2155
S':'
asbag49
(g70
g51
NtRp2156
(dp2157
g54
(dp2158
sg63
g2144
sg56
(lp2159
g49
(g50
g51
NtRp2160
(dp2161
g54
(dp2162
g62
I4
ssg63
g2156
sg56
(lp2163
g49
(g58
g51
NtRp2164
(dp2165
g54
(dp2166
g62
I3
ssg63
Nsg56
(lp2167
g49
(g65
g51
NtRp2168
(dp2169
g54
(dp2170
sg63
g2164
sg56
(lp2171
g49
(g70
g51
NtRp2172
(dp2173
g54
(dp2174
sg63
g2168
sg56
(lp2175
g49
(g50
g51
NtRp2176
(dp2177
g54
(dp2178
g62
I3
ssg63
g2172
sg56
(lp2179
g1242
asbasbasbag49
(g65
g51
NtRp2180
(dp2181
g54
(dp2182
sg63
g2164
sg56
(lp2183
g49
(g70
g51
NtRp2184
(dp2185
g54
(dp2186
sg63
g2180
sg56
(lp2187
g49
(g50
g51
NtRp2188
(dp2189
g54
(dp2190
g62
I3
ssg63
g2184
sg56
(lp2191
g1255
asbasbasbag49
(g65
g51
NtRp2192
(dp2193
g54
(dp2194
sg63
g2164
sg56
(lp2195
g49
(g70
g51
NtRp2196
(dp2197
g54
(dp2198
sg63
g2192
sg56
(lp2199
g49
(g50
g51
NtRp2200
(dp2201
g54
(dp2202
g62
I3
ssg63
g2196
sg56
(lp2203
g1268
asbasbasbag49
(g65
g51
NtRp2204
(dp2205
g54
(dp2206
sg63
g2164
sg56
(lp2207
g49
(g70
g51
NtRp2208
(dp2209
g54
(dp2210
sg63
g2204
sg56
(lp2211
g49
(g50
g51
NtRp2212
(dp2213
g54
(dp2214
g62
I3
ssg63
g2208
sg56
(lp2215
g1281
asbasbasbag49
(g65
g51
NtRp2216
(dp2217
g54
(dp2218
sg63
g2164
sg56
(lp2219
g49
(g70
g51
NtRp2220
(dp2221
g54
(dp2222
sg63
g2216
sg56
(lp2223
g49
(g50
g51
NtRp2224
(dp2225
g54
(dp2226
g62
I3
ssg63
g2220
sg56
(lp2227
g1294
asbasbasbasbasbasbasbag49
(g65
g51
NtRp2228
(dp2229
g54
(dp2230
sg63
g1953
sg56
(lp2231
g49
(g70
g51
NtRp2232
(dp2233
g54
(dp2234
g74
g75
ssg63
g2228
sg56
(lp2235
g1562
asbag49
(g70
g51
NtRp2236
(dp2237
g54
(dp2238
g81
g82
ssg63
g2228
sg56
(lp2239
S':'
asbag49
(g70
g51
NtRp2240
(dp2241
g54
(dp2242
sg63
g2228
sg56
(lp2243
g49
(g50
g51
NtRp2244
(dp2245
g54
(dp2246
g62
I4
ssg63
g2240
sg56
(lp2247
g49
(g58
g51
NtRp2248
(dp2249
g54
(dp2250
g62
I3
ssg63
Nsg56
(lp2251
g49
(g65
g51
NtRp2252
(dp2253
g54
(dp2254
sg63
g2248
sg56
(lp2255
g49
(g70
g51
NtRp2256
(dp2257
g54
(dp2258
sg63
g2252
sg56
(lp2259
g49
(g50
g51
NtRp2260
(dp2261
g54
(dp2262
g62
I3
ssg63
g2256
sg56
(lp2263
S'2'
asbasbasbag49
(g65
g51
NtRp2264
(dp2265
g54
(dp2266
sg63
g2248
sg56
(lp2267
g49
(g70
g51
NtRp2268
(dp2269
g54
(dp2270
sg63
g2264
sg56
(lp2271
g49
(g50
g51
NtRp2272
(dp2273
g54
(dp2274
g62
I3
ssg63
g2268
sg56
(lp2275
S'4'
asbasbasbag49
(g65
g51
NtRp2276
(dp2277
g54
(dp2278
sg63
g2248
sg56
(lp2279
g49
(g70
g51
NtRp2280
(dp2281
g54
(dp2282
sg63
g2276
sg56
(lp2283
g49
(g50
g51
NtRp2284
(dp2285
g54
(dp2286
g62
I3
ssg63
g2280
sg56
(lp2287
S'5'
asbasbasbag49
(g65
g51
NtRp2288
(dp2289
g54
(dp2290
sg63
g2248
sg56
(lp2291
g49
(g70
g51
NtRp2292
(dp2293
g54
(dp2294
sg63
g2288
sg56
(lp2295
g49
(g50
g51
NtRp2296
(dp2297
g54
(dp2298
g62
I3
ssg63
g2292
sg56
(lp2299
g1627
asbasbasbag49
(g65
g51
NtRp2300
(dp2301
g54
(dp2302
sg63
g2248
sg56
(lp2303
g49
(g70
g51
NtRp2304
(dp2305
g54
(dp2306
sg63
g2300
sg56
(lp2307
g49
(g50
g51
NtRp2308
(dp2309
g54
(dp2310
g62
I3
ssg63
g2304
sg56
(lp2311
S'datetime.datetime(2013, 3, 18, 22, 46, 22)'
p2312
asbasbasbasbasbasbasbasbasbasbasbag49
(g65
g51
NtRp2313
(dp2314
g54
(dp2315
sg63
g59
sg56
(lp2316
g49
(g70
g51
NtRp2317
(dp2318
g54
(dp2319
g74
g75
ssg63
g2313
sg56
(lp2320
S'is_https'
p2321
asbag49
(g70
g51
NtRp2322
(dp2323
g54
(dp2324
g81
g82
ssg63
g2313
sg56
(lp2325
S':'
asbag49
(g70
g51
NtRp2326
(dp2327
g54
(dp2328
sg63
g2313
sg56
(lp2329
g49
(g50
g51
NtRp2330
(dp2331
g54
(dp2332
g62
I5
ssg63
g2326
sg56
(lp2333
g92
asbasbasbag49
(g65
g51
NtRp2334
(dp2335
g54
(dp2336
sg63
g59
sg56
(lp2337
g49
(g70
g51
NtRp2338
(dp2339
g54
(dp2340
g74
g75
ssg63
g2334
sg56
(lp2341
S'is_local'
p2342
asbag49
(g70
g51
NtRp2343
(dp2344
g54
(dp2345
g81
g82
ssg63
g2334
sg56
(lp2346
S':'
asbag49
(g70
g51
NtRp2347
(dp2348
g54
(dp2349
sg63
g2334
sg56
(lp2350
g49
(g50
g51
NtRp2351
(dp2352
g54
(dp2353
g62
I5
ssg63
g2347
sg56
(lp2354
g942
asbasbasbag49
(g65
g51
NtRp2355
(dp2356
g54
(dp2357
sg63
g59
sg56
(lp2358
g49
(g70
g51
NtRp2359
(dp2360
g54
(dp2361
g74
g75
ssg63
g2355
sg56
(lp2362
S'is_restful'
p2363
asbag49
(g70
g51
NtRp2364
(dp2365
g54
(dp2366
g81
g82
ssg63
g2355
sg56
(lp2367
S':'
asbag49
(g70
g51
NtRp2368
(dp2369
g54
(dp2370
sg63
g2355
sg56
(lp2371
g49
(g50
g51
NtRp2372
(dp2373
g54
(dp2374
g62
I5
ssg63
g2368
sg56
(lp2375
g92
asbasbasbag49
(g65
g51
NtRp2376
(dp2377
g54
(dp2378
sg63
g59
sg56
(lp2379
g49
(g70
g51
NtRp2380
(dp2381
g54
(dp2382
g74
g75
ssg63
g2376
sg56
(lp2383
S'now'
p2384
asbag49
(g70
g51
NtRp2385
(dp2386
g54
(dp2387
g81
g82
ssg63
g2376
sg56
(lp2388
S':'
asbag49
(g70
g51
NtRp2389
(dp2390
g54
(dp2391
sg63
g2376
sg56
(lp2392
g49
(g50
g51
NtRp2393
(dp2394
g54
(dp2395
g62
I5
ssg63
g2389
sg56
(lp2396
S'datetime.datetime(2013, 3, 26, 15, 51, 59, 923783)'
p2397
asbasbasbag49
(g65
g51
NtRp2398
(dp2399
g54
(dp2400
sg63
g59
sg56
(lp2401
g49
(g70
g51
NtRp2402
(dp2403
g54
(dp2404
g74
g75
ssg63
g2398
sg56
(lp2405
S'post_vars'
p2406
asbag49
(g70
g51
NtRp2407
(dp2408
g54
(dp2409
g81
g82
ssg63
g2398
sg56
(lp2410
S':'
asbag49
(g70
g51
NtRp2411
(dp2412
g54
(dp2413
sg63
g2398
sg56
(lp2414
g49
(g50
g51
NtRp2415
(dp2416
g54
(dp2417
g62
I5
ssg63
g2411
sg56
(lp2418
g49
(g58
g51
NtRp2419
(dp2420
g54
(dp2421
g62
I4
ssg63
Nsg56
(lp2422
sbasbasbasbag49
(g65
g51
NtRp2423
(dp2424
g54
(dp2425
sg63
g59
sg56
(lp2426
g49
(g70
g51
NtRp2427
(dp2428
g54
(dp2429
g74
g75
ssg63
g2423
sg56
(lp2430
S'raw_args'
p2431
asbag49
(g70
g51
NtRp2432
(dp2433
g54
(dp2434
g81
g82
ssg63
g2423
sg56
(lp2435
S':'
asbag49
(g70
g51
NtRp2436
(dp2437
g54
(dp2438
sg63
g2423
sg56
(lp2439
g49
(g50
g51
NtRp2440
(dp2441
g54
(dp2442
g62
I5
ssg63
g2436
sg56
(lp2443
S'db/game_slots'
p2444
asbasbasbag49
(g65
g51
NtRp2445
(dp2446
g54
(dp2447
sg63
g59
sg56
(lp2448
g49
(g70
g51
NtRp2449
(dp2450
g54
(dp2451
g74
g75
ssg63
g2445
sg56
(lp2452
S'raw_extension'
p2453
asbag49
(g70
g51
NtRp2454
(dp2455
g54
(dp2456
g81
g82
ssg63
g2445
sg56
(lp2457
S':'
asbag49
(g70
g51
NtRp2458
(dp2459
g54
(dp2460
sg63
g2445
sg56
(lp2461
g49
(g50
g51
NtRp2462
(dp2463
g54
(dp2464
g62
I5
ssg63
g2458
sg56
(lp2465
S'None'
p2466
asbasbasbag49
(g65
g51
NtRp2467
(dp2468
g54
(dp2469
sg63
g59
sg56
(lp2470
g49
(g70
g51
NtRp2471
(dp2472
g54
(dp2473
g74
g75
ssg63
g2467
sg56
(lp2474
S'url'
p2475
asbag49
(g70
g51
NtRp2476
(dp2477
g54
(dp2478
g81
g82
ssg63
g2467
sg56
(lp2479
S':'
asbag49
(g70
g51
NtRp2480
(dp2481
g54
(dp2482
sg63
g2467
sg56
(lp2483
g49
(g50
g51
NtRp2484
(dp2485
g54
(dp2486
g62
I5
ssg63
g2480
sg56
(lp2487
g1316
asbasbasbag49
(g65
g51
NtRp2488
(dp2489
g54
(dp2490
sg63
g59
sg56
(lp2491
g49
(g70
g51
NtRp2492
(dp2493
g54
(dp2494
g74
g75
ssg63
g2488
sg56
(lp2495
S'utcnow'
p2496
asbag49
(g70
g51
NtRp2497
(dp2498
g54
(dp2499
g81
g82
ssg63
g2488
sg56
(lp2500
S':'
asbag49
(g70
g51
NtRp2501
(dp2502
g54
(dp2503
sg63
g2488
sg56
(lp2504
g49
(g50
g51
NtRp2505
(dp2506
g54
(dp2507
g62
I5
ssg63
g2501
sg56
(lp2508
S'datetime.datetime(2013, 3, 26, 19, 51, 59, 923795)'
p2509
asbasbasbag49
(g65
g51
NtRp2510
(dp2511
g54
(dp2512
sg63
g59
sg56
(lp2513
g49
(g70
g51
NtRp2514
(dp2515
g54
(dp2516
g74
g75
ssg63
g2510
sg56
(lp2517
S'uuid'
p2518
asbag49
(g70
g51
NtRp2519
(dp2520
g54
(dp2521
g81
g82
ssg63
g2510
sg56
(lp2522
S':'
asbag49
(g70
g51
NtRp2523
(dp2524
g54
(dp2525
sg63
g2510
sg56
(lp2526
g49
(g50
g51
NtRp2527
(dp2528
g54
(dp2529
g62
I5
ssg63
g2523
sg56
(lp2530
S'hellow/127.0.0.1.2013-03-26.15-51-59.79a80b7e-6b88-4ff3-bf41-45ca6701363c'
p2531
asbasbasbag49
(g65
g51
NtRp2532
(dp2533
g54
(dp2534
sg63
g59
sg56
(lp2535
g49
(g70
g51
NtRp2536
(dp2537
g54
(dp2538
g74
g75
ssg63
g2532
sg56
(lp2539
S'vars'
p2540
asbag49
(g70
g51
NtRp2541
(dp2542
g54
(dp2543
g81
g82
ssg63
g2532
sg56
(lp2544
S':'
asbag49
(g70
g51
NtRp2545
(dp2546
g54
(dp2547
sg63
g2532
sg56
(lp2548
g49
(g50
g51
NtRp2549
(dp2550
g54
(dp2551
g62
I5
ssg63
g2545
sg56
(lp2552
g49
(g58
g51
NtRp2553
(dp2554
g54
(dp2555
g62
I4
ssg63
Nsg56
(lp2556
sbasbasbasbag49
(g65
g51
NtRp2557
(dp2558
g54
(dp2559
sg63
g59
sg56
(lp2560
g49
(g70
g51
NtRp2561
(dp2562
g54
(dp2563
g74
g75
ssg63
g2557
sg56
(lp2564
S'wsgi'
p2565
asbag49
(g70
g51
NtRp2566
(dp2567
g54
(dp2568
g81
g82
ssg63
g2557
sg56
(lp2569
S':'
asbag49
(g70
g51
NtRp2570
(dp2571
g54
(dp2572
sg63
g2557
sg56
(lp2573
g49
(g50
g51
NtRp2574
(dp2575
g54
(dp2576
g62
I5
ssg63
g2570
sg56
(lp2577
g49
(g58
g51
NtRp2578
(dp2579
g54
(dp2580
g62
I4
ssg63
Nsg56
(lp2581
g49
(g65
g51
NtRp2582
(dp2583
g54
(dp2584
sg63
g2578
sg56
(lp2585
g49
(g70
g51
NtRp2586
(dp2587
g54
(dp2588
g74
g75
ssg63
g2582
sg56
(lp2589
S'environ'
p2590
asbag49
(g70
g51
NtRp2591
(dp2592
g54
(dp2593
g81
g82
ssg63
g2582
sg56
(lp2594
S':'
asbag49
(g70
g51
NtRp2595
(dp2596
g54
(dp2597
sg63
g2582
sg56
(lp2598
g49
(g50
g51
NtRp2599
(dp2600
g54
(dp2601
g62
I4
ssg63
g2595
sg56
(lp2602
g49
(g58
g51
NtRp2603
(dp2604
g54
(dp2605
g62
I3
ssg63
Nsg56
(lp2606
g49
(g65
g51
NtRp2607
(dp2608
g54
(dp2609
sg63
g2603
sg56
(lp2610
g49
(g70
g51
NtRp2611
(dp2612
g54
(dp2613
g74
g75
ssg63
g2607
sg56
(lp2614
S'HTTP_ACCEPT'
p2615
asbag49
(g70
g51
NtRp2616
(dp2617
g54
(dp2618
g81
g82
ssg63
g2607
sg56
(lp2619
S':'
asbag49
(g70
g51
NtRp2620
(dp2621
g54
(dp2622
sg63
g2607
sg56
(lp2623
g49
(g50
g51
NtRp2624
(dp2625
g54
(dp2626
g62
I3
ssg63
g2620
sg56
(lp2627
g986
asbasbasbag49
(g65
g51
NtRp2628
(dp2629
g54
(dp2630
sg63
g2603
sg56
(lp2631
g49
(g70
g51
NtRp2632
(dp2633
g54
(dp2634
g74
g75
ssg63
g2628
sg56
(lp2635
S'HTTP_ACCEPT_CHARSET'
p2636
asbag49
(g70
g51
NtRp2637
(dp2638
g54
(dp2639
g81
g82
ssg63
g2628
sg56
(lp2640
S':'
asbag49
(g70
g51
NtRp2641
(dp2642
g54
(dp2643
sg63
g2628
sg56
(lp2644
g49
(g50
g51
NtRp2645
(dp2646
g54
(dp2647
g62
I3
ssg63
g2641
sg56
(lp2648
g1008
asbasbasbag49
(g65
g51
NtRp2649
(dp2650
g54
(dp2651
sg63
g2603
sg56
(lp2652
g49
(g70
g51
NtRp2653
(dp2654
g54
(dp2655
g74
g75
ssg63
g2649
sg56
(lp2656
S'HTTP_ACCEPT_ENCODING'
p2657
asbag49
(g70
g51
NtRp2658
(dp2659
g54
(dp2660
g81
g82
ssg63
g2649
sg56
(lp2661
S':'
asbag49
(g70
g51
NtRp2662
(dp2663
g54
(dp2664
sg63
g2649
sg56
(lp2665
g49
(g50
g51
NtRp2666
(dp2667
g54
(dp2668
g62
I3
ssg63
g2662
sg56
(lp2669
g1030
asbasbasbag49
(g65
g51
NtRp2670
(dp2671
g54
(dp2672
sg63
g2603
sg56
(lp2673
g49
(g70
g51
NtRp2674
(dp2675
g54
(dp2676
g74
g75
ssg63
g2670
sg56
(lp2677
S'HTTP_ACCEPT_LANGUAGE'
p2678
asbag49
(g70
g51
NtRp2679
(dp2680
g54
(dp2681
g81
g82
ssg63
g2670
sg56
(lp2682
S':'
asbag49
(g70
g51
NtRp2683
(dp2684
g54
(dp2685
sg63
g2670
sg56
(lp2686
g49
(g50
g51
NtRp2687
(dp2688
g54
(dp2689
g62
I3
ssg63
g2683
sg56
(lp2690
g1052
asbasbasbag49
(g65
g51
NtRp2691
(dp2692
g54
(dp2693
sg63
g2603
sg56
(lp2694
g49
(g70
g51
NtRp2695
(dp2696
g54
(dp2697
g74
g75
ssg63
g2691
sg56
(lp2698
S'HTTP_CONNECTION'
p2699
asbag49
(g70
g51
NtRp2700
(dp2701
g54
(dp2702
g81
g82
ssg63
g2691
sg56
(lp2703
S':'
asbag49
(g70
g51
NtRp2704
(dp2705
g54
(dp2706
sg63
g2691
sg56
(lp2707
g49
(g50
g51
NtRp2708
(dp2709
g54
(dp2710
g62
I3
ssg63
g2704
sg56
(lp2711
g1074
asbasbasbag49
(g65
g51
NtRp2712
(dp2713
g54
(dp2714
sg63
g2603
sg56
(lp2715
g49
(g70
g51
NtRp2716
(dp2717
g54
(dp2718
g74
g75
ssg63
g2712
sg56
(lp2719
S'HTTP_COOKIE'
p2720
asbag49
(g70
g51
NtRp2721
(dp2722
g54
(dp2723
g81
g82
ssg63
g2712
sg56
(lp2724
S':'
asbag49
(g70
g51
NtRp2725
(dp2726
g54
(dp2727
sg63
g2712
sg56
(lp2728
g49
(g50
g51
NtRp2729
(dp2730
g54
(dp2731
g62
I3
ssg63
g2725
sg56
(lp2732
g1096
asbasbasbag49
(g65
g51
NtRp2733
(dp2734
g54
(dp2735
sg63
g2603
sg56
(lp2736
g49
(g70
g51
NtRp2737
(dp2738
g54
(dp2739
g74
g75
ssg63
g2733
sg56
(lp2740
S'HTTP_HOST'
p2741
asbag49
(g70
g51
NtRp2742
(dp2743
g54
(dp2744
g81
g82
ssg63
g2733
sg56
(lp2745
S':'
asbag49
(g70
g51
NtRp2746
(dp2747
g54
(dp2748
sg63
g2733
sg56
(lp2749
g49
(g50
g51
NtRp2750
(dp2751
g54
(dp2752
g62
I3
ssg63
g2746
sg56
(lp2753
g1118
asbasbasbag49
(g65
g51
NtRp2754
(dp2755
g54
(dp2756
sg63
g2603
sg56
(lp2757
g49
(g70
g51
NtRp2758
(dp2759
g54
(dp2760
g74
g75
ssg63
g2754
sg56
(lp2761
S'HTTP_REFERER'
p2762
asbag49
(g70
g51
NtRp2763
(dp2764
g54
(dp2765
g81
g82
ssg63
g2754
sg56
(lp2766
S':'
asbag49
(g70
g51
NtRp2767
(dp2768
g54
(dp2769
sg63
g2754
sg56
(lp2770
g49
(g50
g51
NtRp2771
(dp2772
g54
(dp2773
g62
I3
ssg63
g2767
sg56
(lp2774
g1140
asbasbasbag49
(g65
g51
NtRp2775
(dp2776
g54
(dp2777
sg63
g2603
sg56
(lp2778
g49
(g70
g51
NtRp2779
(dp2780
g54
(dp2781
g74
g75
ssg63
g2775
sg56
(lp2782
S'HTTP_USER_AGENT'
p2783
asbag49
(g70
g51
NtRp2784
(dp2785
g54
(dp2786
g81
g82
ssg63
g2775
sg56
(lp2787
S':'
asbag49
(g70
g51
NtRp2788
(dp2789
g54
(dp2790
sg63
g2775
sg56
(lp2791
g49
(g50
g51
NtRp2792
(dp2793
g54
(dp2794
g62
I3
ssg63
g2788
sg56
(lp2795
g1162
asbasbasbag49
(g65
g51
NtRp2796
(dp2797
g54
(dp2798
sg63
g2603
sg56
(lp2799
g49
(g70
g51
NtRp2800
(dp2801
g54
(dp2802
g74
g75
ssg63
g2796
sg56
(lp2803
S'PATH_INFO'
p2804
asbag49
(g70
g51
NtRp2805
(dp2806
g54
(dp2807
g81
g82
ssg63
g2796
sg56
(lp2808
S':'
asbag49
(g70
g51
NtRp2809
(dp2810
g54
(dp2811
sg63
g2796
sg56
(lp2812
g49
(g50
g51
NtRp2813
(dp2814
g54
(dp2815
g62
I3
ssg63
g2809
sg56
(lp2816
g1316
asbasbasbag49
(g65
g51
NtRp2817
(dp2818
g54
(dp2819
sg63
g2603
sg56
(lp2820
g49
(g70
g51
NtRp2821
(dp2822
g54
(dp2823
g74
g75
ssg63
g2817
sg56
(lp2824
S'QUERY_STRING'
p2825
asbag49
(g70
g51
NtRp2826
(dp2827
g54
(dp2828
g81
g82
ssg63
g2817
sg56
(lp2829
S':'
asbag49
(g70
g51
NtRp2830
(dp2831
g54
(dp2832
sg63
g2817
sg56
(lp2833
g49
(g50
g51
NtRp2834
(dp2835
g54
(dp2836
g62
I3
ssg63
g2830
sg56
(lp2837
S''
asbasbasbag49
(g65
g51
NtRp2838
(dp2839
g54
(dp2840
sg63
g2603
sg56
(lp2841
g49
(g70
g51
NtRp2842
(dp2843
g54
(dp2844
g74
g75
ssg63
g2838
sg56
(lp2845
S'REMOTE_ADDR'
p2846
asbag49
(g70
g51
NtRp2847
(dp2848
g54
(dp2849
g81
g82
ssg63
g2838
sg56
(lp2850
S':'
asbag49
(g70
g51
NtRp2851
(dp2852
g54
(dp2853
sg63
g2838
sg56
(lp2854
g49
(g50
g51
NtRp2855
(dp2856
g54
(dp2857
g62
I3
ssg63
g2851
sg56
(lp2858
g230
asbasbasbag49
(g65
g51
NtRp2859
(dp2860
g54
(dp2861
sg63
g2603
sg56
(lp2862
g49
(g70
g51
NtRp2863
(dp2864
g54
(dp2865
g74
g75
ssg63
g2859
sg56
(lp2866
S'REMOTE_PORT'
p2867
asbag49
(g70
g51
NtRp2868
(dp2869
g54
(dp2870
g81
g82
ssg63
g2859
sg56
(lp2871
S':'
asbag49
(g70
g51
NtRp2872
(dp2873
g54
(dp2874
sg63
g2859
sg56
(lp2875
g49
(g50
g51
NtRp2876
(dp2877
g54
(dp2878
g62
I3
ssg63
g2872
sg56
(lp2879
g1380
asbasbasbag49
(g65
g51
NtRp2880
(dp2881
g54
(dp2882
sg63
g2603
sg56
(lp2883
g49
(g70
g51
NtRp2884
(dp2885
g54
(dp2886
g74
g75
ssg63
g2880
sg56
(lp2887
S'REQUEST_METHOD'
p2888
asbag49
(g70
g51
NtRp2889
(dp2890
g54
(dp2891
g81
g82
ssg63
g2880
sg56
(lp2892
S':'
asbag49
(g70
g51
NtRp2893
(dp2894
g54
(dp2895
sg63
g2880
sg56
(lp2896
g49
(g50
g51
NtRp2897
(dp2898
g54
(dp2899
g62
I3
ssg63
g2893
sg56
(lp2900
g1402
asbasbasbag49
(g65
g51
NtRp2901
(dp2902
g54
(dp2903
sg63
g2603
sg56
(lp2904
g49
(g70
g51
NtRp2905
(dp2906
g54
(dp2907
g74
g75
ssg63
g2901
sg56
(lp2908
S'REQUEST_URI'
p2909
asbag49
(g70
g51
NtRp2910
(dp2911
g54
(dp2912
g81
g82
ssg63
g2901
sg56
(lp2913
S':'
asbag49
(g70
g51
NtRp2914
(dp2915
g54
(dp2916
sg63
g2901
sg56
(lp2917
g49
(g50
g51
NtRp2918
(dp2919
g54
(dp2920
g62
I3
ssg63
g2914
sg56
(lp2921
g1316
asbasbasbag49
(g65
g51
NtRp2922
(dp2923
g54
(dp2924
sg63
g2603
sg56
(lp2925
g49
(g70
g51
NtRp2926
(dp2927
g54
(dp2928
g74
g75
ssg63
g2922
sg56
(lp2929
S'SCRIPT_NAME'
p2930
asbag49
(g70
g51
NtRp2931
(dp2932
g54
(dp2933
g81
g82
ssg63
g2922
sg56
(lp2934
S':'
asbag49
(g70
g51
NtRp2935
(dp2936
g54
(dp2937
sg63
g2922
sg56
(lp2938
g49
(g50
g51
NtRp2939
(dp2940
g54
(dp2941
g62
I3
ssg63
g2935
sg56
(lp2942
S''
asbasbasbag49
(g65
g51
NtRp2943
(dp2944
g54
(dp2945
sg63
g2603
sg56
(lp2946
g49
(g70
g51
NtRp2947
(dp2948
g54
(dp2949
g74
g75
ssg63
g2943
sg56
(lp2950
S'SERVER_NAME'
p2951
asbag49
(g70
g51
NtRp2952
(dp2953
g54
(dp2954
g81
g82
ssg63
g2943
sg56
(lp2955
S':'
asbag49
(g70
g51
NtRp2956
(dp2957
g54
(dp2958
sg63
g2943
sg56
(lp2959
g49
(g50
g51
NtRp2960
(dp2961
g54
(dp2962
g62
I3
ssg63
g2956
sg56
(lp2963
g1466
asbasbasbag49
(g65
g51
NtRp2964
(dp2965
g54
(dp2966
sg63
g2603
sg56
(lp2967
g49
(g70
g51
NtRp2968
(dp2969
g54
(dp2970
g74
g75
ssg63
g2964
sg56
(lp2971
S'SERVER_PORT'
p2972
asbag49
(g70
g51
NtRp2973
(dp2974
g54
(dp2975
g81
g82
ssg63
g2964
sg56
(lp2976
S':'
asbag49
(g70
g51
NtRp2977
(dp2978
g54
(dp2979
sg63
g2964
sg56
(lp2980
g49
(g50
g51
NtRp2981
(dp2982
g54
(dp2983
g62
I3
ssg63
g2977
sg56
(lp2984
g1488
asbasbasbag49
(g65
g51
NtRp2985
(dp2986
g54
(dp2987
sg63
g2603
sg56
(lp2988
g49
(g70
g51
NtRp2989
(dp2990
g54
(dp2991
g74
g75
ssg63
g2985
sg56
(lp2992
S'SERVER_PROTOCOL'
p2993
asbag49
(g70
g51
NtRp2994
(dp2995
g54
(dp2996
g81
g82
ssg63
g2985
sg56
(lp2997
S':'
asbag49
(g70
g51
NtRp2998
(dp2999
g54
(dp3000
sg63
g2985
sg56
(lp3001
g49
(g50
g51
NtRp3002
(dp3003
g54
(dp3004
g62
I3
ssg63
g2998
sg56
(lp3005
g1510
asbasbasbag49
(g65
g51
NtRp3006
(dp3007
g54
(dp3008
sg63
g2603
sg56
(lp3009
g49
(g70
g51
NtRp3010
(dp3011
g54
(dp3012
g74
g75
ssg63
g3006
sg56
(lp3013
S'SERVER_SOFTWARE'
p3014
asbag49
(g70
g51
NtRp3015
(dp3016
g54
(dp3017
g81
g82
ssg63
g3006
sg56
(lp3018
S':'
asbag49
(g70
g51
NtRp3019
(dp3020
g54
(dp3021
sg63
g3006
sg56
(lp3022
g49
(g50
g51
NtRp3023
(dp3024
g54
(dp3025
g62
I3
ssg63
g3019
sg56
(lp3026
g1532
asbasbasbag49
(g65
g51
NtRp3027
(dp3028
g54
(dp3029
sg63
g2603
sg56
(lp3030
g49
(g70
g51
NtRp3031
(dp3032
g54
(dp3033
g74
g75
ssg63
g3027
sg56
(lp3034
S'wsgi.errors'
p3035
asbag49
(g70
g51
NtRp3036
(dp3037
g54
(dp3038
g81
g82
ssg63
g3027
sg56
(lp3039
S':'
asbag49
(g70
g51
NtRp3040
(dp3041
g54
(dp3042
sg63
g3027
sg56
(lp3043
g49
(g50
g51
NtRp3044
(dp3045
g54
(dp3046
g62
I3
ssg63
g3040
sg56
(lp3047
S"<open file '<stderr>', mode 'w' at 0x540b0>"
p3048
asbasbasbag49
(g65
g51
NtRp3049
(dp3050
g54
(dp3051
sg63
g2603
sg56
(lp3052
g49
(g70
g51
NtRp3053
(dp3054
g54
(dp3055
g74
g75
ssg63
g3049
sg56
(lp3056
S'wsgi.file_wrapper'
p3057
asbag49
(g70
g51
NtRp3058
(dp3059
g54
(dp3060
g81
g82
ssg63
g3049
sg56
(lp3061
S':'
asbag49
(g70
g51
NtRp3062
(dp3063
g54
(dp3064
sg63
g3049
sg56
(lp3065
g49
(g50
g51
NtRp3066
(dp3067
g54
(dp3068
g62
I3
ssg63
g3062
sg56
(lp3069
S'<class wsgiref.util.FileWrapper at 0x329d060>'
p3070
asbasbasbag49
(g65
g51
NtRp3071
(dp3072
g54
(dp3073
sg63
g2603
sg56
(lp3074
g49
(g70
g51
NtRp3075
(dp3076
g54
(dp3077
g74
g75
ssg63
g3071
sg56
(lp3078
S'wsgi.input'
p3079
asbag49
(g70
g51
NtRp3080
(dp3081
g54
(dp3082
g81
g82
ssg63
g3071
sg56
(lp3083
S':'
asbag49
(g70
g51
NtRp3084
(dp3085
g54
(dp3086
sg63
g3071
sg56
(lp3087
g49
(g50
g51
NtRp3088
(dp3089
g54
(dp3090
g62
I3
ssg63
g3084
sg56
(lp3091
S'<cStringIO.StringO object at 0xaaddca0>'
p3092
asbasbasbag49
(g65
g51
NtRp3093
(dp3094
g54
(dp3095
sg63
g2603
sg56
(lp3096
g49
(g70
g51
NtRp3097
(dp3098
g54
(dp3099
g74
g75
ssg63
g3093
sg56
(lp3100
S'wsgi.multiprocess'
p3101
asbag49
(g70
g51
NtRp3102
(dp3103
g54
(dp3104
g81
g82
ssg63
g3093
sg56
(lp3105
S':'
asbag49
(g70
g51
NtRp3106
(dp3107
g54
(dp3108
sg63
g3093
sg56
(lp3109
g49
(g50
g51
NtRp3110
(dp3111
g54
(dp3112
g62
I3
ssg63
g3106
sg56
(lp3113
g92
asbasbasbag49
(g65
g51
NtRp3114
(dp3115
g54
(dp3116
sg63
g2603
sg56
(lp3117
g49
(g70
g51
NtRp3118
(dp3119
g54
(dp3120
g74
g75
ssg63
g3114
sg56
(lp3121
S'wsgi.multithread'
p3122
asbag49
(g70
g51
NtRp3123
(dp3124
g54
(dp3125
g81
g82
ssg63
g3114
sg56
(lp3126
S':'
asbag49
(g70
g51
NtRp3127
(dp3128
g54
(dp3129
sg63
g3114
sg56
(lp3130
g49
(g50
g51
NtRp3131
(dp3132
g54
(dp3133
g62
I3
ssg63
g3127
sg56
(lp3134
g942
asbasbasbag49
(g65
g51
NtRp3135
(dp3136
g54
(dp3137
sg63
g2603
sg56
(lp3138
g49
(g70
g51
NtRp3139
(dp3140
g54
(dp3141
g74
g75
ssg63
g3135
sg56
(lp3142
S'wsgi.run_once'
p3143
asbag49
(g70
g51
NtRp3144
(dp3145
g54
(dp3146
g81
g82
ssg63
g3135
sg56
(lp3147
S':'
asbag49
(g70
g51
NtRp3148
(dp3149
g54
(dp3150
sg63
g3135
sg56
(lp3151
g49
(g50
g51
NtRp3152
(dp3153
g54
(dp3154
g62
I3
ssg63
g3148
sg56
(lp3155
g92
asbasbasbag49
(g65
g51
NtRp3156
(dp3157
g54
(dp3158
sg63
g2603
sg56
(lp3159
g49
(g70
g51
NtRp3160
(dp3161
g54
(dp3162
g74
g75
ssg63
g3156
sg56
(lp3163
S'wsgi.url_scheme'
p3164
asbag49
(g70
g51
NtRp3165
(dp3166
g54
(dp3167
g81
g82
ssg63
g3156
sg56
(lp3168
S':'
asbag49
(g70
g51
NtRp3169
(dp3170
g54
(dp3171
sg63
g3156
sg56
(lp3172
g49
(g50
g51
NtRp3173
(dp3174
g54
(dp3175
g62
I3
ssg63
g3169
sg56
(lp3176
g1791
asbasbasbag49
(g65
g51
NtRp3177
(dp3178
g54
(dp3179
sg63
g2603
sg56
(lp3180
g49
(g70
g51
NtRp3181
(dp3182
g54
(dp3183
g74
g75
ssg63
g3177
sg56
(lp3184
S'wsgi.version'
p3185
asbag49
(g70
g51
NtRp3186
(dp3187
g54
(dp3188
g81
g82
ssg63
g3177
sg56
(lp3189
S':'
asbag49
(g70
g51
NtRp3190
(dp3191
g54
(dp3192
sg63
g3177
sg56
(lp3193
g49
(g50
g51
NtRp3194
(dp3195
g54
(dp3196
g62
I3
ssg63
g3190
sg56
(lp3197
S'1'
asbasbasbasbasbasbasbasbasbasbasbasbasbsS'frames'
p3198
(lp3199
(dp3200
S'file'
p3201
S'/home/mdipierro/web2py/gluon/restricted.py'
p3202
sS'dump'
p3203
(dp3204
sS'lnum'
p3205
I212
sS'lines'
p3206
(dp3207
sS'call'
p3208
S"(code='# -*- coding: utf-8 -*-\\n\\n# #####################...gv=pgv)\\n\\nresponse._vars=response._caller(insert)\\n', environment={'A': <class 'gluon.html.A'>, 'Auth': <class 'gluon.tools.Auth'>, 'B': <class 'gluon.html.B'>, 'BEAUTIFY': <class 'gluon.html.BEAUTIFY'>, 'BODY': <class 'gluon.html.BODY'>, 'BR': <class 'gluon.html.BR'>, 'BUTTON': <class 'gluon.html.BUTTON'>, 'CAT': <class 'gluon.html.CAT'>, 'CENTER': <class 'gluon.html.CENTER'>, 'CLEANUP': <class 'gluon.validators.CLEANUP'>, ...}, layer='/Users/zamechek/Downloads/web2py/web2py.app/Cont...urces/applications/hellow/controllers/appadmin.py')"
p3209
sS'func'
p3210
S'restricted'
p3211
sa(dp3212
g3201
S'/Users/zamechek/Downloads/web2py/web2py.app/Contents/Resources/applications/hellow/controllers/appadmin.py'
p3213
sg3203
(dp3214
sg3205
I572
sg3206
(dp3215
I561
S"        return graph.draw(format='png', prog='dot')"
p3216
sI562
S'    else:'
p3217
sI563
S"        response.headers['Content-Disposition']='attachment;filename=graph.%s'%request.args(0)"
p3218
sI564
S"        if request.args(0) == 'dot':"
p3219
sI565
S'            return graph.string()'
p3220
sI566
S'        else:'
p3221
sI567
S"            return graph.draw(format=request.args(0), prog='dot')"
p3222
sI568
S''
sI569
S'def graph_model():'
p3223
sI570
S'    return dict(databases=databases, pgv=pgv)'
p3224
ssg3208
S'()'
p3225
sg3210
S'<module>'
p3226
sa(dp3227
g3201
S'/home/mdipierro/web2py/gluon/globals.py'
p3228
sg3203
(dp3229
sg3205
I193
sg3206
(dp3230
sg3208
S'(f=<function insert at 0x9c7c630>)'
p3231
sg3210
S'<lambda>'
p3232
sa(dp3233
g3201
S'/Users/zamechek/Downloads/web2py/web2py.app/Contents/Resources/applications/hellow/controllers/appadmin.py'
p3234
sg3203
(dp3235
sg3205
I131
sg3206
(dp3236
I128
S''
sI129
S'def insert():'
p3237
sI130
S'    (db, table) = get_table(request)'
p3238
sI131
S'    form = SQLFORM(db[table], ignore_rw=ignore_rw)'
p3239
sI132
S'    if form.accepts(request.vars, session):'
p3240
sI133
S"        response.flash = T('new record inserted')"
p3241
sI134
S'    return dict(form=form, table=db[table])'
p3242
sI135
S''
sI126
S'# ###########################################################'
p3243
sI127
S''
ssg3208
S'()'
p3244
sg3210
S'insert'
p3245
sa(dp3246
g3201
S'/home/mdipierro/web2py/gluon/sqlhtml.py'
p3247
sg3203
(dp3248
sg3205
I1104
sg3206
(dp3249
sg3208
S"(self=<gluon.sqlhtml.SQLFORM object at 0xaadc950>, table=<Table game_slots (id,game,slot)>, record=None, deletable=False, linkto=None, upload=None, fields=['id', 'game', 'slot'], labels=None, col3={}, submit_button='Submit', delete_label='Check to delete', showid=True, readonly=False, comments=True, keepopts=[], ignore_rw=True, record_id=None, formstyle='table3cols', buttons=['submit'], separator=': ', **attributes={})"
p3250
sg3210
g42
sa(dp3251
g3201
S'/home/mdipierro/web2py/gluon/sqlhtml.py'
p3252
sg3203
(dp3253
sg3205
I251
sg3206
(dp3254
sg3208
S"(cls=<class 'gluon.sqlhtml.OptionsWidget'>, field=<gluon.dal.Field object at 0xaaddd70>, value=None, **attributes={})"
p3255
sg3210
S'widget'
p3256
sa(dp3257
g3201
S'/home/mdipierro/web2py/gluon/validators.py'
p3258
sg3203
(dp3259
sg3205
I524
sg3206
(dp3260
sg3208
S'(self=<gluon.validators.IS_IN_DB object at 0xaadc790>, zero=True)'
p3261
sg3210
S'options'
p3262
sa(dp3263
g3201
S'/home/mdipierro/web2py/gluon/validators.py'
p3264
sg3203
(dp3265
sg3205
I502
sg3206
(dp3266
sg3208
S'(self=<gluon.validators.IS_IN_DB object at 0xaadc790>)'
p3267
sg3210
S'build_set'
p3268
sa(dp3269
g3201
S'/home/mdipierro/web2py/gluon/dal.py'
p3270
sg3203
(dp3271
sg3205
I7911
sg3206
(dp3272
sg3208
S"(self=<Table game (id,auth_user,balance)>, key='auth_user.first_name')"
p3273
sg3210
g20
sasS'pyver'
p3274
S'Python 2.5.1: /Users/zamechek/Downloads/web2py/web2py.app/Contents/MacOS/python'
p3275
sS'session'
p3276
g49
(g50
g51
NtRp3277
(dp3278
g54
(dp3279
sg56
(lp3280
g49
(g58
g51
NtRp3281
(dp3282
g54
(dp3283
g62
I5
ssg63
Nsg56
(lp3284
g49
(g65
g51
NtRp3285
(dp3286
g54
(dp3287
sg63
g3281
sg56
(lp3288
g49
(g70
g51
NtRp3289
(dp3290
g54
(dp3291
g74
g75
ssg63
g3285
sg56
(lp3292
S'last_orderby'
p3293
asbag49
(g70
g51
NtRp3294
(dp3295
g54
(dp3296
g81
g82
ssg63
g3285
sg56
(lp3297
S':'
asbag49
(g70
g51
NtRp3298
(dp3299
g54
(dp3300
sg63
g3285
sg56
(lp3301
g49
(g50
g51
NtRp3302
(dp3303
g54
(dp3304
g62
I5
ssg63
g3298
sg56
(lp3305
S'None'
p3306
asbasbasbag49
(g65
g51
NtRp3307
(dp3308
g54
(dp3309
sg63
g3281
sg56
(lp3310
g49
(g70
g51
NtRp3311
(dp3312
g54
(dp3313
g74
g75
ssg63
g3307
sg56
(lp3314
S'last_query'
p3315
asbag49
(g70
g51
NtRp3316
(dp3317
g54
(dp3318
g81
g82
ssg63
g3307
sg56
(lp3319
S':'
asbag49
(g70
g51
NtRp3320
(dp3321
g54
(dp3322
sg63
g3307
sg56
(lp3323
g49
(g50
g51
NtRp3324
(dp3325
g54
(dp3326
g62
I5
ssg63
g3320
sg56
(lp3327
S'db.auth_user.id>0'
p3328
asbasbasbasbasbsS'etype'
p3329
S"<type 'exceptions.AttributeError'>"
p3330
sS'date'
p3331
S'Tue Mar 26 15:52:00 2013'
p3332
sS'response'
p3333
g49
(g50
g51
NtRp3334
(dp3335
g54
(dp3336
sg56
(lp3337
g49
(g58
g51
NtRp3338
(dp3339
g54
(dp3340
g62
I5
ssg63
Nsg56
(lp3341
g49
(g65
g51
NtRp3342
(dp3343
g54
(dp3344
sg63
g3338
sg56
(lp3345
g49
(g70
g51
NtRp3346
(dp3347
g54
(dp3348
g74
g75
ssg63
g3342
sg56
(lp3349
g173
asbag49
(g70
g51
NtRp3350
(dp3351
g54
(dp3352
g81
g82
ssg63
g3342
sg56
(lp3353
S':'
asbag49
(g70
g51
NtRp3354
(dp3355
g54
(dp3356
sg63
g3342
sg56
(lp3357
g49
(g50
g51
NtRp3358
(dp3359
g54
(dp3360
g62
I5
ssg63
g3354
sg56
(lp3361
S'<cStringIO.StringO object at 0xc2517c0>'
p3362
asbasbasbag49
(g65
g51
NtRp3363
(dp3364
g54
(dp3365
sg63
g3338
sg56
(lp3366
g49
(g70
g51
NtRp3367
(dp3368
g54
(dp3369
g74
g75
ssg63
g3363
sg56
(lp3370
g261
asbag49
(g70
g51
NtRp3371
(dp3372
g54
(dp3373
g81
g82
ssg63
g3363
sg56
(lp3374
S':'
asbag49
(g70
g51
NtRp3375
(dp3376
g54
(dp3377
sg63
g3363
sg56
(lp3378
g49
(g50
g51
NtRp3379
(dp3380
g54
(dp3381
g62
I5
ssg63
g3375
sg56
(lp3382
g49
(g58
g51
NtRp3383
(dp3384
g54
(dp3385
g62
I4
ssg63
Nsg56
(lp3386
g49
(g65
g51
NtRp3387
(dp3388
g54
(dp3389
sg63
g3383
sg56
(lp3390
g49
(g70
g51
NtRp3391
(dp3392
g54
(dp3393
g74
g75
ssg63
g3387
sg56
(lp3394
S'session_id_hellow'
p3395
asbag49
(g70
g51
NtRp3396
(dp3397
g54
(dp3398
g81
g82
ssg63
g3387
sg56
(lp3399
S':'
asbag49
(g70
g51
NtRp3400
(dp3401
g54
(dp3402
sg63
g3387
sg56
(lp3403
g49
(g50
g51
NtRp3404
(dp3405
g54
(dp3406
g62
I4
ssg63
g3400
sg56
(lp3407
g472
ag49
(g58
g51
NtRp3408
(dp3409
g54
(dp3410
g62
I3
ssg63
Nsg56
(lp3411
g49
(g65
g51
NtRp3412
(dp3413
g54
(dp3414
sg63
g3408
sg56
(lp3415
g49
(g70
g51
NtRp3416
(dp3417
g54
(dp3418
g74
g75
ssg63
g3412
sg56
(lp3419
g312
asbag49
(g70
g51
NtRp3420
(dp3421
g54
(dp3422
g81
g82
ssg63
g3412
sg56
(lp3423
S':'
asbag49
(g70
g51
NtRp3424
(dp3425
g54
(dp3426
sg63
g3412
sg56
(lp3427
g49
(g50
g51
NtRp3428
(dp3429
g54
(dp3430
g62
I3
ssg63
g3424
sg56
(lp3431
S''
asbasbasbag49
(g65
g51
NtRp3432
(dp3433
g54
(dp3434
sg63
g3408
sg56
(lp3435
g49
(g70
g51
NtRp3436
(dp3437
g54
(dp3438
g74
g75
ssg63
g3432
sg56
(lp3439
g333
asbag49
(g70
g51
NtRp3440
(dp3441
g54
(dp3442
g81
g82
ssg63
g3432
sg56
(lp3443
S':'
asbag49
(g70
g51
NtRp3444
(dp3445
g54
(dp3446
sg63
g3432
sg56
(lp3447
g49
(g50
g51
NtRp3448
(dp3449
g54
(dp3450
g62
I3
ssg63
g3444
sg56
(lp3451
S''
asbasbasbag49
(g65
g51
NtRp3452
(dp3453
g54
(dp3454
sg63
g3408
sg56
(lp3455
g49
(g70
g51
NtRp3456
(dp3457
g54
(dp3458
g74
g75
ssg63
g3452
sg56
(lp3459
g354
asbag49
(g70
g51
NtRp3460
(dp3461
g54
(dp3462
g81
g82
ssg63
g3452
sg56
(lp3463
S':'
asbag49
(g70
g51
NtRp3464
(dp3465
g54
(dp3466
sg63
g3452
sg56
(lp3467
g49
(g50
g51
NtRp3468
(dp3469
g54
(dp3470
g62
I3
ssg63
g3464
sg56
(lp3471
S''
asbasbasbag49
(g65
g51
NtRp3472
(dp3473
g54
(dp3474
sg63
g3408
sg56
(lp3475
g49
(g70
g51
NtRp3476
(dp3477
g54
(dp3478
g74
g75
ssg63
g3472
sg56
(lp3479
g375
asbag49
(g70
g51
NtRp3480
(dp3481
g54
(dp3482
g81
g82
ssg63
g3472
sg56
(lp3483
S':'
asbag49
(g70
g51
NtRp3484
(dp3485
g54
(dp3486
sg63
g3472
sg56
(lp3487
g49
(g50
g51
NtRp3488
(dp3489
g54
(dp3490
g62
I3
ssg63
g3484
sg56
(lp3491
S''
asbasbasbag49
(g65
g51
NtRp3492
(dp3493
g54
(dp3494
sg63
g3408
sg56
(lp3495
g49
(g70
g51
NtRp3496
(dp3497
g54
(dp3498
g74
g75
ssg63
g3492
sg56
(lp3499
g396
asbag49
(g70
g51
NtRp3500
(dp3501
g54
(dp3502
g81
g82
ssg63
g3492
sg56
(lp3503
S':'
asbag49
(g70
g51
NtRp3504
(dp3505
g54
(dp3506
sg63
g3492
sg56
(lp3507
g49
(g50
g51
NtRp3508
(dp3509
g54
(dp3510
g62
I3
ssg63
g3504
sg56
(lp3511
S'/'
asbasbasbag49
(g65
g51
NtRp3512
(dp3513
g54
(dp3514
sg63
g3408
sg56
(lp3515
g49
(g70
g51
NtRp3516
(dp3517
g54
(dp3518
g74
g75
ssg63
g3512
sg56
(lp3519
g417
asbag49
(g70
g51
NtRp3520
(dp3521
g54
(dp3522
g81
g82
ssg63
g3512
sg56
(lp3523
S':'
asbag49
(g70
g51
NtRp3524
(dp3525
g54
(dp3526
sg63
g3512
sg56
(lp3527
g49
(g50
g51
NtRp3528
(dp3529
g54
(dp3530
g62
I3
ssg63
g3524
sg56
(lp3531
S''
asbasbasbag49
(g65
g51
NtRp3532
(dp3533
g54
(dp3534
sg63
g3408
sg56
(lp3535
g49
(g70
g51
NtRp3536
(dp3537
g54
(dp3538
g74
g75
ssg63
g3532
sg56
(lp3539
g438
asbag49
(g70
g51
NtRp3540
(dp3541
g54
(dp3542
g81
g82
ssg63
g3532
sg56
(lp3543
S':'
asbag49
(g70
g51
NtRp3544
(dp3545
g54
(dp3546
sg63
g3532
sg56
(lp3547
g49
(g50
g51
NtRp3548
(dp3549
g54
(dp3550
g62
I3
ssg63
g3544
sg56
(lp3551
S''
asbasbasbasbasbasbasbasbasbasbasbag49
(g65
g51
NtRp3552
(dp3553
g54
(dp3554
sg63
g3338
sg56
(lp3555
g49
(g70
g51
NtRp3556
(dp3557
g54
(dp3558
g74
g75
ssg63
g3552
sg56
(lp3559
S'delimiters'
p3560
asbag49
(g70
g51
NtRp3561
(dp3562
g54
(dp3563
g81
g82
ssg63
g3552
sg56
(lp3564
S':'
asbag49
(g70
g51
NtRp3565
(dp3566
g54
(dp3567
sg63
g3552
sg56
(lp3568
g49
(g50
g51
NtRp3569
(dp3570
g54
(dp3571
g62
I5
ssg63
g3565
sg56
(lp3572
g49
(g58
g51
NtRp3573
(dp3574
g54
(dp3575
g62
I4
ssg63
Nsg56
(lp3576
g49
(g65
g51
NtRp3577
(dp3578
g54
(dp3579
sg63
g3573
sg56
(lp3580
g49
(g70
g51
NtRp3581
(dp3582
g54
(dp3583
sg63
g3577
sg56
(lp3584
g49
(g50
g51
NtRp3585
(dp3586
g54
(dp3587
g62
I4
ssg63
g3581
sg56
(lp3588
S'{{'
p3589
asbasbasbag49
(g65
g51
NtRp3590
(dp3591
g54
(dp3592
sg63
g3573
sg56
(lp3593
g49
(g70
g51
NtRp3594
(dp3595
g54
(dp3596
sg63
g3590
sg56
(lp3597
g49
(g50
g51
NtRp3598
(dp3599
g54
(dp3600
g62
I4
ssg63
g3594
sg56
(lp3601
S'}}'
p3602
asbasbasbasbasbasbasbag49
(g65
g51
NtRp3603
(dp3604
g54
(dp3605
sg63
g3338
sg56
(lp3606
g49
(g70
g51
NtRp3607
(dp3608
g54
(dp3609
g74
g75
ssg63
g3603
sg56
(lp3610
S'files'
p3611
asbag49
(g70
g51
NtRp3612
(dp3613
g54
(dp3614
g81
g82
ssg63
g3603
sg56
(lp3615
S':'
asbag49
(g70
g51
NtRp3616
(dp3617
g54
(dp3618
sg63
g3603
sg56
(lp3619
g49
(g50
g51
NtRp3620
(dp3621
g54
(dp3622
g62
I5
ssg63
g3616
sg56
(lp3623
g49
(g58
g51
NtRp3624
(dp3625
g54
(dp3626
g62
I4
ssg63
Nsg56
(lp3627
sbasbasbasbag49
(g65
g51
NtRp3628
(dp3629
g54
(dp3630
sg63
g3338
sg56
(lp3631
g49
(g70
g51
NtRp3632
(dp3633
g54
(dp3634
g74
g75
ssg63
g3628
sg56
(lp3635
S'flash'
p3636
asbag49
(g70
g51
NtRp3637
(dp3638
g54
(dp3639
g81
g82
ssg63
g3628
sg56
(lp3640
S':'
asbag49
(g70
g51
NtRp3641
(dp3642
g54
(dp3643
sg63
g3628
sg56
(lp3644
g49
(g50
g51
NtRp3645
(dp3646
g54
(dp3647
g62
I5
ssg63
g3641
sg56
(lp3648
S''
asbasbasbag49
(g65
g51
NtRp3649
(dp3650
g54
(dp3651
sg63
g3338
sg56
(lp3652
g49
(g70
g51
NtRp3653
(dp3654
g54
(dp3655
g74
g75
ssg63
g3649
sg56
(lp3656
S'generic_patterns'
p3657
asbag49
(g70
g51
NtRp3658
(dp3659
g54
(dp3660
g81
g82
ssg63
g3649
sg56
(lp3661
S':'
asbag49
(g70
g51
NtRp3662
(dp3663
g54
(dp3664
sg63
g3649
sg56
(lp3665
g49
(g50
g51
NtRp3666
(dp3667
g54
(dp3668
g62
I5
ssg63
g3662
sg56
(lp3669
g49
(g58
g51
NtRp3670
(dp3671
g54
(dp3672
g62
I4
ssg63
Nsg56
(lp3673
g49
(g65
g51
NtRp3674
(dp3675
g54
(dp3676
sg63
g3670
sg56
(lp3677
g49
(g70
g51
NtRp3678
(dp3679
g54
(dp3680
sg63
g3674
sg56
(lp3681
g49
(g50
g51
NtRp3682
(dp3683
g54
(dp3684
g62
I4
ssg63
g3678
sg56
(lp3685
S'*'
asbasbasbasbasbasbasbag49
(g65
g51
NtRp3686
(dp3687
g54
(dp3688
sg63
g3338
sg56
(lp3689
g49
(g70
g51
NtRp3690
(dp3691
g54
(dp3692
g74
g75
ssg63
g3686
sg56
(lp3693
S'google_analytics_id'
p3694
asbag49
(g70
g51
NtRp3695
(dp3696
g54
(dp3697
g81
g82
ssg63
g3686
sg56
(lp3698
S':'
asbag49
(g70
g51
NtRp3699
(dp3700
g54
(dp3701
sg63
g3686
sg56
(lp3702
g49
(g50
g51
NtRp3703
(dp3704
g54
(dp3705
g62
I5
ssg63
g3699
sg56
(lp3706
S'None'
p3707
asbasbasbag49
(g65
g51
NtRp3708
(dp3709
g54
(dp3710
sg63
g3338
sg56
(lp3711
g49
(g70
g51
NtRp3712
(dp3713
g54
(dp3714
g74
g75
ssg63
g3708
sg56
(lp3715
S'headers'
p3716
asbag49
(g70
g51
NtRp3717
(dp3718
g54
(dp3719
g81
g82
ssg63
g3708
sg56
(lp3720
S':'
asbag49
(g70
g51
NtRp3721
(dp3722
g54
(dp3723
sg63
g3708
sg56
(lp3724
g49
(g50
g51
NtRp3725
(dp3726
g54
(dp3727
g62
I5
ssg63
g3721
sg56
(lp3728
g49
(g58
g51
NtRp3729
(dp3730
g54
(dp3731
g62
I4
ssg63
Nsg56
(lp3732
g49
(g65
g51
NtRp3733
(dp3734
g54
(dp3735
sg63
g3729
sg56
(lp3736
g49
(g70
g51
NtRp3737
(dp3738
g54
(dp3739
g74
g75
ssg63
g3733
sg56
(lp3740
S'X-Powered-By'
p3741
asbag49
(g70
g51
NtRp3742
(dp3743
g54
(dp3744
g81
g82
ssg63
g3733
sg56
(lp3745
S':'
asbag49
(g70
g51
NtRp3746
(dp3747
g54
(dp3748
sg63
g3733
sg56
(lp3749
g49
(g50
g51
NtRp3750
(dp3751
g54
(dp3752
g62
I4
ssg63
g3746
sg56
(lp3753
S'web2py'
p3754
asbasbasbasbasbasbasbag49
(g65
g51
NtRp3755
(dp3756
g54
(dp3757
sg63
g3338
sg56
(lp3758
g49
(g70
g51
NtRp3759
(dp3760
g54
(dp3761
g74
g75
ssg63
g3755
sg56
(lp3762
S'logo'
p3763
asbag49
(g70
g51
NtRp3764
(dp3765
g54
(dp3766
g81
g82
ssg63
g3755
sg56
(lp3767
S':'
asbag49
(g70
g51
NtRp3768
(dp3769
g54
(dp3770
sg63
g3755
sg56
(lp3771
g49
(g50
g51
NtRp3772
(dp3773
g54
(dp3774
g62
I5
ssg63
g3768
sg56
(lp3775
g49
(cgluon.html
A
p3776
g51
NtRp3777
(dp3778
g54
(dp3779
S'_class'
p3780
S'brand'
p3781
sS'_href'
p3782
S'http://www.web2py.com/'
p3783
ssg63
Nsg56
(lp3784
g49
(cgluon.html
B
p3785
g51
NtRp3786
(dp3787
g54
(dp3788
sg63
g3777
sg56
(lp3789
S'web'
p3790
ag49
(cgluon.html
SPAN
p3791
g51
NtRp3792
(dp3793
g54
(dp3794
sg63
g3786
sg56
(lp3795
I2
asbaS'py'
p3796
asbacgluon.html
XML_unpickle
p3797
(S's\r\x00\x00\x00&trade;&nbsp;'
tRp3798
asbasbasbasbag49
(g65
g51
NtRp3799
(dp3800
g54
(dp3801
sg63
g3338
sg56
(lp3802
g49
(g70
g51
NtRp3803
(dp3804
g54
(dp3805
g74
g75
ssg63
g3799
sg56
(lp3806
S'menu'
p3807
asbag49
(g70
g51
NtRp3808
(dp3809
g54
(dp3810
g81
g82
ssg63
g3799
sg56
(lp3811
S':'
asbag49
(g70
g51
NtRp3812
(dp3813
g54
(dp3814
sg63
g3799
sg56
(lp3815
g49
(g50
g51
NtRp3816
(dp3817
g54
(dp3818
g62
I5
ssg63
g3812
sg56
(lp3819
g49
(g58
g51
NtRp3820
(dp3821
g54
(dp3822
g62
I4
ssg63
Nsg56
(lp3823
g49
(g65
g51
NtRp3824
(dp3825
g54
(dp3826
sg63
g3820
sg56
(lp3827
g49
(g70
g51
NtRp3828
(dp3829
g54
(dp3830
sg63
g3824
sg56
(lp3831
g49
(g50
g51
NtRp3832
(dp3833
g54
(dp3834
g62
I4
ssg63
g3828
sg56
(lp3835
g49
(g58
g51
NtRp3836
(dp3837
g54
(dp3838
g62
I3
ssg63
Nsg56
(lp3839
g49
(g65
g51
NtRp3840
(dp3841
g54
(dp3842
sg63
g3836
sg56
(lp3843
g49
(g70
g51
NtRp3844
(dp3845
g54
(dp3846
sg63
g3840
sg56
(lp3847
g49
(g50
g51
NtRp3848
(dp3849
g54
(dp3850
g62
I3
ssg63
g3844
sg56
(lp3851
cgluon.languages
lazyT_unpickle
p3852
(S't\x06\x00\x00\x00design'
tRp3853
asbasbasbag49
(g65
g51
NtRp3854
(dp3855
g54
(dp3856
sg63
g3836
sg56
(lp3857
g49
(g70
g51
NtRp3858
(dp3859
g54
(dp3860
sg63
g3854
sg56
(lp3861
g49
(g50
g51
NtRp3862
(dp3863
g54
(dp3864
g62
I3
ssg63
g3858
sg56
(lp3865
g92
asbasbasbag49
(g65
g51
NtRp3866
(dp3867
g54
(dp3868
sg63
g3836
sg56
(lp3869
g49
(g70
g51
NtRp3870
(dp3871
g54
(dp3872
sg63
g3866
sg56
(lp3873
g49
(g50
g51
NtRp3874
(dp3875
g54
(dp3876
g62
I3
ssg63
g3870
sg56
(lp3877
S'/admin/default/design/hellow'
p3878
asbasbasbasbasbasbasbag49
(g65
g51
NtRp3879
(dp3880
g54
(dp3881
sg63
g3820
sg56
(lp3882
g49
(g70
g51
NtRp3883
(dp3884
g54
(dp3885
sg63
g3879
sg56
(lp3886
g49
(g50
g51
NtRp3887
(dp3888
g54
(dp3889
g62
I4
ssg63
g3883
sg56
(lp3890
g49
(g58
g51
NtRp3891
(dp3892
g54
(dp3893
g62
I3
ssg63
Nsg56
(lp3894
g49
(g65
g51
NtRp3895
(dp3896
g54
(dp3897
sg63
g3891
sg56
(lp3898
g49
(g70
g51
NtRp3899
(dp3900
g54
(dp3901
sg63
g3895
sg56
(lp3902
g49
(g50
g51
NtRp3903
(dp3904
g54
(dp3905
g62
I3
ssg63
g3899
sg56
(lp3906
g3852
(S't\x02\x00\x00\x00db'
tRp3907
asbasbasbag49
(g65
g51
NtRp3908
(dp3909
g54
(dp3910
sg63
g3891
sg56
(lp3911
g49
(g70
g51
NtRp3912
(dp3913
g54
(dp3914
sg63
g3908
sg56
(lp3915
g49
(g50
g51
NtRp3916
(dp3917
g54
(dp3918
g62
I3
ssg63
g3912
sg56
(lp3919
g92
asbasbasbag49
(g65
g51
NtRp3920
(dp3921
g54
(dp3922
sg63
g3891
sg56
(lp3923
g49
(g70
g51
NtRp3924
(dp3925
g54
(dp3926
sg63
g3920
sg56
(lp3927
g49
(g50
g51
NtRp3928
(dp3929
g54
(dp3930
g62
I3
ssg63
g3924
sg56
(lp3931
S'/hellow/appadmin/index'
p3932
asbasbasbasbasbasbasbag49
(g65
g51
NtRp3933
(dp3934
g54
(dp3935
sg63
g3820
sg56
(lp3936
g49
(g70
g51
NtRp3937
(dp3938
g54
(dp3939
sg63
g3933
sg56
(lp3940
g49
(g50
g51
NtRp3941
(dp3942
g54
(dp3943
g62
I4
ssg63
g3937
sg56
(lp3944
g49
(g58
g51
NtRp3945
(dp3946
g54
(dp3947
g62
I3
ssg63
Nsg56
(lp3948
g49
(g65
g51
NtRp3949
(dp3950
g54
(dp3951
sg63
g3945
sg56
(lp3952
g49
(g70
g51
NtRp3953
(dp3954
g54
(dp3955
sg63
g3949
sg56
(lp3956
g49
(g50
g51
NtRp3957
(dp3958
g54
(dp3959
g62
I3
ssg63
g3953
sg56
(lp3960
g3852
(S't\x05\x00\x00\x00state'
tRp3961
asbasbasbag49
(g65
g51
NtRp3962
(dp3963
g54
(dp3964
sg63
g3945
sg56
(lp3965
g49
(g70
g51
NtRp3966
(dp3967
g54
(dp3968
sg63
g3962
sg56
(lp3969
g49
(g50
g51
NtRp3970
(dp3971
g54
(dp3972
g62
I3
ssg63
g3966
sg56
(lp3973
g92
asbasbasbag49
(g65
g51
NtRp3974
(dp3975
g54
(dp3976
sg63
g3945
sg56
(lp3977
g49
(g70
g51
NtRp3978
(dp3979
g54
(dp3980
sg63
g3974
sg56
(lp3981
g49
(g50
g51
NtRp3982
(dp3983
g54
(dp3984
g62
I3
ssg63
g3978
sg56
(lp3985
S'/hellow/appadmin/state'
p3986
asbasbasbasbasbasbasbag49
(g65
g51
NtRp3987
(dp3988
g54
(dp3989
sg63
g3820
sg56
(lp3990
g49
(g70
g51
NtRp3991
(dp3992
g54
(dp3993
sg63
g3987
sg56
(lp3994
g49
(g50
g51
NtRp3995
(dp3996
g54
(dp3997
g62
I4
ssg63
g3991
sg56
(lp3998
g49
(g58
g51
NtRp3999
(dp4000
g54
(dp4001
g62
I3
ssg63
Nsg56
(lp4002
g49
(g65
g51
NtRp4003
(dp4004
g54
(dp4005
sg63
g3999
sg56
(lp4006
g49
(g70
g51
NtRp4007
(dp4008
g54
(dp4009
sg63
g4003
sg56
(lp4010
g49
(g50
g51
NtRp4011
(dp4012
g54
(dp4013
g62
I3
ssg63
g4007
sg56
(lp4014
g3852
(S't\x05\x00\x00\x00cache'
tRp4015
asbasbasbag49
(g65
g51
NtRp4016
(dp4017
g54
(dp4018
sg63
g3999
sg56
(lp4019
g49
(g70
g51
NtRp4020
(dp4021
g54
(dp4022
sg63
g4016
sg56
(lp4023
g49
(g50
g51
NtRp4024
(dp4025
g54
(dp4026
g62
I3
ssg63
g4020
sg56
(lp4027
g92
asbasbasbag49
(g65
g51
NtRp4028
(dp4029
g54
(dp4030
sg63
g3999
sg56
(lp4031
g49
(g70
g51
NtRp4032
(dp4033
g54
(dp4034
sg63
g4028
sg56
(lp4035
g49
(g50
g51
NtRp4036
(dp4037
g54
(dp4038
g62
I3
ssg63
g4032
sg56
(lp4039
S'/hellow/appadmin/ccache'
p4040
asbasbasbasbasbasbasbasbasbasbasbag49
(g65
g51
NtRp4041
(dp4042
g54
(dp4043
sg63
g3338
sg56
(lp4044
g49
(g70
g51
NtRp4045
(dp4046
g54
(dp4047
g74
g75
ssg63
g4041
sg56
(lp4048
S'meta'
p4049
asbag49
(g70
g51
NtRp4050
(dp4051
g54
(dp4052
g81
g82
ssg63
g4041
sg56
(lp4053
S':'
asbag49
(g70
g51
NtRp4054
(dp4055
g54
(dp4056
sg63
g4041
sg56
(lp4057
g49
(g50
g51
NtRp4058
(dp4059
g54
(dp4060
g62
I5
ssg63
g4054
sg56
(lp4061
g49
(g58
g51
NtRp4062
(dp4063
g54
(dp4064
g62
I4
ssg63
Nsg56
(lp4065
g49
(g65
g51
NtRp4066
(dp4067
g54
(dp4068
sg63
g4062
sg56
(lp4069
g49
(g70
g51
NtRp4070
(dp4071
g54
(dp4072
g74
g75
ssg63
g4066
sg56
(lp4073
S'author'
p4074
asbag49
(g70
g51
NtRp4075
(dp4076
g54
(dp4077
g81
g82
ssg63
g4066
sg56
(lp4078
S':'
asbag49
(g70
g51
NtRp4079
(dp4080
g54
(dp4081
sg63
g4066
sg56
(lp4082
g49
(g50
g51
NtRp4083
(dp4084
g54
(dp4085
g62
I4
ssg63
g4079
sg56
(lp4086
S'Your Name <you@example.com>'
p4087
asbasbasbag49
(g65
g51
NtRp4088
(dp4089
g54
(dp4090
sg63
g4062
sg56
(lp4091
g49
(g70
g51
NtRp4092
(dp4093
g54
(dp4094
g74
g75
ssg63
g4088
sg56
(lp4095
S'description'
p4096
asbag49
(g70
g51
NtRp4097
(dp4098
g54
(dp4099
g81
g82
ssg63
g4088
sg56
(lp4100
S':'
asbag49
(g70
g51
NtRp4101
(dp4102
g54
(dp4103
sg63
g4088
sg56
(lp4104
g49
(g50
g51
NtRp4105
(dp4106
g54
(dp4107
g62
I4
ssg63
g4101
sg56
(lp4108
S'a cool new app'
p4109
asbasbasbag49
(g65
g51
NtRp4110
(dp4111
g54
(dp4112
sg63
g4062
sg56
(lp4113
g49
(g70
g51
NtRp4114
(dp4115
g54
(dp4116
g74
g75
ssg63
g4110
sg56
(lp4117
S'generator'
p4118
asbag49
(g70
g51
NtRp4119
(dp4120
g54
(dp4121
g81
g82
ssg63
g4110
sg56
(lp4122
S':'
asbag49
(g70
g51
NtRp4123
(dp4124
g54
(dp4125
sg63
g4110
sg56
(lp4126
g49
(g50
g51
NtRp4127
(dp4128
g54
(dp4129
g62
I4
ssg63
g4123
sg56
(lp4130
S'Web2py Web Framework'
p4131
asbasbasbag49
(g65
g51
NtRp4132
(dp4133
g54
(dp4134
sg63
g4062
sg56
(lp4135
g49
(g70
g51
NtRp4136
(dp4137
g54
(dp4138
g74
g75
ssg63
g4132
sg56
(lp4139
S'keywords'
p4140
asbag49
(g70
g51
NtRp4141
(dp4142
g54
(dp4143
g81
g82
ssg63
g4132
sg56
(lp4144
S':'
asbag49
(g70
g51
NtRp4145
(dp4146
g54
(dp4147
sg63
g4132
sg56
(lp4148
g49
(g50
g51
NtRp4149
(dp4150
g54
(dp4151
g62
I4
ssg63
g4145
sg56
(lp4152
S'web2py, python, framework'
p4153
asbasbasbasbasbasbasbag49
(g65
g51
NtRp4154
(dp4155
g54
(dp4156
sg63
g3338
sg56
(lp4157
g49
(g70
g51
NtRp4158
(dp4159
g54
(dp4160
g74
g75
ssg63
g4154
sg56
(lp4161
S'models_to_run'
p4162
asbag49
(g70
g51
NtRp4163
(dp4164
g54
(dp4165
g81
g82
ssg63
g4154
sg56
(lp4166
S':'
asbag49
(g70
g51
NtRp4167
(dp4168
g54
(dp4169
sg63
g4154
sg56
(lp4170
g49
(g50
g51
NtRp4171
(dp4172
g54
(dp4173
g62
I5
ssg63
g4167
sg56
(lp4174
g49
(g58
g51
NtRp4175
(dp4176
g54
(dp4177
g62
I4
ssg63
Nsg56
(lp4178
g49
(g65
g51
NtRp4179
(dp4180
g54
(dp4181
sg63
g4175
sg56
(lp4182
g49
(g70
g51
NtRp4183
(dp4184
g54
(dp4185
sg63
g4179
sg56
(lp4186
g49
(g50
g51
NtRp4187
(dp4188
g54
(dp4189
g62
I4
ssg63
g4183
sg56
(lp4190
S'^\\w+\\.py$'
p4191
asbasbasbag49
(g65
g51
NtRp4192
(dp4193
g54
(dp4194
sg63
g4175
sg56
(lp4195
g49
(g70
g51
NtRp4196
(dp4197
g54
(dp4198
sg63
g4192
sg56
(lp4199
g49
(g50
g51
NtRp4200
(dp4201
g54
(dp4202
g62
I4
ssg63
g4196
sg56
(lp4203
S'^appadmin/\\w+\\.py$'
p4204
asbasbasbag49
(g65
g51
NtRp4205
(dp4206
g54
(dp4207
sg63
g4175
sg56
(lp4208
g49
(g70
g51
NtRp4209
(dp4210
g54
(dp4211
sg63
g4205
sg56
(lp4212
g49
(g50
g51
NtRp4213
(dp4214
g54
(dp4215
g62
I4
ssg63
g4209
sg56
(lp4216
S'^appadmin/insert/\\w+\\.py$'
p4217
asbasbasbasbasbasbasbag49
(g65
g51
NtRp4218
(dp4219
g54
(dp4220
sg63
g3338
sg56
(lp4221
g49
(g70
g51
NtRp4222
(dp4223
g54
(dp4224
g74
g75
ssg63
g4218
sg56
(lp4225
S'postprocessing'
p4226
asbag49
(g70
g51
NtRp4227
(dp4228
g54
(dp4229
g81
g82
ssg63
g4218
sg56
(lp4230
S':'
asbag49
(g70
g51
NtRp4231
(dp4232
g54
(dp4233
sg63
g4218
sg56
(lp4234
g49
(g50
g51
NtRp4235
(dp4236
g54
(dp4237
g62
I5
ssg63
g4231
sg56
(lp4238
g49
(g58
g51
NtRp4239
(dp4240
g54
(dp4241
g62
I4
ssg63
Nsg56
(lp4242
sbasbasbasbag49
(g65
g51
NtRp4243
(dp4244
g54
(dp4245
sg63
g3338
sg56
(lp4246
g49
(g70
g51
NtRp4247
(dp4248
g54
(dp4249
g74
g75
ssg63
g4243
sg56
(lp4250
S'session_cookie_expires'
p4251
asbag49
(g70
g51
NtRp4252
(dp4253
g54
(dp4254
g81
g82
ssg63
g4243
sg56
(lp4255
S':'
asbag49
(g70
g51
NtRp4256
(dp4257
g54
(dp4258
sg63
g4243
sg56
(lp4259
g49
(g50
g51
NtRp4260
(dp4261
g54
(dp4262
g62
I5
ssg63
g4256
sg56
(lp4263
S'None'
p4264
asbasbasbag49
(g65
g51
NtRp4265
(dp4266
g54
(dp4267
sg63
g3338
sg56
(lp4268
g49
(g70
g51
NtRp4269
(dp4270
g54
(dp4271
g74
g75
ssg63
g4265
sg56
(lp4272
S'session_data_name'
p4273
asbag49
(g70
g51
NtRp4274
(dp4275
g54
(dp4276
g81
g82
ssg63
g4265
sg56
(lp4277
S':'
asbag49
(g70
g51
NtRp4278
(dp4279
g54
(dp4280
sg63
g4265
sg56
(lp4281
g49
(g50
g51
NtRp4282
(dp4283
g54
(dp4284
g62
I5
ssg63
g4278
sg56
(lp4285
S'session_data_hellow'
p4286
asbasbasbag49
(g65
g51
NtRp4287
(dp4288
g54
(dp4289
sg63
g3338
sg56
(lp4290
g49
(g70
g51
NtRp4291
(dp4292
g54
(dp4293
g74
g75
ssg63
g4287
sg56
(lp4294
S'session_file'
p4295
asbag49
(g70
g51
NtRp4296
(dp4297
g54
(dp4298
g81
g82
ssg63
g4287
sg56
(lp4299
S':'
asbag49
(g70
g51
NtRp4300
(dp4301
g54
(dp4302
sg63
g4287
sg56
(lp4303
g49
(g50
g51
NtRp4304
(dp4305
g54
(dp4306
g62
I5
ssg63
g4300
sg56
(lp4307
S"<open file '/Users/zamechek/Downloads/web2py/web2py.app/Contents/Resources/applications/hellow/sessions/127.0.0.1-bbea59f2-333e-4593-a45c-2c44a5133d77', mode 'rb+' at 0x9e299f8>"
p4308
asbasbasbag49
(g65
g51
NtRp4309
(dp4310
g54
(dp4311
sg63
g3338
sg56
(lp4312
g49
(g70
g51
NtRp4313
(dp4314
g54
(dp4315
g74
g75
ssg63
g4309
sg56
(lp4316
S'session_filename'
p4317
asbag49
(g70
g51
NtRp4318
(dp4319
g54
(dp4320
g81
g82
ssg63
g4309
sg56
(lp4321
S':'
asbag49
(g70
g51
NtRp4322
(dp4323
g54
(dp4324
sg63
g4309
sg56
(lp4325
g49
(g50
g51
NtRp4326
(dp4327
g54
(dp4328
g62
I5
ssg63
g4322
sg56
(lp4329
S'/Users/zamechek/Downloads/web2py/web2py.app/Contents/Resources/applications/hellow/sessions/127.0.0.1-bbea59f2-333e-4593-a45c-2c44a5133d77'
p4330
asbasbasbag49
(g65
g51
NtRp4331
(dp4332
g54
(dp4333
sg63
g3338
sg56
(lp4334
g49
(g70
g51
NtRp4335
(dp4336
g54
(dp4337
g74
g75
ssg63
g4331
sg56
(lp4338
S'session_id'
p4339
asbag49
(g70
g51
NtRp4340
(dp4341
g54
(dp4342
g81
g82
ssg63
g4331
sg56
(lp4343
S':'
asbag49
(g70
g51
NtRp4344
(dp4345
g54
(dp4346
sg63
g4331
sg56
(lp4347
g49
(g50
g51
NtRp4348
(dp4349
g54
(dp4350
g62
I5
ssg63
g4344
sg56
(lp4351
g472
asbasbasbag49
(g65
g51
NtRp4352
(dp4353
g54
(dp4354
sg63
g3338
sg56
(lp4355
g49
(g70
g51
NtRp4356
(dp4357
g54
(dp4358
g74
g75
ssg63
g4352
sg56
(lp4359
S'session_id_name'
p4360
asbag49
(g70
g51
NtRp4361
(dp4362
g54
(dp4363
g81
g82
ssg63
g4352
sg56
(lp4364
S':'
asbag49
(g70
g51
NtRp4365
(dp4366
g54
(dp4367
sg63
g4352
sg56
(lp4368
g49
(g50
g51
NtRp4369
(dp4370
g54
(dp4371
g62
I5
ssg63
g4365
sg56
(lp4372
g3395
asbasbasbag49
(g65
g51
NtRp4373
(dp4374
g54
(dp4375
sg63
g3338
sg56
(lp4376
g49
(g70
g51
NtRp4377
(dp4378
g54
(dp4379
g74
g75
ssg63
g4373
sg56
(lp4380
S'session_locked'
p4381
asbag49
(g70
g51
NtRp4382
(dp4383
g54
(dp4384
g81
g82
ssg63
g4373
sg56
(lp4385
S':'
asbag49
(g70
g51
NtRp4386
(dp4387
g54
(dp4388
sg63
g4373
sg56
(lp4389
g49
(g50
g51
NtRp4390
(dp4391
g54
(dp4392
g62
I5
ssg63
g4386
sg56
(lp4393
g942
asbasbasbag49
(g65
g51
NtRp4394
(dp4395
g54
(dp4396
sg63
g3338
sg56
(lp4397
g49
(g70
g51
NtRp4398
(dp4399
g54
(dp4400
g74
g75
ssg63
g4394
sg56
(lp4401
S'session_new'
p4402
asbag49
(g70
g51
NtRp4403
(dp4404
g54
(dp4405
g81
g82
ssg63
g4394
sg56
(lp4406
S':'
asbag49
(g70
g51
NtRp4407
(dp4408
g54
(dp4409
sg63
g4394
sg56
(lp4410
g49
(g50
g51
NtRp4411
(dp4412
g54
(dp4413
g62
I5
ssg63
g4407
sg56
(lp4414
g92
asbasbasbag49
(g65
g51
NtRp4415
(dp4416
g54
(dp4417
sg63
g3338
sg56
(lp4418
g49
(g70
g51
NtRp4419
(dp4420
g54
(dp4421
g74
g75
ssg63
g4415
sg56
(lp4422
S'session_storage_type'
p4423
asbag49
(g70
g51
NtRp4424
(dp4425
g54
(dp4426
g81
g82
ssg63
g4415
sg56
(lp4427
S':'
asbag49
(g70
g51
NtRp4428
(dp4429
g54
(dp4430
sg63
g4415
sg56
(lp4431
g49
(g50
g51
NtRp4432
(dp4433
g54
(dp4434
g62
I5
ssg63
g4428
sg56
(lp4435
g3201
asbasbasbag49
(g65
g51
NtRp4436
(dp4437
g54
(dp4438
sg63
g3338
sg56
(lp4439
g49
(g70
g51
NtRp4440
(dp4441
g54
(dp4442
g74
g75
ssg63
g4436
sg56
(lp4443
S'status'
p4444
asbag49
(g70
g51
NtRp4445
(dp4446
g54
(dp4447
g81
g82
ssg63
g4436
sg56
(lp4448
S':'
asbag49
(g70
g51
NtRp4449
(dp4450
g54
(dp4451
sg63
g4436
sg56
(lp4452
g49
(g50
g51
NtRp4453
(dp4454
g54
(dp4455
g62
I5
ssg63
g4449
sg56
(lp4456
S'200'
p4457
asbasbasbag49
(g65
g51
NtRp4458
(dp4459
g54
(dp4460
sg63
g3338
sg56
(lp4461
g49
(g70
g51
NtRp4462
(dp4463
g54
(dp4464
g74
g75
ssg63
g4458
sg56
(lp4465
S'subtitle'
p4466
asbag49
(g70
g51
NtRp4467
(dp4468
g54
(dp4469
g81
g82
ssg63
g4458
sg56
(lp4470
S':'
asbag49
(g70
g51
NtRp4471
(dp4472
g54
(dp4473
sg63
g4458
sg56
(lp4474
g49
(g50
g51
NtRp4475
(dp4476
g54
(dp4477
g62
I5
ssg63
g4471
sg56
(lp4478
S'Database Administration (appadmin)'
p4479
asbasbasbag49
(g65
g51
NtRp4480
(dp4481
g54
(dp4482
sg63
g3338
sg56
(lp4483
g49
(g70
g51
NtRp4484
(dp4485
g54
(dp4486
g74
g75
ssg63
g4480
sg56
(lp4487
S'title'
p4488
asbag49
(g70
g51
NtRp4489
(dp4490
g54
(dp4491
g81
g82
ssg63
g4480
sg56
(lp4492
S':'
asbag49
(g70
g51
NtRp4493
(dp4494
g54
(dp4495
sg63
g4480
sg56
(lp4496
g49
(g50
g51
NtRp4497
(dp4498
g54
(dp4499
g62
I5
ssg63
g4493
sg56
(lp4500
S'Hellow'
p4501
asbasbasbag49
(g65
g51
NtRp4502
(dp4503
g54
(dp4504
sg63
g3338
sg56
(lp4505
g49
(g70
g51
NtRp4506
(dp4507
g54
(dp4508
g74
g75
ssg63
g4502
sg56
(lp4509
S'view'
p4510
asbag49
(g70
g51
NtRp4511
(dp4512
g54
(dp4513
g81
g82
ssg63
g4502
sg56
(lp4514
S':'
asbag49
(g70
g51
NtRp4515
(dp4516
g54
(dp4517
sg63
g4502
sg56
(lp4518
g49
(g50
g51
NtRp4519
(dp4520
g54
(dp4521
g62
I5
ssg63
g4515
sg56
(lp4522
S'appadmin.html'
p4523
asbasbasbasbasbsS'locals'
p4524
(dp4525
S'self'
p4526
S'<Table game (id,auth_user,balance)>'
p4527
sS'key'
p4528
S"'auth_user.first_name'"
p4529
sssS'traceback'
p4530
S'Traceback (most recent call last):\n  File "/home/mdipierro/web2py/gluon/restricted.py", line 212, in restricted\n  File "/Users/zamechek/Downloads/web2py/web2py.app/Contents/Resources/applications/hellow/controllers/appadmin.py", line 572, in <module>\n  File "/home/mdipierro/web2py/gluon/globals.py", line 193, in <lambda>\n  File "/Users/zamechek/Downloads/web2py/web2py.app/Contents/Resources/applications/hellow/controllers/appadmin.py", line 131, in insert\n  File "/home/mdipierro/web2py/gluon/sqlhtml.py", line 1104, in __init__\n  File "/home/mdipierro/web2py/gluon/sqlhtml.py", line 251, in widget\n  File "/home/mdipierro/web2py/gluon/validators.py", line 524, in options\n  File "/home/mdipierro/web2py/gluon/validators.py", line 502, in build_set\n  File "/home/mdipierro/web2py/gluon/dal.py", line 7911, in __getitem__\nAttributeError: \'Table\' object has no attribute \'auth_user.first_name\'\n'
p4531
s.