(dp1
S'output'
p2
S"<type 'exceptions.AttributeError'> 'Row' object has no attribute 'slot'"
p3
sS'layer'
p4
S'/Users/zamechek/Downloads/web2py/web2py.app/Contents/Resources/applications/hellow/controllers/game.py'
p5
sS'code'
p6
S'# coding: utf8\n# try something like\n\ndef show():\n    id = request.args[0]\n    game = db.game(id)\n    auth_user = (game.auth_user)\n    \n    query=((db.game.id==db.game_slots.game)&(db.slot.id==db.game_slots.slot))\n    #game_and_slots=(db.game.id==db.game_slots.game)&(db.slot.id==db.game_slots.slot)\n    rows = db(query).select(db.slot.id, db.slot.odds)\n    form = display_form(rows)\n    \n    otherForm = form_from_factory(rows, id)\n    return dict(name=auth_user.first_name.capitalize() + " " + auth_user.last_name.capitalize(), balance = game.balance, slots = rows, gameid = id, form=form, otherForm=otherForm)\n    \ndef display_form(rows):\n   form = SQLFORM(db.user_action)\n   Field(\'slot\', type=\'radio\', requires=IS_IN_SET(rows, labels=[\'1\',\'2\']))\n   if form.process().accepted:\n       response.flash = \'form accepted\'\n   elif form.errors:\n       response.flash = \'form has errors\'\n   else:\n       response.flash = \'please fill out the form\'\n   return form\n   \ndef form_from_factory(rows, id):\n       \n    otherForm = SQLFORM.factory(\n        Field(\'bet\', requires=IS_NOT_EMPTY()),\n        Field(\'slot\', requires=IS_IN_SET(rows, labels=makePrettyLables(rows))))\n        #IS_IN_DB(db(db.table_one.name.like(\'h%\'))\n    if otherForm.process().accepted:\n        response.flash = \'form accepted\'\n\n    elif otherForm.errors:\n        response.flash = \'form has errors\'\n    return otherForm\n\ndef makePrettyLables(rows):\n        arr = []\n        for i in range(0, len(rows)):\n            arr.append("Slot " + str(i+1) + " - " + rows[i].slot.id)\n        return arr\n\nresponse._vars=response._caller(show)\n'
p7
sS'snapshot'
p8
(dp9
S'exception'
p10
(dp11
S'__hash__'
p12
S"<method-wrapper '__hash__' of exceptions.AttributeError object at 0x961cc10>"
p13
sS'__setattr__'
p14
S"<method-wrapper '__setattr__' of exceptions.AttributeError object at 0x961cc10>"
p15
sS'__reduce_ex__'
p16
S'<built-in method __reduce_ex__ of exceptions.AttributeError object at 0x961cc10>'
p17
sS'__getslice__'
p18
S"<method-wrapper '__getslice__' of exceptions.AttributeError object at 0x961cc10>"
p19
sS'__getitem__'
p20
S"<method-wrapper '__getitem__' of exceptions.AttributeError object at 0x961cc10>"
p21
sS'__setstate__'
p22
S'<built-in method __setstate__ of exceptions.AttributeError object at 0x961cc10>'
p23
sS'__reduce__'
p24
S'<built-in method __reduce__ of exceptions.AttributeError object at 0x961cc10>'
p25
sS'__str__'
p26
S"<method-wrapper '__str__' of exceptions.AttributeError object at 0x961cc10>"
p27
sS'args'
p28
S'("\'Row\' object has no attribute \'slot\'",)'
p29
sS'__getattribute__'
p30
S"<method-wrapper '__getattribute__' of exceptions.AttributeError object at 0x961cc10>"
p31
sS'__class__'
p32
S"<type 'exceptions.AttributeError'>"
p33
sS'__delattr__'
p34
S"<method-wrapper '__delattr__' of exceptions.AttributeError object at 0x961cc10>"
p35
sS'__repr__'
p36
S"<method-wrapper '__repr__' of exceptions.AttributeError object at 0x961cc10>"
p37
sS'__dict__'
p38
S'{}'
p39
sS'__doc__'
p40
S"'Attribute not found.'"
p41
sS'__init__'
p42
S"<method-wrapper '__init__' of exceptions.AttributeError object at 0x961cc10>"
p43
sS'__new__'
p44
S'<built-in method __new__ of type object at 0x5f94a0>'
p45
ssS'evalue'
p46
S"'Row' object has no attribute 'slot'"
p47
sS'request'
p48
ccopy_reg
_reconstructor
p49
(cgluon.html
BEAUTIFY
p50
c__builtin__
object
p51
NtRp52
(dp53
S'attributes'
p54
(dp55
sS'components'
p56
(lp57
g49
(cgluon.html
TABLE
p58
g51
NtRp59
(dp60
g54
(dp61
S'level'
p62
I5
ssS'parent'
p63
Nsg56
(lp64
g49
(cgluon.html
TR
p65
g51
NtRp66
(dp67
g54
(dp68
sg63
g59
sg56
(lp69
g49
(cgluon.html
TD
p70
g51
NtRp71
(dp72
g54
(dp73
S'_style'
p74
S'font-weight:bold;vertical-align:top'
p75
ssg63
g66
sg56
(lp76
S'ajax'
p77
asbag49
(g70
g51
NtRp78
(dp79
g54
(dp80
S'_valign'
p81
S'top'
p82
ssg63
g66
sg56
(lp83
S':'
asbag49
(g70
g51
NtRp84
(dp85
g54
(dp86
sg63
g66
sg56
(lp87
g49
(g50
g51
NtRp88
(dp89
g54
(dp90
g62
I5
ssg63
g84
sg56
(lp91
S'False'
p92
asbasbasbag49
(g65
g51
NtRp93
(dp94
g54
(dp95
sg63
g59
sg56
(lp96
g49
(g70
g51
NtRp97
(dp98
g54
(dp99
g74
g75
ssg63
g93
sg56
(lp100
S'application'
p101
asbag49
(g70
g51
NtRp102
(dp103
g54
(dp104
g81
g82
ssg63
g93
sg56
(lp105
S':'
asbag49
(g70
g51
NtRp106
(dp107
g54
(dp108
sg63
g93
sg56
(lp109
g49
(g50
g51
NtRp110
(dp111
g54
(dp112
g62
I5
ssg63
g106
sg56
(lp113
S'hellow'
p114
asbasbasbag49
(g65
g51
NtRp115
(dp116
g54
(dp117
sg63
g59
sg56
(lp118
g49
(g70
g51
NtRp119
(dp120
g54
(dp121
g74
g75
ssg63
g115
sg56
(lp122
g28
asbag49
(g70
g51
NtRp123
(dp124
g54
(dp125
g81
g82
ssg63
g115
sg56
(lp126
S':'
asbag49
(g70
g51
NtRp127
(dp128
g54
(dp129
sg63
g115
sg56
(lp130
g49
(g50
g51
NtRp131
(dp132
g54
(dp133
g62
I5
ssg63
g127
sg56
(lp134
g49
(g58
g51
NtRp135
(dp136
g54
(dp137
g62
I4
ssg63
Nsg56
(lp138
g49
(g65
g51
NtRp139
(dp140
g54
(dp141
sg63
g135
sg56
(lp142
g49
(g70
g51
NtRp143
(dp144
g54
(dp145
sg63
g139
sg56
(lp146
g49
(g50
g51
NtRp147
(dp148
g54
(dp149
g62
I4
ssg63
g143
sg56
(lp150
S'1'
asbasbasbasbasbasbasbag49
(g65
g51
NtRp151
(dp152
g54
(dp153
sg63
g59
sg56
(lp154
g49
(g70
g51
NtRp155
(dp156
g54
(dp157
g74
g75
ssg63
g151
sg56
(lp158
S'body'
p159
asbag49
(g70
g51
NtRp160
(dp161
g54
(dp162
g81
g82
ssg63
g151
sg56
(lp163
S':'
asbag49
(g70
g51
NtRp164
(dp165
g54
(dp166
sg63
g151
sg56
(lp167
g49
(g50
g51
NtRp168
(dp169
g54
(dp170
g62
I5
ssg63
g164
sg56
(lp171
S'<cStringIO.StringO object at 0x93bbd40>'
p172
asbasbasbag49
(g65
g51
NtRp173
(dp174
g54
(dp175
sg63
g59
sg56
(lp176
g49
(g70
g51
NtRp177
(dp178
g54
(dp179
g74
g75
ssg63
g173
sg56
(lp180
S'cid'
p181
asbag49
(g70
g51
NtRp182
(dp183
g54
(dp184
g81
g82
ssg63
g173
sg56
(lp185
S':'
asbag49
(g70
g51
NtRp186
(dp187
g54
(dp188
sg63
g173
sg56
(lp189
g49
(g50
g51
NtRp190
(dp191
g54
(dp192
g62
I5
ssg63
g186
sg56
(lp193
S'None'
p194
asbasbasbag49
(g65
g51
NtRp195
(dp196
g54
(dp197
sg63
g59
sg56
(lp198
g49
(g70
g51
NtRp199
(dp200
g54
(dp201
g74
g75
ssg63
g195
sg56
(lp202
S'client'
p203
asbag49
(g70
g51
NtRp204
(dp205
g54
(dp206
g81
g82
ssg63
g195
sg56
(lp207
S':'
asbag49
(g70
g51
NtRp208
(dp209
g54
(dp210
sg63
g195
sg56
(lp211
g49
(g50
g51
NtRp212
(dp213
g54
(dp214
g62
I5
ssg63
g208
sg56
(lp215
S'127.0.0.1'
p216
asbasbasbag49
(g65
g51
NtRp217
(dp218
g54
(dp219
sg63
g59
sg56
(lp220
g49
(g70
g51
NtRp221
(dp222
g54
(dp223
g74
g75
ssg63
g217
sg56
(lp224
S'controller'
p225
asbag49
(g70
g51
NtRp226
(dp227
g54
(dp228
g81
g82
ssg63
g217
sg56
(lp229
S':'
asbag49
(g70
g51
NtRp230
(dp231
g54
(dp232
sg63
g217
sg56
(lp233
g49
(g50
g51
NtRp234
(dp235
g54
(dp236
g62
I5
ssg63
g230
sg56
(lp237
S'game'
p238
asbasbasbag49
(g65
g51
NtRp239
(dp240
g54
(dp241
sg63
g59
sg56
(lp242
g49
(g70
g51
NtRp243
(dp244
g54
(dp245
g74
g75
ssg63
g239
sg56
(lp246
S'cookies'
p247
asbag49
(g70
g51
NtRp248
(dp249
g54
(dp250
g81
g82
ssg63
g239
sg56
(lp251
S':'
asbag49
(g70
g51
NtRp252
(dp253
g54
(dp254
sg63
g239
sg56
(lp255
g49
(g50
g51
NtRp256
(dp257
g54
(dp258
g62
I5
ssg63
g252
sg56
(lp259
g49
(g58
g51
NtRp260
(dp261
g54
(dp262
g62
I4
ssg63
Nsg56
(lp263
g49
(g65
g51
NtRp264
(dp265
g54
(dp266
sg63
g260
sg56
(lp267
g49
(g70
g51
NtRp268
(dp269
g54
(dp270
g74
g75
ssg63
g264
sg56
(lp271
S'session_id_admin'
p272
asbag49
(g70
g51
NtRp273
(dp274
g54
(dp275
g81
g82
ssg63
g264
sg56
(lp276
S':'
asbag49
(g70
g51
NtRp277
(dp278
g54
(dp279
sg63
g264
sg56
(lp280
g49
(g50
g51
NtRp281
(dp282
g54
(dp283
g62
I4
ssg63
g277
sg56
(lp284
S'127.0.0.1-bf448199-cadc-41e3-b1a7-bed302e89a3e'
p285
ag49
(g58
g51
NtRp286
(dp287
g54
(dp288
g62
I3
ssg63
Nsg56
(lp289
g49
(g65
g51
NtRp290
(dp291
g54
(dp292
sg63
g286
sg56
(lp293
g49
(g70
g51
NtRp294
(dp295
g54
(dp296
g74
g75
ssg63
g290
sg56
(lp297
S'comment'
p298
asbag49
(g70
g51
NtRp299
(dp300
g54
(dp301
g81
g82
ssg63
g290
sg56
(lp302
S':'
asbag49
(g70
g51
NtRp303
(dp304
g54
(dp305
sg63
g290
sg56
(lp306
g49
(g50
g51
NtRp307
(dp308
g54
(dp309
g62
I3
ssg63
g303
sg56
(lp310
S''
asbasbasbag49
(g65
g51
NtRp311
(dp312
g54
(dp313
sg63
g286
sg56
(lp314
g49
(g70
g51
NtRp315
(dp316
g54
(dp317
g74
g75
ssg63
g311
sg56
(lp318
S'domain'
p319
asbag49
(g70
g51
NtRp320
(dp321
g54
(dp322
g81
g82
ssg63
g311
sg56
(lp323
S':'
asbag49
(g70
g51
NtRp324
(dp325
g54
(dp326
sg63
g311
sg56
(lp327
g49
(g50
g51
NtRp328
(dp329
g54
(dp330
g62
I3
ssg63
g324
sg56
(lp331
S''
asbasbasbag49
(g65
g51
NtRp332
(dp333
g54
(dp334
sg63
g286
sg56
(lp335
g49
(g70
g51
NtRp336
(dp337
g54
(dp338
g74
g75
ssg63
g332
sg56
(lp339
S'expires'
p340
asbag49
(g70
g51
NtRp341
(dp342
g54
(dp343
g81
g82
ssg63
g332
sg56
(lp344
S':'
asbag49
(g70
g51
NtRp345
(dp346
g54
(dp347
sg63
g332
sg56
(lp348
g49
(g50
g51
NtRp349
(dp350
g54
(dp351
g62
I3
ssg63
g345
sg56
(lp352
S''
asbasbasbag49
(g65
g51
NtRp353
(dp354
g54
(dp355
sg63
g286
sg56
(lp356
g49
(g70
g51
NtRp357
(dp358
g54
(dp359
g74
g75
ssg63
g353
sg56
(lp360
S'max-age'
p361
asbag49
(g70
g51
NtRp362
(dp363
g54
(dp364
g81
g82
ssg63
g353
sg56
(lp365
S':'
asbag49
(g70
g51
NtRp366
(dp367
g54
(dp368
sg63
g353
sg56
(lp369
g49
(g50
g51
NtRp370
(dp371
g54
(dp372
g62
I3
ssg63
g366
sg56
(lp373
S''
asbasbasbag49
(g65
g51
NtRp374
(dp375
g54
(dp376
sg63
g286
sg56
(lp377
g49
(g70
g51
NtRp378
(dp379
g54
(dp380
g74
g75
ssg63
g374
sg56
(lp381
S'path'
p382
asbag49
(g70
g51
NtRp383
(dp384
g54
(dp385
g81
g82
ssg63
g374
sg56
(lp386
S':'
asbag49
(g70
g51
NtRp387
(dp388
g54
(dp389
sg63
g374
sg56
(lp390
g49
(g50
g51
NtRp391
(dp392
g54
(dp393
g62
I3
ssg63
g387
sg56
(lp394
S''
asbasbasbag49
(g65
g51
NtRp395
(dp396
g54
(dp397
sg63
g286
sg56
(lp398
g49
(g70
g51
NtRp399
(dp400
g54
(dp401
g74
g75
ssg63
g395
sg56
(lp402
S'secure'
p403
asbag49
(g70
g51
NtRp404
(dp405
g54
(dp406
g81
g82
ssg63
g395
sg56
(lp407
S':'
asbag49
(g70
g51
NtRp408
(dp409
g54
(dp410
sg63
g395
sg56
(lp411
g49
(g50
g51
NtRp412
(dp413
g54
(dp414
g62
I3
ssg63
g408
sg56
(lp415
S''
asbasbasbag49
(g65
g51
NtRp416
(dp417
g54
(dp418
sg63
g286
sg56
(lp419
g49
(g70
g51
NtRp420
(dp421
g54
(dp422
g74
g75
ssg63
g416
sg56
(lp423
S'version'
p424
asbag49
(g70
g51
NtRp425
(dp426
g54
(dp427
g81
g82
ssg63
g416
sg56
(lp428
S':'
asbag49
(g70
g51
NtRp429
(dp430
g54
(dp431
sg63
g416
sg56
(lp432
g49
(g50
g51
NtRp433
(dp434
g54
(dp435
g62
I3
ssg63
g429
sg56
(lp436
S''
asbasbasbasbasbasbasbag49
(g65
g51
NtRp437
(dp438
g54
(dp439
sg63
g260
sg56
(lp440
g49
(g70
g51
NtRp441
(dp442
g54
(dp443
g74
g75
ssg63
g437
sg56
(lp444
S'session_id_hellow'
p445
asbag49
(g70
g51
NtRp446
(dp447
g54
(dp448
g81
g82
ssg63
g437
sg56
(lp449
S':'
asbag49
(g70
g51
NtRp450
(dp451
g54
(dp452
sg63
g437
sg56
(lp453
g49
(g50
g51
NtRp454
(dp455
g54
(dp456
g62
I4
ssg63
g450
sg56
(lp457
S'127.0.0.1-bbea59f2-333e-4593-a45c-2c44a5133d77'
p458
ag49
(g58
g51
NtRp459
(dp460
g54
(dp461
g62
I3
ssg63
Nsg56
(lp462
g49
(g65
g51
NtRp463
(dp464
g54
(dp465
sg63
g459
sg56
(lp466
g49
(g70
g51
NtRp467
(dp468
g54
(dp469
g74
g75
ssg63
g463
sg56
(lp470
g298
asbag49
(g70
g51
NtRp471
(dp472
g54
(dp473
g81
g82
ssg63
g463
sg56
(lp474
S':'
asbag49
(g70
g51
NtRp475
(dp476
g54
(dp477
sg63
g463
sg56
(lp478
g49
(g50
g51
NtRp479
(dp480
g54
(dp481
g62
I3
ssg63
g475
sg56
(lp482
S''
asbasbasbag49
(g65
g51
NtRp483
(dp484
g54
(dp485
sg63
g459
sg56
(lp486
g49
(g70
g51
NtRp487
(dp488
g54
(dp489
g74
g75
ssg63
g483
sg56
(lp490
g319
asbag49
(g70
g51
NtRp491
(dp492
g54
(dp493
g81
g82
ssg63
g483
sg56
(lp494
S':'
asbag49
(g70
g51
NtRp495
(dp496
g54
(dp497
sg63
g483
sg56
(lp498
g49
(g50
g51
NtRp499
(dp500
g54
(dp501
g62
I3
ssg63
g495
sg56
(lp502
S''
asbasbasbag49
(g65
g51
NtRp503
(dp504
g54
(dp505
sg63
g459
sg56
(lp506
g49
(g70
g51
NtRp507
(dp508
g54
(dp509
g74
g75
ssg63
g503
sg56
(lp510
g340
asbag49
(g70
g51
NtRp511
(dp512
g54
(dp513
g81
g82
ssg63
g503
sg56
(lp514
S':'
asbag49
(g70
g51
NtRp515
(dp516
g54
(dp517
sg63
g503
sg56
(lp518
g49
(g50
g51
NtRp519
(dp520
g54
(dp521
g62
I3
ssg63
g515
sg56
(lp522
S''
asbasbasbag49
(g65
g51
NtRp523
(dp524
g54
(dp525
sg63
g459
sg56
(lp526
g49
(g70
g51
NtRp527
(dp528
g54
(dp529
g74
g75
ssg63
g523
sg56
(lp530
g361
asbag49
(g70
g51
NtRp531
(dp532
g54
(dp533
g81
g82
ssg63
g523
sg56
(lp534
S':'
asbag49
(g70
g51
NtRp535
(dp536
g54
(dp537
sg63
g523
sg56
(lp538
g49
(g50
g51
NtRp539
(dp540
g54
(dp541
g62
I3
ssg63
g535
sg56
(lp542
S''
asbasbasbag49
(g65
g51
NtRp543
(dp544
g54
(dp545
sg63
g459
sg56
(lp546
g49
(g70
g51
NtRp547
(dp548
g54
(dp549
g74
g75
ssg63
g543
sg56
(lp550
g382
asbag49
(g70
g51
NtRp551
(dp552
g54
(dp553
g81
g82
ssg63
g543
sg56
(lp554
S':'
asbag49
(g70
g51
NtRp555
(dp556
g54
(dp557
sg63
g543
sg56
(lp558
g49
(g50
g51
NtRp559
(dp560
g54
(dp561
g62
I3
ssg63
g555
sg56
(lp562
S''
asbasbasbag49
(g65
g51
NtRp563
(dp564
g54
(dp565
sg63
g459
sg56
(lp566
g49
(g70
g51
NtRp567
(dp568
g54
(dp569
g74
g75
ssg63
g563
sg56
(lp570
g403
asbag49
(g70
g51
NtRp571
(dp572
g54
(dp573
g81
g82
ssg63
g563
sg56
(lp574
S':'
asbag49
(g70
g51
NtRp575
(dp576
g54
(dp577
sg63
g563
sg56
(lp578
g49
(g50
g51
NtRp579
(dp580
g54
(dp581
g62
I3
ssg63
g575
sg56
(lp582
S''
asbasbasbag49
(g65
g51
NtRp583
(dp584
g54
(dp585
sg63
g459
sg56
(lp586
g49
(g70
g51
NtRp587
(dp588
g54
(dp589
g74
g75
ssg63
g583
sg56
(lp590
g424
asbag49
(g70
g51
NtRp591
(dp592
g54
(dp593
g81
g82
ssg63
g583
sg56
(lp594
S':'
asbag49
(g70
g51
NtRp595
(dp596
g54
(dp597
sg63
g583
sg56
(lp598
g49
(g50
g51
NtRp599
(dp600
g54
(dp601
g62
I3
ssg63
g595
sg56
(lp602
S''
asbasbasbasbasbasbasbag49
(g65
g51
NtRp603
(dp604
g54
(dp605
sg63
g260
sg56
(lp606
g49
(g70
g51
NtRp607
(dp608
g54
(dp609
g74
g75
ssg63
g603
sg56
(lp610
S'session_id_welcome'
p611
asbag49
(g70
g51
NtRp612
(dp613
g54
(dp614
g81
g82
ssg63
g603
sg56
(lp615
S':'
asbag49
(g70
g51
NtRp616
(dp617
g54
(dp618
sg63
g603
sg56
(lp619
g49
(g50
g51
NtRp620
(dp621
g54
(dp622
g62
I4
ssg63
g616
sg56
(lp623
S'127.0.0.1-dfebfa33-25aa-4072-bce4-08f7e89e2d04'
p624
ag49
(g58
g51
NtRp625
(dp626
g54
(dp627
g62
I3
ssg63
Nsg56
(lp628
g49
(g65
g51
NtRp629
(dp630
g54
(dp631
sg63
g625
sg56
(lp632
g49
(g70
g51
NtRp633
(dp634
g54
(dp635
g74
g75
ssg63
g629
sg56
(lp636
g298
asbag49
(g70
g51
NtRp637
(dp638
g54
(dp639
g81
g82
ssg63
g629
sg56
(lp640
S':'
asbag49
(g70
g51
NtRp641
(dp642
g54
(dp643
sg63
g629
sg56
(lp644
g49
(g50
g51
NtRp645
(dp646
g54
(dp647
g62
I3
ssg63
g641
sg56
(lp648
S''
asbasbasbag49
(g65
g51
NtRp649
(dp650
g54
(dp651
sg63
g625
sg56
(lp652
g49
(g70
g51
NtRp653
(dp654
g54
(dp655
g74
g75
ssg63
g649
sg56
(lp656
g319
asbag49
(g70
g51
NtRp657
(dp658
g54
(dp659
g81
g82
ssg63
g649
sg56
(lp660
S':'
asbag49
(g70
g51
NtRp661
(dp662
g54
(dp663
sg63
g649
sg56
(lp664
g49
(g50
g51
NtRp665
(dp666
g54
(dp667
g62
I3
ssg63
g661
sg56
(lp668
S''
asbasbasbag49
(g65
g51
NtRp669
(dp670
g54
(dp671
sg63
g625
sg56
(lp672
g49
(g70
g51
NtRp673
(dp674
g54
(dp675
g74
g75
ssg63
g669
sg56
(lp676
g340
asbag49
(g70
g51
NtRp677
(dp678
g54
(dp679
g81
g82
ssg63
g669
sg56
(lp680
S':'
asbag49
(g70
g51
NtRp681
(dp682
g54
(dp683
sg63
g669
sg56
(lp684
g49
(g50
g51
NtRp685
(dp686
g54
(dp687
g62
I3
ssg63
g681
sg56
(lp688
S''
asbasbasbag49
(g65
g51
NtRp689
(dp690
g54
(dp691
sg63
g625
sg56
(lp692
g49
(g70
g51
NtRp693
(dp694
g54
(dp695
g74
g75
ssg63
g689
sg56
(lp696
g361
asbag49
(g70
g51
NtRp697
(dp698
g54
(dp699
g81
g82
ssg63
g689
sg56
(lp700
S':'
asbag49
(g70
g51
NtRp701
(dp702
g54
(dp703
sg63
g689
sg56
(lp704
g49
(g50
g51
NtRp705
(dp706
g54
(dp707
g62
I3
ssg63
g701
sg56
(lp708
S''
asbasbasbag49
(g65
g51
NtRp709
(dp710
g54
(dp711
sg63
g625
sg56
(lp712
g49
(g70
g51
NtRp713
(dp714
g54
(dp715
g74
g75
ssg63
g709
sg56
(lp716
g382
asbag49
(g70
g51
NtRp717
(dp718
g54
(dp719
g81
g82
ssg63
g709
sg56
(lp720
S':'
asbag49
(g70
g51
NtRp721
(dp722
g54
(dp723
sg63
g709
sg56
(lp724
g49
(g50
g51
NtRp725
(dp726
g54
(dp727
g62
I3
ssg63
g721
sg56
(lp728
S''
asbasbasbag49
(g65
g51
NtRp729
(dp730
g54
(dp731
sg63
g625
sg56
(lp732
g49
(g70
g51
NtRp733
(dp734
g54
(dp735
g74
g75
ssg63
g729
sg56
(lp736
g403
asbag49
(g70
g51
NtRp737
(dp738
g54
(dp739
g81
g82
ssg63
g729
sg56
(lp740
S':'
asbag49
(g70
g51
NtRp741
(dp742
g54
(dp743
sg63
g729
sg56
(lp744
g49
(g50
g51
NtRp745
(dp746
g54
(dp747
g62
I3
ssg63
g741
sg56
(lp748
S''
asbasbasbag49
(g65
g51
NtRp749
(dp750
g54
(dp751
sg63
g625
sg56
(lp752
g49
(g70
g51
NtRp753
(dp754
g54
(dp755
g74
g75
ssg63
g749
sg56
(lp756
g424
asbag49
(g70
g51
NtRp757
(dp758
g54
(dp759
g81
g82
ssg63
g749
sg56
(lp760
S':'
asbag49
(g70
g51
NtRp761
(dp762
g54
(dp763
sg63
g749
sg56
(lp764
g49
(g50
g51
NtRp765
(dp766
g54
(dp767
g62
I3
ssg63
g761
sg56
(lp768
S''
asbasbasbasbasbasbasbasbasbasbasbag49
(g65
g51
NtRp769
(dp770
g54
(dp771
sg63
g59
sg56
(lp772
g49
(g70
g51
NtRp773
(dp774
g54
(dp775
g74
g75
ssg63
g769
sg56
(lp776
S'env'
p777
asbag49
(g70
g51
NtRp778
(dp779
g54
(dp780
g81
g82
ssg63
g769
sg56
(lp781
S':'
asbag49
(g70
g51
NtRp782
(dp783
g54
(dp784
sg63
g769
sg56
(lp785
g49
(g50
g51
NtRp786
(dp787
g54
(dp788
g62
I5
ssg63
g782
sg56
(lp789
g49
(g58
g51
NtRp790
(dp791
g54
(dp792
g62
I4
ssg63
Nsg56
(lp793
g49
(g65
g51
NtRp794
(dp795
g54
(dp796
sg63
g790
sg56
(lp797
g49
(g70
g51
NtRp798
(dp799
g54
(dp800
g74
g75
ssg63
g794
sg56
(lp801
S'app_folders'
p802
asbag49
(g70
g51
NtRp803
(dp804
g54
(dp805
g81
g82
ssg63
g794
sg56
(lp806
S':'
asbag49
(g70
g51
NtRp807
(dp808
g54
(dp809
sg63
g794
sg56
(lp810
g49
(g50
g51
NtRp811
(dp812
g54
(dp813
g62
I4
ssg63
g807
sg56
(lp814
S"set(['/Users/zamechek/Downloads/web2py/web2py.app/Contents/Resources/applications/hellow/', '/Users/zamechek/Downloads/web2py/web2py.app/Contents/Resources/applications/admin/', '/Users/zamechek/Downloads/web2py/web2py.app/Contents/Resources/applications/welcome/'])"
p815
asbasbasbag49
(g65
g51
NtRp816
(dp817
g54
(dp818
sg63
g790
sg56
(lp819
g49
(g70
g51
NtRp820
(dp821
g54
(dp822
g74
g75
ssg63
g816
sg56
(lp823
S'applications_parent'
p824
asbag49
(g70
g51
NtRp825
(dp826
g54
(dp827
g81
g82
ssg63
g816
sg56
(lp828
S':'
asbag49
(g70
g51
NtRp829
(dp830
g54
(dp831
sg63
g816
sg56
(lp832
g49
(g50
g51
NtRp833
(dp834
g54
(dp835
g62
I4
ssg63
g829
sg56
(lp836
S'/Users/zamechek/Downloads/web2py/web2py.app/Contents/Resources'
p837
asbasbasbag49
(g65
g51
NtRp838
(dp839
g54
(dp840
sg63
g790
sg56
(lp841
g49
(g70
g51
NtRp842
(dp843
g54
(dp844
g74
g75
ssg63
g838
sg56
(lp845
S'cmd_args'
p846
asbag49
(g70
g51
NtRp847
(dp848
g54
(dp849
g81
g82
ssg63
g838
sg56
(lp850
S':'
asbag49
(g70
g51
NtRp851
(dp852
g54
(dp853
sg63
g838
sg56
(lp854
g49
(g50
g51
NtRp855
(dp856
g54
(dp857
g62
I4
ssg63
g851
sg56
(lp858
g49
(g58
g51
NtRp859
(dp860
g54
(dp861
g62
I3
ssg63
Nsg56
(lp862
sbasbasbasbag49
(g65
g51
NtRp863
(dp864
g54
(dp865
sg63
g790
sg56
(lp866
g49
(g70
g51
NtRp867
(dp868
g54
(dp869
g74
g75
ssg63
g863
sg56
(lp870
S'cmd_options'
p871
asbag49
(g70
g51
NtRp872
(dp873
g54
(dp874
g81
g82
ssg63
g863
sg56
(lp875
S':'
asbag49
(g70
g51
NtRp876
(dp877
g54
(dp878
sg63
g863
sg56
(lp879
g49
(g50
g51
NtRp880
(dp881
g54
(dp882
g62
I4
ssg63
g876
sg56
(lp883
S"<Values at 0x478bf58: {'verbose': False, 'ip': '127.0.0.1', 'with_scheduler': False, 'ips': ['130.91.149.119'], 'shutdown_timeout': 5, 'taskbar': False, 'port': 8000, 'maxthreads': None, 'softcron': False, 'server_name': 'hntvlan5310374.wlan.sas.upenn.edu', 'bpython': False, 'nogui': False, 'pid_filename': 'httpserver.pid', 'extcron': False, 'runcron': False, 'run_system_tests': False, 'test': None, 'folder': '/Users/zamechek/Downloads/web2py/web2py.app/Contents/Resources', 'config': '', 'import_models': False, 'winservice': '', 'shell': None, 'run': '', 'log_filename': 'httpserver.log', 'debuglevel': 30, 'args': [''], 'socket_timeout': 5, 'ssl_ca_certificate': None, 'scheduler': None, 'profiler_filename': None, 'ssl_private_key': '', 'scheduler_groups': None, 'password': '<ask>', 'request_queue_size': 5, 'ssl_certificate': '', 'cronjob': False, 'numthreads': None, 'quiet': False, 'interfaces': None, 'minthreads': None, 'timeout': 10, 'plain': False, 'nobanner': False}>"
p884
asbasbasbag49
(g65
g51
NtRp885
(dp886
g54
(dp887
sg63
g790
sg56
(lp888
g49
(g70
g51
NtRp889
(dp890
g54
(dp891
g74
g75
ssg63
g885
sg56
(lp892
S'db_sessions'
p893
asbag49
(g70
g51
NtRp894
(dp895
g54
(dp896
g81
g82
ssg63
g885
sg56
(lp897
S':'
asbag49
(g70
g51
NtRp898
(dp899
g54
(dp900
sg63
g885
sg56
(lp901
g49
(g50
g51
NtRp902
(dp903
g54
(dp904
g62
I4
ssg63
g898
sg56
(lp905
S'set([])'
p906
asbasbasbag49
(g65
g51
NtRp907
(dp908
g54
(dp909
sg63
g790
sg56
(lp910
g49
(g70
g51
NtRp911
(dp912
g54
(dp913
g74
g75
ssg63
g907
sg56
(lp914
S'debugging'
p915
asbag49
(g70
g51
NtRp916
(dp917
g54
(dp918
g81
g82
ssg63
g907
sg56
(lp919
S':'
asbag49
(g70
g51
NtRp920
(dp921
g54
(dp922
sg63
g907
sg56
(lp923
g49
(g50
g51
NtRp924
(dp925
g54
(dp926
g62
I4
ssg63
g920
sg56
(lp927
S'True'
p928
asbasbasbag49
(g65
g51
NtRp929
(dp930
g54
(dp931
sg63
g790
sg56
(lp932
g49
(g70
g51
NtRp933
(dp934
g54
(dp935
g74
g75
ssg63
g929
sg56
(lp936
S'gluon_parent'
p937
asbag49
(g70
g51
NtRp938
(dp939
g54
(dp940
g81
g82
ssg63
g929
sg56
(lp941
S':'
asbag49
(g70
g51
NtRp942
(dp943
g54
(dp944
sg63
g929
sg56
(lp945
g49
(g50
g51
NtRp946
(dp947
g54
(dp948
g62
I4
ssg63
g942
sg56
(lp949
S'/Users/zamechek/Downloads/web2py/web2py.app/Contents/Resources'
p950
asbasbasbag49
(g65
g51
NtRp951
(dp952
g54
(dp953
sg63
g790
sg56
(lp954
g49
(g70
g51
NtRp955
(dp956
g54
(dp957
g74
g75
ssg63
g951
sg56
(lp958
S'http_accept'
p959
asbag49
(g70
g51
NtRp960
(dp961
g54
(dp962
g81
g82
ssg63
g951
sg56
(lp963
S':'
asbag49
(g70
g51
NtRp964
(dp965
g54
(dp966
sg63
g951
sg56
(lp967
g49
(g50
g51
NtRp968
(dp969
g54
(dp970
g62
I4
ssg63
g964
sg56
(lp971
S'text/html,application/xhtml+xml,application/xml;q=0.9,*/*;q=0.8'
p972
asbasbasbag49
(g65
g51
NtRp973
(dp974
g54
(dp975
sg63
g790
sg56
(lp976
g49
(g70
g51
NtRp977
(dp978
g54
(dp979
g74
g75
ssg63
g973
sg56
(lp980
S'http_accept_charset'
p981
asbag49
(g70
g51
NtRp982
(dp983
g54
(dp984
g81
g82
ssg63
g973
sg56
(lp985
S':'
asbag49
(g70
g51
NtRp986
(dp987
g54
(dp988
sg63
g973
sg56
(lp989
g49
(g50
g51
NtRp990
(dp991
g54
(dp992
g62
I4
ssg63
g986
sg56
(lp993
S'ISO-8859-1,utf-8;q=0.7,*;q=0.3'
p994
asbasbasbag49
(g65
g51
NtRp995
(dp996
g54
(dp997
sg63
g790
sg56
(lp998
g49
(g70
g51
NtRp999
(dp1000
g54
(dp1001
g74
g75
ssg63
g995
sg56
(lp1002
S'http_accept_encoding'
p1003
asbag49
(g70
g51
NtRp1004
(dp1005
g54
(dp1006
g81
g82
ssg63
g995
sg56
(lp1007
S':'
asbag49
(g70
g51
NtRp1008
(dp1009
g54
(dp1010
sg63
g995
sg56
(lp1011
g49
(g50
g51
NtRp1012
(dp1013
g54
(dp1014
g62
I4
ssg63
g1008
sg56
(lp1015
S'gzip,deflate,sdch'
p1016
asbasbasbag49
(g65
g51
NtRp1017
(dp1018
g54
(dp1019
sg63
g790
sg56
(lp1020
g49
(g70
g51
NtRp1021
(dp1022
g54
(dp1023
g74
g75
ssg63
g1017
sg56
(lp1024
S'http_accept_language'
p1025
asbag49
(g70
g51
NtRp1026
(dp1027
g54
(dp1028
g81
g82
ssg63
g1017
sg56
(lp1029
S':'
asbag49
(g70
g51
NtRp1030
(dp1031
g54
(dp1032
sg63
g1017
sg56
(lp1033
g49
(g50
g51
NtRp1034
(dp1035
g54
(dp1036
g62
I4
ssg63
g1030
sg56
(lp1037
S'en-US,en;q=0.8'
p1038
asbasbasbag49
(g65
g51
NtRp1039
(dp1040
g54
(dp1041
sg63
g790
sg56
(lp1042
g49
(g70
g51
NtRp1043
(dp1044
g54
(dp1045
g74
g75
ssg63
g1039
sg56
(lp1046
S'http_cache_control'
p1047
asbag49
(g70
g51
NtRp1048
(dp1049
g54
(dp1050
g81
g82
ssg63
g1039
sg56
(lp1051
S':'
asbag49
(g70
g51
NtRp1052
(dp1053
g54
(dp1054
sg63
g1039
sg56
(lp1055
g49
(g50
g51
NtRp1056
(dp1057
g54
(dp1058
g62
I4
ssg63
g1052
sg56
(lp1059
S'max-age=0'
p1060
asbasbasbag49
(g65
g51
NtRp1061
(dp1062
g54
(dp1063
sg63
g790
sg56
(lp1064
g49
(g70
g51
NtRp1065
(dp1066
g54
(dp1067
g74
g75
ssg63
g1061
sg56
(lp1068
S'http_connection'
p1069
asbag49
(g70
g51
NtRp1070
(dp1071
g54
(dp1072
g81
g82
ssg63
g1061
sg56
(lp1073
S':'
asbag49
(g70
g51
NtRp1074
(dp1075
g54
(dp1076
sg63
g1061
sg56
(lp1077
g49
(g50
g51
NtRp1078
(dp1079
g54
(dp1080
g62
I4
ssg63
g1074
sg56
(lp1081
S'keep-alive'
p1082
asbasbasbag49
(g65
g51
NtRp1083
(dp1084
g54
(dp1085
sg63
g790
sg56
(lp1086
g49
(g70
g51
NtRp1087
(dp1088
g54
(dp1089
g74
g75
ssg63
g1083
sg56
(lp1090
S'http_cookie'
p1091
asbag49
(g70
g51
NtRp1092
(dp1093
g54
(dp1094
g81
g82
ssg63
g1083
sg56
(lp1095
S':'
asbag49
(g70
g51
NtRp1096
(dp1097
g54
(dp1098
sg63
g1083
sg56
(lp1099
g49
(g50
g51
NtRp1100
(dp1101
g54
(dp1102
g62
I4
ssg63
g1096
sg56
(lp1103
S'_define_session=BAh7CEkiD3Nlc3Npb25faWQGOgZFRkkiJTVmM2YzOTE4ZmYyNzY4ZDRjYjY5YjcyOGNkZTAxODEwBjsAVEkiEF9jc3JmX3Rva2VuBjsARkkiMVY4MTBXWE1hdGNGUGR0ZzhxeStGc3FiajlCNzB6UkpqcHZUalZJNjRFNms9BjsARkkiGXdhcmRlbi51c2VyLnVzZXIua2V5BjsAVFsISSIJVXNlcgY7AEZbBmkGSSIiJDJhJDEwJGxpeDBzN29QMk5ocFJWZUl4RXZ4WXUGOwBU--36fb82eb40ee1558fc8e56b5bce1c04bba1a6c00; _bs_session=BAh7B0kiD3Nlc3Npb25faWQGOgZFRkkiJWFhOTlmNjdkODEzYjIwNGMyNGUwMTZmNjlkMDBjMjlhBjsAVEkiEF9jc3JmX3Rva2VuBjsARkkiMUJjek16b0JSUDluYk5MekI0YlNTMklPb2Q3V3pNQzJXcHQ1enY1RDgrT3c9BjsARg%3D%3D--80cc0f5e6211d60923eda39a15903de5a280521a; _table_session=BAh7B0kiD3Nlc3Npb25faWQGOgZFRkkiJTdhZTA3MzFhMGMxM2Q4YTAxZGQ3ZTNlMDM2ODIwOWY3BjsAVEkiEF9jc3JmX3Rva2VuBjsARkkiMWxKWVRtT3hGU3dxT0tnbmJ1OG1iL3FXSW9jWVRJdnZhZHJmNTN2b1BqR2M9BjsARg%3D%3D--a8b8801fe97e379d91991be9a0d21a60f46bc09e; _usertable_session=BAh7CEkiD3Nlc3Npb25faWQGOgZFRkkiJTRmY2NiMWMyOTE1ZThhYzE1MzVlYmU3ODMxZjdhM2NmBjsAVEkiEF9jc3JmX3Rva2VuBjsARkkiMXlibkQxRk5wVVFFU05OcDVxMEQvUURSZWRJQVlRY1JwYTdoSkRucEtlYXc9BjsARkkiCmZsYXNoBjsARm86JUFjdGlvbkRpc3BhdGNoOjpGbGFzaDo6Rmxhc2hIYXNoCToKQHVzZWRvOghTZXQGOgpAaGFzaHsAOgxAY2xvc2VkRjoNQGZsYXNoZXN7BjoLbm90aWNlSSItRmllbGQgcmVsYXRpb24gd2FzIHN1Y2Nlc3NmdWxseSBjcmVhdGVkLgY7AEY6CUBub3cw--c455129d4f2ca1e085c6ad184fd200aecc0b7061; _tbls_session=BAh7B0kiD3Nlc3Npb25faWQGOgZFRkkiJWY5MmM2Mzk2ZWQ0M2ZlODZkN2E5YjMxYmViOTU4NTI2BjsAVEkiEF9jc3JmX3Rva2VuBjsARkkiMVZjemQ4UGhpZXhnaEhnOUE2alRCRmdGSXFBclViMFhwQlo5Ulg2VTRhdFk9BjsARg%3D%3D--53586c2b8499a2c56c427cd8b8e3de116331bd4d; _typel_session=BAh7CEkiD3Nlc3Npb25faWQGOgZFRkkiJWQzMjkxZGExNGY5ZTQzNzIzZTk5MWZmZTM0NDY2NTFiBjsAVEkiEF9jc3JmX3Rva2VuBjsARkkiMWM5cVg1c3pKalpQSjd3Yk5lanQ5alpjZW4zRmNOVXdQS29YNExGOXJIUWM9BjsARkkiGXdhcmRlbi51c2VyLnVzZXIua2V5BjsAVFsISSIJVXNlcgY7AEZbBmkGSSIiJDJhJDEwJEVybm5aY0RTdm9sRjRETENhdjRveGUGOwBU--df06a9ed1ab2763964f111c2534c9f2a3630c12c; _ampersand_factory_session=BAh7CUkiD3Nlc3Npb25faWQGOgZFRkkiJWI2NTFmMThjZDNkMWU4NTNhNmI4OWU1MjNhYjMyZmQ0BjsAVEkiDWluc3RhbmNlBjsARmkGSSIQX2NzcmZfdG9rZW4GOwBGSSIxTEtBZER3MFlQQUV6Nmh1NW95TG4vUTFGcFdXa1ozWTVJaUx5aXh4ZndTVT0GOwBGSSIbd2FyZGVuLnVzZXIud29ya2VyLmtleQY7AFRbCEkiC1dvcmtlcgY7AEZbBmkGSSIiJDJhJDEwJGlEdndMRmhzQXB5eE1tLnhjMFM2di4GOwBU--e6bc7e5d4e945842bb7862fd547d433b3c7bfdcb; _lang_session=BAh7B0kiD3Nlc3Npb25faWQGOgZFRkkiJTY2YzI4YTY5NDkzNzE1ZGIzYzUwNWM3ZDg2ZmY1MWNiBjsAVEkiEF9jc3JmX3Rva2VuBjsARkkiMVdVczNjYnUvY2tZaHFvMVlwLy9zemdCcFliUytKdTlUTGZ3M1RIUlI3aHc9BjsARg%3D%3D--52f16b665cb4cfc5b54cea21c7b082ab6b75b1bf; session_id_welcome=127.0.0.1-dfebfa33-25aa-4072-bce4-08f7e89e2d04; session_id_hellow=127.0.0.1-bbea59f2-333e-4593-a45c-2c44a5133d77; session_id_admin=127.0.0.1-bf448199-cadc-41e3-b1a7-bed302e89a3e'
p1104
asbasbasbag49
(g65
g51
NtRp1105
(dp1106
g54
(dp1107
sg63
g790
sg56
(lp1108
g49
(g70
g51
NtRp1109
(dp1110
g54
(dp1111
g74
g75
ssg63
g1105
sg56
(lp1112
S'http_host'
p1113
asbag49
(g70
g51
NtRp1114
(dp1115
g54
(dp1116
g81
g82
ssg63
g1105
sg56
(lp1117
S':'
asbag49
(g70
g51
NtRp1118
(dp1119
g54
(dp1120
sg63
g1105
sg56
(lp1121
g49
(g50
g51
NtRp1122
(dp1123
g54
(dp1124
g62
I4
ssg63
g1118
sg56
(lp1125
S'localhost:8887'
p1126
asbasbasbag49
(g65
g51
NtRp1127
(dp1128
g54
(dp1129
sg63
g790
sg56
(lp1130
g49
(g70
g51
NtRp1131
(dp1132
g54
(dp1133
g74
g75
ssg63
g1127
sg56
(lp1134
S'http_user_agent'
p1135
asbag49
(g70
g51
NtRp1136
(dp1137
g54
(dp1138
g81
g82
ssg63
g1127
sg56
(lp1139
S':'
asbag49
(g70
g51
NtRp1140
(dp1141
g54
(dp1142
sg63
g1127
sg56
(lp1143
g49
(g50
g51
NtRp1144
(dp1145
g54
(dp1146
g62
I4
ssg63
g1140
sg56
(lp1147
S'Mozilla/5.0 (Macintosh; Intel Mac OS X 10_8_3) AppleWebKit/537.22 (KHTML, like Gecko) Chrome/25.0.1364.172 Safari/537.22'
p1148
asbasbasbag49
(g65
g51
NtRp1149
(dp1150
g54
(dp1151
sg63
g790
sg56
(lp1152
g49
(g70
g51
NtRp1153
(dp1154
g54
(dp1155
g74
g75
ssg63
g1149
sg56
(lp1156
S'is_jython'
p1157
asbag49
(g70
g51
NtRp1158
(dp1159
g54
(dp1160
g81
g82
ssg63
g1149
sg56
(lp1161
S':'
asbag49
(g70
g51
NtRp1162
(dp1163
g54
(dp1164
sg63
g1149
sg56
(lp1165
g49
(g50
g51
NtRp1166
(dp1167
g54
(dp1168
g62
I4
ssg63
g1162
sg56
(lp1169
g92
asbasbasbag49
(g65
g51
NtRp1170
(dp1171
g54
(dp1172
sg63
g790
sg56
(lp1173
g49
(g70
g51
NtRp1174
(dp1175
g54
(dp1176
g74
g75
ssg63
g1170
sg56
(lp1177
S'is_pypy'
p1178
asbag49
(g70
g51
NtRp1179
(dp1180
g54
(dp1181
g81
g82
ssg63
g1170
sg56
(lp1182
S':'
asbag49
(g70
g51
NtRp1183
(dp1184
g54
(dp1185
sg63
g1170
sg56
(lp1186
g49
(g50
g51
NtRp1187
(dp1188
g54
(dp1189
g62
I4
ssg63
g1183
sg56
(lp1190
g92
asbasbasbag49
(g65
g51
NtRp1191
(dp1192
g54
(dp1193
sg63
g790
sg56
(lp1194
g49
(g70
g51
NtRp1195
(dp1196
g54
(dp1197
g74
g75
ssg63
g1191
sg56
(lp1198
S'local_hosts'
p1199
asbag49
(g70
g51
NtRp1200
(dp1201
g54
(dp1202
g81
g82
ssg63
g1191
sg56
(lp1203
S':'
asbag49
(g70
g51
NtRp1204
(dp1205
g54
(dp1206
sg63
g1191
sg56
(lp1207
g49
(g50
g51
NtRp1208
(dp1209
g54
(dp1210
g62
I4
ssg63
g1204
sg56
(lp1211
g49
(g58
g51
NtRp1212
(dp1213
g54
(dp1214
g62
I3
ssg63
Nsg56
(lp1215
g49
(g65
g51
NtRp1216
(dp1217
g54
(dp1218
sg63
g1212
sg56
(lp1219
g49
(g70
g51
NtRp1220
(dp1221
g54
(dp1222
sg63
g1216
sg56
(lp1223
g49
(g50
g51
NtRp1224
(dp1225
g54
(dp1226
g62
I3
ssg63
g1220
sg56
(lp1227
S'::1'
p1228
asbasbasbag49
(g65
g51
NtRp1229
(dp1230
g54
(dp1231
sg63
g1212
sg56
(lp1232
g49
(g70
g51
NtRp1233
(dp1234
g54
(dp1235
sg63
g1229
sg56
(lp1236
g49
(g50
g51
NtRp1237
(dp1238
g54
(dp1239
g62
I3
ssg63
g1233
sg56
(lp1240
S'130.91.149.119'
p1241
asbasbasbag49
(g65
g51
NtRp1242
(dp1243
g54
(dp1244
sg63
g1212
sg56
(lp1245
g49
(g70
g51
NtRp1246
(dp1247
g54
(dp1248
sg63
g1242
sg56
(lp1249
g49
(g50
g51
NtRp1250
(dp1251
g54
(dp1252
g62
I3
ssg63
g1246
sg56
(lp1253
S'::ffff:127.0.0.1'
p1254
asbasbasbag49
(g65
g51
NtRp1255
(dp1256
g54
(dp1257
sg63
g1212
sg56
(lp1258
g49
(g70
g51
NtRp1259
(dp1260
g54
(dp1261
sg63
g1255
sg56
(lp1262
g49
(g50
g51
NtRp1263
(dp1264
g54
(dp1265
g62
I3
ssg63
g1259
sg56
(lp1266
S'127.0.0.1'
p1267
asbasbasbag49
(g65
g51
NtRp1268
(dp1269
g54
(dp1270
sg63
g1212
sg56
(lp1271
g49
(g70
g51
NtRp1272
(dp1273
g54
(dp1274
sg63
g1268
sg56
(lp1275
g49
(g50
g51
NtRp1276
(dp1277
g54
(dp1278
g62
I3
ssg63
g1272
sg56
(lp1279
S'hntvlan5310374.wlan.sas.upenn.edu'
p1280
asbasbasbasbasbasbasbag49
(g65
g51
NtRp1281
(dp1282
g54
(dp1283
sg63
g790
sg56
(lp1284
g49
(g70
g51
NtRp1285
(dp1286
g54
(dp1287
g74
g75
ssg63
g1281
sg56
(lp1288
S'path_info'
p1289
asbag49
(g70
g51
NtRp1290
(dp1291
g54
(dp1292
g81
g82
ssg63
g1281
sg56
(lp1293
S':'
asbag49
(g70
g51
NtRp1294
(dp1295
g54
(dp1296
sg63
g1281
sg56
(lp1297
g49
(g50
g51
NtRp1298
(dp1299
g54
(dp1300
g62
I4
ssg63
g1294
sg56
(lp1301
S'/hellow/game/show/1'
p1302
asbasbasbag49
(g65
g51
NtRp1303
(dp1304
g54
(dp1305
sg63
g790
sg56
(lp1306
g49
(g70
g51
NtRp1307
(dp1308
g54
(dp1309
g74
g75
ssg63
g1303
sg56
(lp1310
S'query_string'
p1311
asbag49
(g70
g51
NtRp1312
(dp1313
g54
(dp1314
g81
g82
ssg63
g1303
sg56
(lp1315
S':'
asbag49
(g70
g51
NtRp1316
(dp1317
g54
(dp1318
sg63
g1303
sg56
(lp1319
g49
(g50
g51
NtRp1320
(dp1321
g54
(dp1322
g62
I4
ssg63
g1316
sg56
(lp1323
S''
asbasbasbag49
(g65
g51
NtRp1324
(dp1325
g54
(dp1326
sg63
g790
sg56
(lp1327
g49
(g70
g51
NtRp1328
(dp1329
g54
(dp1330
g74
g75
ssg63
g1324
sg56
(lp1331
S'remote_addr'
p1332
asbag49
(g70
g51
NtRp1333
(dp1334
g54
(dp1335
g81
g82
ssg63
g1324
sg56
(lp1336
S':'
asbag49
(g70
g51
NtRp1337
(dp1338
g54
(dp1339
sg63
g1324
sg56
(lp1340
g49
(g50
g51
NtRp1341
(dp1342
g54
(dp1343
g62
I4
ssg63
g1337
sg56
(lp1344
g216
asbasbasbag49
(g65
g51
NtRp1345
(dp1346
g54
(dp1347
sg63
g790
sg56
(lp1348
g49
(g70
g51
NtRp1349
(dp1350
g54
(dp1351
g74
g75
ssg63
g1345
sg56
(lp1352
S'remote_port'
p1353
asbag49
(g70
g51
NtRp1354
(dp1355
g54
(dp1356
g81
g82
ssg63
g1345
sg56
(lp1357
S':'
asbag49
(g70
g51
NtRp1358
(dp1359
g54
(dp1360
sg63
g1345
sg56
(lp1361
g49
(g50
g51
NtRp1362
(dp1363
g54
(dp1364
g62
I4
ssg63
g1358
sg56
(lp1365
S'58893'
p1366
asbasbasbag49
(g65
g51
NtRp1367
(dp1368
g54
(dp1369
sg63
g790
sg56
(lp1370
g49
(g70
g51
NtRp1371
(dp1372
g54
(dp1373
g74
g75
ssg63
g1367
sg56
(lp1374
S'request_method'
p1375
asbag49
(g70
g51
NtRp1376
(dp1377
g54
(dp1378
g81
g82
ssg63
g1367
sg56
(lp1379
S':'
asbag49
(g70
g51
NtRp1380
(dp1381
g54
(dp1382
sg63
g1367
sg56
(lp1383
g49
(g50
g51
NtRp1384
(dp1385
g54
(dp1386
g62
I4
ssg63
g1380
sg56
(lp1387
S'GET'
p1388
asbasbasbag49
(g65
g51
NtRp1389
(dp1390
g54
(dp1391
sg63
g790
sg56
(lp1392
g49
(g70
g51
NtRp1393
(dp1394
g54
(dp1395
g74
g75
ssg63
g1389
sg56
(lp1396
S'request_uri'
p1397
asbag49
(g70
g51
NtRp1398
(dp1399
g54
(dp1400
g81
g82
ssg63
g1389
sg56
(lp1401
S':'
asbag49
(g70
g51
NtRp1402
(dp1403
g54
(dp1404
sg63
g1389
sg56
(lp1405
g49
(g50
g51
NtRp1406
(dp1407
g54
(dp1408
g62
I4
ssg63
g1402
sg56
(lp1409
g1302
asbasbasbag49
(g65
g51
NtRp1410
(dp1411
g54
(dp1412
sg63
g790
sg56
(lp1413
g49
(g70
g51
NtRp1414
(dp1415
g54
(dp1416
g74
g75
ssg63
g1410
sg56
(lp1417
S'script_name'
p1418
asbag49
(g70
g51
NtRp1419
(dp1420
g54
(dp1421
g81
g82
ssg63
g1410
sg56
(lp1422
S':'
asbag49
(g70
g51
NtRp1423
(dp1424
g54
(dp1425
sg63
g1410
sg56
(lp1426
g49
(g50
g51
NtRp1427
(dp1428
g54
(dp1429
g62
I4
ssg63
g1423
sg56
(lp1430
S''
asbasbasbag49
(g65
g51
NtRp1431
(dp1432
g54
(dp1433
sg63
g790
sg56
(lp1434
g49
(g70
g51
NtRp1435
(dp1436
g54
(dp1437
g74
g75
ssg63
g1431
sg56
(lp1438
S'server_name'
p1439
asbag49
(g70
g51
NtRp1440
(dp1441
g54
(dp1442
g81
g82
ssg63
g1431
sg56
(lp1443
S':'
asbag49
(g70
g51
NtRp1444
(dp1445
g54
(dp1446
sg63
g1431
sg56
(lp1447
g49
(g50
g51
NtRp1448
(dp1449
g54
(dp1450
g62
I4
ssg63
g1444
sg56
(lp1451
S'hntvlan5310374.wlan.sas.upenn.edu'
p1452
asbasbasbag49
(g65
g51
NtRp1453
(dp1454
g54
(dp1455
sg63
g790
sg56
(lp1456
g49
(g70
g51
NtRp1457
(dp1458
g54
(dp1459
g74
g75
ssg63
g1453
sg56
(lp1460
S'server_port'
p1461
asbag49
(g70
g51
NtRp1462
(dp1463
g54
(dp1464
g81
g82
ssg63
g1453
sg56
(lp1465
S':'
asbag49
(g70
g51
NtRp1466
(dp1467
g54
(dp1468
sg63
g1453
sg56
(lp1469
g49
(g50
g51
NtRp1470
(dp1471
g54
(dp1472
g62
I4
ssg63
g1466
sg56
(lp1473
S'8887'
p1474
asbasbasbag49
(g65
g51
NtRp1475
(dp1476
g54
(dp1477
sg63
g790
sg56
(lp1478
g49
(g70
g51
NtRp1479
(dp1480
g54
(dp1481
g74
g75
ssg63
g1475
sg56
(lp1482
S'server_protocol'
p1483
asbag49
(g70
g51
NtRp1484
(dp1485
g54
(dp1486
g81
g82
ssg63
g1475
sg56
(lp1487
S':'
asbag49
(g70
g51
NtRp1488
(dp1489
g54
(dp1490
sg63
g1475
sg56
(lp1491
g49
(g50
g51
NtRp1492
(dp1493
g54
(dp1494
g62
I4
ssg63
g1488
sg56
(lp1495
S'HTTP/1.1'
p1496
asbasbasbag49
(g65
g51
NtRp1497
(dp1498
g54
(dp1499
sg63
g790
sg56
(lp1500
g49
(g70
g51
NtRp1501
(dp1502
g54
(dp1503
g74
g75
ssg63
g1497
sg56
(lp1504
S'server_software'
p1505
asbag49
(g70
g51
NtRp1506
(dp1507
g54
(dp1508
g81
g82
ssg63
g1497
sg56
(lp1509
S':'
asbag49
(g70
g51
NtRp1510
(dp1511
g54
(dp1512
sg63
g1497
sg56
(lp1513
g49
(g50
g51
NtRp1514
(dp1515
g54
(dp1516
g62
I4
ssg63
g1510
sg56
(lp1517
S'Rocket 1.2.6'
p1518
asbasbasbag49
(g65
g51
NtRp1519
(dp1520
g54
(dp1521
sg63
g790
sg56
(lp1522
g49
(g70
g51
NtRp1523
(dp1524
g54
(dp1525
g74
g75
ssg63
g1519
sg56
(lp1526
S'web2py_path'
p1527
asbag49
(g70
g51
NtRp1528
(dp1529
g54
(dp1530
g81
g82
ssg63
g1519
sg56
(lp1531
S':'
asbag49
(g70
g51
NtRp1532
(dp1533
g54
(dp1534
sg63
g1519
sg56
(lp1535
g49
(g50
g51
NtRp1536
(dp1537
g54
(dp1538
g62
I4
ssg63
g1532
sg56
(lp1539
g837
asbasbasbag49
(g65
g51
NtRp1540
(dp1541
g54
(dp1542
sg63
g790
sg56
(lp1543
g49
(g70
g51
NtRp1544
(dp1545
g54
(dp1546
g74
g75
ssg63
g1540
sg56
(lp1547
S'web2py_version'
p1548
asbag49
(g70
g51
NtRp1549
(dp1550
g54
(dp1551
g81
g82
ssg63
g1540
sg56
(lp1552
S':'
asbag49
(g70
g51
NtRp1553
(dp1554
g54
(dp1555
sg63
g1540
sg56
(lp1556
g49
(g50
g51
NtRp1557
(dp1558
g54
(dp1559
g62
I4
ssg63
g1553
sg56
(lp1560
g49
(g58
g51
NtRp1561
(dp1562
g54
(dp1563
g62
I3
ssg63
Nsg56
(lp1564
g49
(g65
g51
NtRp1565
(dp1566
g54
(dp1567
sg63
g1561
sg56
(lp1568
g49
(g70
g51
NtRp1569
(dp1570
g54
(dp1571
sg63
g1565
sg56
(lp1572
g49
(g50
g51
NtRp1573
(dp1574
g54
(dp1575
g62
I3
ssg63
g1569
sg56
(lp1576
S'2'
asbasbasbag49
(g65
g51
NtRp1577
(dp1578
g54
(dp1579
sg63
g1561
sg56
(lp1580
g49
(g70
g51
NtRp1581
(dp1582
g54
(dp1583
sg63
g1577
sg56
(lp1584
g49
(g50
g51
NtRp1585
(dp1586
g54
(dp1587
g62
I3
ssg63
g1581
sg56
(lp1588
S'4'
asbasbasbag49
(g65
g51
NtRp1589
(dp1590
g54
(dp1591
sg63
g1561
sg56
(lp1592
g49
(g70
g51
NtRp1593
(dp1594
g54
(dp1595
sg63
g1589
sg56
(lp1596
g49
(g50
g51
NtRp1597
(dp1598
g54
(dp1599
g62
I3
ssg63
g1593
sg56
(lp1600
S'5'
asbasbasbag49
(g65
g51
NtRp1601
(dp1602
g54
(dp1603
sg63
g1561
sg56
(lp1604
g49
(g70
g51
NtRp1605
(dp1606
g54
(dp1607
sg63
g1601
sg56
(lp1608
g49
(g50
g51
NtRp1609
(dp1610
g54
(dp1611
g62
I3
ssg63
g1605
sg56
(lp1612
S'stable'
p1613
asbasbasbag49
(g65
g51
NtRp1614
(dp1615
g54
(dp1616
sg63
g1561
sg56
(lp1617
g49
(g70
g51
NtRp1618
(dp1619
g54
(dp1620
sg63
g1614
sg56
(lp1621
g49
(g50
g51
NtRp1622
(dp1623
g54
(dp1624
g62
I3
ssg63
g1618
sg56
(lp1625
S'datetime.datetime(2013, 3, 18, 22, 46, 22)'
p1626
asbasbasbasbasbasbasbag49
(g65
g51
NtRp1627
(dp1628
g54
(dp1629
sg63
g790
sg56
(lp1630
g49
(g70
g51
NtRp1631
(dp1632
g54
(dp1633
g74
g75
ssg63
g1627
sg56
(lp1634
S'wsgi_errors'
p1635
asbag49
(g70
g51
NtRp1636
(dp1637
g54
(dp1638
g81
g82
ssg63
g1627
sg56
(lp1639
S':'
asbag49
(g70
g51
NtRp1640
(dp1641
g54
(dp1642
sg63
g1627
sg56
(lp1643
g49
(g50
g51
NtRp1644
(dp1645
g54
(dp1646
g62
I4
ssg63
g1640
sg56
(lp1647
S"<open file '<stderr>', mode 'w' at 0x540b0>"
p1648
asbasbasbag49
(g65
g51
NtRp1649
(dp1650
g54
(dp1651
sg63
g790
sg56
(lp1652
g49
(g70
g51
NtRp1653
(dp1654
g54
(dp1655
g74
g75
ssg63
g1649
sg56
(lp1656
S'wsgi_file_wrapper'
p1657
asbag49
(g70
g51
NtRp1658
(dp1659
g54
(dp1660
g81
g82
ssg63
g1649
sg56
(lp1661
S':'
asbag49
(g70
g51
NtRp1662
(dp1663
g54
(dp1664
sg63
g1649
sg56
(lp1665
g49
(g50
g51
NtRp1666
(dp1667
g54
(dp1668
g62
I4
ssg63
g1662
sg56
(lp1669
S'<class wsgiref.util.FileWrapper at 0x4761060>'
p1670
asbasbasbag49
(g65
g51
NtRp1671
(dp1672
g54
(dp1673
sg63
g790
sg56
(lp1674
g49
(g70
g51
NtRp1675
(dp1676
g54
(dp1677
g74
g75
ssg63
g1671
sg56
(lp1678
S'wsgi_input'
p1679
asbag49
(g70
g51
NtRp1680
(dp1681
g54
(dp1682
g81
g82
ssg63
g1671
sg56
(lp1683
S':'
asbag49
(g70
g51
NtRp1684
(dp1685
g54
(dp1686
sg63
g1671
sg56
(lp1687
g49
(g50
g51
NtRp1688
(dp1689
g54
(dp1690
g62
I4
ssg63
g1684
sg56
(lp1691
S'<socket._fileobject object at 0x8056730>'
p1692
asbasbasbag49
(g65
g51
NtRp1693
(dp1694
g54
(dp1695
sg63
g790
sg56
(lp1696
g49
(g70
g51
NtRp1697
(dp1698
g54
(dp1699
g74
g75
ssg63
g1693
sg56
(lp1700
S'wsgi_multiprocess'
p1701
asbag49
(g70
g51
NtRp1702
(dp1703
g54
(dp1704
g81
g82
ssg63
g1693
sg56
(lp1705
S':'
asbag49
(g70
g51
NtRp1706
(dp1707
g54
(dp1708
sg63
g1693
sg56
(lp1709
g49
(g50
g51
NtRp1710
(dp1711
g54
(dp1712
g62
I4
ssg63
g1706
sg56
(lp1713
g92
asbasbasbag49
(g65
g51
NtRp1714
(dp1715
g54
(dp1716
sg63
g790
sg56
(lp1717
g49
(g70
g51
NtRp1718
(dp1719
g54
(dp1720
g74
g75
ssg63
g1714
sg56
(lp1721
S'wsgi_multithread'
p1722
asbag49
(g70
g51
NtRp1723
(dp1724
g54
(dp1725
g81
g82
ssg63
g1714
sg56
(lp1726
S':'
asbag49
(g70
g51
NtRp1727
(dp1728
g54
(dp1729
sg63
g1714
sg56
(lp1730
g49
(g50
g51
NtRp1731
(dp1732
g54
(dp1733
g62
I4
ssg63
g1727
sg56
(lp1734
g928
asbasbasbag49
(g65
g51
NtRp1735
(dp1736
g54
(dp1737
sg63
g790
sg56
(lp1738
g49
(g70
g51
NtRp1739
(dp1740
g54
(dp1741
g74
g75
ssg63
g1735
sg56
(lp1742
S'wsgi_run_once'
p1743
asbag49
(g70
g51
NtRp1744
(dp1745
g54
(dp1746
g81
g82
ssg63
g1735
sg56
(lp1747
S':'
asbag49
(g70
g51
NtRp1748
(dp1749
g54
(dp1750
sg63
g1735
sg56
(lp1751
g49
(g50
g51
NtRp1752
(dp1753
g54
(dp1754
g62
I4
ssg63
g1748
sg56
(lp1755
g92
asbasbasbag49
(g65
g51
NtRp1756
(dp1757
g54
(dp1758
sg63
g790
sg56
(lp1759
g49
(g70
g51
NtRp1760
(dp1761
g54
(dp1762
g74
g75
ssg63
g1756
sg56
(lp1763
S'wsgi_url_scheme'
p1764
asbag49
(g70
g51
NtRp1765
(dp1766
g54
(dp1767
g81
g82
ssg63
g1756
sg56
(lp1768
S':'
asbag49
(g70
g51
NtRp1769
(dp1770
g54
(dp1771
sg63
g1756
sg56
(lp1772
g49
(g50
g51
NtRp1773
(dp1774
g54
(dp1775
g62
I4
ssg63
g1769
sg56
(lp1776
S'http'
p1777
asbasbasbag49
(g65
g51
NtRp1778
(dp1779
g54
(dp1780
sg63
g790
sg56
(lp1781
g49
(g70
g51
NtRp1782
(dp1783
g54
(dp1784
g74
g75
ssg63
g1778
sg56
(lp1785
S'wsgi_version'
p1786
asbag49
(g70
g51
NtRp1787
(dp1788
g54
(dp1789
g81
g82
ssg63
g1778
sg56
(lp1790
S':'
asbag49
(g70
g51
NtRp1791
(dp1792
g54
(dp1793
sg63
g1778
sg56
(lp1794
g49
(g50
g51
NtRp1795
(dp1796
g54
(dp1797
g62
I4
ssg63
g1791
sg56
(lp1798
g49
(g58
g51
NtRp1799
(dp1800
g54
(dp1801
g62
I3
ssg63
Nsg56
(lp1802
g49
(g65
g51
NtRp1803
(dp1804
g54
(dp1805
sg63
g1799
sg56
(lp1806
g49
(g70
g51
NtRp1807
(dp1808
g54
(dp1809
sg63
g1803
sg56
(lp1810
g49
(g50
g51
NtRp1811
(dp1812
g54
(dp1813
g62
I3
ssg63
g1807
sg56
(lp1814
S'1'
asbasbasbag49
(g65
g51
NtRp1815
(dp1816
g54
(dp1817
sg63
g1799
sg56
(lp1818
g49
(g70
g51
NtRp1819
(dp1820
g54
(dp1821
sg63
g1815
sg56
(lp1822
g49
(g50
g51
NtRp1823
(dp1824
g54
(dp1825
g62
I3
ssg63
g1819
sg56
(lp1826
S'0'
asbasbasbasbasbasbasbasbasbasbasbag49
(g65
g51
NtRp1827
(dp1828
g54
(dp1829
sg63
g59
sg56
(lp1830
g49
(g70
g51
NtRp1831
(dp1832
g54
(dp1833
g74
g75
ssg63
g1827
sg56
(lp1834
S'extension'
p1835
asbag49
(g70
g51
NtRp1836
(dp1837
g54
(dp1838
g81
g82
ssg63
g1827
sg56
(lp1839
S':'
asbag49
(g70
g51
NtRp1840
(dp1841
g54
(dp1842
sg63
g1827
sg56
(lp1843
g49
(g50
g51
NtRp1844
(dp1845
g54
(dp1846
g62
I5
ssg63
g1840
sg56
(lp1847
S'html'
p1848
asbasbasbag49
(g65
g51
NtRp1849
(dp1850
g54
(dp1851
sg63
g59
sg56
(lp1852
g49
(g70
g51
NtRp1853
(dp1854
g54
(dp1855
g74
g75
ssg63
g1849
sg56
(lp1856
S'folder'
p1857
asbag49
(g70
g51
NtRp1858
(dp1859
g54
(dp1860
g81
g82
ssg63
g1849
sg56
(lp1861
S':'
asbag49
(g70
g51
NtRp1862
(dp1863
g54
(dp1864
sg63
g1849
sg56
(lp1865
g49
(g50
g51
NtRp1866
(dp1867
g54
(dp1868
g62
I5
ssg63
g1862
sg56
(lp1869
S'/Users/zamechek/Downloads/web2py/web2py.app/Contents/Resources/applications/hellow/'
p1870
asbasbasbag49
(g65
g51
NtRp1871
(dp1872
g54
(dp1873
sg63
g59
sg56
(lp1874
g49
(g70
g51
NtRp1875
(dp1876
g54
(dp1877
g74
g75
ssg63
g1871
sg56
(lp1878
S'function'
p1879
asbag49
(g70
g51
NtRp1880
(dp1881
g54
(dp1882
g81
g82
ssg63
g1871
sg56
(lp1883
S':'
asbag49
(g70
g51
NtRp1884
(dp1885
g54
(dp1886
sg63
g1871
sg56
(lp1887
g49
(g50
g51
NtRp1888
(dp1889
g54
(dp1890
g62
I5
ssg63
g1884
sg56
(lp1891
S'show'
p1892
asbasbasbag49
(g65
g51
NtRp1893
(dp1894
g54
(dp1895
sg63
g59
sg56
(lp1896
g49
(g70
g51
NtRp1897
(dp1898
g54
(dp1899
g74
g75
ssg63
g1893
sg56
(lp1900
S'get_vars'
p1901
asbag49
(g70
g51
NtRp1902
(dp1903
g54
(dp1904
g81
g82
ssg63
g1893
sg56
(lp1905
S':'
asbag49
(g70
g51
NtRp1906
(dp1907
g54
(dp1908
sg63
g1893
sg56
(lp1909
g49
(g50
g51
NtRp1910
(dp1911
g54
(dp1912
g62
I5
ssg63
g1906
sg56
(lp1913
g49
(g58
g51
NtRp1914
(dp1915
g54
(dp1916
g62
I4
ssg63
Nsg56
(lp1917
sbasbasbasbag49
(g65
g51
NtRp1918
(dp1919
g54
(dp1920
sg63
g59
sg56
(lp1921
g49
(g70
g51
NtRp1922
(dp1923
g54
(dp1924
g74
g75
ssg63
g1918
sg56
(lp1925
S'global_settings'
p1926
asbag49
(g70
g51
NtRp1927
(dp1928
g54
(dp1929
g81
g82
ssg63
g1918
sg56
(lp1930
S':'
asbag49
(g70
g51
NtRp1931
(dp1932
g54
(dp1933
sg63
g1918
sg56
(lp1934
g49
(g50
g51
NtRp1935
(dp1936
g54
(dp1937
g62
I5
ssg63
g1931
sg56
(lp1938
g49
(g58
g51
NtRp1939
(dp1940
g54
(dp1941
g62
I4
ssg63
Nsg56
(lp1942
g49
(g65
g51
NtRp1943
(dp1944
g54
(dp1945
sg63
g1939
sg56
(lp1946
g49
(g70
g51
NtRp1947
(dp1948
g54
(dp1949
g74
g75
ssg63
g1943
sg56
(lp1950
g802
asbag49
(g70
g51
NtRp1951
(dp1952
g54
(dp1953
g81
g82
ssg63
g1943
sg56
(lp1954
S':'
asbag49
(g70
g51
NtRp1955
(dp1956
g54
(dp1957
sg63
g1943
sg56
(lp1958
g49
(g50
g51
NtRp1959
(dp1960
g54
(dp1961
g62
I4
ssg63
g1955
sg56
(lp1962
S"set(['/Users/zamechek/Downloads/web2py/web2py.app/Contents/Resources/applications/hellow/', '/Users/zamechek/Downloads/web2py/web2py.app/Contents/Resources/applications/admin/', '/Users/zamechek/Downloads/web2py/web2py.app/Contents/Resources/applications/welcome/'])"
p1963
asbasbasbag49
(g65
g51
NtRp1964
(dp1965
g54
(dp1966
sg63
g1939
sg56
(lp1967
g49
(g70
g51
NtRp1968
(dp1969
g54
(dp1970
g74
g75
ssg63
g1964
sg56
(lp1971
g824
asbag49
(g70
g51
NtRp1972
(dp1973
g54
(dp1974
g81
g82
ssg63
g1964
sg56
(lp1975
S':'
asbag49
(g70
g51
NtRp1976
(dp1977
g54
(dp1978
sg63
g1964
sg56
(lp1979
g49
(g50
g51
NtRp1980
(dp1981
g54
(dp1982
g62
I4
ssg63
g1976
sg56
(lp1983
g837
asbasbasbag49
(g65
g51
NtRp1984
(dp1985
g54
(dp1986
sg63
g1939
sg56
(lp1987
g49
(g70
g51
NtRp1988
(dp1989
g54
(dp1990
g74
g75
ssg63
g1984
sg56
(lp1991
g846
asbag49
(g70
g51
NtRp1992
(dp1993
g54
(dp1994
g81
g82
ssg63
g1984
sg56
(lp1995
S':'
asbag49
(g70
g51
NtRp1996
(dp1997
g54
(dp1998
sg63
g1984
sg56
(lp1999
g49
(g50
g51
NtRp2000
(dp2001
g54
(dp2002
g62
I4
ssg63
g1996
sg56
(lp2003
g49
(g58
g51
NtRp2004
(dp2005
g54
(dp2006
g62
I3
ssg63
Nsg56
(lp2007
sbasbasbasbag49
(g65
g51
NtRp2008
(dp2009
g54
(dp2010
sg63
g1939
sg56
(lp2011
g49
(g70
g51
NtRp2012
(dp2013
g54
(dp2014
g74
g75
ssg63
g2008
sg56
(lp2015
g871
asbag49
(g70
g51
NtRp2016
(dp2017
g54
(dp2018
g81
g82
ssg63
g2008
sg56
(lp2019
S':'
asbag49
(g70
g51
NtRp2020
(dp2021
g54
(dp2022
sg63
g2008
sg56
(lp2023
g49
(g50
g51
NtRp2024
(dp2025
g54
(dp2026
g62
I4
ssg63
g2020
sg56
(lp2027
S"<Values at 0x478bf58: {'verbose': False, 'ip': '127.0.0.1', 'with_scheduler': False, 'ips': ['130.91.149.119'], 'shutdown_timeout': 5, 'taskbar': False, 'port': 8000, 'maxthreads': None, 'softcron': False, 'server_name': 'hntvlan5310374.wlan.sas.upenn.edu', 'bpython': False, 'nogui': False, 'pid_filename': 'httpserver.pid', 'extcron': False, 'runcron': False, 'run_system_tests': False, 'test': None, 'folder': '/Users/zamechek/Downloads/web2py/web2py.app/Contents/Resources', 'config': '', 'import_models': False, 'winservice': '', 'shell': None, 'run': '', 'log_filename': 'httpserver.log', 'debuglevel': 30, 'args': [''], 'socket_timeout': 5, 'ssl_ca_certificate': None, 'scheduler': None, 'profiler_filename': None, 'ssl_private_key': '', 'scheduler_groups': None, 'password': '<ask>', 'request_queue_size': 5, 'ssl_certificate': '', 'cronjob': False, 'numthreads': None, 'quiet': False, 'interfaces': None, 'minthreads': None, 'timeout': 10, 'plain': False, 'nobanner': False}>"
p2028
asbasbasbag49
(g65
g51
NtRp2029
(dp2030
g54
(dp2031
sg63
g1939
sg56
(lp2032
g49
(g70
g51
NtRp2033
(dp2034
g54
(dp2035
g74
g75
ssg63
g2029
sg56
(lp2036
g893
asbag49
(g70
g51
NtRp2037
(dp2038
g54
(dp2039
g81
g82
ssg63
g2029
sg56
(lp2040
S':'
asbag49
(g70
g51
NtRp2041
(dp2042
g54
(dp2043
sg63
g2029
sg56
(lp2044
g49
(g50
g51
NtRp2045
(dp2046
g54
(dp2047
g62
I4
ssg63
g2041
sg56
(lp2048
S'set([])'
p2049
asbasbasbag49
(g65
g51
NtRp2050
(dp2051
g54
(dp2052
sg63
g1939
sg56
(lp2053
g49
(g70
g51
NtRp2054
(dp2055
g54
(dp2056
g74
g75
ssg63
g2050
sg56
(lp2057
g915
asbag49
(g70
g51
NtRp2058
(dp2059
g54
(dp2060
g81
g82
ssg63
g2050
sg56
(lp2061
S':'
asbag49
(g70
g51
NtRp2062
(dp2063
g54
(dp2064
sg63
g2050
sg56
(lp2065
g49
(g50
g51
NtRp2066
(dp2067
g54
(dp2068
g62
I4
ssg63
g2062
sg56
(lp2069
g928
asbasbasbag49
(g65
g51
NtRp2070
(dp2071
g54
(dp2072
sg63
g1939
sg56
(lp2073
g49
(g70
g51
NtRp2074
(dp2075
g54
(dp2076
g74
g75
ssg63
g2070
sg56
(lp2077
g937
asbag49
(g70
g51
NtRp2078
(dp2079
g54
(dp2080
g81
g82
ssg63
g2070
sg56
(lp2081
S':'
asbag49
(g70
g51
NtRp2082
(dp2083
g54
(dp2084
sg63
g2070
sg56
(lp2085
g49
(g50
g51
NtRp2086
(dp2087
g54
(dp2088
g62
I4
ssg63
g2082
sg56
(lp2089
g950
asbasbasbag49
(g65
g51
NtRp2090
(dp2091
g54
(dp2092
sg63
g1939
sg56
(lp2093
g49
(g70
g51
NtRp2094
(dp2095
g54
(dp2096
g74
g75
ssg63
g2090
sg56
(lp2097
g1157
asbag49
(g70
g51
NtRp2098
(dp2099
g54
(dp2100
g81
g82
ssg63
g2090
sg56
(lp2101
S':'
asbag49
(g70
g51
NtRp2102
(dp2103
g54
(dp2104
sg63
g2090
sg56
(lp2105
g49
(g50
g51
NtRp2106
(dp2107
g54
(dp2108
g62
I4
ssg63
g2102
sg56
(lp2109
g92
asbasbasbag49
(g65
g51
NtRp2110
(dp2111
g54
(dp2112
sg63
g1939
sg56
(lp2113
g49
(g70
g51
NtRp2114
(dp2115
g54
(dp2116
g74
g75
ssg63
g2110
sg56
(lp2117
g1178
asbag49
(g70
g51
NtRp2118
(dp2119
g54
(dp2120
g81
g82
ssg63
g2110
sg56
(lp2121
S':'
asbag49
(g70
g51
NtRp2122
(dp2123
g54
(dp2124
sg63
g2110
sg56
(lp2125
g49
(g50
g51
NtRp2126
(dp2127
g54
(dp2128
g62
I4
ssg63
g2122
sg56
(lp2129
g92
asbasbasbag49
(g65
g51
NtRp2130
(dp2131
g54
(dp2132
sg63
g1939
sg56
(lp2133
g49
(g70
g51
NtRp2134
(dp2135
g54
(dp2136
g74
g75
ssg63
g2130
sg56
(lp2137
g1199
asbag49
(g70
g51
NtRp2138
(dp2139
g54
(dp2140
g81
g82
ssg63
g2130
sg56
(lp2141
S':'
asbag49
(g70
g51
NtRp2142
(dp2143
g54
(dp2144
sg63
g2130
sg56
(lp2145
g49
(g50
g51
NtRp2146
(dp2147
g54
(dp2148
g62
I4
ssg63
g2142
sg56
(lp2149
g49
(g58
g51
NtRp2150
(dp2151
g54
(dp2152
g62
I3
ssg63
Nsg56
(lp2153
g49
(g65
g51
NtRp2154
(dp2155
g54
(dp2156
sg63
g2150
sg56
(lp2157
g49
(g70
g51
NtRp2158
(dp2159
g54
(dp2160
sg63
g2154
sg56
(lp2161
g49
(g50
g51
NtRp2162
(dp2163
g54
(dp2164
g62
I3
ssg63
g2158
sg56
(lp2165
g1228
asbasbasbag49
(g65
g51
NtRp2166
(dp2167
g54
(dp2168
sg63
g2150
sg56
(lp2169
g49
(g70
g51
NtRp2170
(dp2171
g54
(dp2172
sg63
g2166
sg56
(lp2173
g49
(g50
g51
NtRp2174
(dp2175
g54
(dp2176
g62
I3
ssg63
g2170
sg56
(lp2177
g1241
asbasbasbag49
(g65
g51
NtRp2178
(dp2179
g54
(dp2180
sg63
g2150
sg56
(lp2181
g49
(g70
g51
NtRp2182
(dp2183
g54
(dp2184
sg63
g2178
sg56
(lp2185
g49
(g50
g51
NtRp2186
(dp2187
g54
(dp2188
g62
I3
ssg63
g2182
sg56
(lp2189
g1254
asbasbasbag49
(g65
g51
NtRp2190
(dp2191
g54
(dp2192
sg63
g2150
sg56
(lp2193
g49
(g70
g51
NtRp2194
(dp2195
g54
(dp2196
sg63
g2190
sg56
(lp2197
g49
(g50
g51
NtRp2198
(dp2199
g54
(dp2200
g62
I3
ssg63
g2194
sg56
(lp2201
g1267
asbasbasbag49
(g65
g51
NtRp2202
(dp2203
g54
(dp2204
sg63
g2150
sg56
(lp2205
g49
(g70
g51
NtRp2206
(dp2207
g54
(dp2208
sg63
g2202
sg56
(lp2209
g49
(g50
g51
NtRp2210
(dp2211
g54
(dp2212
g62
I3
ssg63
g2206
sg56
(lp2213
g1280
asbasbasbasbasbasbasbag49
(g65
g51
NtRp2214
(dp2215
g54
(dp2216
sg63
g1939
sg56
(lp2217
g49
(g70
g51
NtRp2218
(dp2219
g54
(dp2220
g74
g75
ssg63
g2214
sg56
(lp2221
g1548
asbag49
(g70
g51
NtRp2222
(dp2223
g54
(dp2224
g81
g82
ssg63
g2214
sg56
(lp2225
S':'
asbag49
(g70
g51
NtRp2226
(dp2227
g54
(dp2228
sg63
g2214
sg56
(lp2229
g49
(g50
g51
NtRp2230
(dp2231
g54
(dp2232
g62
I4
ssg63
g2226
sg56
(lp2233
g49
(g58
g51
NtRp2234
(dp2235
g54
(dp2236
g62
I3
ssg63
Nsg56
(lp2237
g49
(g65
g51
NtRp2238
(dp2239
g54
(dp2240
sg63
g2234
sg56
(lp2241
g49
(g70
g51
NtRp2242
(dp2243
g54
(dp2244
sg63
g2238
sg56
(lp2245
g49
(g50
g51
NtRp2246
(dp2247
g54
(dp2248
g62
I3
ssg63
g2242
sg56
(lp2249
S'2'
asbasbasbag49
(g65
g51
NtRp2250
(dp2251
g54
(dp2252
sg63
g2234
sg56
(lp2253
g49
(g70
g51
NtRp2254
(dp2255
g54
(dp2256
sg63
g2250
sg56
(lp2257
g49
(g50
g51
NtRp2258
(dp2259
g54
(dp2260
g62
I3
ssg63
g2254
sg56
(lp2261
S'4'
asbasbasbag49
(g65
g51
NtRp2262
(dp2263
g54
(dp2264
sg63
g2234
sg56
(lp2265
g49
(g70
g51
NtRp2266
(dp2267
g54
(dp2268
sg63
g2262
sg56
(lp2269
g49
(g50
g51
NtRp2270
(dp2271
g54
(dp2272
g62
I3
ssg63
g2266
sg56
(lp2273
S'5'
asbasbasbag49
(g65
g51
NtRp2274
(dp2275
g54
(dp2276
sg63
g2234
sg56
(lp2277
g49
(g70
g51
NtRp2278
(dp2279
g54
(dp2280
sg63
g2274
sg56
(lp2281
g49
(g50
g51
NtRp2282
(dp2283
g54
(dp2284
g62
I3
ssg63
g2278
sg56
(lp2285
g1613
asbasbasbag49
(g65
g51
NtRp2286
(dp2287
g54
(dp2288
sg63
g2234
sg56
(lp2289
g49
(g70
g51
NtRp2290
(dp2291
g54
(dp2292
sg63
g2286
sg56
(lp2293
g49
(g50
g51
NtRp2294
(dp2295
g54
(dp2296
g62
I3
ssg63
g2290
sg56
(lp2297
S'datetime.datetime(2013, 3, 18, 22, 46, 22)'
p2298
asbasbasbasbasbasbasbasbasbasbasbag49
(g65
g51
NtRp2299
(dp2300
g54
(dp2301
sg63
g59
sg56
(lp2302
g49
(g70
g51
NtRp2303
(dp2304
g54
(dp2305
g74
g75
ssg63
g2299
sg56
(lp2306
S'is_https'
p2307
asbag49
(g70
g51
NtRp2308
(dp2309
g54
(dp2310
g81
g82
ssg63
g2299
sg56
(lp2311
S':'
asbag49
(g70
g51
NtRp2312
(dp2313
g54
(dp2314
sg63
g2299
sg56
(lp2315
g49
(g50
g51
NtRp2316
(dp2317
g54
(dp2318
g62
I5
ssg63
g2312
sg56
(lp2319
g92
asbasbasbag49
(g65
g51
NtRp2320
(dp2321
g54
(dp2322
sg63
g59
sg56
(lp2323
g49
(g70
g51
NtRp2324
(dp2325
g54
(dp2326
g74
g75
ssg63
g2320
sg56
(lp2327
S'is_local'
p2328
asbag49
(g70
g51
NtRp2329
(dp2330
g54
(dp2331
g81
g82
ssg63
g2320
sg56
(lp2332
S':'
asbag49
(g70
g51
NtRp2333
(dp2334
g54
(dp2335
sg63
g2320
sg56
(lp2336
g49
(g50
g51
NtRp2337
(dp2338
g54
(dp2339
g62
I5
ssg63
g2333
sg56
(lp2340
g928
asbasbasbag49
(g65
g51
NtRp2341
(dp2342
g54
(dp2343
sg63
g59
sg56
(lp2344
g49
(g70
g51
NtRp2345
(dp2346
g54
(dp2347
g74
g75
ssg63
g2341
sg56
(lp2348
S'is_restful'
p2349
asbag49
(g70
g51
NtRp2350
(dp2351
g54
(dp2352
g81
g82
ssg63
g2341
sg56
(lp2353
S':'
asbag49
(g70
g51
NtRp2354
(dp2355
g54
(dp2356
sg63
g2341
sg56
(lp2357
g49
(g50
g51
NtRp2358
(dp2359
g54
(dp2360
g62
I5
ssg63
g2354
sg56
(lp2361
g92
asbasbasbag49
(g65
g51
NtRp2362
(dp2363
g54
(dp2364
sg63
g59
sg56
(lp2365
g49
(g70
g51
NtRp2366
(dp2367
g54
(dp2368
g74
g75
ssg63
g2362
sg56
(lp2369
S'now'
p2370
asbag49
(g70
g51
NtRp2371
(dp2372
g54
(dp2373
g81
g82
ssg63
g2362
sg56
(lp2374
S':'
asbag49
(g70
g51
NtRp2375
(dp2376
g54
(dp2377
sg63
g2362
sg56
(lp2378
g49
(g50
g51
NtRp2379
(dp2380
g54
(dp2381
g62
I5
ssg63
g2375
sg56
(lp2382
S'datetime.datetime(2013, 3, 27, 14, 12, 43, 232932)'
p2383
asbasbasbag49
(g65
g51
NtRp2384
(dp2385
g54
(dp2386
sg63
g59
sg56
(lp2387
g49
(g70
g51
NtRp2388
(dp2389
g54
(dp2390
g74
g75
ssg63
g2384
sg56
(lp2391
S'post_vars'
p2392
asbag49
(g70
g51
NtRp2393
(dp2394
g54
(dp2395
g81
g82
ssg63
g2384
sg56
(lp2396
S':'
asbag49
(g70
g51
NtRp2397
(dp2398
g54
(dp2399
sg63
g2384
sg56
(lp2400
g49
(g50
g51
NtRp2401
(dp2402
g54
(dp2403
g62
I5
ssg63
g2397
sg56
(lp2404
g49
(g58
g51
NtRp2405
(dp2406
g54
(dp2407
g62
I4
ssg63
Nsg56
(lp2408
sbasbasbasbag49
(g65
g51
NtRp2409
(dp2410
g54
(dp2411
sg63
g59
sg56
(lp2412
g49
(g70
g51
NtRp2413
(dp2414
g54
(dp2415
g74
g75
ssg63
g2409
sg56
(lp2416
S'raw_args'
p2417
asbag49
(g70
g51
NtRp2418
(dp2419
g54
(dp2420
g81
g82
ssg63
g2409
sg56
(lp2421
S':'
asbag49
(g70
g51
NtRp2422
(dp2423
g54
(dp2424
sg63
g2409
sg56
(lp2425
g49
(g50
g51
NtRp2426
(dp2427
g54
(dp2428
g62
I5
ssg63
g2422
sg56
(lp2429
S'1'
asbasbasbag49
(g65
g51
NtRp2430
(dp2431
g54
(dp2432
sg63
g59
sg56
(lp2433
g49
(g70
g51
NtRp2434
(dp2435
g54
(dp2436
g74
g75
ssg63
g2430
sg56
(lp2437
S'raw_extension'
p2438
asbag49
(g70
g51
NtRp2439
(dp2440
g54
(dp2441
g81
g82
ssg63
g2430
sg56
(lp2442
S':'
asbag49
(g70
g51
NtRp2443
(dp2444
g54
(dp2445
sg63
g2430
sg56
(lp2446
g49
(g50
g51
NtRp2447
(dp2448
g54
(dp2449
g62
I5
ssg63
g2443
sg56
(lp2450
S'None'
p2451
asbasbasbag49
(g65
g51
NtRp2452
(dp2453
g54
(dp2454
sg63
g59
sg56
(lp2455
g49
(g70
g51
NtRp2456
(dp2457
g54
(dp2458
g74
g75
ssg63
g2452
sg56
(lp2459
S'url'
p2460
asbag49
(g70
g51
NtRp2461
(dp2462
g54
(dp2463
g81
g82
ssg63
g2452
sg56
(lp2464
S':'
asbag49
(g70
g51
NtRp2465
(dp2466
g54
(dp2467
sg63
g2452
sg56
(lp2468
g49
(g50
g51
NtRp2469
(dp2470
g54
(dp2471
g62
I5
ssg63
g2465
sg56
(lp2472
g1302
asbasbasbag49
(g65
g51
NtRp2473
(dp2474
g54
(dp2475
sg63
g59
sg56
(lp2476
g49
(g70
g51
NtRp2477
(dp2478
g54
(dp2479
g74
g75
ssg63
g2473
sg56
(lp2480
S'utcnow'
p2481
asbag49
(g70
g51
NtRp2482
(dp2483
g54
(dp2484
g81
g82
ssg63
g2473
sg56
(lp2485
S':'
asbag49
(g70
g51
NtRp2486
(dp2487
g54
(dp2488
sg63
g2473
sg56
(lp2489
g49
(g50
g51
NtRp2490
(dp2491
g54
(dp2492
g62
I5
ssg63
g2486
sg56
(lp2493
S'datetime.datetime(2013, 3, 27, 18, 12, 43, 232942)'
p2494
asbasbasbag49
(g65
g51
NtRp2495
(dp2496
g54
(dp2497
sg63
g59
sg56
(lp2498
g49
(g70
g51
NtRp2499
(dp2500
g54
(dp2501
g74
g75
ssg63
g2495
sg56
(lp2502
S'uuid'
p2503
asbag49
(g70
g51
NtRp2504
(dp2505
g54
(dp2506
g81
g82
ssg63
g2495
sg56
(lp2507
S':'
asbag49
(g70
g51
NtRp2508
(dp2509
g54
(dp2510
sg63
g2495
sg56
(lp2511
g49
(g50
g51
NtRp2512
(dp2513
g54
(dp2514
g62
I5
ssg63
g2508
sg56
(lp2515
S'hellow/127.0.0.1.2013-03-27.14-12-43.3e68602e-63aa-4054-bb13-a956e07558e6'
p2516
asbasbasbag49
(g65
g51
NtRp2517
(dp2518
g54
(dp2519
sg63
g59
sg56
(lp2520
g49
(g70
g51
NtRp2521
(dp2522
g54
(dp2523
g74
g75
ssg63
g2517
sg56
(lp2524
S'vars'
p2525
asbag49
(g70
g51
NtRp2526
(dp2527
g54
(dp2528
g81
g82
ssg63
g2517
sg56
(lp2529
S':'
asbag49
(g70
g51
NtRp2530
(dp2531
g54
(dp2532
sg63
g2517
sg56
(lp2533
g49
(g50
g51
NtRp2534
(dp2535
g54
(dp2536
g62
I5
ssg63
g2530
sg56
(lp2537
g49
(g58
g51
NtRp2538
(dp2539
g54
(dp2540
g62
I4
ssg63
Nsg56
(lp2541
sbasbasbasbag49
(g65
g51
NtRp2542
(dp2543
g54
(dp2544
sg63
g59
sg56
(lp2545
g49
(g70
g51
NtRp2546
(dp2547
g54
(dp2548
g74
g75
ssg63
g2542
sg56
(lp2549
S'wsgi'
p2550
asbag49
(g70
g51
NtRp2551
(dp2552
g54
(dp2553
g81
g82
ssg63
g2542
sg56
(lp2554
S':'
asbag49
(g70
g51
NtRp2555
(dp2556
g54
(dp2557
sg63
g2542
sg56
(lp2558
g49
(g50
g51
NtRp2559
(dp2560
g54
(dp2561
g62
I5
ssg63
g2555
sg56
(lp2562
g49
(g58
g51
NtRp2563
(dp2564
g54
(dp2565
g62
I4
ssg63
Nsg56
(lp2566
g49
(g65
g51
NtRp2567
(dp2568
g54
(dp2569
sg63
g2563
sg56
(lp2570
g49
(g70
g51
NtRp2571
(dp2572
g54
(dp2573
g74
g75
ssg63
g2567
sg56
(lp2574
S'environ'
p2575
asbag49
(g70
g51
NtRp2576
(dp2577
g54
(dp2578
g81
g82
ssg63
g2567
sg56
(lp2579
S':'
asbag49
(g70
g51
NtRp2580
(dp2581
g54
(dp2582
sg63
g2567
sg56
(lp2583
g49
(g50
g51
NtRp2584
(dp2585
g54
(dp2586
g62
I4
ssg63
g2580
sg56
(lp2587
g49
(g58
g51
NtRp2588
(dp2589
g54
(dp2590
g62
I3
ssg63
Nsg56
(lp2591
g49
(g65
g51
NtRp2592
(dp2593
g54
(dp2594
sg63
g2588
sg56
(lp2595
g49
(g70
g51
NtRp2596
(dp2597
g54
(dp2598
g74
g75
ssg63
g2592
sg56
(lp2599
S'HTTP_ACCEPT'
p2600
asbag49
(g70
g51
NtRp2601
(dp2602
g54
(dp2603
g81
g82
ssg63
g2592
sg56
(lp2604
S':'
asbag49
(g70
g51
NtRp2605
(dp2606
g54
(dp2607
sg63
g2592
sg56
(lp2608
g49
(g50
g51
NtRp2609
(dp2610
g54
(dp2611
g62
I3
ssg63
g2605
sg56
(lp2612
g972
asbasbasbag49
(g65
g51
NtRp2613
(dp2614
g54
(dp2615
sg63
g2588
sg56
(lp2616
g49
(g70
g51
NtRp2617
(dp2618
g54
(dp2619
g74
g75
ssg63
g2613
sg56
(lp2620
S'HTTP_ACCEPT_CHARSET'
p2621
asbag49
(g70
g51
NtRp2622
(dp2623
g54
(dp2624
g81
g82
ssg63
g2613
sg56
(lp2625
S':'
asbag49
(g70
g51
NtRp2626
(dp2627
g54
(dp2628
sg63
g2613
sg56
(lp2629
g49
(g50
g51
NtRp2630
(dp2631
g54
(dp2632
g62
I3
ssg63
g2626
sg56
(lp2633
g994
asbasbasbag49
(g65
g51
NtRp2634
(dp2635
g54
(dp2636
sg63
g2588
sg56
(lp2637
g49
(g70
g51
NtRp2638
(dp2639
g54
(dp2640
g74
g75
ssg63
g2634
sg56
(lp2641
S'HTTP_ACCEPT_ENCODING'
p2642
asbag49
(g70
g51
NtRp2643
(dp2644
g54
(dp2645
g81
g82
ssg63
g2634
sg56
(lp2646
S':'
asbag49
(g70
g51
NtRp2647
(dp2648
g54
(dp2649
sg63
g2634
sg56
(lp2650
g49
(g50
g51
NtRp2651
(dp2652
g54
(dp2653
g62
I3
ssg63
g2647
sg56
(lp2654
g1016
asbasbasbag49
(g65
g51
NtRp2655
(dp2656
g54
(dp2657
sg63
g2588
sg56
(lp2658
g49
(g70
g51
NtRp2659
(dp2660
g54
(dp2661
g74
g75
ssg63
g2655
sg56
(lp2662
S'HTTP_ACCEPT_LANGUAGE'
p2663
asbag49
(g70
g51
NtRp2664
(dp2665
g54
(dp2666
g81
g82
ssg63
g2655
sg56
(lp2667
S':'
asbag49
(g70
g51
NtRp2668
(dp2669
g54
(dp2670
sg63
g2655
sg56
(lp2671
g49
(g50
g51
NtRp2672
(dp2673
g54
(dp2674
g62
I3
ssg63
g2668
sg56
(lp2675
g1038
asbasbasbag49
(g65
g51
NtRp2676
(dp2677
g54
(dp2678
sg63
g2588
sg56
(lp2679
g49
(g70
g51
NtRp2680
(dp2681
g54
(dp2682
g74
g75
ssg63
g2676
sg56
(lp2683
S'HTTP_CACHE_CONTROL'
p2684
asbag49
(g70
g51
NtRp2685
(dp2686
g54
(dp2687
g81
g82
ssg63
g2676
sg56
(lp2688
S':'
asbag49
(g70
g51
NtRp2689
(dp2690
g54
(dp2691
sg63
g2676
sg56
(lp2692
g49
(g50
g51
NtRp2693
(dp2694
g54
(dp2695
g62
I3
ssg63
g2689
sg56
(lp2696
g1060
asbasbasbag49
(g65
g51
NtRp2697
(dp2698
g54
(dp2699
sg63
g2588
sg56
(lp2700
g49
(g70
g51
NtRp2701
(dp2702
g54
(dp2703
g74
g75
ssg63
g2697
sg56
(lp2704
S'HTTP_CONNECTION'
p2705
asbag49
(g70
g51
NtRp2706
(dp2707
g54
(dp2708
g81
g82
ssg63
g2697
sg56
(lp2709
S':'
asbag49
(g70
g51
NtRp2710
(dp2711
g54
(dp2712
sg63
g2697
sg56
(lp2713
g49
(g50
g51
NtRp2714
(dp2715
g54
(dp2716
g62
I3
ssg63
g2710
sg56
(lp2717
g1082
asbasbasbag49
(g65
g51
NtRp2718
(dp2719
g54
(dp2720
sg63
g2588
sg56
(lp2721
g49
(g70
g51
NtRp2722
(dp2723
g54
(dp2724
g74
g75
ssg63
g2718
sg56
(lp2725
S'HTTP_COOKIE'
p2726
asbag49
(g70
g51
NtRp2727
(dp2728
g54
(dp2729
g81
g82
ssg63
g2718
sg56
(lp2730
S':'
asbag49
(g70
g51
NtRp2731
(dp2732
g54
(dp2733
sg63
g2718
sg56
(lp2734
g49
(g50
g51
NtRp2735
(dp2736
g54
(dp2737
g62
I3
ssg63
g2731
sg56
(lp2738
g1104
asbasbasbag49
(g65
g51
NtRp2739
(dp2740
g54
(dp2741
sg63
g2588
sg56
(lp2742
g49
(g70
g51
NtRp2743
(dp2744
g54
(dp2745
g74
g75
ssg63
g2739
sg56
(lp2746
S'HTTP_HOST'
p2747
asbag49
(g70
g51
NtRp2748
(dp2749
g54
(dp2750
g81
g82
ssg63
g2739
sg56
(lp2751
S':'
asbag49
(g70
g51
NtRp2752
(dp2753
g54
(dp2754
sg63
g2739
sg56
(lp2755
g49
(g50
g51
NtRp2756
(dp2757
g54
(dp2758
g62
I3
ssg63
g2752
sg56
(lp2759
g1126
asbasbasbag49
(g65
g51
NtRp2760
(dp2761
g54
(dp2762
sg63
g2588
sg56
(lp2763
g49
(g70
g51
NtRp2764
(dp2765
g54
(dp2766
g74
g75
ssg63
g2760
sg56
(lp2767
S'HTTP_USER_AGENT'
p2768
asbag49
(g70
g51
NtRp2769
(dp2770
g54
(dp2771
g81
g82
ssg63
g2760
sg56
(lp2772
S':'
asbag49
(g70
g51
NtRp2773
(dp2774
g54
(dp2775
sg63
g2760
sg56
(lp2776
g49
(g50
g51
NtRp2777
(dp2778
g54
(dp2779
g62
I3
ssg63
g2773
sg56
(lp2780
g1148
asbasbasbag49
(g65
g51
NtRp2781
(dp2782
g54
(dp2783
sg63
g2588
sg56
(lp2784
g49
(g70
g51
NtRp2785
(dp2786
g54
(dp2787
g74
g75
ssg63
g2781
sg56
(lp2788
S'PATH_INFO'
p2789
asbag49
(g70
g51
NtRp2790
(dp2791
g54
(dp2792
g81
g82
ssg63
g2781
sg56
(lp2793
S':'
asbag49
(g70
g51
NtRp2794
(dp2795
g54
(dp2796
sg63
g2781
sg56
(lp2797
g49
(g50
g51
NtRp2798
(dp2799
g54
(dp2800
g62
I3
ssg63
g2794
sg56
(lp2801
g1302
asbasbasbag49
(g65
g51
NtRp2802
(dp2803
g54
(dp2804
sg63
g2588
sg56
(lp2805
g49
(g70
g51
NtRp2806
(dp2807
g54
(dp2808
g74
g75
ssg63
g2802
sg56
(lp2809
S'QUERY_STRING'
p2810
asbag49
(g70
g51
NtRp2811
(dp2812
g54
(dp2813
g81
g82
ssg63
g2802
sg56
(lp2814
S':'
asbag49
(g70
g51
NtRp2815
(dp2816
g54
(dp2817
sg63
g2802
sg56
(lp2818
g49
(g50
g51
NtRp2819
(dp2820
g54
(dp2821
g62
I3
ssg63
g2815
sg56
(lp2822
S''
asbasbasbag49
(g65
g51
NtRp2823
(dp2824
g54
(dp2825
sg63
g2588
sg56
(lp2826
g49
(g70
g51
NtRp2827
(dp2828
g54
(dp2829
g74
g75
ssg63
g2823
sg56
(lp2830
S'REMOTE_ADDR'
p2831
asbag49
(g70
g51
NtRp2832
(dp2833
g54
(dp2834
g81
g82
ssg63
g2823
sg56
(lp2835
S':'
asbag49
(g70
g51
NtRp2836
(dp2837
g54
(dp2838
sg63
g2823
sg56
(lp2839
g49
(g50
g51
NtRp2840
(dp2841
g54
(dp2842
g62
I3
ssg63
g2836
sg56
(lp2843
g216
asbasbasbag49
(g65
g51
NtRp2844
(dp2845
g54
(dp2846
sg63
g2588
sg56
(lp2847
g49
(g70
g51
NtRp2848
(dp2849
g54
(dp2850
g74
g75
ssg63
g2844
sg56
(lp2851
S'REMOTE_PORT'
p2852
asbag49
(g70
g51
NtRp2853
(dp2854
g54
(dp2855
g81
g82
ssg63
g2844
sg56
(lp2856
S':'
asbag49
(g70
g51
NtRp2857
(dp2858
g54
(dp2859
sg63
g2844
sg56
(lp2860
g49
(g50
g51
NtRp2861
(dp2862
g54
(dp2863
g62
I3
ssg63
g2857
sg56
(lp2864
g1366
asbasbasbag49
(g65
g51
NtRp2865
(dp2866
g54
(dp2867
sg63
g2588
sg56
(lp2868
g49
(g70
g51
NtRp2869
(dp2870
g54
(dp2871
g74
g75
ssg63
g2865
sg56
(lp2872
S'REQUEST_METHOD'
p2873
asbag49
(g70
g51
NtRp2874
(dp2875
g54
(dp2876
g81
g82
ssg63
g2865
sg56
(lp2877
S':'
asbag49
(g70
g51
NtRp2878
(dp2879
g54
(dp2880
sg63
g2865
sg56
(lp2881
g49
(g50
g51
NtRp2882
(dp2883
g54
(dp2884
g62
I3
ssg63
g2878
sg56
(lp2885
g1388
asbasbasbag49
(g65
g51
NtRp2886
(dp2887
g54
(dp2888
sg63
g2588
sg56
(lp2889
g49
(g70
g51
NtRp2890
(dp2891
g54
(dp2892
g74
g75
ssg63
g2886
sg56
(lp2893
S'REQUEST_URI'
p2894
asbag49
(g70
g51
NtRp2895
(dp2896
g54
(dp2897
g81
g82
ssg63
g2886
sg56
(lp2898
S':'
asbag49
(g70
g51
NtRp2899
(dp2900
g54
(dp2901
sg63
g2886
sg56
(lp2902
g49
(g50
g51
NtRp2903
(dp2904
g54
(dp2905
g62
I3
ssg63
g2899
sg56
(lp2906
g1302
asbasbasbag49
(g65
g51
NtRp2907
(dp2908
g54
(dp2909
sg63
g2588
sg56
(lp2910
g49
(g70
g51
NtRp2911
(dp2912
g54
(dp2913
g74
g75
ssg63
g2907
sg56
(lp2914
S'SCRIPT_NAME'
p2915
asbag49
(g70
g51
NtRp2916
(dp2917
g54
(dp2918
g81
g82
ssg63
g2907
sg56
(lp2919
S':'
asbag49
(g70
g51
NtRp2920
(dp2921
g54
(dp2922
sg63
g2907
sg56
(lp2923
g49
(g50
g51
NtRp2924
(dp2925
g54
(dp2926
g62
I3
ssg63
g2920
sg56
(lp2927
S''
asbasbasbag49
(g65
g51
NtRp2928
(dp2929
g54
(dp2930
sg63
g2588
sg56
(lp2931
g49
(g70
g51
NtRp2932
(dp2933
g54
(dp2934
g74
g75
ssg63
g2928
sg56
(lp2935
S'SERVER_NAME'
p2936
asbag49
(g70
g51
NtRp2937
(dp2938
g54
(dp2939
g81
g82
ssg63
g2928
sg56
(lp2940
S':'
asbag49
(g70
g51
NtRp2941
(dp2942
g54
(dp2943
sg63
g2928
sg56
(lp2944
g49
(g50
g51
NtRp2945
(dp2946
g54
(dp2947
g62
I3
ssg63
g2941
sg56
(lp2948
g1452
asbasbasbag49
(g65
g51
NtRp2949
(dp2950
g54
(dp2951
sg63
g2588
sg56
(lp2952
g49
(g70
g51
NtRp2953
(dp2954
g54
(dp2955
g74
g75
ssg63
g2949
sg56
(lp2956
S'SERVER_PORT'
p2957
asbag49
(g70
g51
NtRp2958
(dp2959
g54
(dp2960
g81
g82
ssg63
g2949
sg56
(lp2961
S':'
asbag49
(g70
g51
NtRp2962
(dp2963
g54
(dp2964
sg63
g2949
sg56
(lp2965
g49
(g50
g51
NtRp2966
(dp2967
g54
(dp2968
g62
I3
ssg63
g2962
sg56
(lp2969
g1474
asbasbasbag49
(g65
g51
NtRp2970
(dp2971
g54
(dp2972
sg63
g2588
sg56
(lp2973
g49
(g70
g51
NtRp2974
(dp2975
g54
(dp2976
g74
g75
ssg63
g2970
sg56
(lp2977
S'SERVER_PROTOCOL'
p2978
asbag49
(g70
g51
NtRp2979
(dp2980
g54
(dp2981
g81
g82
ssg63
g2970
sg56
(lp2982
S':'
asbag49
(g70
g51
NtRp2983
(dp2984
g54
(dp2985
sg63
g2970
sg56
(lp2986
g49
(g50
g51
NtRp2987
(dp2988
g54
(dp2989
g62
I3
ssg63
g2983
sg56
(lp2990
g1496
asbasbasbag49
(g65
g51
NtRp2991
(dp2992
g54
(dp2993
sg63
g2588
sg56
(lp2994
g49
(g70
g51
NtRp2995
(dp2996
g54
(dp2997
g74
g75
ssg63
g2991
sg56
(lp2998
S'SERVER_SOFTWARE'
p2999
asbag49
(g70
g51
NtRp3000
(dp3001
g54
(dp3002
g81
g82
ssg63
g2991
sg56
(lp3003
S':'
asbag49
(g70
g51
NtRp3004
(dp3005
g54
(dp3006
sg63
g2991
sg56
(lp3007
g49
(g50
g51
NtRp3008
(dp3009
g54
(dp3010
g62
I3
ssg63
g3004
sg56
(lp3011
g1518
asbasbasbag49
(g65
g51
NtRp3012
(dp3013
g54
(dp3014
sg63
g2588
sg56
(lp3015
g49
(g70
g51
NtRp3016
(dp3017
g54
(dp3018
g74
g75
ssg63
g3012
sg56
(lp3019
S'wsgi.errors'
p3020
asbag49
(g70
g51
NtRp3021
(dp3022
g54
(dp3023
g81
g82
ssg63
g3012
sg56
(lp3024
S':'
asbag49
(g70
g51
NtRp3025
(dp3026
g54
(dp3027
sg63
g3012
sg56
(lp3028
g49
(g50
g51
NtRp3029
(dp3030
g54
(dp3031
g62
I3
ssg63
g3025
sg56
(lp3032
S"<open file '<stderr>', mode 'w' at 0x540b0>"
p3033
asbasbasbag49
(g65
g51
NtRp3034
(dp3035
g54
(dp3036
sg63
g2588
sg56
(lp3037
g49
(g70
g51
NtRp3038
(dp3039
g54
(dp3040
g74
g75
ssg63
g3034
sg56
(lp3041
S'wsgi.file_wrapper'
p3042
asbag49
(g70
g51
NtRp3043
(dp3044
g54
(dp3045
g81
g82
ssg63
g3034
sg56
(lp3046
S':'
asbag49
(g70
g51
NtRp3047
(dp3048
g54
(dp3049
sg63
g3034
sg56
(lp3050
g49
(g50
g51
NtRp3051
(dp3052
g54
(dp3053
g62
I3
ssg63
g3047
sg56
(lp3054
S'<class wsgiref.util.FileWrapper at 0x4761060>'
p3055
asbasbasbag49
(g65
g51
NtRp3056
(dp3057
g54
(dp3058
sg63
g2588
sg56
(lp3059
g49
(g70
g51
NtRp3060
(dp3061
g54
(dp3062
g74
g75
ssg63
g3056
sg56
(lp3063
S'wsgi.input'
p3064
asbag49
(g70
g51
NtRp3065
(dp3066
g54
(dp3067
g81
g82
ssg63
g3056
sg56
(lp3068
S':'
asbag49
(g70
g51
NtRp3069
(dp3070
g54
(dp3071
sg63
g3056
sg56
(lp3072
g49
(g50
g51
NtRp3073
(dp3074
g54
(dp3075
g62
I3
ssg63
g3069
sg56
(lp3076
S'<cStringIO.StringO object at 0x93bbd40>'
p3077
asbasbasbag49
(g65
g51
NtRp3078
(dp3079
g54
(dp3080
sg63
g2588
sg56
(lp3081
g49
(g70
g51
NtRp3082
(dp3083
g54
(dp3084
g74
g75
ssg63
g3078
sg56
(lp3085
S'wsgi.multiprocess'
p3086
asbag49
(g70
g51
NtRp3087
(dp3088
g54
(dp3089
g81
g82
ssg63
g3078
sg56
(lp3090
S':'
asbag49
(g70
g51
NtRp3091
(dp3092
g54
(dp3093
sg63
g3078
sg56
(lp3094
g49
(g50
g51
NtRp3095
(dp3096
g54
(dp3097
g62
I3
ssg63
g3091
sg56
(lp3098
g92
asbasbasbag49
(g65
g51
NtRp3099
(dp3100
g54
(dp3101
sg63
g2588
sg56
(lp3102
g49
(g70
g51
NtRp3103
(dp3104
g54
(dp3105
g74
g75
ssg63
g3099
sg56
(lp3106
S'wsgi.multithread'
p3107
asbag49
(g70
g51
NtRp3108
(dp3109
g54
(dp3110
g81
g82
ssg63
g3099
sg56
(lp3111
S':'
asbag49
(g70
g51
NtRp3112
(dp3113
g54
(dp3114
sg63
g3099
sg56
(lp3115
g49
(g50
g51
NtRp3116
(dp3117
g54
(dp3118
g62
I3
ssg63
g3112
sg56
(lp3119
g928
asbasbasbag49
(g65
g51
NtRp3120
(dp3121
g54
(dp3122
sg63
g2588
sg56
(lp3123
g49
(g70
g51
NtRp3124
(dp3125
g54
(dp3126
g74
g75
ssg63
g3120
sg56
(lp3127
S'wsgi.run_once'
p3128
asbag49
(g70
g51
NtRp3129
(dp3130
g54
(dp3131
g81
g82
ssg63
g3120
sg56
(lp3132
S':'
asbag49
(g70
g51
NtRp3133
(dp3134
g54
(dp3135
sg63
g3120
sg56
(lp3136
g49
(g50
g51
NtRp3137
(dp3138
g54
(dp3139
g62
I3
ssg63
g3133
sg56
(lp3140
g92
asbasbasbag49
(g65
g51
NtRp3141
(dp3142
g54
(dp3143
sg63
g2588
sg56
(lp3144
g49
(g70
g51
NtRp3145
(dp3146
g54
(dp3147
g74
g75
ssg63
g3141
sg56
(lp3148
S'wsgi.url_scheme'
p3149
asbag49
(g70
g51
NtRp3150
(dp3151
g54
(dp3152
g81
g82
ssg63
g3141
sg56
(lp3153
S':'
asbag49
(g70
g51
NtRp3154
(dp3155
g54
(dp3156
sg63
g3141
sg56
(lp3157
g49
(g50
g51
NtRp3158
(dp3159
g54
(dp3160
g62
I3
ssg63
g3154
sg56
(lp3161
g1777
asbasbasbag49
(g65
g51
NtRp3162
(dp3163
g54
(dp3164
sg63
g2588
sg56
(lp3165
g49
(g70
g51
NtRp3166
(dp3167
g54
(dp3168
g74
g75
ssg63
g3162
sg56
(lp3169
S'wsgi.version'
p3170
asbag49
(g70
g51
NtRp3171
(dp3172
g54
(dp3173
g81
g82
ssg63
g3162
sg56
(lp3174
S':'
asbag49
(g70
g51
NtRp3175
(dp3176
g54
(dp3177
sg63
g3162
sg56
(lp3178
g49
(g50
g51
NtRp3179
(dp3180
g54
(dp3181
g62
I3
ssg63
g3175
sg56
(lp3182
S'1'
asbasbasbasbasbasbasbasbasbasbasbasbasbsS'frames'
p3183
(lp3184
(dp3185
S'file'
p3186
S'/home/mdipierro/web2py/gluon/restricted.py'
p3187
sS'dump'
p3188
(dp3189
sS'lnum'
p3190
I212
sS'lines'
p3191
(dp3192
sS'call'
p3193
S"(code='# coding: utf8\\n# try something like\\n\\ndef show():...eturn arr\\n\\nresponse._vars=response._caller(show)\\n', environment={'A': <class 'gluon.html.A'>, 'Auth': <class 'gluon.tools.Auth'>, 'B': <class 'gluon.html.B'>, 'BEAUTIFY': <class 'gluon.html.BEAUTIFY'>, 'BODY': <class 'gluon.html.BODY'>, 'BR': <class 'gluon.html.BR'>, 'BUTTON': <class 'gluon.html.BUTTON'>, 'CAT': <class 'gluon.html.CAT'>, 'CENTER': <class 'gluon.html.CENTER'>, 'CLEANUP': <class 'gluon.validators.CLEANUP'>, ...}, layer='/Users/zamechek/Downloads/web2py/web2py.app/Cont...Resources/applications/hellow/controllers/game.py')"
p3194
sS'func'
p3195
S'restricted'
p3196
sa(dp3197
g3186
S'/Users/zamechek/Downloads/web2py/web2py.app/Contents/Resources/applications/hellow/controllers/game.py'
p3198
sg3188
(dp3199
sg3190
I47
sg3191
(dp3200
I36
S''
sI37
S'    elif otherForm.errors:'
p3201
sI38
S"        response.flash = 'form has errors'"
p3202
sI39
S'    return otherForm'
p3203
sI40
S''
sI41
S'def makePrettyLables(rows):'
p3204
sI42
S'        arr = []'
p3205
sI43
S'        for i in range(0, len(rows)):'
p3206
sI44
S'            arr.append("Slot " + str(i+1) + " - " + rows[i].slot.id)'
p3207
sI45
S'        return arr'
p3208
ssg3193
S'()'
p3209
sg3195
S'<module>'
p3210
sa(dp3211
g3186
S'/home/mdipierro/web2py/gluon/globals.py'
p3212
sg3188
(dp3213
sg3190
I193
sg3191
(dp3214
sg3193
S'(f=<function show at 0x959c6f0>)'
p3215
sg3195
S'<lambda>'
p3216
sa(dp3217
g3186
S'/Users/zamechek/Downloads/web2py/web2py.app/Contents/Resources/applications/hellow/controllers/game.py'
p3218
sg3188
(dp3219
sg3190
I14
sg3191
(dp3220
I9
S'    query=((db.game.id==db.game_slots.game)&(db.slot.id==db.game_slots.slot))'
p3221
sI10
S'    #game_and_slots=(db.game.id==db.game_slots.game)&(db.slot.id==db.game_slots.slot)'
p3222
sI11
S'    rows = db(query).select(db.slot.id, db.slot.odds)'
p3223
sI12
S'    form = display_form(rows)'
p3224
sI13
S''
sI14
S'    otherForm = form_from_factory(rows, id)'
p3225
sI15
S'    return dict(name=auth_user.first_name.capitalize() + " " + auth_user.last_name.capitalize(), balance = game.balance, slots = rows, gameid = id, form=form, otherForm=otherForm)'
p3226
sI16
S''
sI17
S'def display_form(rows):'
p3227
sI18
S'   form = SQLFORM(db.user_action)'
p3228
ssg3193
S'()'
p3229
sg3195
S'show'
p3230
sa(dp3231
g3186
S'/Users/zamechek/Downloads/web2py/web2py.app/Contents/Resources/applications/hellow/controllers/game.py'
p3232
sg3188
(dp3233
sg3190
I32
sg3191
(dp3234
I32
S"        Field('slot', requires=IS_IN_SET(rows, labels=makePrettyLables(rows))))"
p3235
sI33
S"        #IS_IN_DB(db(db.table_one.name.like('h%'))"
p3236
sI34
S'    if otherForm.process().accepted:'
p3237
sI35
S"        response.flash = 'form accepted'"
p3238
sI36
S''
sI27
S''
sI28
S'def form_from_factory(rows, id):'
p3239
sI29
S''
sI30
S'    otherForm = SQLFORM.factory('
p3240
sI31
S"        Field('bet', requires=IS_NOT_EMPTY()),"
p3241
ssg3193
S"(rows=<Rows (3)>, id='1')"
p3242
sg3195
S'form_from_factory'
p3243
sa(dp3244
g3186
S'/Users/zamechek/Downloads/web2py/web2py.app/Contents/Resources/applications/hellow/controllers/game.py'
p3245
sg3188
(dp3246
sg3190
I44
sg3191
(dp3247
I36
S''
sI37
S'    elif otherForm.errors:'
p3248
sI38
S"        response.flash = 'form has errors'"
p3249
sI39
S'    return otherForm'
p3250
sI40
S''
sI41
S'def makePrettyLables(rows):'
p3251
sI42
S'        arr = []'
p3252
sI43
S'        for i in range(0, len(rows)):'
p3253
sI44
S'            arr.append("Slot " + str(i+1) + " - " + rows[i].slot.id)'
p3254
sI45
S'        return arr'
p3255
ssg3193
S'(rows=<Rows (3)>)'
p3256
sg3195
S'makePrettyLables'
p3257
sasS'pyver'
p3258
S'Python 2.5.1: /Users/zamechek/Downloads/web2py/web2py.app/Contents/MacOS/python'
p3259
sS'session'
p3260
g49
(g50
g51
NtRp3261
(dp3262
g54
(dp3263
sg56
(lp3264
g49
(g58
g51
NtRp3265
(dp3266
g54
(dp3267
g62
I5
ssg63
Nsg56
(lp3268
g49
(g65
g51
NtRp3269
(dp3270
g54
(dp3271
sg63
g3265
sg56
(lp3272
g49
(g70
g51
NtRp3273
(dp3274
g54
(dp3275
g74
g75
ssg63
g3269
sg56
(lp3276
S'last_orderby'
p3277
asbag49
(g70
g51
NtRp3278
(dp3279
g54
(dp3280
g81
g82
ssg63
g3269
sg56
(lp3281
S':'
asbag49
(g70
g51
NtRp3282
(dp3283
g54
(dp3284
sg63
g3269
sg56
(lp3285
g49
(g50
g51
NtRp3286
(dp3287
g54
(dp3288
g62
I5
ssg63
g3282
sg56
(lp3289
S'None'
p3290
asbasbasbag49
(g65
g51
NtRp3291
(dp3292
g54
(dp3293
sg63
g3265
sg56
(lp3294
g49
(g70
g51
NtRp3295
(dp3296
g54
(dp3297
g74
g75
ssg63
g3291
sg56
(lp3298
S'last_query'
p3299
asbag49
(g70
g51
NtRp3300
(dp3301
g54
(dp3302
g81
g82
ssg63
g3291
sg56
(lp3303
S':'
asbag49
(g70
g51
NtRp3304
(dp3305
g54
(dp3306
sg63
g3291
sg56
(lp3307
g49
(g50
g51
NtRp3308
(dp3309
g54
(dp3310
g62
I5
ssg63
g3304
sg56
(lp3311
S'db.game_slots.id>0'
p3312
asbasbasbasbasbsS'etype'
p3313
S"<type 'exceptions.AttributeError'>"
p3314
sS'date'
p3315
S'Wed Mar 27 14:12:43 2013'
p3316
sS'response'
p3317
g49
(g50
g51
NtRp3318
(dp3319
g54
(dp3320
sg56
(lp3321
g49
(g58
g51
NtRp3322
(dp3323
g54
(dp3324
g62
I5
ssg63
Nsg56
(lp3325
g49
(g65
g51
NtRp3326
(dp3327
g54
(dp3328
sg63
g3322
sg56
(lp3329
g49
(g70
g51
NtRp3330
(dp3331
g54
(dp3332
g74
g75
ssg63
g3326
sg56
(lp3333
g159
asbag49
(g70
g51
NtRp3334
(dp3335
g54
(dp3336
g81
g82
ssg63
g3326
sg56
(lp3337
S':'
asbag49
(g70
g51
NtRp3338
(dp3339
g54
(dp3340
sg63
g3326
sg56
(lp3341
g49
(g50
g51
NtRp3342
(dp3343
g54
(dp3344
g62
I5
ssg63
g3338
sg56
(lp3345
S'<cStringIO.StringO object at 0x8e5d300>'
p3346
asbasbasbag49
(g65
g51
NtRp3347
(dp3348
g54
(dp3349
sg63
g3322
sg56
(lp3350
g49
(g70
g51
NtRp3351
(dp3352
g54
(dp3353
g74
g75
ssg63
g3347
sg56
(lp3354
g247
asbag49
(g70
g51
NtRp3355
(dp3356
g54
(dp3357
g81
g82
ssg63
g3347
sg56
(lp3358
S':'
asbag49
(g70
g51
NtRp3359
(dp3360
g54
(dp3361
sg63
g3347
sg56
(lp3362
g49
(g50
g51
NtRp3363
(dp3364
g54
(dp3365
g62
I5
ssg63
g3359
sg56
(lp3366
g49
(g58
g51
NtRp3367
(dp3368
g54
(dp3369
g62
I4
ssg63
Nsg56
(lp3370
g49
(g65
g51
NtRp3371
(dp3372
g54
(dp3373
sg63
g3367
sg56
(lp3374
g49
(g70
g51
NtRp3375
(dp3376
g54
(dp3377
g74
g75
ssg63
g3371
sg56
(lp3378
S'session_id_hellow'
p3379
asbag49
(g70
g51
NtRp3380
(dp3381
g54
(dp3382
g81
g82
ssg63
g3371
sg56
(lp3383
S':'
asbag49
(g70
g51
NtRp3384
(dp3385
g54
(dp3386
sg63
g3371
sg56
(lp3387
g49
(g50
g51
NtRp3388
(dp3389
g54
(dp3390
g62
I4
ssg63
g3384
sg56
(lp3391
g458
ag49
(g58
g51
NtRp3392
(dp3393
g54
(dp3394
g62
I3
ssg63
Nsg56
(lp3395
g49
(g65
g51
NtRp3396
(dp3397
g54
(dp3398
sg63
g3392
sg56
(lp3399
g49
(g70
g51
NtRp3400
(dp3401
g54
(dp3402
g74
g75
ssg63
g3396
sg56
(lp3403
g298
asbag49
(g70
g51
NtRp3404
(dp3405
g54
(dp3406
g81
g82
ssg63
g3396
sg56
(lp3407
S':'
asbag49
(g70
g51
NtRp3408
(dp3409
g54
(dp3410
sg63
g3396
sg56
(lp3411
g49
(g50
g51
NtRp3412
(dp3413
g54
(dp3414
g62
I3
ssg63
g3408
sg56
(lp3415
S''
asbasbasbag49
(g65
g51
NtRp3416
(dp3417
g54
(dp3418
sg63
g3392
sg56
(lp3419
g49
(g70
g51
NtRp3420
(dp3421
g54
(dp3422
g74
g75
ssg63
g3416
sg56
(lp3423
g319
asbag49
(g70
g51
NtRp3424
(dp3425
g54
(dp3426
g81
g82
ssg63
g3416
sg56
(lp3427
S':'
asbag49
(g70
g51
NtRp3428
(dp3429
g54
(dp3430
sg63
g3416
sg56
(lp3431
g49
(g50
g51
NtRp3432
(dp3433
g54
(dp3434
g62
I3
ssg63
g3428
sg56
(lp3435
S''
asbasbasbag49
(g65
g51
NtRp3436
(dp3437
g54
(dp3438
sg63
g3392
sg56
(lp3439
g49
(g70
g51
NtRp3440
(dp3441
g54
(dp3442
g74
g75
ssg63
g3436
sg56
(lp3443
g340
asbag49
(g70
g51
NtRp3444
(dp3445
g54
(dp3446
g81
g82
ssg63
g3436
sg56
(lp3447
S':'
asbag49
(g70
g51
NtRp3448
(dp3449
g54
(dp3450
sg63
g3436
sg56
(lp3451
g49
(g50
g51
NtRp3452
(dp3453
g54
(dp3454
g62
I3
ssg63
g3448
sg56
(lp3455
S''
asbasbasbag49
(g65
g51
NtRp3456
(dp3457
g54
(dp3458
sg63
g3392
sg56
(lp3459
g49
(g70
g51
NtRp3460
(dp3461
g54
(dp3462
g74
g75
ssg63
g3456
sg56
(lp3463
g361
asbag49
(g70
g51
NtRp3464
(dp3465
g54
(dp3466
g81
g82
ssg63
g3456
sg56
(lp3467
S':'
asbag49
(g70
g51
NtRp3468
(dp3469
g54
(dp3470
sg63
g3456
sg56
(lp3471
g49
(g50
g51
NtRp3472
(dp3473
g54
(dp3474
g62
I3
ssg63
g3468
sg56
(lp3475
S''
asbasbasbag49
(g65
g51
NtRp3476
(dp3477
g54
(dp3478
sg63
g3392
sg56
(lp3479
g49
(g70
g51
NtRp3480
(dp3481
g54
(dp3482
g74
g75
ssg63
g3476
sg56
(lp3483
g382
asbag49
(g70
g51
NtRp3484
(dp3485
g54
(dp3486
g81
g82
ssg63
g3476
sg56
(lp3487
S':'
asbag49
(g70
g51
NtRp3488
(dp3489
g54
(dp3490
sg63
g3476
sg56
(lp3491
g49
(g50
g51
NtRp3492
(dp3493
g54
(dp3494
g62
I3
ssg63
g3488
sg56
(lp3495
S'/'
asbasbasbag49
(g65
g51
NtRp3496
(dp3497
g54
(dp3498
sg63
g3392
sg56
(lp3499
g49
(g70
g51
NtRp3500
(dp3501
g54
(dp3502
g74
g75
ssg63
g3496
sg56
(lp3503
g403
asbag49
(g70
g51
NtRp3504
(dp3505
g54
(dp3506
g81
g82
ssg63
g3496
sg56
(lp3507
S':'
asbag49
(g70
g51
NtRp3508
(dp3509
g54
(dp3510
sg63
g3496
sg56
(lp3511
g49
(g50
g51
NtRp3512
(dp3513
g54
(dp3514
g62
I3
ssg63
g3508
sg56
(lp3515
S''
asbasbasbag49
(g65
g51
NtRp3516
(dp3517
g54
(dp3518
sg63
g3392
sg56
(lp3519
g49
(g70
g51
NtRp3520
(dp3521
g54
(dp3522
g74
g75
ssg63
g3516
sg56
(lp3523
g424
asbag49
(g70
g51
NtRp3524
(dp3525
g54
(dp3526
g81
g82
ssg63
g3516
sg56
(lp3527
S':'
asbag49
(g70
g51
NtRp3528
(dp3529
g54
(dp3530
sg63
g3516
sg56
(lp3531
g49
(g50
g51
NtRp3532
(dp3533
g54
(dp3534
g62
I3
ssg63
g3528
sg56
(lp3535
S''
asbasbasbasbasbasbasbasbasbasbasbag49
(g65
g51
NtRp3536
(dp3537
g54
(dp3538
sg63
g3322
sg56
(lp3539
g49
(g70
g51
NtRp3540
(dp3541
g54
(dp3542
g74
g75
ssg63
g3536
sg56
(lp3543
S'delimiters'
p3544
asbag49
(g70
g51
NtRp3545
(dp3546
g54
(dp3547
g81
g82
ssg63
g3536
sg56
(lp3548
S':'
asbag49
(g70
g51
NtRp3549
(dp3550
g54
(dp3551
sg63
g3536
sg56
(lp3552
g49
(g50
g51
NtRp3553
(dp3554
g54
(dp3555
g62
I5
ssg63
g3549
sg56
(lp3556
g49
(g58
g51
NtRp3557
(dp3558
g54
(dp3559
g62
I4
ssg63
Nsg56
(lp3560
g49
(g65
g51
NtRp3561
(dp3562
g54
(dp3563
sg63
g3557
sg56
(lp3564
g49
(g70
g51
NtRp3565
(dp3566
g54
(dp3567
sg63
g3561
sg56
(lp3568
g49
(g50
g51
NtRp3569
(dp3570
g54
(dp3571
g62
I4
ssg63
g3565
sg56
(lp3572
S'{{'
p3573
asbasbasbag49
(g65
g51
NtRp3574
(dp3575
g54
(dp3576
sg63
g3557
sg56
(lp3577
g49
(g70
g51
NtRp3578
(dp3579
g54
(dp3580
sg63
g3574
sg56
(lp3581
g49
(g50
g51
NtRp3582
(dp3583
g54
(dp3584
g62
I4
ssg63
g3578
sg56
(lp3585
S'}}'
p3586
asbasbasbasbasbasbasbag49
(g65
g51
NtRp3587
(dp3588
g54
(dp3589
sg63
g3322
sg56
(lp3590
g49
(g70
g51
NtRp3591
(dp3592
g54
(dp3593
g74
g75
ssg63
g3587
sg56
(lp3594
S'files'
p3595
asbag49
(g70
g51
NtRp3596
(dp3597
g54
(dp3598
g81
g82
ssg63
g3587
sg56
(lp3599
S':'
asbag49
(g70
g51
NtRp3600
(dp3601
g54
(dp3602
sg63
g3587
sg56
(lp3603
g49
(g50
g51
NtRp3604
(dp3605
g54
(dp3606
g62
I5
ssg63
g3600
sg56
(lp3607
g49
(g58
g51
NtRp3608
(dp3609
g54
(dp3610
g62
I4
ssg63
Nsg56
(lp3611
sbasbasbasbag49
(g65
g51
NtRp3612
(dp3613
g54
(dp3614
sg63
g3322
sg56
(lp3615
g49
(g70
g51
NtRp3616
(dp3617
g54
(dp3618
g74
g75
ssg63
g3612
sg56
(lp3619
S'flash'
p3620
asbag49
(g70
g51
NtRp3621
(dp3622
g54
(dp3623
g81
g82
ssg63
g3612
sg56
(lp3624
S':'
asbag49
(g70
g51
NtRp3625
(dp3626
g54
(dp3627
sg63
g3612
sg56
(lp3628
g49
(g50
g51
NtRp3629
(dp3630
g54
(dp3631
g62
I5
ssg63
g3625
sg56
(lp3632
S'please fill out the form'
p3633
asbasbasbag49
(g65
g51
NtRp3634
(dp3635
g54
(dp3636
sg63
g3322
sg56
(lp3637
g49
(g70
g51
NtRp3638
(dp3639
g54
(dp3640
g74
g75
ssg63
g3634
sg56
(lp3641
S'generic_patterns'
p3642
asbag49
(g70
g51
NtRp3643
(dp3644
g54
(dp3645
g81
g82
ssg63
g3634
sg56
(lp3646
S':'
asbag49
(g70
g51
NtRp3647
(dp3648
g54
(dp3649
sg63
g3634
sg56
(lp3650
g49
(g50
g51
NtRp3651
(dp3652
g54
(dp3653
g62
I5
ssg63
g3647
sg56
(lp3654
g49
(g58
g51
NtRp3655
(dp3656
g54
(dp3657
g62
I4
ssg63
Nsg56
(lp3658
g49
(g65
g51
NtRp3659
(dp3660
g54
(dp3661
sg63
g3655
sg56
(lp3662
g49
(g70
g51
NtRp3663
(dp3664
g54
(dp3665
sg63
g3659
sg56
(lp3666
g49
(g50
g51
NtRp3667
(dp3668
g54
(dp3669
g62
I4
ssg63
g3663
sg56
(lp3670
S'*'
asbasbasbasbasbasbasbag49
(g65
g51
NtRp3671
(dp3672
g54
(dp3673
sg63
g3322
sg56
(lp3674
g49
(g70
g51
NtRp3675
(dp3676
g54
(dp3677
g74
g75
ssg63
g3671
sg56
(lp3678
S'google_analytics_id'
p3679
asbag49
(g70
g51
NtRp3680
(dp3681
g54
(dp3682
g81
g82
ssg63
g3671
sg56
(lp3683
S':'
asbag49
(g70
g51
NtRp3684
(dp3685
g54
(dp3686
sg63
g3671
sg56
(lp3687
g49
(g50
g51
NtRp3688
(dp3689
g54
(dp3690
g62
I5
ssg63
g3684
sg56
(lp3691
S'None'
p3692
asbasbasbag49
(g65
g51
NtRp3693
(dp3694
g54
(dp3695
sg63
g3322
sg56
(lp3696
g49
(g70
g51
NtRp3697
(dp3698
g54
(dp3699
g74
g75
ssg63
g3693
sg56
(lp3700
S'headers'
p3701
asbag49
(g70
g51
NtRp3702
(dp3703
g54
(dp3704
g81
g82
ssg63
g3693
sg56
(lp3705
S':'
asbag49
(g70
g51
NtRp3706
(dp3707
g54
(dp3708
sg63
g3693
sg56
(lp3709
g49
(g50
g51
NtRp3710
(dp3711
g54
(dp3712
g62
I5
ssg63
g3706
sg56
(lp3713
g49
(g58
g51
NtRp3714
(dp3715
g54
(dp3716
g62
I4
ssg63
Nsg56
(lp3717
g49
(g65
g51
NtRp3718
(dp3719
g54
(dp3720
sg63
g3714
sg56
(lp3721
g49
(g70
g51
NtRp3722
(dp3723
g54
(dp3724
g74
g75
ssg63
g3718
sg56
(lp3725
S'X-Powered-By'
p3726
asbag49
(g70
g51
NtRp3727
(dp3728
g54
(dp3729
g81
g82
ssg63
g3718
sg56
(lp3730
S':'
asbag49
(g70
g51
NtRp3731
(dp3732
g54
(dp3733
sg63
g3718
sg56
(lp3734
g49
(g50
g51
NtRp3735
(dp3736
g54
(dp3737
g62
I4
ssg63
g3731
sg56
(lp3738
S'web2py'
p3739
asbasbasbasbasbasbasbag49
(g65
g51
NtRp3740
(dp3741
g54
(dp3742
sg63
g3322
sg56
(lp3743
g49
(g70
g51
NtRp3744
(dp3745
g54
(dp3746
g74
g75
ssg63
g3740
sg56
(lp3747
S'logo'
p3748
asbag49
(g70
g51
NtRp3749
(dp3750
g54
(dp3751
g81
g82
ssg63
g3740
sg56
(lp3752
S':'
asbag49
(g70
g51
NtRp3753
(dp3754
g54
(dp3755
sg63
g3740
sg56
(lp3756
g49
(g50
g51
NtRp3757
(dp3758
g54
(dp3759
g62
I5
ssg63
g3753
sg56
(lp3760
g49
(cgluon.html
A
p3761
g51
NtRp3762
(dp3763
g54
(dp3764
S'_class'
p3765
S'brand'
p3766
sS'_href'
p3767
S'http://www.web2py.com/'
p3768
ssg63
Nsg56
(lp3769
g49
(cgluon.html
B
p3770
g51
NtRp3771
(dp3772
g54
(dp3773
sg63
g3762
sg56
(lp3774
S'web'
p3775
ag49
(cgluon.html
SPAN
p3776
g51
NtRp3777
(dp3778
g54
(dp3779
sg63
g3771
sg56
(lp3780
I2
asbaS'py'
p3781
asbacgluon.html
XML_unpickle
p3782
(S's\r\x00\x00\x00&trade;&nbsp;'
tRp3783
asbasbasbasbag49
(g65
g51
NtRp3784
(dp3785
g54
(dp3786
sg63
g3322
sg56
(lp3787
g49
(g70
g51
NtRp3788
(dp3789
g54
(dp3790
g74
g75
ssg63
g3784
sg56
(lp3791
S'menu'
p3792
asbag49
(g70
g51
NtRp3793
(dp3794
g54
(dp3795
g81
g82
ssg63
g3784
sg56
(lp3796
S':'
asbag49
(g70
g51
NtRp3797
(dp3798
g54
(dp3799
sg63
g3784
sg56
(lp3800
g49
(g50
g51
NtRp3801
(dp3802
g54
(dp3803
g62
I5
ssg63
g3797
sg56
(lp3804
g49
(g58
g51
NtRp3805
(dp3806
g54
(dp3807
g62
I4
ssg63
Nsg56
(lp3808
g49
(g65
g51
NtRp3809
(dp3810
g54
(dp3811
sg63
g3805
sg56
(lp3812
g49
(g70
g51
NtRp3813
(dp3814
g54
(dp3815
sg63
g3809
sg56
(lp3816
g49
(g50
g51
NtRp3817
(dp3818
g54
(dp3819
g62
I4
ssg63
g3813
sg56
(lp3820
g49
(g58
g51
NtRp3821
(dp3822
g54
(dp3823
g62
I3
ssg63
Nsg56
(lp3824
g49
(g65
g51
NtRp3825
(dp3826
g54
(dp3827
sg63
g3821
sg56
(lp3828
g49
(g70
g51
NtRp3829
(dp3830
g54
(dp3831
sg63
g3825
sg56
(lp3832
g49
(g50
g51
NtRp3833
(dp3834
g54
(dp3835
g62
I3
ssg63
g3829
sg56
(lp3836
cgluon.languages
lazyT_unpickle
p3837
(S't\x04\x00\x00\x00Home'
tRp3838
asbasbasbag49
(g65
g51
NtRp3839
(dp3840
g54
(dp3841
sg63
g3821
sg56
(lp3842
g49
(g70
g51
NtRp3843
(dp3844
g54
(dp3845
sg63
g3839
sg56
(lp3846
g49
(g50
g51
NtRp3847
(dp3848
g54
(dp3849
g62
I3
ssg63
g3843
sg56
(lp3850
g92
asbasbasbag49
(g65
g51
NtRp3851
(dp3852
g54
(dp3853
sg63
g3821
sg56
(lp3854
g49
(g70
g51
NtRp3855
(dp3856
g54
(dp3857
sg63
g3851
sg56
(lp3858
g49
(g50
g51
NtRp3859
(dp3860
g54
(dp3861
g62
I3
ssg63
g3855
sg56
(lp3862
S'/hellow/default/index'
p3863
asbasbasbag49
(g65
g51
NtRp3864
(dp3865
g54
(dp3866
sg63
g3821
sg56
(lp3867
g49
(g70
g51
NtRp3868
(dp3869
g54
(dp3870
sg63
g3864
sg56
(lp3871
g49
(g50
g51
NtRp3872
(dp3873
g54
(dp3874
g62
I3
ssg63
g3868
sg56
(lp3875
g49
(g58
g51
NtRp3876
(dp3877
g54
(dp3878
g62
I2
ssg63
Nsg56
(lp3879
sbasbasbasbasbasbasbasbag49
(g65
g51
NtRp3880
(dp3881
g54
(dp3882
sg63
g3805
sg56
(lp3883
g49
(g70
g51
NtRp3884
(dp3885
g54
(dp3886
sg63
g3880
sg56
(lp3887
g49
(g50
g51
NtRp3888
(dp3889
g54
(dp3890
g62
I4
ssg63
g3884
sg56
(lp3891
g49
(g58
g51
NtRp3892
(dp3893
g54
(dp3894
g62
I3
ssg63
Nsg56
(lp3895
g49
(g65
g51
NtRp3896
(dp3897
g54
(dp3898
sg63
g3892
sg56
(lp3899
g49
(g70
g51
NtRp3900
(dp3901
g54
(dp3902
sg63
g3896
sg56
(lp3903
g49
(g50
g51
NtRp3904
(dp3905
g54
(dp3906
g62
I3
ssg63
g3900
sg56
(lp3907
g49
(g3776
g51
NtRp3908
(dp3909
g54
(dp3910
g3765
S'highlighted'
p3911
ssg63
Nsg56
(lp3912
g3739
asbasbasbasbag49
(g65
g51
NtRp3913
(dp3914
g54
(dp3915
sg63
g3892
sg56
(lp3916
g49
(g70
g51
NtRp3917
(dp3918
g54
(dp3919
sg63
g3913
sg56
(lp3920
g49
(g50
g51
NtRp3921
(dp3922
g54
(dp3923
g62
I3
ssg63
g3917
sg56
(lp3924
g92
asbasbasbag49
(g65
g51
NtRp3925
(dp3926
g54
(dp3927
sg63
g3892
sg56
(lp3928
g49
(g70
g51
NtRp3929
(dp3930
g54
(dp3931
sg63
g3925
sg56
(lp3932
g49
(g50
g51
NtRp3933
(dp3934
g54
(dp3935
g62
I3
ssg63
g3929
sg56
(lp3936
S'http://web2py.com'
p3937
asbasbasbag49
(g65
g51
NtRp3938
(dp3939
g54
(dp3940
sg63
g3892
sg56
(lp3941
g49
(g70
g51
NtRp3942
(dp3943
g54
(dp3944
sg63
g3938
sg56
(lp3945
g49
(g50
g51
NtRp3946
(dp3947
g54
(dp3948
g62
I3
ssg63
g3942
sg56
(lp3949
g49
(g58
g51
NtRp3950
(dp3951
g54
(dp3952
g62
I2
ssg63
Nsg56
(lp3953
g49
(g65
g51
NtRp3954
(dp3955
g54
(dp3956
sg63
g3950
sg56
(lp3957
g49
(g70
g51
NtRp3958
(dp3959
g54
(dp3960
sg63
g3954
sg56
(lp3961
g49
(g50
g51
NtRp3962
(dp3963
g54
(dp3964
g62
I2
ssg63
g3958
sg56
(lp3965
g49
(g58
g51
NtRp3966
(dp3967
g54
(dp3968
g62
I1
ssg63
Nsg56
(lp3969
g49
(g65
g51
NtRp3970
(dp3971
g54
(dp3972
sg63
g3966
sg56
(lp3973
g49
(g70
g51
NtRp3974
(dp3975
g54
(dp3976
sg63
g3970
sg56
(lp3977
g49
(g50
g51
NtRp3978
(dp3979
g54
(dp3980
g62
I1
ssg63
g3974
sg56
(lp3981
g3837
(S's\x08\x00\x00\x00My Sites'
tRp3982
asbasbasbag49
(g65
g51
NtRp3983
(dp3984
g54
(dp3985
sg63
g3966
sg56
(lp3986
g49
(g70
g51
NtRp3987
(dp3988
g54
(dp3989
sg63
g3983
sg56
(lp3990
g49
(g50
g51
NtRp3991
(dp3992
g54
(dp3993
g62
I1
ssg63
g3987
sg56
(lp3994
I00
asbasbasbag49
(g65
g51
NtRp3995
(dp3996
g54
(dp3997
sg63
g3966
sg56
(lp3998
g49
(g70
g51
NtRp3999
(dp4000
g54
(dp4001
sg63
g3995
sg56
(lp4002
g49
(g50
g51
NtRp4003
(dp4004
g54
(dp4005
g62
I1
ssg63
g3999
sg56
(lp4006
S'/admin/default/site'
p4007
asbasbasbasbasbasbasbag49
(g65
g51
NtRp4008
(dp4009
g54
(dp4010
sg63
g3950
sg56
(lp4011
g49
(g70
g51
NtRp4012
(dp4013
g54
(dp4014
sg63
g4008
sg56
(lp4015
g49
(g50
g51
NtRp4016
(dp4017
g54
(dp4018
g62
I2
ssg63
g4012
sg56
(lp4019
g49
(g58
g51
NtRp4020
(dp4021
g54
(dp4022
g62
I1
ssg63
Nsg56
(lp4023
g49
(g65
g51
NtRp4024
(dp4025
g54
(dp4026
sg63
g4020
sg56
(lp4027
g49
(g70
g51
NtRp4028
(dp4029
g54
(dp4030
sg63
g4024
sg56
(lp4031
g49
(g50
g51
NtRp4032
(dp4033
g54
(dp4034
g62
I1
ssg63
g4028
sg56
(lp4035
g3837
(S's\x08\x00\x00\x00This App'
tRp4036
asbasbasbag49
(g65
g51
NtRp4037
(dp4038
g54
(dp4039
sg63
g4020
sg56
(lp4040
g49
(g70
g51
NtRp4041
(dp4042
g54
(dp4043
sg63
g4037
sg56
(lp4044
g49
(g50
g51
NtRp4045
(dp4046
g54
(dp4047
g62
I1
ssg63
g4041
sg56
(lp4048
I00
asbasbasbag49
(g65
g51
NtRp4049
(dp4050
g54
(dp4051
sg63
g4020
sg56
(lp4052
g49
(g70
g51
NtRp4053
(dp4054
g54
(dp4055
sg63
g4049
sg56
(lp4056
g49
(g50
g51
NtRp4057
(dp4058
g54
(dp4059
g62
I1
ssg63
g4053
sg56
(lp4060
S'/admin/default/design/hellow'
p4061
asbasbasbag49
(g65
g51
NtRp4062
(dp4063
g54
(dp4064
sg63
g4020
sg56
(lp4065
g49
(g70
g51
NtRp4066
(dp4067
g54
(dp4068
sg63
g4062
sg56
(lp4069
g49
(g50
g51
NtRp4070
(dp4071
g54
(dp4072
g62
I1
ssg63
g4066
sg56
(lp4073
(lp4074
(g3837
(S't\n\x00\x00\x00Controller'
tRp4075
I00
S'/admin/default/edit/hellow/controllers/game.py'
tp4076
a(g3837
(S't\x04\x00\x00\x00View'
tRp4077
I00
S'/admin/default/edit/hellow/views/game/show.html'
tp4078
a(g3837
(S't\x06\x00\x00\x00Layout'
tRp4079
I00
S'/admin/default/edit/hellow/views/layout.html'
tp4080
a(g3837
(S't\n\x00\x00\x00Stylesheet'
tRp4081
I00
S'/admin/default/edit/hellow/static/css/web2py.css'
tp4082
a(g3837
(S's\x08\x00\x00\x00DB Model'
tRp4083
I00
S'/admin/default/edit/hellow/models/db.py'
tp4084
a(g3837
(S's\n\x00\x00\x00Menu Model'
tRp4085
I00
S'/admin/default/edit/hellow/models/menu.py'
tp4086
a(g3837
(S't\x08\x00\x00\x00Database'
tRp4087
I00
S'/hellow/appadmin/index'
tp4088
a(g3837
(S't\x06\x00\x00\x00Errors'
tRp4089
I00
S'/admin/default/errors/hellow'
tp4090
a(g3837
(S't\x05\x00\x00\x00About'
tRp4091
I00
S'/admin/default/about/hellow'
tp4092
aasbasbasbasbasbasbasbag49
(g65
g51
NtRp4093
(dp4094
g54
(dp4095
sg63
g3950
sg56
(lp4096
g49
(g70
g51
NtRp4097
(dp4098
g54
(dp4099
sg63
g4093
sg56
(lp4100
g49
(g50
g51
NtRp4101
(dp4102
g54
(dp4103
g62
I2
ssg63
g4097
sg56
(lp4104
g49
(g58
g51
NtRp4105
(dp4106
g54
(dp4107
g62
I1
ssg63
Nsg56
(lp4108
g49
(g65
g51
NtRp4109
(dp4110
g54
(dp4111
sg63
g4105
sg56
(lp4112
g49
(g70
g51
NtRp4113
(dp4114
g54
(dp4115
sg63
g4109
sg56
(lp4116
g49
(g50
g51
NtRp4117
(dp4118
g54
(dp4119
g62
I1
ssg63
g4113
sg56
(lp4120
S'web2py.com'
p4121
asbasbasbag49
(g65
g51
NtRp4122
(dp4123
g54
(dp4124
sg63
g4105
sg56
(lp4125
g49
(g70
g51
NtRp4126
(dp4127
g54
(dp4128
sg63
g4122
sg56
(lp4129
g49
(g50
g51
NtRp4130
(dp4131
g54
(dp4132
g62
I1
ssg63
g4126
sg56
(lp4133
I00
asbasbasbag49
(g65
g51
NtRp4134
(dp4135
g54
(dp4136
sg63
g4105
sg56
(lp4137
g49
(g70
g51
NtRp4138
(dp4139
g54
(dp4140
sg63
g4134
sg56
(lp4141
g49
(g50
g51
NtRp4142
(dp4143
g54
(dp4144
g62
I1
ssg63
g4138
sg56
(lp4145
S'http://www.web2py.com'
p4146
asbasbasbag49
(g65
g51
NtRp4147
(dp4148
g54
(dp4149
sg63
g4105
sg56
(lp4150
g49
(g70
g51
NtRp4151
(dp4152
g54
(dp4153
sg63
g4147
sg56
(lp4154
g49
(g50
g51
NtRp4155
(dp4156
g54
(dp4157
g62
I1
ssg63
g4151
sg56
(lp4158
(lp4159
(g3837
(S't\x08\x00\x00\x00Download'
tRp4160
I00
S'http://www.web2py.com/examples/default/download'
p4161
tp4162
a(g3837
(S't\x07\x00\x00\x00Support'
tRp4163
I00
S'http://www.web2py.com/examples/default/support'
p4164
tp4165
a(g3837
(S't\x04\x00\x00\x00Demo'
tRp4166
I00
S'http://web2py.com/demo_admin'
p4167
tp4168
a(g3837
(S's\x0e\x00\x00\x00Quick Examples'
tRp4169
I00
S'http://web2py.com/examples/default/examples'
p4170
tp4171
a(g3837
(S't\x03\x00\x00\x00FAQ'
tRp4172
I00
S'http://web2py.com/AlterEgo'
p4173
tp4174
a(g3837
(S't\x06\x00\x00\x00Videos'
tRp4175
I00
S'http://www.web2py.com/examples/default/videos/'
p4176
tp4177
a(g3837
(S's\x11\x00\x00\x00Free Applications'
tRp4178
I00
S'http://web2py.com/appliances'
p4179
tp4180
a(g3837
(S't\x07\x00\x00\x00Plugins'
tRp4181
I00
S'http://web2py.com/plugins'
p4182
tp4183
a(g3837
(S't\x07\x00\x00\x00Layouts'
tRp4184
I00
S'http://web2py.com/layouts'
p4185
tp4186
a(g3837
(S't\x07\x00\x00\x00Recipes'
tRp4187
I00
S'http://web2pyslices.com/'
p4188
tp4189
a(g3837
(S't\x08\x00\x00\x00Semantic'
tRp4190
I00
S'http://web2py.com/semantic'
p4191
tp4192
aasbasbasbasbasbasbasbag49
(g65
g51
NtRp4193
(dp4194
g54
(dp4195
sg63
g3950
sg56
(lp4196
g49
(g70
g51
NtRp4197
(dp4198
g54
(dp4199
sg63
g4193
sg56
(lp4200
g49
(g50
g51
NtRp4201
(dp4202
g54
(dp4203
g62
I2
ssg63
g4197
sg56
(lp4204
g49
(g58
g51
NtRp4205
(dp4206
g54
(dp4207
g62
I1
ssg63
Nsg56
(lp4208
g49
(g65
g51
NtRp4209
(dp4210
g54
(dp4211
sg63
g4205
sg56
(lp4212
g49
(g70
g51
NtRp4213
(dp4214
g54
(dp4215
sg63
g4209
sg56
(lp4216
g49
(g50
g51
NtRp4217
(dp4218
g54
(dp4219
g62
I1
ssg63
g4213
sg56
(lp4220
g3837
(S't\r\x00\x00\x00Documentation'
tRp4221
asbasbasbag49
(g65
g51
NtRp4222
(dp4223
g54
(dp4224
sg63
g4205
sg56
(lp4225
g49
(g70
g51
NtRp4226
(dp4227
g54
(dp4228
sg63
g4222
sg56
(lp4229
g49
(g50
g51
NtRp4230
(dp4231
g54
(dp4232
g62
I1
ssg63
g4226
sg56
(lp4233
I00
asbasbasbag49
(g65
g51
NtRp4234
(dp4235
g54
(dp4236
sg63
g4205
sg56
(lp4237
g49
(g70
g51
NtRp4238
(dp4239
g54
(dp4240
sg63
g4234
sg56
(lp4241
g49
(g50
g51
NtRp4242
(dp4243
g54
(dp4244
g62
I1
ssg63
g4238
sg56
(lp4245
S'http://www.web2py.com/book'
p4246
asbasbasbag49
(g65
g51
NtRp4247
(dp4248
g54
(dp4249
sg63
g4205
sg56
(lp4250
g49
(g70
g51
NtRp4251
(dp4252
g54
(dp4253
sg63
g4247
sg56
(lp4254
g49
(g50
g51
NtRp4255
(dp4256
g54
(dp4257
g62
I1
ssg63
g4251
sg56
(lp4258
(lp4259
(g3837
(S't\x07\x00\x00\x00Preface'
tRp4260
I00
S'http://www.web2py.com/book/default/chapter/00'
p4261
tp4262
a(g3837
(S't\x0c\x00\x00\x00Introduction'
tRp4263
I00
S'http://www.web2py.com/book/default/chapter/01'
p4264
tp4265
a(g3837
(S't\x06\x00\x00\x00Python'
tRp4266
I00
S'http://www.web2py.com/book/default/chapter/02'
p4267
tp4268
a(g3837
(S't\x08\x00\x00\x00Overview'
tRp4269
I00
S'http://www.web2py.com/book/default/chapter/03'
p4270
tp4271
a(g3837
(S's\x08\x00\x00\x00The Core'
tRp4272
I00
S'http://www.web2py.com/book/default/chapter/04'
p4273
tp4274
a(g3837
(S's\t\x00\x00\x00The Views'
tRp4275
I00
S'http://www.web2py.com/book/default/chapter/05'
p4276
tp4277
a(g3837
(S't\x08\x00\x00\x00Database'
tRp4278
I00
S'http://www.web2py.com/book/default/chapter/06'
p4279
tp4280
a(g3837
(S's\x14\x00\x00\x00Forms and Validators'
tRp4281
I00
S'http://www.web2py.com/book/default/chapter/07'
p4282
tp4283
a(g3837
(S's\r\x00\x00\x00Email and SMS'
tRp4284
I00
S'http://www.web2py.com/book/default/chapter/08'
p4285
tp4286
a(g3837
(S's\x0e\x00\x00\x00Access Control'
tRp4287
I00
S'http://www.web2py.com/book/default/chapter/09'
p4288
tp4289
a(g3837
(S't\x08\x00\x00\x00Services'
tRp4290
I00
S'http://www.web2py.com/book/default/chapter/10'
p4291
tp4292
a(g3837
(S's\x0c\x00\x00\x00Ajax Recipes'
tRp4293
I00
S'http://www.web2py.com/book/default/chapter/11'
p4294
tp4295
a(g3837
(S's\x16\x00\x00\x00Components and Plugins'
tRp4296
I00
S'http://www.web2py.com/book/default/chapter/12'
p4297
tp4298
a(g3837
(S's\x12\x00\x00\x00Deployment Recipes'
tRp4299
I00
S'http://www.web2py.com/book/default/chapter/13'
p4300
tp4301
a(g3837
(S's\r\x00\x00\x00Other Recipes'
tRp4302
I00
S'http://www.web2py.com/book/default/chapter/14'
p4303
tp4304
a(g3837
(S's\r\x00\x00\x00Buy this book'
tRp4305
I00
S'http://stores.lulu.com/web2py'
p4306
tp4307
aasbasbasbasbasbasbasbag49
(g65
g51
NtRp4308
(dp4309
g54
(dp4310
sg63
g3950
sg56
(lp4311
g49
(g70
g51
NtRp4312
(dp4313
g54
(dp4314
sg63
g4308
sg56
(lp4315
g49
(g50
g51
NtRp4316
(dp4317
g54
(dp4318
g62
I2
ssg63
g4312
sg56
(lp4319
g49
(g58
g51
NtRp4320
(dp4321
g54
(dp4322
g62
I1
ssg63
Nsg56
(lp4323
g49
(g65
g51
NtRp4324
(dp4325
g54
(dp4326
sg63
g4320
sg56
(lp4327
g49
(g70
g51
NtRp4328
(dp4329
g54
(dp4330
sg63
g4324
sg56
(lp4331
g49
(g50
g51
NtRp4332
(dp4333
g54
(dp4334
g62
I1
ssg63
g4328
sg56
(lp4335
g3837
(S't\t\x00\x00\x00Community'
tRp4336
asbasbasbag49
(g65
g51
NtRp4337
(dp4338
g54
(dp4339
sg63
g4320
sg56
(lp4340
g49
(g70
g51
NtRp4341
(dp4342
g54
(dp4343
sg63
g4337
sg56
(lp4344
g49
(g50
g51
NtRp4345
(dp4346
g54
(dp4347
g62
I1
ssg63
g4341
sg56
(lp4348
I00
asbasbasbag49
(g65
g51
NtRp4349
(dp4350
g54
(dp4351
sg63
g4320
sg56
(lp4352
g49
(g70
g51
NtRp4353
(dp4354
g54
(dp4355
sg63
g4349
sg56
(lp4356
g49
(g50
g51
NtRp4357
(dp4358
g54
(dp4359
g62
I1
ssg63
g4353
sg56
(lp4360
Nasbasbasbag49
(g65
g51
NtRp4361
(dp4362
g54
(dp4363
sg63
g4320
sg56
(lp4364
g49
(g70
g51
NtRp4365
(dp4366
g54
(dp4367
sg63
g4361
sg56
(lp4368
g49
(g50
g51
NtRp4369
(dp4370
g54
(dp4371
g62
I1
ssg63
g4365
sg56
(lp4372
(lp4373
(g3837
(S't\x06\x00\x00\x00Groups'
tRp4374
I00
S'http://www.web2py.com/examples/default/usergroups'
p4375
tp4376
a(g3837
(S't\x07\x00\x00\x00Twitter'
tRp4377
I00
S'http://twitter.com/web2py'
p4378
tp4379
a(g3837
(S's\t\x00\x00\x00Live Chat'
tRp4380
I00
S'http://webchat.freenode.net/?channels=web2py'
p4381
tp4382
aasbasbasbasbasbasbasbag49
(g65
g51
NtRp4383
(dp4384
g54
(dp4385
sg63
g3950
sg56
(lp4386
g49
(g70
g51
NtRp4387
(dp4388
g54
(dp4389
sg63
g4383
sg56
(lp4390
g49
(g50
g51
NtRp4391
(dp4392
g54
(dp4393
g62
I2
ssg63
g4387
sg56
(lp4394
g49
(g58
g51
NtRp4395
(dp4396
g54
(dp4397
g62
I1
ssg63
Nsg56
(lp4398
g49
(g65
g51
NtRp4399
(dp4400
g54
(dp4401
sg63
g4395
sg56
(lp4402
g49
(g70
g51
NtRp4403
(dp4404
g54
(dp4405
sg63
g4399
sg56
(lp4406
g49
(g50
g51
NtRp4407
(dp4408
g54
(dp4409
g62
I1
ssg63
g4403
sg56
(lp4410
g3837
(S't\x07\x00\x00\x00Plugins'
tRp4411
asbasbasbag49
(g65
g51
NtRp4412
(dp4413
g54
(dp4414
sg63
g4395
sg56
(lp4415
g49
(g70
g51
NtRp4416
(dp4417
g54
(dp4418
sg63
g4412
sg56
(lp4419
g49
(g50
g51
NtRp4420
(dp4421
g54
(dp4422
g62
I1
ssg63
g4416
sg56
(lp4423
I00
asbasbasbag49
(g65
g51
NtRp4424
(dp4425
g54
(dp4426
sg63
g4395
sg56
(lp4427
g49
(g70
g51
NtRp4428
(dp4429
g54
(dp4430
sg63
g4424
sg56
(lp4431
g49
(g50
g51
NtRp4432
(dp4433
g54
(dp4434
g62
I1
ssg63
g4428
sg56
(lp4435
Nasbasbasbag49
(g65
g51
NtRp4436
(dp4437
g54
(dp4438
sg63
g4395
sg56
(lp4439
g49
(g70
g51
NtRp4440
(dp4441
g54
(dp4442
sg63
g4436
sg56
(lp4443
g49
(g50
g51
NtRp4444
(dp4445
g54
(dp4446
g62
I1
ssg63
g4440
sg56
(lp4447
(lp4448
(S'plugin_wiki'
p4449
I00
S'http://web2py.com/examples/default/download'
p4450
tp4451
a(g3837
(S's\r\x00\x00\x00Other Plugins'
tRp4452
I00
g4182
tp4453
a(g3837
(S's\x0e\x00\x00\x00Layout Plugins'
tRp4454
I00
g4185
tp4455
aasbasbasbasbasbasbasbasbasbasbasbasbasbasbasbasbasbasbasbag49
(g65
g51
NtRp4456
(dp4457
g54
(dp4458
sg63
g3322
sg56
(lp4459
g49
(g70
g51
NtRp4460
(dp4461
g54
(dp4462
g74
g75
ssg63
g4456
sg56
(lp4463
S'meta'
p4464
asbag49
(g70
g51
NtRp4465
(dp4466
g54
(dp4467
g81
g82
ssg63
g4456
sg56
(lp4468
S':'
asbag49
(g70
g51
NtRp4469
(dp4470
g54
(dp4471
sg63
g4456
sg56
(lp4472
g49
(g50
g51
NtRp4473
(dp4474
g54
(dp4475
g62
I5
ssg63
g4469
sg56
(lp4476
g49
(g58
g51
NtRp4477
(dp4478
g54
(dp4479
g62
I4
ssg63
Nsg56
(lp4480
g49
(g65
g51
NtRp4481
(dp4482
g54
(dp4483
sg63
g4477
sg56
(lp4484
g49
(g70
g51
NtRp4485
(dp4486
g54
(dp4487
g74
g75
ssg63
g4481
sg56
(lp4488
S'author'
p4489
asbag49
(g70
g51
NtRp4490
(dp4491
g54
(dp4492
g81
g82
ssg63
g4481
sg56
(lp4493
S':'
asbag49
(g70
g51
NtRp4494
(dp4495
g54
(dp4496
sg63
g4481
sg56
(lp4497
g49
(g50
g51
NtRp4498
(dp4499
g54
(dp4500
g62
I4
ssg63
g4494
sg56
(lp4501
S'Your Name <you@example.com>'
p4502
asbasbasbag49
(g65
g51
NtRp4503
(dp4504
g54
(dp4505
sg63
g4477
sg56
(lp4506
g49
(g70
g51
NtRp4507
(dp4508
g54
(dp4509
g74
g75
ssg63
g4503
sg56
(lp4510
S'description'
p4511
asbag49
(g70
g51
NtRp4512
(dp4513
g54
(dp4514
g81
g82
ssg63
g4503
sg56
(lp4515
S':'
asbag49
(g70
g51
NtRp4516
(dp4517
g54
(dp4518
sg63
g4503
sg56
(lp4519
g49
(g50
g51
NtRp4520
(dp4521
g54
(dp4522
g62
I4
ssg63
g4516
sg56
(lp4523
S'a cool new app'
p4524
asbasbasbag49
(g65
g51
NtRp4525
(dp4526
g54
(dp4527
sg63
g4477
sg56
(lp4528
g49
(g70
g51
NtRp4529
(dp4530
g54
(dp4531
g74
g75
ssg63
g4525
sg56
(lp4532
S'generator'
p4533
asbag49
(g70
g51
NtRp4534
(dp4535
g54
(dp4536
g81
g82
ssg63
g4525
sg56
(lp4537
S':'
asbag49
(g70
g51
NtRp4538
(dp4539
g54
(dp4540
sg63
g4525
sg56
(lp4541
g49
(g50
g51
NtRp4542
(dp4543
g54
(dp4544
g62
I4
ssg63
g4538
sg56
(lp4545
S'Web2py Web Framework'
p4546
asbasbasbag49
(g65
g51
NtRp4547
(dp4548
g54
(dp4549
sg63
g4477
sg56
(lp4550
g49
(g70
g51
NtRp4551
(dp4552
g54
(dp4553
g74
g75
ssg63
g4547
sg56
(lp4554
S'keywords'
p4555
asbag49
(g70
g51
NtRp4556
(dp4557
g54
(dp4558
g81
g82
ssg63
g4547
sg56
(lp4559
S':'
asbag49
(g70
g51
NtRp4560
(dp4561
g54
(dp4562
sg63
g4547
sg56
(lp4563
g49
(g50
g51
NtRp4564
(dp4565
g54
(dp4566
g62
I4
ssg63
g4560
sg56
(lp4567
S'web2py, python, framework'
p4568
asbasbasbasbasbasbasbag49
(g65
g51
NtRp4569
(dp4570
g54
(dp4571
sg63
g3322
sg56
(lp4572
g49
(g70
g51
NtRp4573
(dp4574
g54
(dp4575
g74
g75
ssg63
g4569
sg56
(lp4576
S'models_to_run'
p4577
asbag49
(g70
g51
NtRp4578
(dp4579
g54
(dp4580
g81
g82
ssg63
g4569
sg56
(lp4581
S':'
asbag49
(g70
g51
NtRp4582
(dp4583
g54
(dp4584
sg63
g4569
sg56
(lp4585
g49
(g50
g51
NtRp4586
(dp4587
g54
(dp4588
g62
I5
ssg63
g4582
sg56
(lp4589
g49
(g58
g51
NtRp4590
(dp4591
g54
(dp4592
g62
I4
ssg63
Nsg56
(lp4593
g49
(g65
g51
NtRp4594
(dp4595
g54
(dp4596
sg63
g4590
sg56
(lp4597
g49
(g70
g51
NtRp4598
(dp4599
g54
(dp4600
sg63
g4594
sg56
(lp4601
g49
(g50
g51
NtRp4602
(dp4603
g54
(dp4604
g62
I4
ssg63
g4598
sg56
(lp4605
S'^\\w+\\.py$'
p4606
asbasbasbag49
(g65
g51
NtRp4607
(dp4608
g54
(dp4609
sg63
g4590
sg56
(lp4610
g49
(g70
g51
NtRp4611
(dp4612
g54
(dp4613
sg63
g4607
sg56
(lp4614
g49
(g50
g51
NtRp4615
(dp4616
g54
(dp4617
g62
I4
ssg63
g4611
sg56
(lp4618
S'^game/\\w+\\.py$'
p4619
asbasbasbag49
(g65
g51
NtRp4620
(dp4621
g54
(dp4622
sg63
g4590
sg56
(lp4623
g49
(g70
g51
NtRp4624
(dp4625
g54
(dp4626
sg63
g4620
sg56
(lp4627
g49
(g50
g51
NtRp4628
(dp4629
g54
(dp4630
g62
I4
ssg63
g4624
sg56
(lp4631
S'^game/show/\\w+\\.py$'
p4632
asbasbasbasbasbasbasbag49
(g65
g51
NtRp4633
(dp4634
g54
(dp4635
sg63
g3322
sg56
(lp4636
g49
(g70
g51
NtRp4637
(dp4638
g54
(dp4639
g74
g75
ssg63
g4633
sg56
(lp4640
S'postprocessing'
p4641
asbag49
(g70
g51
NtRp4642
(dp4643
g54
(dp4644
g81
g82
ssg63
g4633
sg56
(lp4645
S':'
asbag49
(g70
g51
NtRp4646
(dp4647
g54
(dp4648
sg63
g4633
sg56
(lp4649
g49
(g50
g51
NtRp4650
(dp4651
g54
(dp4652
g62
I5
ssg63
g4646
sg56
(lp4653
g49
(g58
g51
NtRp4654
(dp4655
g54
(dp4656
g62
I4
ssg63
Nsg56
(lp4657
sbasbasbasbag49
(g65
g51
NtRp4658
(dp4659
g54
(dp4660
sg63
g3322
sg56
(lp4661
g49
(g70
g51
NtRp4662
(dp4663
g54
(dp4664
g74
g75
ssg63
g4658
sg56
(lp4665
S'session_cookie_expires'
p4666
asbag49
(g70
g51
NtRp4667
(dp4668
g54
(dp4669
g81
g82
ssg63
g4658
sg56
(lp4670
S':'
asbag49
(g70
g51
NtRp4671
(dp4672
g54
(dp4673
sg63
g4658
sg56
(lp4674
g49
(g50
g51
NtRp4675
(dp4676
g54
(dp4677
g62
I5
ssg63
g4671
sg56
(lp4678
S'None'
p4679
asbasbasbag49
(g65
g51
NtRp4680
(dp4681
g54
(dp4682
sg63
g3322
sg56
(lp4683
g49
(g70
g51
NtRp4684
(dp4685
g54
(dp4686
g74
g75
ssg63
g4680
sg56
(lp4687
S'session_data_name'
p4688
asbag49
(g70
g51
NtRp4689
(dp4690
g54
(dp4691
g81
g82
ssg63
g4680
sg56
(lp4692
S':'
asbag49
(g70
g51
NtRp4693
(dp4694
g54
(dp4695
sg63
g4680
sg56
(lp4696
g49
(g50
g51
NtRp4697
(dp4698
g54
(dp4699
g62
I5
ssg63
g4693
sg56
(lp4700
S'session_data_hellow'
p4701
asbasbasbag49
(g65
g51
NtRp4702
(dp4703
g54
(dp4704
sg63
g3322
sg56
(lp4705
g49
(g70
g51
NtRp4706
(dp4707
g54
(dp4708
g74
g75
ssg63
g4702
sg56
(lp4709
S'session_file'
p4710
asbag49
(g70
g51
NtRp4711
(dp4712
g54
(dp4713
g81
g82
ssg63
g4702
sg56
(lp4714
S':'
asbag49
(g70
g51
NtRp4715
(dp4716
g54
(dp4717
sg63
g4702
sg56
(lp4718
g49
(g50
g51
NtRp4719
(dp4720
g54
(dp4721
g62
I5
ssg63
g4715
sg56
(lp4722
S"<open file '/Users/zamechek/Downloads/web2py/web2py.app/Contents/Resources/applications/hellow/sessions/127.0.0.1-bbea59f2-333e-4593-a45c-2c44a5133d77', mode 'rb+' at 0x95e3188>"
p4723
asbasbasbag49
(g65
g51
NtRp4724
(dp4725
g54
(dp4726
sg63
g3322
sg56
(lp4727
g49
(g70
g51
NtRp4728
(dp4729
g54
(dp4730
g74
g75
ssg63
g4724
sg56
(lp4731
S'session_filename'
p4732
asbag49
(g70
g51
NtRp4733
(dp4734
g54
(dp4735
g81
g82
ssg63
g4724
sg56
(lp4736
S':'
asbag49
(g70
g51
NtRp4737
(dp4738
g54
(dp4739
sg63
g4724
sg56
(lp4740
g49
(g50
g51
NtRp4741
(dp4742
g54
(dp4743
g62
I5
ssg63
g4737
sg56
(lp4744
S'/Users/zamechek/Downloads/web2py/web2py.app/Contents/Resources/applications/hellow/sessions/127.0.0.1-bbea59f2-333e-4593-a45c-2c44a5133d77'
p4745
asbasbasbag49
(g65
g51
NtRp4746
(dp4747
g54
(dp4748
sg63
g3322
sg56
(lp4749
g49
(g70
g51
NtRp4750
(dp4751
g54
(dp4752
g74
g75
ssg63
g4746
sg56
(lp4753
S'session_id'
p4754
asbag49
(g70
g51
NtRp4755
(dp4756
g54
(dp4757
g81
g82
ssg63
g4746
sg56
(lp4758
S':'
asbag49
(g70
g51
NtRp4759
(dp4760
g54
(dp4761
sg63
g4746
sg56
(lp4762
g49
(g50
g51
NtRp4763
(dp4764
g54
(dp4765
g62
I5
ssg63
g4759
sg56
(lp4766
g458
asbasbasbag49
(g65
g51
NtRp4767
(dp4768
g54
(dp4769
sg63
g3322
sg56
(lp4770
g49
(g70
g51
NtRp4771
(dp4772
g54
(dp4773
g74
g75
ssg63
g4767
sg56
(lp4774
S'session_id_name'
p4775
asbag49
(g70
g51
NtRp4776
(dp4777
g54
(dp4778
g81
g82
ssg63
g4767
sg56
(lp4779
S':'
asbag49
(g70
g51
NtRp4780
(dp4781
g54
(dp4782
sg63
g4767
sg56
(lp4783
g49
(g50
g51
NtRp4784
(dp4785
g54
(dp4786
g62
I5
ssg63
g4780
sg56
(lp4787
g3379
asbasbasbag49
(g65
g51
NtRp4788
(dp4789
g54
(dp4790
sg63
g3322
sg56
(lp4791
g49
(g70
g51
NtRp4792
(dp4793
g54
(dp4794
g74
g75
ssg63
g4788
sg56
(lp4795
S'session_locked'
p4796
asbag49
(g70
g51
NtRp4797
(dp4798
g54
(dp4799
g81
g82
ssg63
g4788
sg56
(lp4800
S':'
asbag49
(g70
g51
NtRp4801
(dp4802
g54
(dp4803
sg63
g4788
sg56
(lp4804
g49
(g50
g51
NtRp4805
(dp4806
g54
(dp4807
g62
I5
ssg63
g4801
sg56
(lp4808
g928
asbasbasbag49
(g65
g51
NtRp4809
(dp4810
g54
(dp4811
sg63
g3322
sg56
(lp4812
g49
(g70
g51
NtRp4813
(dp4814
g54
(dp4815
g74
g75
ssg63
g4809
sg56
(lp4816
S'session_new'
p4817
asbag49
(g70
g51
NtRp4818
(dp4819
g54
(dp4820
g81
g82
ssg63
g4809
sg56
(lp4821
S':'
asbag49
(g70
g51
NtRp4822
(dp4823
g54
(dp4824
sg63
g4809
sg56
(lp4825
g49
(g50
g51
NtRp4826
(dp4827
g54
(dp4828
g62
I5
ssg63
g4822
sg56
(lp4829
g92
asbasbasbag49
(g65
g51
NtRp4830
(dp4831
g54
(dp4832
sg63
g3322
sg56
(lp4833
g49
(g70
g51
NtRp4834
(dp4835
g54
(dp4836
g74
g75
ssg63
g4830
sg56
(lp4837
S'session_storage_type'
p4838
asbag49
(g70
g51
NtRp4839
(dp4840
g54
(dp4841
g81
g82
ssg63
g4830
sg56
(lp4842
S':'
asbag49
(g70
g51
NtRp4843
(dp4844
g54
(dp4845
sg63
g4830
sg56
(lp4846
g49
(g50
g51
NtRp4847
(dp4848
g54
(dp4849
g62
I5
ssg63
g4843
sg56
(lp4850
g3186
asbasbasbag49
(g65
g51
NtRp4851
(dp4852
g54
(dp4853
sg63
g3322
sg56
(lp4854
g49
(g70
g51
NtRp4855
(dp4856
g54
(dp4857
g74
g75
ssg63
g4851
sg56
(lp4858
S'status'
p4859
asbag49
(g70
g51
NtRp4860
(dp4861
g54
(dp4862
g81
g82
ssg63
g4851
sg56
(lp4863
S':'
asbag49
(g70
g51
NtRp4864
(dp4865
g54
(dp4866
sg63
g4851
sg56
(lp4867
g49
(g50
g51
NtRp4868
(dp4869
g54
(dp4870
g62
I5
ssg63
g4864
sg56
(lp4871
S'200'
p4872
asbasbasbag49
(g65
g51
NtRp4873
(dp4874
g54
(dp4875
sg63
g3322
sg56
(lp4876
g49
(g70
g51
NtRp4877
(dp4878
g54
(dp4879
g74
g75
ssg63
g4873
sg56
(lp4880
S'subtitle'
p4881
asbag49
(g70
g51
NtRp4882
(dp4883
g54
(dp4884
g81
g82
ssg63
g4873
sg56
(lp4885
S':'
asbag49
(g70
g51
NtRp4886
(dp4887
g54
(dp4888
sg63
g4873
sg56
(lp4889
g49
(g50
g51
NtRp4890
(dp4891
g54
(dp4892
g62
I5
ssg63
g4886
sg56
(lp4893
g3837
(S's\r\x00\x00\x00customize me!'
tRp4894
asbasbasbag49
(g65
g51
NtRp4895
(dp4896
g54
(dp4897
sg63
g3322
sg56
(lp4898
g49
(g70
g51
NtRp4899
(dp4900
g54
(dp4901
g74
g75
ssg63
g4895
sg56
(lp4902
S'title'
p4903
asbag49
(g70
g51
NtRp4904
(dp4905
g54
(dp4906
g81
g82
ssg63
g4895
sg56
(lp4907
S':'
asbag49
(g70
g51
NtRp4908
(dp4909
g54
(dp4910
sg63
g4895
sg56
(lp4911
g49
(g50
g51
NtRp4912
(dp4913
g54
(dp4914
g62
I5
ssg63
g4908
sg56
(lp4915
S'Hellow'
p4916
asbasbasbag49
(g65
g51
NtRp4917
(dp4918
g54
(dp4919
sg63
g3322
sg56
(lp4920
g49
(g70
g51
NtRp4921
(dp4922
g54
(dp4923
g74
g75
ssg63
g4917
sg56
(lp4924
S'view'
p4925
asbag49
(g70
g51
NtRp4926
(dp4927
g54
(dp4928
g81
g82
ssg63
g4917
sg56
(lp4929
S':'
asbag49
(g70
g51
NtRp4930
(dp4931
g54
(dp4932
sg63
g4917
sg56
(lp4933
g49
(g50
g51
NtRp4934
(dp4935
g54
(dp4936
g62
I5
ssg63
g4930
sg56
(lp4937
S'game/show.html'
p4938
asbasbasbasbasbsS'locals'
p4939
(dp4940
S'i'
S'0'
sS'arr'
p4941
S'[]'
p4942
sS'rows'
p4943
S'<Rows (3)>'
p4944
sssS'traceback'
p4945
S'Traceback (most recent call last):\n  File "/home/mdipierro/web2py/gluon/restricted.py", line 212, in restricted\n  File "/Users/zamechek/Downloads/web2py/web2py.app/Contents/Resources/applications/hellow/controllers/game.py", line 47, in <module>\n  File "/home/mdipierro/web2py/gluon/globals.py", line 193, in <lambda>\n  File "/Users/zamechek/Downloads/web2py/web2py.app/Contents/Resources/applications/hellow/controllers/game.py", line 14, in show\n  File "/Users/zamechek/Downloads/web2py/web2py.app/Contents/Resources/applications/hellow/controllers/game.py", line 32, in form_from_factory\n  File "/Users/zamechek/Downloads/web2py/web2py.app/Contents/Resources/applications/hellow/controllers/game.py", line 44, in makePrettyLables\nAttributeError: \'Row\' object has no attribute \'slot\'\n'
p4946
s.