(dp1
S'output'
p2
S"<type 'exceptions.TypeError'> can't pickle instancemethod objects"
p3
sS'layer'
p4
S'/Users/zamechek/Downloads/web2py/web2py.app/Contents/Resources/applications/admin/controllers/shell.py'
p5
sS'code'
p6
S"import sys\nimport cStringIO\nimport gluon.contrib.shell\nimport code\nimport thread\nfrom gluon.shell import env\n\nif DEMO_MODE or MULTI_USER_MODE:\n    session.flash = T('disabled in demo mode')\n    redirect(URL('default', 'site'))\n\nFE = 10 ** 9\n\n\ndef index():\n    app = request.args(0) or 'admin'\n    reset()\n    return dict(app=app)\n\n\ndef callback():\n    app = request.args[0]\n    command = request.vars.statement\n    escape = command[:1] != '!'\n    history = session['history:' + app] = session.get(\n        'history:' + app, gluon.contrib.shell.History())\n    if not escape:\n        command = command[1:]\n    if command == '%reset':\n        reset()\n        return '*** reset ***'\n    elif command[0] == '%':\n        try:\n            command = session['commands:' + app][int(command[1:])]\n        except ValueError:\n            return ''\n    session['commands:' + app].append(command)\n    environ = env(app, True, extra_request=dict(is_https=request.is_https))\n    output = gluon.contrib.shell.run(history, command, environ)\n    k = len(session['commands:' + app]) - 1\n    #output = PRE(output)\n    #return TABLE(TR('In[%i]:'%k,PRE(command)),TR('Out[%i]:'%k,output))\n    return 'In [%i] : %s%s\\n' % (k + 1, command, output)\n\n\ndef reset():\n    app = request.args(0) or 'admin'\n    session['commands:' + app] = []\n    session['history:' + app] = gluon.contrib.shell.History()\n    return 'done'\n\nresponse._vars=response._caller(callback)\n"
p7
sS'snapshot'
p8
(dp9
S'exception'
p10
(dp11
S'__hash__'
p12
S"<method-wrapper '__hash__' of exceptions.TypeError object at 0xa813da0>"
p13
sS'__setattr__'
p14
S"<method-wrapper '__setattr__' of exceptions.TypeError object at 0xa813da0>"
p15
sS'__reduce_ex__'
p16
S'<built-in method __reduce_ex__ of exceptions.TypeError object at 0xa813da0>'
p17
sS'__getslice__'
p18
S"<method-wrapper '__getslice__' of exceptions.TypeError object at 0xa813da0>"
p19
sS'__getitem__'
p20
S"<method-wrapper '__getitem__' of exceptions.TypeError object at 0xa813da0>"
p21
sS'__setstate__'
p22
S'<built-in method __setstate__ of exceptions.TypeError object at 0xa813da0>'
p23
sS'__reduce__'
p24
S'<built-in method __reduce__ of exceptions.TypeError object at 0xa813da0>'
p25
sS'__str__'
p26
S"<method-wrapper '__str__' of exceptions.TypeError object at 0xa813da0>"
p27
sS'args'
p28
S'("can\'t pickle instancemethod objects",)'
p29
sS'__getattribute__'
p30
S"<method-wrapper '__getattribute__' of exceptions.TypeError object at 0xa813da0>"
p31
sS'__class__'
p32
S"<type 'exceptions.TypeError'>"
p33
sS'__delattr__'
p34
S"<method-wrapper '__delattr__' of exceptions.TypeError object at 0xa813da0>"
p35
sS'__repr__'
p36
S"<method-wrapper '__repr__' of exceptions.TypeError object at 0xa813da0>"
p37
sS'__dict__'
p38
S'{}'
p39
sS'__doc__'
p40
S"'Inappropriate argument type.'"
p41
sS'__init__'
p42
S"<method-wrapper '__init__' of exceptions.TypeError object at 0xa813da0>"
p43
sS'__new__'
p44
S'<built-in method __new__ of type object at 0x5fa140>'
p45
ssS'evalue'
p46
S"can't pickle instancemethod objects"
p47
sS'request'
p48
ccopy_reg
_reconstructor
p49
(cgluon.html
BEAUTIFY
p50
c__builtin__
object
p51
NtRp52
(dp53
S'attributes'
p54
(dp55
sS'components'
p56
(lp57
g49
(cgluon.html
TABLE
p58
g51
NtRp59
(dp60
g54
(dp61
S'level'
p62
I5
ssS'parent'
p63
Nsg56
(lp64
g49
(cgluon.html
TR
p65
g51
NtRp66
(dp67
g54
(dp68
sg63
g59
sg56
(lp69
g49
(cgluon.html
TD
p70
g51
NtRp71
(dp72
g54
(dp73
S'_style'
p74
S'font-weight:bold;vertical-align:top'
p75
ssg63
g66
sg56
(lp76
S'ajax'
p77
asbag49
(g70
g51
NtRp78
(dp79
g54
(dp80
S'_valign'
p81
S'top'
p82
ssg63
g66
sg56
(lp83
S':'
asbag49
(g70
g51
NtRp84
(dp85
g54
(dp86
sg63
g66
sg56
(lp87
g49
(g50
g51
NtRp88
(dp89
g54
(dp90
g62
I5
ssg63
g84
sg56
(lp91
S'True'
p92
asbasbasbag49
(g65
g51
NtRp93
(dp94
g54
(dp95
sg63
g59
sg56
(lp96
g49
(g70
g51
NtRp97
(dp98
g54
(dp99
g74
g75
ssg63
g93
sg56
(lp100
S'application'
p101
asbag49
(g70
g51
NtRp102
(dp103
g54
(dp104
g81
g82
ssg63
g93
sg56
(lp105
S':'
asbag49
(g70
g51
NtRp106
(dp107
g54
(dp108
sg63
g93
sg56
(lp109
g49
(g50
g51
NtRp110
(dp111
g54
(dp112
g62
I5
ssg63
g106
sg56
(lp113
S'admin'
p114
asbasbasbag49
(g65
g51
NtRp115
(dp116
g54
(dp117
sg63
g59
sg56
(lp118
g49
(g70
g51
NtRp119
(dp120
g54
(dp121
g74
g75
ssg63
g115
sg56
(lp122
g28
asbag49
(g70
g51
NtRp123
(dp124
g54
(dp125
g81
g82
ssg63
g115
sg56
(lp126
S':'
asbag49
(g70
g51
NtRp127
(dp128
g54
(dp129
sg63
g115
sg56
(lp130
g49
(g50
g51
NtRp131
(dp132
g54
(dp133
g62
I5
ssg63
g127
sg56
(lp134
g49
(g58
g51
NtRp135
(dp136
g54
(dp137
g62
I4
ssg63
Nsg56
(lp138
g49
(g65
g51
NtRp139
(dp140
g54
(dp141
sg63
g135
sg56
(lp142
g49
(g70
g51
NtRp143
(dp144
g54
(dp145
sg63
g139
sg56
(lp146
g49
(g50
g51
NtRp147
(dp148
g54
(dp149
g62
I4
ssg63
g143
sg56
(lp150
S'hellow'
p151
asbasbasbasbasbasbasbag49
(g65
g51
NtRp152
(dp153
g54
(dp154
sg63
g59
sg56
(lp155
g49
(g70
g51
NtRp156
(dp157
g54
(dp158
g74
g75
ssg63
g152
sg56
(lp159
S'body'
p160
asbag49
(g70
g51
NtRp161
(dp162
g54
(dp163
g81
g82
ssg63
g152
sg56
(lp164
S':'
asbag49
(g70
g51
NtRp165
(dp166
g54
(dp167
sg63
g152
sg56
(lp168
g49
(g50
g51
NtRp169
(dp170
g54
(dp171
g62
I5
ssg63
g165
sg56
(lp172
S"<open file '<fdopen>', mode 'w+b' at 0xa27f4e8>"
p173
asbasbasbag49
(g65
g51
NtRp174
(dp175
g54
(dp176
sg63
g59
sg56
(lp177
g49
(g70
g51
NtRp178
(dp179
g54
(dp180
g74
g75
ssg63
g174
sg56
(lp181
S'cid'
p182
asbag49
(g70
g51
NtRp183
(dp184
g54
(dp185
g81
g82
ssg63
g174
sg56
(lp186
S':'
asbag49
(g70
g51
NtRp187
(dp188
g54
(dp189
sg63
g174
sg56
(lp190
g49
(g50
g51
NtRp191
(dp192
g54
(dp193
g62
I5
ssg63
g187
sg56
(lp194
S'None'
p195
asbasbasbag49
(g65
g51
NtRp196
(dp197
g54
(dp198
sg63
g59
sg56
(lp199
g49
(g70
g51
NtRp200
(dp201
g54
(dp202
g74
g75
ssg63
g196
sg56
(lp203
S'client'
p204
asbag49
(g70
g51
NtRp205
(dp206
g54
(dp207
g81
g82
ssg63
g196
sg56
(lp208
S':'
asbag49
(g70
g51
NtRp209
(dp210
g54
(dp211
sg63
g196
sg56
(lp212
g49
(g50
g51
NtRp213
(dp214
g54
(dp215
g62
I5
ssg63
g209
sg56
(lp216
S'127.0.0.1'
p217
asbasbasbag49
(g65
g51
NtRp218
(dp219
g54
(dp220
sg63
g59
sg56
(lp221
g49
(g70
g51
NtRp222
(dp223
g54
(dp224
g74
g75
ssg63
g218
sg56
(lp225
S'controller'
p226
asbag49
(g70
g51
NtRp227
(dp228
g54
(dp229
g81
g82
ssg63
g218
sg56
(lp230
S':'
asbag49
(g70
g51
NtRp231
(dp232
g54
(dp233
sg63
g218
sg56
(lp234
g49
(g50
g51
NtRp235
(dp236
g54
(dp237
g62
I5
ssg63
g231
sg56
(lp238
S'shell'
p239
asbasbasbag49
(g65
g51
NtRp240
(dp241
g54
(dp242
sg63
g59
sg56
(lp243
g49
(g70
g51
NtRp244
(dp245
g54
(dp246
g74
g75
ssg63
g240
sg56
(lp247
S'cookies'
p248
asbag49
(g70
g51
NtRp249
(dp250
g54
(dp251
g81
g82
ssg63
g240
sg56
(lp252
S':'
asbag49
(g70
g51
NtRp253
(dp254
g54
(dp255
sg63
g240
sg56
(lp256
g49
(g50
g51
NtRp257
(dp258
g54
(dp259
g62
I5
ssg63
g253
sg56
(lp260
g49
(g58
g51
NtRp261
(dp262
g54
(dp263
g62
I4
ssg63
Nsg56
(lp264
g49
(g65
g51
NtRp265
(dp266
g54
(dp267
sg63
g261
sg56
(lp268
g49
(g70
g51
NtRp269
(dp270
g54
(dp271
g74
g75
ssg63
g265
sg56
(lp272
S'session_id_admin'
p273
asbag49
(g70
g51
NtRp274
(dp275
g54
(dp276
g81
g82
ssg63
g265
sg56
(lp277
S':'
asbag49
(g70
g51
NtRp278
(dp279
g54
(dp280
sg63
g265
sg56
(lp281
g49
(g50
g51
NtRp282
(dp283
g54
(dp284
g62
I4
ssg63
g278
sg56
(lp285
S'127.0.0.1-bf448199-cadc-41e3-b1a7-bed302e89a3e'
p286
ag49
(g58
g51
NtRp287
(dp288
g54
(dp289
g62
I3
ssg63
Nsg56
(lp290
g49
(g65
g51
NtRp291
(dp292
g54
(dp293
sg63
g287
sg56
(lp294
g49
(g70
g51
NtRp295
(dp296
g54
(dp297
g74
g75
ssg63
g291
sg56
(lp298
S'comment'
p299
asbag49
(g70
g51
NtRp300
(dp301
g54
(dp302
g81
g82
ssg63
g291
sg56
(lp303
S':'
asbag49
(g70
g51
NtRp304
(dp305
g54
(dp306
sg63
g291
sg56
(lp307
g49
(g50
g51
NtRp308
(dp309
g54
(dp310
g62
I3
ssg63
g304
sg56
(lp311
S''
asbasbasbag49
(g65
g51
NtRp312
(dp313
g54
(dp314
sg63
g287
sg56
(lp315
g49
(g70
g51
NtRp316
(dp317
g54
(dp318
g74
g75
ssg63
g312
sg56
(lp319
S'domain'
p320
asbag49
(g70
g51
NtRp321
(dp322
g54
(dp323
g81
g82
ssg63
g312
sg56
(lp324
S':'
asbag49
(g70
g51
NtRp325
(dp326
g54
(dp327
sg63
g312
sg56
(lp328
g49
(g50
g51
NtRp329
(dp330
g54
(dp331
g62
I3
ssg63
g325
sg56
(lp332
S''
asbasbasbag49
(g65
g51
NtRp333
(dp334
g54
(dp335
sg63
g287
sg56
(lp336
g49
(g70
g51
NtRp337
(dp338
g54
(dp339
g74
g75
ssg63
g333
sg56
(lp340
S'expires'
p341
asbag49
(g70
g51
NtRp342
(dp343
g54
(dp344
g81
g82
ssg63
g333
sg56
(lp345
S':'
asbag49
(g70
g51
NtRp346
(dp347
g54
(dp348
sg63
g333
sg56
(lp349
g49
(g50
g51
NtRp350
(dp351
g54
(dp352
g62
I3
ssg63
g346
sg56
(lp353
S''
asbasbasbag49
(g65
g51
NtRp354
(dp355
g54
(dp356
sg63
g287
sg56
(lp357
g49
(g70
g51
NtRp358
(dp359
g54
(dp360
g74
g75
ssg63
g354
sg56
(lp361
S'max-age'
p362
asbag49
(g70
g51
NtRp363
(dp364
g54
(dp365
g81
g82
ssg63
g354
sg56
(lp366
S':'
asbag49
(g70
g51
NtRp367
(dp368
g54
(dp369
sg63
g354
sg56
(lp370
g49
(g50
g51
NtRp371
(dp372
g54
(dp373
g62
I3
ssg63
g367
sg56
(lp374
S''
asbasbasbag49
(g65
g51
NtRp375
(dp376
g54
(dp377
sg63
g287
sg56
(lp378
g49
(g70
g51
NtRp379
(dp380
g54
(dp381
g74
g75
ssg63
g375
sg56
(lp382
S'path'
p383
asbag49
(g70
g51
NtRp384
(dp385
g54
(dp386
g81
g82
ssg63
g375
sg56
(lp387
S':'
asbag49
(g70
g51
NtRp388
(dp389
g54
(dp390
sg63
g375
sg56
(lp391
g49
(g50
g51
NtRp392
(dp393
g54
(dp394
g62
I3
ssg63
g388
sg56
(lp395
S''
asbasbasbag49
(g65
g51
NtRp396
(dp397
g54
(dp398
sg63
g287
sg56
(lp399
g49
(g70
g51
NtRp400
(dp401
g54
(dp402
g74
g75
ssg63
g396
sg56
(lp403
S'secure'
p404
asbag49
(g70
g51
NtRp405
(dp406
g54
(dp407
g81
g82
ssg63
g396
sg56
(lp408
S':'
asbag49
(g70
g51
NtRp409
(dp410
g54
(dp411
sg63
g396
sg56
(lp412
g49
(g50
g51
NtRp413
(dp414
g54
(dp415
g62
I3
ssg63
g409
sg56
(lp416
S''
asbasbasbag49
(g65
g51
NtRp417
(dp418
g54
(dp419
sg63
g287
sg56
(lp420
g49
(g70
g51
NtRp421
(dp422
g54
(dp423
g74
g75
ssg63
g417
sg56
(lp424
S'version'
p425
asbag49
(g70
g51
NtRp426
(dp427
g54
(dp428
g81
g82
ssg63
g417
sg56
(lp429
S':'
asbag49
(g70
g51
NtRp430
(dp431
g54
(dp432
sg63
g417
sg56
(lp433
g49
(g50
g51
NtRp434
(dp435
g54
(dp436
g62
I3
ssg63
g430
sg56
(lp437
S''
asbasbasbasbasbasbasbag49
(g65
g51
NtRp438
(dp439
g54
(dp440
sg63
g261
sg56
(lp441
g49
(g70
g51
NtRp442
(dp443
g54
(dp444
g74
g75
ssg63
g438
sg56
(lp445
S'session_id_hellow'
p446
asbag49
(g70
g51
NtRp447
(dp448
g54
(dp449
g81
g82
ssg63
g438
sg56
(lp450
S':'
asbag49
(g70
g51
NtRp451
(dp452
g54
(dp453
sg63
g438
sg56
(lp454
g49
(g50
g51
NtRp455
(dp456
g54
(dp457
g62
I4
ssg63
g451
sg56
(lp458
S'127.0.0.1-bbea59f2-333e-4593-a45c-2c44a5133d77'
p459
ag49
(g58
g51
NtRp460
(dp461
g54
(dp462
g62
I3
ssg63
Nsg56
(lp463
g49
(g65
g51
NtRp464
(dp465
g54
(dp466
sg63
g460
sg56
(lp467
g49
(g70
g51
NtRp468
(dp469
g54
(dp470
g74
g75
ssg63
g464
sg56
(lp471
g299
asbag49
(g70
g51
NtRp472
(dp473
g54
(dp474
g81
g82
ssg63
g464
sg56
(lp475
S':'
asbag49
(g70
g51
NtRp476
(dp477
g54
(dp478
sg63
g464
sg56
(lp479
g49
(g50
g51
NtRp480
(dp481
g54
(dp482
g62
I3
ssg63
g476
sg56
(lp483
S''
asbasbasbag49
(g65
g51
NtRp484
(dp485
g54
(dp486
sg63
g460
sg56
(lp487
g49
(g70
g51
NtRp488
(dp489
g54
(dp490
g74
g75
ssg63
g484
sg56
(lp491
g320
asbag49
(g70
g51
NtRp492
(dp493
g54
(dp494
g81
g82
ssg63
g484
sg56
(lp495
S':'
asbag49
(g70
g51
NtRp496
(dp497
g54
(dp498
sg63
g484
sg56
(lp499
g49
(g50
g51
NtRp500
(dp501
g54
(dp502
g62
I3
ssg63
g496
sg56
(lp503
S''
asbasbasbag49
(g65
g51
NtRp504
(dp505
g54
(dp506
sg63
g460
sg56
(lp507
g49
(g70
g51
NtRp508
(dp509
g54
(dp510
g74
g75
ssg63
g504
sg56
(lp511
g341
asbag49
(g70
g51
NtRp512
(dp513
g54
(dp514
g81
g82
ssg63
g504
sg56
(lp515
S':'
asbag49
(g70
g51
NtRp516
(dp517
g54
(dp518
sg63
g504
sg56
(lp519
g49
(g50
g51
NtRp520
(dp521
g54
(dp522
g62
I3
ssg63
g516
sg56
(lp523
S''
asbasbasbag49
(g65
g51
NtRp524
(dp525
g54
(dp526
sg63
g460
sg56
(lp527
g49
(g70
g51
NtRp528
(dp529
g54
(dp530
g74
g75
ssg63
g524
sg56
(lp531
g362
asbag49
(g70
g51
NtRp532
(dp533
g54
(dp534
g81
g82
ssg63
g524
sg56
(lp535
S':'
asbag49
(g70
g51
NtRp536
(dp537
g54
(dp538
sg63
g524
sg56
(lp539
g49
(g50
g51
NtRp540
(dp541
g54
(dp542
g62
I3
ssg63
g536
sg56
(lp543
S''
asbasbasbag49
(g65
g51
NtRp544
(dp545
g54
(dp546
sg63
g460
sg56
(lp547
g49
(g70
g51
NtRp548
(dp549
g54
(dp550
g74
g75
ssg63
g544
sg56
(lp551
g383
asbag49
(g70
g51
NtRp552
(dp553
g54
(dp554
g81
g82
ssg63
g544
sg56
(lp555
S':'
asbag49
(g70
g51
NtRp556
(dp557
g54
(dp558
sg63
g544
sg56
(lp559
g49
(g50
g51
NtRp560
(dp561
g54
(dp562
g62
I3
ssg63
g556
sg56
(lp563
S''
asbasbasbag49
(g65
g51
NtRp564
(dp565
g54
(dp566
sg63
g460
sg56
(lp567
g49
(g70
g51
NtRp568
(dp569
g54
(dp570
g74
g75
ssg63
g564
sg56
(lp571
g404
asbag49
(g70
g51
NtRp572
(dp573
g54
(dp574
g81
g82
ssg63
g564
sg56
(lp575
S':'
asbag49
(g70
g51
NtRp576
(dp577
g54
(dp578
sg63
g564
sg56
(lp579
g49
(g50
g51
NtRp580
(dp581
g54
(dp582
g62
I3
ssg63
g576
sg56
(lp583
S''
asbasbasbag49
(g65
g51
NtRp584
(dp585
g54
(dp586
sg63
g460
sg56
(lp587
g49
(g70
g51
NtRp588
(dp589
g54
(dp590
g74
g75
ssg63
g584
sg56
(lp591
g425
asbag49
(g70
g51
NtRp592
(dp593
g54
(dp594
g81
g82
ssg63
g584
sg56
(lp595
S':'
asbag49
(g70
g51
NtRp596
(dp597
g54
(dp598
sg63
g584
sg56
(lp599
g49
(g50
g51
NtRp600
(dp601
g54
(dp602
g62
I3
ssg63
g596
sg56
(lp603
S''
asbasbasbasbasbasbasbag49
(g65
g51
NtRp604
(dp605
g54
(dp606
sg63
g261
sg56
(lp607
g49
(g70
g51
NtRp608
(dp609
g54
(dp610
g74
g75
ssg63
g604
sg56
(lp611
S'session_id_welcome'
p612
asbag49
(g70
g51
NtRp613
(dp614
g54
(dp615
g81
g82
ssg63
g604
sg56
(lp616
S':'
asbag49
(g70
g51
NtRp617
(dp618
g54
(dp619
sg63
g604
sg56
(lp620
g49
(g50
g51
NtRp621
(dp622
g54
(dp623
g62
I4
ssg63
g617
sg56
(lp624
S'127.0.0.1-dfebfa33-25aa-4072-bce4-08f7e89e2d04'
p625
ag49
(g58
g51
NtRp626
(dp627
g54
(dp628
g62
I3
ssg63
Nsg56
(lp629
g49
(g65
g51
NtRp630
(dp631
g54
(dp632
sg63
g626
sg56
(lp633
g49
(g70
g51
NtRp634
(dp635
g54
(dp636
g74
g75
ssg63
g630
sg56
(lp637
g299
asbag49
(g70
g51
NtRp638
(dp639
g54
(dp640
g81
g82
ssg63
g630
sg56
(lp641
S':'
asbag49
(g70
g51
NtRp642
(dp643
g54
(dp644
sg63
g630
sg56
(lp645
g49
(g50
g51
NtRp646
(dp647
g54
(dp648
g62
I3
ssg63
g642
sg56
(lp649
S''
asbasbasbag49
(g65
g51
NtRp650
(dp651
g54
(dp652
sg63
g626
sg56
(lp653
g49
(g70
g51
NtRp654
(dp655
g54
(dp656
g74
g75
ssg63
g650
sg56
(lp657
g320
asbag49
(g70
g51
NtRp658
(dp659
g54
(dp660
g81
g82
ssg63
g650
sg56
(lp661
S':'
asbag49
(g70
g51
NtRp662
(dp663
g54
(dp664
sg63
g650
sg56
(lp665
g49
(g50
g51
NtRp666
(dp667
g54
(dp668
g62
I3
ssg63
g662
sg56
(lp669
S''
asbasbasbag49
(g65
g51
NtRp670
(dp671
g54
(dp672
sg63
g626
sg56
(lp673
g49
(g70
g51
NtRp674
(dp675
g54
(dp676
g74
g75
ssg63
g670
sg56
(lp677
g341
asbag49
(g70
g51
NtRp678
(dp679
g54
(dp680
g81
g82
ssg63
g670
sg56
(lp681
S':'
asbag49
(g70
g51
NtRp682
(dp683
g54
(dp684
sg63
g670
sg56
(lp685
g49
(g50
g51
NtRp686
(dp687
g54
(dp688
g62
I3
ssg63
g682
sg56
(lp689
S''
asbasbasbag49
(g65
g51
NtRp690
(dp691
g54
(dp692
sg63
g626
sg56
(lp693
g49
(g70
g51
NtRp694
(dp695
g54
(dp696
g74
g75
ssg63
g690
sg56
(lp697
g362
asbag49
(g70
g51
NtRp698
(dp699
g54
(dp700
g81
g82
ssg63
g690
sg56
(lp701
S':'
asbag49
(g70
g51
NtRp702
(dp703
g54
(dp704
sg63
g690
sg56
(lp705
g49
(g50
g51
NtRp706
(dp707
g54
(dp708
g62
I3
ssg63
g702
sg56
(lp709
S''
asbasbasbag49
(g65
g51
NtRp710
(dp711
g54
(dp712
sg63
g626
sg56
(lp713
g49
(g70
g51
NtRp714
(dp715
g54
(dp716
g74
g75
ssg63
g710
sg56
(lp717
g383
asbag49
(g70
g51
NtRp718
(dp719
g54
(dp720
g81
g82
ssg63
g710
sg56
(lp721
S':'
asbag49
(g70
g51
NtRp722
(dp723
g54
(dp724
sg63
g710
sg56
(lp725
g49
(g50
g51
NtRp726
(dp727
g54
(dp728
g62
I3
ssg63
g722
sg56
(lp729
S''
asbasbasbag49
(g65
g51
NtRp730
(dp731
g54
(dp732
sg63
g626
sg56
(lp733
g49
(g70
g51
NtRp734
(dp735
g54
(dp736
g74
g75
ssg63
g730
sg56
(lp737
g404
asbag49
(g70
g51
NtRp738
(dp739
g54
(dp740
g81
g82
ssg63
g730
sg56
(lp741
S':'
asbag49
(g70
g51
NtRp742
(dp743
g54
(dp744
sg63
g730
sg56
(lp745
g49
(g50
g51
NtRp746
(dp747
g54
(dp748
g62
I3
ssg63
g742
sg56
(lp749
S''
asbasbasbag49
(g65
g51
NtRp750
(dp751
g54
(dp752
sg63
g626
sg56
(lp753
g49
(g70
g51
NtRp754
(dp755
g54
(dp756
g74
g75
ssg63
g750
sg56
(lp757
g425
asbag49
(g70
g51
NtRp758
(dp759
g54
(dp760
g81
g82
ssg63
g750
sg56
(lp761
S':'
asbag49
(g70
g51
NtRp762
(dp763
g54
(dp764
sg63
g750
sg56
(lp765
g49
(g50
g51
NtRp766
(dp767
g54
(dp768
g62
I3
ssg63
g762
sg56
(lp769
S''
asbasbasbasbasbasbasbasbasbasbasbag49
(g65
g51
NtRp770
(dp771
g54
(dp772
sg63
g59
sg56
(lp773
g49
(g70
g51
NtRp774
(dp775
g54
(dp776
g74
g75
ssg63
g770
sg56
(lp777
S'env'
p778
asbag49
(g70
g51
NtRp779
(dp780
g54
(dp781
g81
g82
ssg63
g770
sg56
(lp782
S':'
asbag49
(g70
g51
NtRp783
(dp784
g54
(dp785
sg63
g770
sg56
(lp786
g49
(g50
g51
NtRp787
(dp788
g54
(dp789
g62
I5
ssg63
g783
sg56
(lp790
g49
(g58
g51
NtRp791
(dp792
g54
(dp793
g62
I4
ssg63
Nsg56
(lp794
g49
(g65
g51
NtRp795
(dp796
g54
(dp797
sg63
g791
sg56
(lp798
g49
(g70
g51
NtRp799
(dp800
g54
(dp801
g74
g75
ssg63
g795
sg56
(lp802
S'app_folders'
p803
asbag49
(g70
g51
NtRp804
(dp805
g54
(dp806
g81
g82
ssg63
g795
sg56
(lp807
S':'
asbag49
(g70
g51
NtRp808
(dp809
g54
(dp810
sg63
g795
sg56
(lp811
g49
(g50
g51
NtRp812
(dp813
g54
(dp814
g62
I4
ssg63
g808
sg56
(lp815
S"set(['/Users/zamechek/Downloads/web2py/web2py.app/Contents/Resources/applications/examples/', '/Users/zamechek/Downloads/web2py/web2py.app/Contents/Resources/applications/hellow/', '/Users/zamechek/Downloads/web2py/web2py.app/Contents/Resources/applications/admin/', '/Users/zamechek/Downloads/web2py/web2py.app/Contents/Resources/applications/slots/', '/Users/zamechek/Downloads/web2py/web2py.app/Contents/Resources/applications/welcome/'])"
p816
asbasbasbag49
(g65
g51
NtRp817
(dp818
g54
(dp819
sg63
g791
sg56
(lp820
g49
(g70
g51
NtRp821
(dp822
g54
(dp823
g74
g75
ssg63
g817
sg56
(lp824
S'applications_parent'
p825
asbag49
(g70
g51
NtRp826
(dp827
g54
(dp828
g81
g82
ssg63
g817
sg56
(lp829
S':'
asbag49
(g70
g51
NtRp830
(dp831
g54
(dp832
sg63
g817
sg56
(lp833
g49
(g50
g51
NtRp834
(dp835
g54
(dp836
g62
I4
ssg63
g830
sg56
(lp837
S'/Users/zamechek/Downloads/web2py/web2py.app/Contents/Resources'
p838
asbasbasbag49
(g65
g51
NtRp839
(dp840
g54
(dp841
sg63
g791
sg56
(lp842
g49
(g70
g51
NtRp843
(dp844
g54
(dp845
g74
g75
ssg63
g839
sg56
(lp846
S'cmd_args'
p847
asbag49
(g70
g51
NtRp848
(dp849
g54
(dp850
g81
g82
ssg63
g839
sg56
(lp851
S':'
asbag49
(g70
g51
NtRp852
(dp853
g54
(dp854
sg63
g839
sg56
(lp855
g49
(g50
g51
NtRp856
(dp857
g54
(dp858
g62
I4
ssg63
g852
sg56
(lp859
g49
(g58
g51
NtRp860
(dp861
g54
(dp862
g62
I3
ssg63
Nsg56
(lp863
sbasbasbasbag49
(g65
g51
NtRp864
(dp865
g54
(dp866
sg63
g791
sg56
(lp867
g49
(g70
g51
NtRp868
(dp869
g54
(dp870
g74
g75
ssg63
g864
sg56
(lp871
S'cmd_options'
p872
asbag49
(g70
g51
NtRp873
(dp874
g54
(dp875
g81
g82
ssg63
g864
sg56
(lp876
S':'
asbag49
(g70
g51
NtRp877
(dp878
g54
(dp879
sg63
g864
sg56
(lp880
g49
(g50
g51
NtRp881
(dp882
g54
(dp883
g62
I4
ssg63
g877
sg56
(lp884
S"<Values at 0x32c8f58: {'verbose': False, 'ip': '127.0.0.1', 'with_scheduler': False, 'ips': ['130.91.151.157'], 'shutdown_timeout': 5, 'taskbar': False, 'port': 8000, 'maxthreads': None, 'softcron': False, 'server_name': 'hntvlan531.0924.wlan.wireless-pennnet.upenn.edu', 'bpython': False, 'nogui': False, 'pid_filename': 'httpserver.pid', 'extcron': False, 'runcron': False, 'run_system_tests': False, 'test': None, 'folder': '/Users/zamechek/Downloads/web2py/web2py.app/Contents/Resources', 'config': '', 'import_models': False, 'winservice': '', 'shell': None, 'run': '', 'log_filename': 'httpserver.log', 'debuglevel': 30, 'args': [''], 'socket_timeout': 5, 'ssl_ca_certificate': None, 'scheduler': None, 'profiler_filename': None, 'ssl_private_key': '', 'scheduler_groups': None, 'password': '<ask>', 'request_queue_size': 5, 'ssl_certificate': '', 'cronjob': False, 'numthreads': None, 'quiet': False, 'interfaces': None, 'minthreads': None, 'timeout': 10, 'plain': False, 'nobanner': False}>"
p885
asbasbasbag49
(g65
g51
NtRp886
(dp887
g54
(dp888
sg63
g791
sg56
(lp889
g49
(g70
g51
NtRp890
(dp891
g54
(dp892
g74
g75
ssg63
g886
sg56
(lp893
S'content_length'
p894
asbag49
(g70
g51
NtRp895
(dp896
g54
(dp897
g81
g82
ssg63
g886
sg56
(lp898
S':'
asbag49
(g70
g51
NtRp899
(dp900
g54
(dp901
sg63
g886
sg56
(lp902
g49
(g50
g51
NtRp903
(dp904
g54
(dp905
g62
I4
ssg63
g899
sg56
(lp906
S'30'
p907
asbasbasbag49
(g65
g51
NtRp908
(dp909
g54
(dp910
sg63
g791
sg56
(lp911
g49
(g70
g51
NtRp912
(dp913
g54
(dp914
g74
g75
ssg63
g908
sg56
(lp915
S'content_type'
p916
asbag49
(g70
g51
NtRp917
(dp918
g54
(dp919
g81
g82
ssg63
g908
sg56
(lp920
S':'
asbag49
(g70
g51
NtRp921
(dp922
g54
(dp923
sg63
g908
sg56
(lp924
g49
(g50
g51
NtRp925
(dp926
g54
(dp927
g62
I4
ssg63
g921
sg56
(lp928
S'application/x-www-form-urlencoded; charset=UTF-8'
p929
asbasbasbag49
(g65
g51
NtRp930
(dp931
g54
(dp932
sg63
g791
sg56
(lp933
g49
(g70
g51
NtRp934
(dp935
g54
(dp936
g74
g75
ssg63
g930
sg56
(lp937
S'db_sessions'
p938
asbag49
(g70
g51
NtRp939
(dp940
g54
(dp941
g81
g82
ssg63
g930
sg56
(lp942
S':'
asbag49
(g70
g51
NtRp943
(dp944
g54
(dp945
sg63
g930
sg56
(lp946
g49
(g50
g51
NtRp947
(dp948
g54
(dp949
g62
I4
ssg63
g943
sg56
(lp950
S'set([])'
p951
asbasbasbag49
(g65
g51
NtRp952
(dp953
g54
(dp954
sg63
g791
sg56
(lp955
g49
(g70
g51
NtRp956
(dp957
g54
(dp958
g74
g75
ssg63
g952
sg56
(lp959
S'debugging'
p960
asbag49
(g70
g51
NtRp961
(dp962
g54
(dp963
g81
g82
ssg63
g952
sg56
(lp964
S':'
asbag49
(g70
g51
NtRp965
(dp966
g54
(dp967
sg63
g952
sg56
(lp968
g49
(g50
g51
NtRp969
(dp970
g54
(dp971
g62
I4
ssg63
g965
sg56
(lp972
g92
asbasbasbag49
(g65
g51
NtRp973
(dp974
g54
(dp975
sg63
g791
sg56
(lp976
g49
(g70
g51
NtRp977
(dp978
g54
(dp979
g74
g75
ssg63
g973
sg56
(lp980
S'gluon_parent'
p981
asbag49
(g70
g51
NtRp982
(dp983
g54
(dp984
g81
g82
ssg63
g973
sg56
(lp985
S':'
asbag49
(g70
g51
NtRp986
(dp987
g54
(dp988
sg63
g973
sg56
(lp989
g49
(g50
g51
NtRp990
(dp991
g54
(dp992
g62
I4
ssg63
g986
sg56
(lp993
S'/Users/zamechek/Downloads/web2py/web2py.app/Contents/Resources'
p994
asbasbasbag49
(g65
g51
NtRp995
(dp996
g54
(dp997
sg63
g791
sg56
(lp998
g49
(g70
g51
NtRp999
(dp1000
g54
(dp1001
g74
g75
ssg63
g995
sg56
(lp1002
S'http_accept'
p1003
asbag49
(g70
g51
NtRp1004
(dp1005
g54
(dp1006
g81
g82
ssg63
g995
sg56
(lp1007
S':'
asbag49
(g70
g51
NtRp1008
(dp1009
g54
(dp1010
sg63
g995
sg56
(lp1011
g49
(g50
g51
NtRp1012
(dp1013
g54
(dp1014
g62
I4
ssg63
g1008
sg56
(lp1015
S'*/*'
p1016
asbasbasbag49
(g65
g51
NtRp1017
(dp1018
g54
(dp1019
sg63
g791
sg56
(lp1020
g49
(g70
g51
NtRp1021
(dp1022
g54
(dp1023
g74
g75
ssg63
g1017
sg56
(lp1024
S'http_accept_charset'
p1025
asbag49
(g70
g51
NtRp1026
(dp1027
g54
(dp1028
g81
g82
ssg63
g1017
sg56
(lp1029
S':'
asbag49
(g70
g51
NtRp1030
(dp1031
g54
(dp1032
sg63
g1017
sg56
(lp1033
g49
(g50
g51
NtRp1034
(dp1035
g54
(dp1036
g62
I4
ssg63
g1030
sg56
(lp1037
S'ISO-8859-1,utf-8;q=0.7,*;q=0.3'
p1038
asbasbasbag49
(g65
g51
NtRp1039
(dp1040
g54
(dp1041
sg63
g791
sg56
(lp1042
g49
(g70
g51
NtRp1043
(dp1044
g54
(dp1045
g74
g75
ssg63
g1039
sg56
(lp1046
S'http_accept_encoding'
p1047
asbag49
(g70
g51
NtRp1048
(dp1049
g54
(dp1050
g81
g82
ssg63
g1039
sg56
(lp1051
S':'
asbag49
(g70
g51
NtRp1052
(dp1053
g54
(dp1054
sg63
g1039
sg56
(lp1055
g49
(g50
g51
NtRp1056
(dp1057
g54
(dp1058
g62
I4
ssg63
g1052
sg56
(lp1059
S'gzip,deflate,sdch'
p1060
asbasbasbag49
(g65
g51
NtRp1061
(dp1062
g54
(dp1063
sg63
g791
sg56
(lp1064
g49
(g70
g51
NtRp1065
(dp1066
g54
(dp1067
g74
g75
ssg63
g1061
sg56
(lp1068
S'http_accept_language'
p1069
asbag49
(g70
g51
NtRp1070
(dp1071
g54
(dp1072
g81
g82
ssg63
g1061
sg56
(lp1073
S':'
asbag49
(g70
g51
NtRp1074
(dp1075
g54
(dp1076
sg63
g1061
sg56
(lp1077
g49
(g50
g51
NtRp1078
(dp1079
g54
(dp1080
g62
I4
ssg63
g1074
sg56
(lp1081
S'en-US,en;q=0.8'
p1082
asbasbasbag49
(g65
g51
NtRp1083
(dp1084
g54
(dp1085
sg63
g791
sg56
(lp1086
g49
(g70
g51
NtRp1087
(dp1088
g54
(dp1089
g74
g75
ssg63
g1083
sg56
(lp1090
S'http_connection'
p1091
asbag49
(g70
g51
NtRp1092
(dp1093
g54
(dp1094
g81
g82
ssg63
g1083
sg56
(lp1095
S':'
asbag49
(g70
g51
NtRp1096
(dp1097
g54
(dp1098
sg63
g1083
sg56
(lp1099
g49
(g50
g51
NtRp1100
(dp1101
g54
(dp1102
g62
I4
ssg63
g1096
sg56
(lp1103
S'keep-alive'
p1104
asbasbasbag49
(g65
g51
NtRp1105
(dp1106
g54
(dp1107
sg63
g791
sg56
(lp1108
g49
(g70
g51
NtRp1109
(dp1110
g54
(dp1111
g74
g75
ssg63
g1105
sg56
(lp1112
S'http_content_length'
p1113
asbag49
(g70
g51
NtRp1114
(dp1115
g54
(dp1116
g81
g82
ssg63
g1105
sg56
(lp1117
S':'
asbag49
(g70
g51
NtRp1118
(dp1119
g54
(dp1120
sg63
g1105
sg56
(lp1121
g49
(g50
g51
NtRp1122
(dp1123
g54
(dp1124
g62
I4
ssg63
g1118
sg56
(lp1125
g907
asbasbasbag49
(g65
g51
NtRp1126
(dp1127
g54
(dp1128
sg63
g791
sg56
(lp1129
g49
(g70
g51
NtRp1130
(dp1131
g54
(dp1132
g74
g75
ssg63
g1126
sg56
(lp1133
S'http_content_type'
p1134
asbag49
(g70
g51
NtRp1135
(dp1136
g54
(dp1137
g81
g82
ssg63
g1126
sg56
(lp1138
S':'
asbag49
(g70
g51
NtRp1139
(dp1140
g54
(dp1141
sg63
g1126
sg56
(lp1142
g49
(g50
g51
NtRp1143
(dp1144
g54
(dp1145
g62
I4
ssg63
g1139
sg56
(lp1146
g929
asbasbasbag49
(g65
g51
NtRp1147
(dp1148
g54
(dp1149
sg63
g791
sg56
(lp1150
g49
(g70
g51
NtRp1151
(dp1152
g54
(dp1153
g74
g75
ssg63
g1147
sg56
(lp1154
S'http_cookie'
p1155
asbag49
(g70
g51
NtRp1156
(dp1157
g54
(dp1158
g81
g82
ssg63
g1147
sg56
(lp1159
S':'
asbag49
(g70
g51
NtRp1160
(dp1161
g54
(dp1162
sg63
g1147
sg56
(lp1163
g49
(g50
g51
NtRp1164
(dp1165
g54
(dp1166
g62
I4
ssg63
g1160
sg56
(lp1167
S'_define_session=BAh7CEkiD3Nlc3Npb25faWQGOgZFRkkiJTVmM2YzOTE4ZmYyNzY4ZDRjYjY5YjcyOGNkZTAxODEwBjsAVEkiEF9jc3JmX3Rva2VuBjsARkkiMVY4MTBXWE1hdGNGUGR0ZzhxeStGc3FiajlCNzB6UkpqcHZUalZJNjRFNms9BjsARkkiGXdhcmRlbi51c2VyLnVzZXIua2V5BjsAVFsISSIJVXNlcgY7AEZbBmkGSSIiJDJhJDEwJGxpeDBzN29QMk5ocFJWZUl4RXZ4WXUGOwBU--36fb82eb40ee1558fc8e56b5bce1c04bba1a6c00; _bs_session=BAh7B0kiD3Nlc3Npb25faWQGOgZFRkkiJWFhOTlmNjdkODEzYjIwNGMyNGUwMTZmNjlkMDBjMjlhBjsAVEkiEF9jc3JmX3Rva2VuBjsARkkiMUJjek16b0JSUDluYk5MekI0YlNTMklPb2Q3V3pNQzJXcHQ1enY1RDgrT3c9BjsARg%3D%3D--80cc0f5e6211d60923eda39a15903de5a280521a; _table_session=BAh7B0kiD3Nlc3Npb25faWQGOgZFRkkiJTdhZTA3MzFhMGMxM2Q4YTAxZGQ3ZTNlMDM2ODIwOWY3BjsAVEkiEF9jc3JmX3Rva2VuBjsARkkiMWxKWVRtT3hGU3dxT0tnbmJ1OG1iL3FXSW9jWVRJdnZhZHJmNTN2b1BqR2M9BjsARg%3D%3D--a8b8801fe97e379d91991be9a0d21a60f46bc09e; _usertable_session=BAh7CEkiD3Nlc3Npb25faWQGOgZFRkkiJTRmY2NiMWMyOTE1ZThhYzE1MzVlYmU3ODMxZjdhM2NmBjsAVEkiEF9jc3JmX3Rva2VuBjsARkkiMXlibkQxRk5wVVFFU05OcDVxMEQvUURSZWRJQVlRY1JwYTdoSkRucEtlYXc9BjsARkkiCmZsYXNoBjsARm86JUFjdGlvbkRpc3BhdGNoOjpGbGFzaDo6Rmxhc2hIYXNoCToKQHVzZWRvOghTZXQGOgpAaGFzaHsAOgxAY2xvc2VkRjoNQGZsYXNoZXN7BjoLbm90aWNlSSItRmllbGQgcmVsYXRpb24gd2FzIHN1Y2Nlc3NmdWxseSBjcmVhdGVkLgY7AEY6CUBub3cw--c455129d4f2ca1e085c6ad184fd200aecc0b7061; _tbls_session=BAh7B0kiD3Nlc3Npb25faWQGOgZFRkkiJWY5MmM2Mzk2ZWQ0M2ZlODZkN2E5YjMxYmViOTU4NTI2BjsAVEkiEF9jc3JmX3Rva2VuBjsARkkiMVZjemQ4UGhpZXhnaEhnOUE2alRCRmdGSXFBclViMFhwQlo5Ulg2VTRhdFk9BjsARg%3D%3D--53586c2b8499a2c56c427cd8b8e3de116331bd4d; _typel_session=BAh7CEkiD3Nlc3Npb25faWQGOgZFRkkiJWQzMjkxZGExNGY5ZTQzNzIzZTk5MWZmZTM0NDY2NTFiBjsAVEkiEF9jc3JmX3Rva2VuBjsARkkiMWM5cVg1c3pKalpQSjd3Yk5lanQ5alpjZW4zRmNOVXdQS29YNExGOXJIUWM9BjsARkkiGXdhcmRlbi51c2VyLnVzZXIua2V5BjsAVFsISSIJVXNlcgY7AEZbBmkGSSIiJDJhJDEwJEVybm5aY0RTdm9sRjRETENhdjRveGUGOwBU--df06a9ed1ab2763964f111c2534c9f2a3630c12c; _ampersand_factory_session=BAh7CUkiD3Nlc3Npb25faWQGOgZFRkkiJWI2NTFmMThjZDNkMWU4NTNhNmI4OWU1MjNhYjMyZmQ0BjsAVEkiDWluc3RhbmNlBjsARmkGSSIQX2NzcmZfdG9rZW4GOwBGSSIxTEtBZER3MFlQQUV6Nmh1NW95TG4vUTFGcFdXa1ozWTVJaUx5aXh4ZndTVT0GOwBGSSIbd2FyZGVuLnVzZXIud29ya2VyLmtleQY7AFRbCEkiC1dvcmtlcgY7AEZbBmkGSSIiJDJhJDEwJGlEdndMRmhzQXB5eE1tLnhjMFM2di4GOwBU--e6bc7e5d4e945842bb7862fd547d433b3c7bfdcb; _lang_session=BAh7B0kiD3Nlc3Npb25faWQGOgZFRkkiJTY2YzI4YTY5NDkzNzE1ZGIzYzUwNWM3ZDg2ZmY1MWNiBjsAVEkiEF9jc3JmX3Rva2VuBjsARkkiMVdVczNjYnUvY2tZaHFvMVlwLy9zemdCcFliUytKdTlUTGZ3M1RIUlI3aHc9BjsARg%3D%3D--52f16b665cb4cfc5b54cea21c7b082ab6b75b1bf; session_id_welcome=127.0.0.1-dfebfa33-25aa-4072-bce4-08f7e89e2d04; session_id_hellow=127.0.0.1-bbea59f2-333e-4593-a45c-2c44a5133d77; session_id_admin=127.0.0.1-bf448199-cadc-41e3-b1a7-bed302e89a3e'
p1168
asbasbasbag49
(g65
g51
NtRp1169
(dp1170
g54
(dp1171
sg63
g791
sg56
(lp1172
g49
(g70
g51
NtRp1173
(dp1174
g54
(dp1175
g74
g75
ssg63
g1169
sg56
(lp1176
S'http_host'
p1177
asbag49
(g70
g51
NtRp1178
(dp1179
g54
(dp1180
g81
g82
ssg63
g1169
sg56
(lp1181
S':'
asbag49
(g70
g51
NtRp1182
(dp1183
g54
(dp1184
sg63
g1169
sg56
(lp1185
g49
(g50
g51
NtRp1186
(dp1187
g54
(dp1188
g62
I4
ssg63
g1182
sg56
(lp1189
S'localhost:8887'
p1190
asbasbasbag49
(g65
g51
NtRp1191
(dp1192
g54
(dp1193
sg63
g791
sg56
(lp1194
g49
(g70
g51
NtRp1195
(dp1196
g54
(dp1197
g74
g75
ssg63
g1191
sg56
(lp1198
S'http_origin'
p1199
asbag49
(g70
g51
NtRp1200
(dp1201
g54
(dp1202
g81
g82
ssg63
g1191
sg56
(lp1203
S':'
asbag49
(g70
g51
NtRp1204
(dp1205
g54
(dp1206
sg63
g1191
sg56
(lp1207
g49
(g50
g51
NtRp1208
(dp1209
g54
(dp1210
g62
I4
ssg63
g1204
sg56
(lp1211
S'http://localhost:8887'
p1212
asbasbasbag49
(g65
g51
NtRp1213
(dp1214
g54
(dp1215
sg63
g791
sg56
(lp1216
g49
(g70
g51
NtRp1217
(dp1218
g54
(dp1219
g74
g75
ssg63
g1213
sg56
(lp1220
S'http_referer'
p1221
asbag49
(g70
g51
NtRp1222
(dp1223
g54
(dp1224
g81
g82
ssg63
g1213
sg56
(lp1225
S':'
asbag49
(g70
g51
NtRp1226
(dp1227
g54
(dp1228
sg63
g1213
sg56
(lp1229
g49
(g50
g51
NtRp1230
(dp1231
g54
(dp1232
g62
I4
ssg63
g1226
sg56
(lp1233
S'http://localhost:8887/admin/shell/index/hellow'
p1234
asbasbasbag49
(g65
g51
NtRp1235
(dp1236
g54
(dp1237
sg63
g791
sg56
(lp1238
g49
(g70
g51
NtRp1239
(dp1240
g54
(dp1241
g74
g75
ssg63
g1235
sg56
(lp1242
S'http_user_agent'
p1243
asbag49
(g70
g51
NtRp1244
(dp1245
g54
(dp1246
g81
g82
ssg63
g1235
sg56
(lp1247
S':'
asbag49
(g70
g51
NtRp1248
(dp1249
g54
(dp1250
sg63
g1235
sg56
(lp1251
g49
(g50
g51
NtRp1252
(dp1253
g54
(dp1254
g62
I4
ssg63
g1248
sg56
(lp1255
S'Mozilla/5.0 (Macintosh; Intel Mac OS X 10_8_3) AppleWebKit/537.22 (KHTML, like Gecko) Chrome/25.0.1364.172 Safari/537.22'
p1256
asbasbasbag49
(g65
g51
NtRp1257
(dp1258
g54
(dp1259
sg63
g791
sg56
(lp1260
g49
(g70
g51
NtRp1261
(dp1262
g54
(dp1263
g74
g75
ssg63
g1257
sg56
(lp1264
S'http_x_requested_with'
p1265
asbag49
(g70
g51
NtRp1266
(dp1267
g54
(dp1268
g81
g82
ssg63
g1257
sg56
(lp1269
S':'
asbag49
(g70
g51
NtRp1270
(dp1271
g54
(dp1272
sg63
g1257
sg56
(lp1273
g49
(g50
g51
NtRp1274
(dp1275
g54
(dp1276
g62
I4
ssg63
g1270
sg56
(lp1277
S'XMLHttpRequest'
p1278
asbasbasbag49
(g65
g51
NtRp1279
(dp1280
g54
(dp1281
sg63
g791
sg56
(lp1282
g49
(g70
g51
NtRp1283
(dp1284
g54
(dp1285
g74
g75
ssg63
g1279
sg56
(lp1286
S'is_jython'
p1287
asbag49
(g70
g51
NtRp1288
(dp1289
g54
(dp1290
g81
g82
ssg63
g1279
sg56
(lp1291
S':'
asbag49
(g70
g51
NtRp1292
(dp1293
g54
(dp1294
sg63
g1279
sg56
(lp1295
g49
(g50
g51
NtRp1296
(dp1297
g54
(dp1298
g62
I4
ssg63
g1292
sg56
(lp1299
S'False'
p1300
asbasbasbag49
(g65
g51
NtRp1301
(dp1302
g54
(dp1303
sg63
g791
sg56
(lp1304
g49
(g70
g51
NtRp1305
(dp1306
g54
(dp1307
g74
g75
ssg63
g1301
sg56
(lp1308
S'is_pypy'
p1309
asbag49
(g70
g51
NtRp1310
(dp1311
g54
(dp1312
g81
g82
ssg63
g1301
sg56
(lp1313
S':'
asbag49
(g70
g51
NtRp1314
(dp1315
g54
(dp1316
sg63
g1301
sg56
(lp1317
g49
(g50
g51
NtRp1318
(dp1319
g54
(dp1320
g62
I4
ssg63
g1314
sg56
(lp1321
g1300
asbasbasbag49
(g65
g51
NtRp1322
(dp1323
g54
(dp1324
sg63
g791
sg56
(lp1325
g49
(g70
g51
NtRp1326
(dp1327
g54
(dp1328
g74
g75
ssg63
g1322
sg56
(lp1329
S'local_hosts'
p1330
asbag49
(g70
g51
NtRp1331
(dp1332
g54
(dp1333
g81
g82
ssg63
g1322
sg56
(lp1334
S':'
asbag49
(g70
g51
NtRp1335
(dp1336
g54
(dp1337
sg63
g1322
sg56
(lp1338
g49
(g50
g51
NtRp1339
(dp1340
g54
(dp1341
g62
I4
ssg63
g1335
sg56
(lp1342
g49
(g58
g51
NtRp1343
(dp1344
g54
(dp1345
g62
I3
ssg63
Nsg56
(lp1346
g49
(g65
g51
NtRp1347
(dp1348
g54
(dp1349
sg63
g1343
sg56
(lp1350
g49
(g70
g51
NtRp1351
(dp1352
g54
(dp1353
sg63
g1347
sg56
(lp1354
g49
(g50
g51
NtRp1355
(dp1356
g54
(dp1357
g62
I3
ssg63
g1351
sg56
(lp1358
S'130.91.151.157'
p1359
asbasbasbag49
(g65
g51
NtRp1360
(dp1361
g54
(dp1362
sg63
g1343
sg56
(lp1363
g49
(g70
g51
NtRp1364
(dp1365
g54
(dp1366
sg63
g1360
sg56
(lp1367
g49
(g50
g51
NtRp1368
(dp1369
g54
(dp1370
g62
I3
ssg63
g1364
sg56
(lp1371
S'::1'
p1372
asbasbasbag49
(g65
g51
NtRp1373
(dp1374
g54
(dp1375
sg63
g1343
sg56
(lp1376
g49
(g70
g51
NtRp1377
(dp1378
g54
(dp1379
sg63
g1373
sg56
(lp1380
g49
(g50
g51
NtRp1381
(dp1382
g54
(dp1383
g62
I3
ssg63
g1377
sg56
(lp1384
S'::ffff:127.0.0.1'
p1385
asbasbasbag49
(g65
g51
NtRp1386
(dp1387
g54
(dp1388
sg63
g1343
sg56
(lp1389
g49
(g70
g51
NtRp1390
(dp1391
g54
(dp1392
sg63
g1386
sg56
(lp1393
g49
(g50
g51
NtRp1394
(dp1395
g54
(dp1396
g62
I3
ssg63
g1390
sg56
(lp1397
S'127.0.0.1'
p1398
asbasbasbag49
(g65
g51
NtRp1399
(dp1400
g54
(dp1401
sg63
g1343
sg56
(lp1402
g49
(g70
g51
NtRp1403
(dp1404
g54
(dp1405
sg63
g1399
sg56
(lp1406
g49
(g50
g51
NtRp1407
(dp1408
g54
(dp1409
g62
I3
ssg63
g1403
sg56
(lp1410
S'hntvlan531.0924.wlan.wireless-pennnet.upenn.edu'
p1411
asbasbasbasbasbasbasbag49
(g65
g51
NtRp1412
(dp1413
g54
(dp1414
sg63
g791
sg56
(lp1415
g49
(g70
g51
NtRp1416
(dp1417
g54
(dp1418
g74
g75
ssg63
g1412
sg56
(lp1419
S'path_info'
p1420
asbag49
(g70
g51
NtRp1421
(dp1422
g54
(dp1423
g81
g82
ssg63
g1412
sg56
(lp1424
S':'
asbag49
(g70
g51
NtRp1425
(dp1426
g54
(dp1427
sg63
g1412
sg56
(lp1428
g49
(g50
g51
NtRp1429
(dp1430
g54
(dp1431
g62
I4
ssg63
g1425
sg56
(lp1432
S'/admin/shell/callback/hellow'
p1433
asbasbasbag49
(g65
g51
NtRp1434
(dp1435
g54
(dp1436
sg63
g791
sg56
(lp1437
g49
(g70
g51
NtRp1438
(dp1439
g54
(dp1440
g74
g75
ssg63
g1434
sg56
(lp1441
S'query_string'
p1442
asbag49
(g70
g51
NtRp1443
(dp1444
g54
(dp1445
g81
g82
ssg63
g1434
sg56
(lp1446
S':'
asbag49
(g70
g51
NtRp1447
(dp1448
g54
(dp1449
sg63
g1434
sg56
(lp1450
g49
(g50
g51
NtRp1451
(dp1452
g54
(dp1453
g62
I4
ssg63
g1447
sg56
(lp1454
S''
asbasbasbag49
(g65
g51
NtRp1455
(dp1456
g54
(dp1457
sg63
g791
sg56
(lp1458
g49
(g70
g51
NtRp1459
(dp1460
g54
(dp1461
g74
g75
ssg63
g1455
sg56
(lp1462
S'remote_addr'
p1463
asbag49
(g70
g51
NtRp1464
(dp1465
g54
(dp1466
g81
g82
ssg63
g1455
sg56
(lp1467
S':'
asbag49
(g70
g51
NtRp1468
(dp1469
g54
(dp1470
sg63
g1455
sg56
(lp1471
g49
(g50
g51
NtRp1472
(dp1473
g54
(dp1474
g62
I4
ssg63
g1468
sg56
(lp1475
g217
asbasbasbag49
(g65
g51
NtRp1476
(dp1477
g54
(dp1478
sg63
g791
sg56
(lp1479
g49
(g70
g51
NtRp1480
(dp1481
g54
(dp1482
g74
g75
ssg63
g1476
sg56
(lp1483
S'remote_port'
p1484
asbag49
(g70
g51
NtRp1485
(dp1486
g54
(dp1487
g81
g82
ssg63
g1476
sg56
(lp1488
S':'
asbag49
(g70
g51
NtRp1489
(dp1490
g54
(dp1491
sg63
g1476
sg56
(lp1492
g49
(g50
g51
NtRp1493
(dp1494
g54
(dp1495
g62
I4
ssg63
g1489
sg56
(lp1496
S'53228'
p1497
asbasbasbag49
(g65
g51
NtRp1498
(dp1499
g54
(dp1500
sg63
g791
sg56
(lp1501
g49
(g70
g51
NtRp1502
(dp1503
g54
(dp1504
g74
g75
ssg63
g1498
sg56
(lp1505
S'request_method'
p1506
asbag49
(g70
g51
NtRp1507
(dp1508
g54
(dp1509
g81
g82
ssg63
g1498
sg56
(lp1510
S':'
asbag49
(g70
g51
NtRp1511
(dp1512
g54
(dp1513
sg63
g1498
sg56
(lp1514
g49
(g50
g51
NtRp1515
(dp1516
g54
(dp1517
g62
I4
ssg63
g1511
sg56
(lp1518
S'POST'
p1519
asbasbasbag49
(g65
g51
NtRp1520
(dp1521
g54
(dp1522
sg63
g791
sg56
(lp1523
g49
(g70
g51
NtRp1524
(dp1525
g54
(dp1526
g74
g75
ssg63
g1520
sg56
(lp1527
S'request_uri'
p1528
asbag49
(g70
g51
NtRp1529
(dp1530
g54
(dp1531
g81
g82
ssg63
g1520
sg56
(lp1532
S':'
asbag49
(g70
g51
NtRp1533
(dp1534
g54
(dp1535
sg63
g1520
sg56
(lp1536
g49
(g50
g51
NtRp1537
(dp1538
g54
(dp1539
g62
I4
ssg63
g1533
sg56
(lp1540
g1433
asbasbasbag49
(g65
g51
NtRp1541
(dp1542
g54
(dp1543
sg63
g791
sg56
(lp1544
g49
(g70
g51
NtRp1545
(dp1546
g54
(dp1547
g74
g75
ssg63
g1541
sg56
(lp1548
S'script_name'
p1549
asbag49
(g70
g51
NtRp1550
(dp1551
g54
(dp1552
g81
g82
ssg63
g1541
sg56
(lp1553
S':'
asbag49
(g70
g51
NtRp1554
(dp1555
g54
(dp1556
sg63
g1541
sg56
(lp1557
g49
(g50
g51
NtRp1558
(dp1559
g54
(dp1560
g62
I4
ssg63
g1554
sg56
(lp1561
S''
asbasbasbag49
(g65
g51
NtRp1562
(dp1563
g54
(dp1564
sg63
g791
sg56
(lp1565
g49
(g70
g51
NtRp1566
(dp1567
g54
(dp1568
g74
g75
ssg63
g1562
sg56
(lp1569
S'server_name'
p1570
asbag49
(g70
g51
NtRp1571
(dp1572
g54
(dp1573
g81
g82
ssg63
g1562
sg56
(lp1574
S':'
asbag49
(g70
g51
NtRp1575
(dp1576
g54
(dp1577
sg63
g1562
sg56
(lp1578
g49
(g50
g51
NtRp1579
(dp1580
g54
(dp1581
g62
I4
ssg63
g1575
sg56
(lp1582
S'hntvlan531.0924.wlan.wireless-pennnet.upenn.edu'
p1583
asbasbasbag49
(g65
g51
NtRp1584
(dp1585
g54
(dp1586
sg63
g791
sg56
(lp1587
g49
(g70
g51
NtRp1588
(dp1589
g54
(dp1590
g74
g75
ssg63
g1584
sg56
(lp1591
S'server_port'
p1592
asbag49
(g70
g51
NtRp1593
(dp1594
g54
(dp1595
g81
g82
ssg63
g1584
sg56
(lp1596
S':'
asbag49
(g70
g51
NtRp1597
(dp1598
g54
(dp1599
sg63
g1584
sg56
(lp1600
g49
(g50
g51
NtRp1601
(dp1602
g54
(dp1603
g62
I4
ssg63
g1597
sg56
(lp1604
S'8887'
p1605
asbasbasbag49
(g65
g51
NtRp1606
(dp1607
g54
(dp1608
sg63
g791
sg56
(lp1609
g49
(g70
g51
NtRp1610
(dp1611
g54
(dp1612
g74
g75
ssg63
g1606
sg56
(lp1613
S'server_protocol'
p1614
asbag49
(g70
g51
NtRp1615
(dp1616
g54
(dp1617
g81
g82
ssg63
g1606
sg56
(lp1618
S':'
asbag49
(g70
g51
NtRp1619
(dp1620
g54
(dp1621
sg63
g1606
sg56
(lp1622
g49
(g50
g51
NtRp1623
(dp1624
g54
(dp1625
g62
I4
ssg63
g1619
sg56
(lp1626
S'HTTP/1.1'
p1627
asbasbasbag49
(g65
g51
NtRp1628
(dp1629
g54
(dp1630
sg63
g791
sg56
(lp1631
g49
(g70
g51
NtRp1632
(dp1633
g54
(dp1634
g74
g75
ssg63
g1628
sg56
(lp1635
S'server_software'
p1636
asbag49
(g70
g51
NtRp1637
(dp1638
g54
(dp1639
g81
g82
ssg63
g1628
sg56
(lp1640
S':'
asbag49
(g70
g51
NtRp1641
(dp1642
g54
(dp1643
sg63
g1628
sg56
(lp1644
g49
(g50
g51
NtRp1645
(dp1646
g54
(dp1647
g62
I4
ssg63
g1641
sg56
(lp1648
S'Rocket 1.2.6'
p1649
asbasbasbag49
(g65
g51
NtRp1650
(dp1651
g54
(dp1652
sg63
g791
sg56
(lp1653
g49
(g70
g51
NtRp1654
(dp1655
g54
(dp1656
g74
g75
ssg63
g1650
sg56
(lp1657
S'web2py_path'
p1658
asbag49
(g70
g51
NtRp1659
(dp1660
g54
(dp1661
g81
g82
ssg63
g1650
sg56
(lp1662
S':'
asbag49
(g70
g51
NtRp1663
(dp1664
g54
(dp1665
sg63
g1650
sg56
(lp1666
g49
(g50
g51
NtRp1667
(dp1668
g54
(dp1669
g62
I4
ssg63
g1663
sg56
(lp1670
g838
asbasbasbag49
(g65
g51
NtRp1671
(dp1672
g54
(dp1673
sg63
g791
sg56
(lp1674
g49
(g70
g51
NtRp1675
(dp1676
g54
(dp1677
g74
g75
ssg63
g1671
sg56
(lp1678
S'web2py_version'
p1679
asbag49
(g70
g51
NtRp1680
(dp1681
g54
(dp1682
g81
g82
ssg63
g1671
sg56
(lp1683
S':'
asbag49
(g70
g51
NtRp1684
(dp1685
g54
(dp1686
sg63
g1671
sg56
(lp1687
g49
(g50
g51
NtRp1688
(dp1689
g54
(dp1690
g62
I4
ssg63
g1684
sg56
(lp1691
g49
(g58
g51
NtRp1692
(dp1693
g54
(dp1694
g62
I3
ssg63
Nsg56
(lp1695
g49
(g65
g51
NtRp1696
(dp1697
g54
(dp1698
sg63
g1692
sg56
(lp1699
g49
(g70
g51
NtRp1700
(dp1701
g54
(dp1702
sg63
g1696
sg56
(lp1703
g49
(g50
g51
NtRp1704
(dp1705
g54
(dp1706
g62
I3
ssg63
g1700
sg56
(lp1707
S'2'
asbasbasbag49
(g65
g51
NtRp1708
(dp1709
g54
(dp1710
sg63
g1692
sg56
(lp1711
g49
(g70
g51
NtRp1712
(dp1713
g54
(dp1714
sg63
g1708
sg56
(lp1715
g49
(g50
g51
NtRp1716
(dp1717
g54
(dp1718
g62
I3
ssg63
g1712
sg56
(lp1719
S'4'
asbasbasbag49
(g65
g51
NtRp1720
(dp1721
g54
(dp1722
sg63
g1692
sg56
(lp1723
g49
(g70
g51
NtRp1724
(dp1725
g54
(dp1726
sg63
g1720
sg56
(lp1727
g49
(g50
g51
NtRp1728
(dp1729
g54
(dp1730
g62
I3
ssg63
g1724
sg56
(lp1731
S'5'
asbasbasbag49
(g65
g51
NtRp1732
(dp1733
g54
(dp1734
sg63
g1692
sg56
(lp1735
g49
(g70
g51
NtRp1736
(dp1737
g54
(dp1738
sg63
g1732
sg56
(lp1739
g49
(g50
g51
NtRp1740
(dp1741
g54
(dp1742
g62
I3
ssg63
g1736
sg56
(lp1743
S'stable'
p1744
asbasbasbag49
(g65
g51
NtRp1745
(dp1746
g54
(dp1747
sg63
g1692
sg56
(lp1748
g49
(g70
g51
NtRp1749
(dp1750
g54
(dp1751
sg63
g1745
sg56
(lp1752
g49
(g50
g51
NtRp1753
(dp1754
g54
(dp1755
g62
I3
ssg63
g1749
sg56
(lp1756
S'datetime.datetime(2013, 3, 18, 22, 46, 22)'
p1757
asbasbasbasbasbasbasbag49
(g65
g51
NtRp1758
(dp1759
g54
(dp1760
sg63
g791
sg56
(lp1761
g49
(g70
g51
NtRp1762
(dp1763
g54
(dp1764
g74
g75
ssg63
g1758
sg56
(lp1765
S'wsgi_errors'
p1766
asbag49
(g70
g51
NtRp1767
(dp1768
g54
(dp1769
g81
g82
ssg63
g1758
sg56
(lp1770
S':'
asbag49
(g70
g51
NtRp1771
(dp1772
g54
(dp1773
sg63
g1758
sg56
(lp1774
g49
(g50
g51
NtRp1775
(dp1776
g54
(dp1777
g62
I4
ssg63
g1771
sg56
(lp1778
S"<open file '<stderr>', mode 'w' at 0x540b0>"
p1779
asbasbasbag49
(g65
g51
NtRp1780
(dp1781
g54
(dp1782
sg63
g791
sg56
(lp1783
g49
(g70
g51
NtRp1784
(dp1785
g54
(dp1786
g74
g75
ssg63
g1780
sg56
(lp1787
S'wsgi_file_wrapper'
p1788
asbag49
(g70
g51
NtRp1789
(dp1790
g54
(dp1791
g81
g82
ssg63
g1780
sg56
(lp1792
S':'
asbag49
(g70
g51
NtRp1793
(dp1794
g54
(dp1795
sg63
g1780
sg56
(lp1796
g49
(g50
g51
NtRp1797
(dp1798
g54
(dp1799
g62
I4
ssg63
g1793
sg56
(lp1800
S'<class wsgiref.util.FileWrapper at 0x329d060>'
p1801
asbasbasbag49
(g65
g51
NtRp1802
(dp1803
g54
(dp1804
sg63
g791
sg56
(lp1805
g49
(g70
g51
NtRp1806
(dp1807
g54
(dp1808
g74
g75
ssg63
g1802
sg56
(lp1809
S'wsgi_input'
p1810
asbag49
(g70
g51
NtRp1811
(dp1812
g54
(dp1813
g81
g82
ssg63
g1802
sg56
(lp1814
S':'
asbag49
(g70
g51
NtRp1815
(dp1816
g54
(dp1817
sg63
g1802
sg56
(lp1818
g49
(g50
g51
NtRp1819
(dp1820
g54
(dp1821
g62
I4
ssg63
g1815
sg56
(lp1822
S'<socket._fileobject object at 0xa1addb0>'
p1823
asbasbasbag49
(g65
g51
NtRp1824
(dp1825
g54
(dp1826
sg63
g791
sg56
(lp1827
g49
(g70
g51
NtRp1828
(dp1829
g54
(dp1830
g74
g75
ssg63
g1824
sg56
(lp1831
S'wsgi_multiprocess'
p1832
asbag49
(g70
g51
NtRp1833
(dp1834
g54
(dp1835
g81
g82
ssg63
g1824
sg56
(lp1836
S':'
asbag49
(g70
g51
NtRp1837
(dp1838
g54
(dp1839
sg63
g1824
sg56
(lp1840
g49
(g50
g51
NtRp1841
(dp1842
g54
(dp1843
g62
I4
ssg63
g1837
sg56
(lp1844
g1300
asbasbasbag49
(g65
g51
NtRp1845
(dp1846
g54
(dp1847
sg63
g791
sg56
(lp1848
g49
(g70
g51
NtRp1849
(dp1850
g54
(dp1851
g74
g75
ssg63
g1845
sg56
(lp1852
S'wsgi_multithread'
p1853
asbag49
(g70
g51
NtRp1854
(dp1855
g54
(dp1856
g81
g82
ssg63
g1845
sg56
(lp1857
S':'
asbag49
(g70
g51
NtRp1858
(dp1859
g54
(dp1860
sg63
g1845
sg56
(lp1861
g49
(g50
g51
NtRp1862
(dp1863
g54
(dp1864
g62
I4
ssg63
g1858
sg56
(lp1865
g92
asbasbasbag49
(g65
g51
NtRp1866
(dp1867
g54
(dp1868
sg63
g791
sg56
(lp1869
g49
(g70
g51
NtRp1870
(dp1871
g54
(dp1872
g74
g75
ssg63
g1866
sg56
(lp1873
S'wsgi_run_once'
p1874
asbag49
(g70
g51
NtRp1875
(dp1876
g54
(dp1877
g81
g82
ssg63
g1866
sg56
(lp1878
S':'
asbag49
(g70
g51
NtRp1879
(dp1880
g54
(dp1881
sg63
g1866
sg56
(lp1882
g49
(g50
g51
NtRp1883
(dp1884
g54
(dp1885
g62
I4
ssg63
g1879
sg56
(lp1886
g1300
asbasbasbag49
(g65
g51
NtRp1887
(dp1888
g54
(dp1889
sg63
g791
sg56
(lp1890
g49
(g70
g51
NtRp1891
(dp1892
g54
(dp1893
g74
g75
ssg63
g1887
sg56
(lp1894
S'wsgi_url_scheme'
p1895
asbag49
(g70
g51
NtRp1896
(dp1897
g54
(dp1898
g81
g82
ssg63
g1887
sg56
(lp1899
S':'
asbag49
(g70
g51
NtRp1900
(dp1901
g54
(dp1902
sg63
g1887
sg56
(lp1903
g49
(g50
g51
NtRp1904
(dp1905
g54
(dp1906
g62
I4
ssg63
g1900
sg56
(lp1907
S'http'
p1908
asbasbasbag49
(g65
g51
NtRp1909
(dp1910
g54
(dp1911
sg63
g791
sg56
(lp1912
g49
(g70
g51
NtRp1913
(dp1914
g54
(dp1915
g74
g75
ssg63
g1909
sg56
(lp1916
S'wsgi_version'
p1917
asbag49
(g70
g51
NtRp1918
(dp1919
g54
(dp1920
g81
g82
ssg63
g1909
sg56
(lp1921
S':'
asbag49
(g70
g51
NtRp1922
(dp1923
g54
(dp1924
sg63
g1909
sg56
(lp1925
g49
(g50
g51
NtRp1926
(dp1927
g54
(dp1928
g62
I4
ssg63
g1922
sg56
(lp1929
g49
(g58
g51
NtRp1930
(dp1931
g54
(dp1932
g62
I3
ssg63
Nsg56
(lp1933
g49
(g65
g51
NtRp1934
(dp1935
g54
(dp1936
sg63
g1930
sg56
(lp1937
g49
(g70
g51
NtRp1938
(dp1939
g54
(dp1940
sg63
g1934
sg56
(lp1941
g49
(g50
g51
NtRp1942
(dp1943
g54
(dp1944
g62
I3
ssg63
g1938
sg56
(lp1945
S'1'
asbasbasbag49
(g65
g51
NtRp1946
(dp1947
g54
(dp1948
sg63
g1930
sg56
(lp1949
g49
(g70
g51
NtRp1950
(dp1951
g54
(dp1952
sg63
g1946
sg56
(lp1953
g49
(g50
g51
NtRp1954
(dp1955
g54
(dp1956
g62
I3
ssg63
g1950
sg56
(lp1957
S'0'
asbasbasbasbasbasbasbasbasbasbasbag49
(g65
g51
NtRp1958
(dp1959
g54
(dp1960
sg63
g59
sg56
(lp1961
g49
(g70
g51
NtRp1962
(dp1963
g54
(dp1964
g74
g75
ssg63
g1958
sg56
(lp1965
S'extension'
p1966
asbag49
(g70
g51
NtRp1967
(dp1968
g54
(dp1969
g81
g82
ssg63
g1958
sg56
(lp1970
S':'
asbag49
(g70
g51
NtRp1971
(dp1972
g54
(dp1973
sg63
g1958
sg56
(lp1974
g49
(g50
g51
NtRp1975
(dp1976
g54
(dp1977
g62
I5
ssg63
g1971
sg56
(lp1978
S'html'
p1979
asbasbasbag49
(g65
g51
NtRp1980
(dp1981
g54
(dp1982
sg63
g59
sg56
(lp1983
g49
(g70
g51
NtRp1984
(dp1985
g54
(dp1986
g74
g75
ssg63
g1980
sg56
(lp1987
S'folder'
p1988
asbag49
(g70
g51
NtRp1989
(dp1990
g54
(dp1991
g81
g82
ssg63
g1980
sg56
(lp1992
S':'
asbag49
(g70
g51
NtRp1993
(dp1994
g54
(dp1995
sg63
g1980
sg56
(lp1996
g49
(g50
g51
NtRp1997
(dp1998
g54
(dp1999
g62
I5
ssg63
g1993
sg56
(lp2000
S'/Users/zamechek/Downloads/web2py/web2py.app/Contents/Resources/applications/admin/'
p2001
asbasbasbag49
(g65
g51
NtRp2002
(dp2003
g54
(dp2004
sg63
g59
sg56
(lp2005
g49
(g70
g51
NtRp2006
(dp2007
g54
(dp2008
g74
g75
ssg63
g2002
sg56
(lp2009
S'function'
p2010
asbag49
(g70
g51
NtRp2011
(dp2012
g54
(dp2013
g81
g82
ssg63
g2002
sg56
(lp2014
S':'
asbag49
(g70
g51
NtRp2015
(dp2016
g54
(dp2017
sg63
g2002
sg56
(lp2018
g49
(g50
g51
NtRp2019
(dp2020
g54
(dp2021
g62
I5
ssg63
g2015
sg56
(lp2022
S'callback'
p2023
asbasbasbag49
(g65
g51
NtRp2024
(dp2025
g54
(dp2026
sg63
g59
sg56
(lp2027
g49
(g70
g51
NtRp2028
(dp2029
g54
(dp2030
g74
g75
ssg63
g2024
sg56
(lp2031
S'get_vars'
p2032
asbag49
(g70
g51
NtRp2033
(dp2034
g54
(dp2035
g81
g82
ssg63
g2024
sg56
(lp2036
S':'
asbag49
(g70
g51
NtRp2037
(dp2038
g54
(dp2039
sg63
g2024
sg56
(lp2040
g49
(g50
g51
NtRp2041
(dp2042
g54
(dp2043
g62
I5
ssg63
g2037
sg56
(lp2044
g49
(g58
g51
NtRp2045
(dp2046
g54
(dp2047
g62
I4
ssg63
Nsg56
(lp2048
sbasbasbasbag49
(g65
g51
NtRp2049
(dp2050
g54
(dp2051
sg63
g59
sg56
(lp2052
g49
(g70
g51
NtRp2053
(dp2054
g54
(dp2055
g74
g75
ssg63
g2049
sg56
(lp2056
S'global_settings'
p2057
asbag49
(g70
g51
NtRp2058
(dp2059
g54
(dp2060
g81
g82
ssg63
g2049
sg56
(lp2061
S':'
asbag49
(g70
g51
NtRp2062
(dp2063
g54
(dp2064
sg63
g2049
sg56
(lp2065
g49
(g50
g51
NtRp2066
(dp2067
g54
(dp2068
g62
I5
ssg63
g2062
sg56
(lp2069
g49
(g58
g51
NtRp2070
(dp2071
g54
(dp2072
g62
I4
ssg63
Nsg56
(lp2073
g49
(g65
g51
NtRp2074
(dp2075
g54
(dp2076
sg63
g2070
sg56
(lp2077
g49
(g70
g51
NtRp2078
(dp2079
g54
(dp2080
g74
g75
ssg63
g2074
sg56
(lp2081
g803
asbag49
(g70
g51
NtRp2082
(dp2083
g54
(dp2084
g81
g82
ssg63
g2074
sg56
(lp2085
S':'
asbag49
(g70
g51
NtRp2086
(dp2087
g54
(dp2088
sg63
g2074
sg56
(lp2089
g49
(g50
g51
NtRp2090
(dp2091
g54
(dp2092
g62
I4
ssg63
g2086
sg56
(lp2093
S"set(['/Users/zamechek/Downloads/web2py/web2py.app/Contents/Resources/applications/examples/', '/Users/zamechek/Downloads/web2py/web2py.app/Contents/Resources/applications/hellow/', '/Users/zamechek/Downloads/web2py/web2py.app/Contents/Resources/applications/admin/', '/Users/zamechek/Downloads/web2py/web2py.app/Contents/Resources/applications/slots/', '/Users/zamechek/Downloads/web2py/web2py.app/Contents/Resources/applications/welcome/'])"
p2094
asbasbasbag49
(g65
g51
NtRp2095
(dp2096
g54
(dp2097
sg63
g2070
sg56
(lp2098
g49
(g70
g51
NtRp2099
(dp2100
g54
(dp2101
g74
g75
ssg63
g2095
sg56
(lp2102
g825
asbag49
(g70
g51
NtRp2103
(dp2104
g54
(dp2105
g81
g82
ssg63
g2095
sg56
(lp2106
S':'
asbag49
(g70
g51
NtRp2107
(dp2108
g54
(dp2109
sg63
g2095
sg56
(lp2110
g49
(g50
g51
NtRp2111
(dp2112
g54
(dp2113
g62
I4
ssg63
g2107
sg56
(lp2114
g838
asbasbasbag49
(g65
g51
NtRp2115
(dp2116
g54
(dp2117
sg63
g2070
sg56
(lp2118
g49
(g70
g51
NtRp2119
(dp2120
g54
(dp2121
g74
g75
ssg63
g2115
sg56
(lp2122
g847
asbag49
(g70
g51
NtRp2123
(dp2124
g54
(dp2125
g81
g82
ssg63
g2115
sg56
(lp2126
S':'
asbag49
(g70
g51
NtRp2127
(dp2128
g54
(dp2129
sg63
g2115
sg56
(lp2130
g49
(g50
g51
NtRp2131
(dp2132
g54
(dp2133
g62
I4
ssg63
g2127
sg56
(lp2134
g49
(g58
g51
NtRp2135
(dp2136
g54
(dp2137
g62
I3
ssg63
Nsg56
(lp2138
sbasbasbasbag49
(g65
g51
NtRp2139
(dp2140
g54
(dp2141
sg63
g2070
sg56
(lp2142
g49
(g70
g51
NtRp2143
(dp2144
g54
(dp2145
g74
g75
ssg63
g2139
sg56
(lp2146
g872
asbag49
(g70
g51
NtRp2147
(dp2148
g54
(dp2149
g81
g82
ssg63
g2139
sg56
(lp2150
S':'
asbag49
(g70
g51
NtRp2151
(dp2152
g54
(dp2153
sg63
g2139
sg56
(lp2154
g49
(g50
g51
NtRp2155
(dp2156
g54
(dp2157
g62
I4
ssg63
g2151
sg56
(lp2158
S"<Values at 0x32c8f58: {'verbose': False, 'ip': '127.0.0.1', 'with_scheduler': False, 'ips': ['130.91.151.157'], 'shutdown_timeout': 5, 'taskbar': False, 'port': 8000, 'maxthreads': None, 'softcron': False, 'server_name': 'hntvlan531.0924.wlan.wireless-pennnet.upenn.edu', 'bpython': False, 'nogui': False, 'pid_filename': 'httpserver.pid', 'extcron': False, 'runcron': False, 'run_system_tests': False, 'test': None, 'folder': '/Users/zamechek/Downloads/web2py/web2py.app/Contents/Resources', 'config': '', 'import_models': False, 'winservice': '', 'shell': None, 'run': '', 'log_filename': 'httpserver.log', 'debuglevel': 30, 'args': [''], 'socket_timeout': 5, 'ssl_ca_certificate': None, 'scheduler': None, 'profiler_filename': None, 'ssl_private_key': '', 'scheduler_groups': None, 'password': '<ask>', 'request_queue_size': 5, 'ssl_certificate': '', 'cronjob': False, 'numthreads': None, 'quiet': False, 'interfaces': None, 'minthreads': None, 'timeout': 10, 'plain': False, 'nobanner': False}>"
p2159
asbasbasbag49
(g65
g51
NtRp2160
(dp2161
g54
(dp2162
sg63
g2070
sg56
(lp2163
g49
(g70
g51
NtRp2164
(dp2165
g54
(dp2166
g74
g75
ssg63
g2160
sg56
(lp2167
g938
asbag49
(g70
g51
NtRp2168
(dp2169
g54
(dp2170
g81
g82
ssg63
g2160
sg56
(lp2171
S':'
asbag49
(g70
g51
NtRp2172
(dp2173
g54
(dp2174
sg63
g2160
sg56
(lp2175
g49
(g50
g51
NtRp2176
(dp2177
g54
(dp2178
g62
I4
ssg63
g2172
sg56
(lp2179
S'set([])'
p2180
asbasbasbag49
(g65
g51
NtRp2181
(dp2182
g54
(dp2183
sg63
g2070
sg56
(lp2184
g49
(g70
g51
NtRp2185
(dp2186
g54
(dp2187
g74
g75
ssg63
g2181
sg56
(lp2188
g960
asbag49
(g70
g51
NtRp2189
(dp2190
g54
(dp2191
g81
g82
ssg63
g2181
sg56
(lp2192
S':'
asbag49
(g70
g51
NtRp2193
(dp2194
g54
(dp2195
sg63
g2181
sg56
(lp2196
g49
(g50
g51
NtRp2197
(dp2198
g54
(dp2199
g62
I4
ssg63
g2193
sg56
(lp2200
g92
asbasbasbag49
(g65
g51
NtRp2201
(dp2202
g54
(dp2203
sg63
g2070
sg56
(lp2204
g49
(g70
g51
NtRp2205
(dp2206
g54
(dp2207
g74
g75
ssg63
g2201
sg56
(lp2208
g981
asbag49
(g70
g51
NtRp2209
(dp2210
g54
(dp2211
g81
g82
ssg63
g2201
sg56
(lp2212
S':'
asbag49
(g70
g51
NtRp2213
(dp2214
g54
(dp2215
sg63
g2201
sg56
(lp2216
g49
(g50
g51
NtRp2217
(dp2218
g54
(dp2219
g62
I4
ssg63
g2213
sg56
(lp2220
g994
asbasbasbag49
(g65
g51
NtRp2221
(dp2222
g54
(dp2223
sg63
g2070
sg56
(lp2224
g49
(g70
g51
NtRp2225
(dp2226
g54
(dp2227
g74
g75
ssg63
g2221
sg56
(lp2228
g1287
asbag49
(g70
g51
NtRp2229
(dp2230
g54
(dp2231
g81
g82
ssg63
g2221
sg56
(lp2232
S':'
asbag49
(g70
g51
NtRp2233
(dp2234
g54
(dp2235
sg63
g2221
sg56
(lp2236
g49
(g50
g51
NtRp2237
(dp2238
g54
(dp2239
g62
I4
ssg63
g2233
sg56
(lp2240
g1300
asbasbasbag49
(g65
g51
NtRp2241
(dp2242
g54
(dp2243
sg63
g2070
sg56
(lp2244
g49
(g70
g51
NtRp2245
(dp2246
g54
(dp2247
g74
g75
ssg63
g2241
sg56
(lp2248
g1309
asbag49
(g70
g51
NtRp2249
(dp2250
g54
(dp2251
g81
g82
ssg63
g2241
sg56
(lp2252
S':'
asbag49
(g70
g51
NtRp2253
(dp2254
g54
(dp2255
sg63
g2241
sg56
(lp2256
g49
(g50
g51
NtRp2257
(dp2258
g54
(dp2259
g62
I4
ssg63
g2253
sg56
(lp2260
g1300
asbasbasbag49
(g65
g51
NtRp2261
(dp2262
g54
(dp2263
sg63
g2070
sg56
(lp2264
g49
(g70
g51
NtRp2265
(dp2266
g54
(dp2267
g74
g75
ssg63
g2261
sg56
(lp2268
g1330
asbag49
(g70
g51
NtRp2269
(dp2270
g54
(dp2271
g81
g82
ssg63
g2261
sg56
(lp2272
S':'
asbag49
(g70
g51
NtRp2273
(dp2274
g54
(dp2275
sg63
g2261
sg56
(lp2276
g49
(g50
g51
NtRp2277
(dp2278
g54
(dp2279
g62
I4
ssg63
g2273
sg56
(lp2280
g49
(g58
g51
NtRp2281
(dp2282
g54
(dp2283
g62
I3
ssg63
Nsg56
(lp2284
g49
(g65
g51
NtRp2285
(dp2286
g54
(dp2287
sg63
g2281
sg56
(lp2288
g49
(g70
g51
NtRp2289
(dp2290
g54
(dp2291
sg63
g2285
sg56
(lp2292
g49
(g50
g51
NtRp2293
(dp2294
g54
(dp2295
g62
I3
ssg63
g2289
sg56
(lp2296
g1359
asbasbasbag49
(g65
g51
NtRp2297
(dp2298
g54
(dp2299
sg63
g2281
sg56
(lp2300
g49
(g70
g51
NtRp2301
(dp2302
g54
(dp2303
sg63
g2297
sg56
(lp2304
g49
(g50
g51
NtRp2305
(dp2306
g54
(dp2307
g62
I3
ssg63
g2301
sg56
(lp2308
g1372
asbasbasbag49
(g65
g51
NtRp2309
(dp2310
g54
(dp2311
sg63
g2281
sg56
(lp2312
g49
(g70
g51
NtRp2313
(dp2314
g54
(dp2315
sg63
g2309
sg56
(lp2316
g49
(g50
g51
NtRp2317
(dp2318
g54
(dp2319
g62
I3
ssg63
g2313
sg56
(lp2320
g1385
asbasbasbag49
(g65
g51
NtRp2321
(dp2322
g54
(dp2323
sg63
g2281
sg56
(lp2324
g49
(g70
g51
NtRp2325
(dp2326
g54
(dp2327
sg63
g2321
sg56
(lp2328
g49
(g50
g51
NtRp2329
(dp2330
g54
(dp2331
g62
I3
ssg63
g2325
sg56
(lp2332
g1398
asbasbasbag49
(g65
g51
NtRp2333
(dp2334
g54
(dp2335
sg63
g2281
sg56
(lp2336
g49
(g70
g51
NtRp2337
(dp2338
g54
(dp2339
sg63
g2333
sg56
(lp2340
g49
(g50
g51
NtRp2341
(dp2342
g54
(dp2343
g62
I3
ssg63
g2337
sg56
(lp2344
g1411
asbasbasbasbasbasbasbag49
(g65
g51
NtRp2345
(dp2346
g54
(dp2347
sg63
g2070
sg56
(lp2348
g49
(g70
g51
NtRp2349
(dp2350
g54
(dp2351
g74
g75
ssg63
g2345
sg56
(lp2352
g1679
asbag49
(g70
g51
NtRp2353
(dp2354
g54
(dp2355
g81
g82
ssg63
g2345
sg56
(lp2356
S':'
asbag49
(g70
g51
NtRp2357
(dp2358
g54
(dp2359
sg63
g2345
sg56
(lp2360
g49
(g50
g51
NtRp2361
(dp2362
g54
(dp2363
g62
I4
ssg63
g2357
sg56
(lp2364
g49
(g58
g51
NtRp2365
(dp2366
g54
(dp2367
g62
I3
ssg63
Nsg56
(lp2368
g49
(g65
g51
NtRp2369
(dp2370
g54
(dp2371
sg63
g2365
sg56
(lp2372
g49
(g70
g51
NtRp2373
(dp2374
g54
(dp2375
sg63
g2369
sg56
(lp2376
g49
(g50
g51
NtRp2377
(dp2378
g54
(dp2379
g62
I3
ssg63
g2373
sg56
(lp2380
S'2'
asbasbasbag49
(g65
g51
NtRp2381
(dp2382
g54
(dp2383
sg63
g2365
sg56
(lp2384
g49
(g70
g51
NtRp2385
(dp2386
g54
(dp2387
sg63
g2381
sg56
(lp2388
g49
(g50
g51
NtRp2389
(dp2390
g54
(dp2391
g62
I3
ssg63
g2385
sg56
(lp2392
S'4'
asbasbasbag49
(g65
g51
NtRp2393
(dp2394
g54
(dp2395
sg63
g2365
sg56
(lp2396
g49
(g70
g51
NtRp2397
(dp2398
g54
(dp2399
sg63
g2393
sg56
(lp2400
g49
(g50
g51
NtRp2401
(dp2402
g54
(dp2403
g62
I3
ssg63
g2397
sg56
(lp2404
S'5'
asbasbasbag49
(g65
g51
NtRp2405
(dp2406
g54
(dp2407
sg63
g2365
sg56
(lp2408
g49
(g70
g51
NtRp2409
(dp2410
g54
(dp2411
sg63
g2405
sg56
(lp2412
g49
(g50
g51
NtRp2413
(dp2414
g54
(dp2415
g62
I3
ssg63
g2409
sg56
(lp2416
g1744
asbasbasbag49
(g65
g51
NtRp2417
(dp2418
g54
(dp2419
sg63
g2365
sg56
(lp2420
g49
(g70
g51
NtRp2421
(dp2422
g54
(dp2423
sg63
g2417
sg56
(lp2424
g49
(g50
g51
NtRp2425
(dp2426
g54
(dp2427
g62
I3
ssg63
g2421
sg56
(lp2428
S'datetime.datetime(2013, 3, 18, 22, 46, 22)'
p2429
asbasbasbasbasbasbasbasbasbasbasbag49
(g65
g51
NtRp2430
(dp2431
g54
(dp2432
sg63
g59
sg56
(lp2433
g49
(g70
g51
NtRp2434
(dp2435
g54
(dp2436
g74
g75
ssg63
g2430
sg56
(lp2437
S'is_https'
p2438
asbag49
(g70
g51
NtRp2439
(dp2440
g54
(dp2441
g81
g82
ssg63
g2430
sg56
(lp2442
S':'
asbag49
(g70
g51
NtRp2443
(dp2444
g54
(dp2445
sg63
g2430
sg56
(lp2446
g49
(g50
g51
NtRp2447
(dp2448
g54
(dp2449
g62
I5
ssg63
g2443
sg56
(lp2450
g1300
asbasbasbag49
(g65
g51
NtRp2451
(dp2452
g54
(dp2453
sg63
g59
sg56
(lp2454
g49
(g70
g51
NtRp2455
(dp2456
g54
(dp2457
g74
g75
ssg63
g2451
sg56
(lp2458
S'is_local'
p2459
asbag49
(g70
g51
NtRp2460
(dp2461
g54
(dp2462
g81
g82
ssg63
g2451
sg56
(lp2463
S':'
asbag49
(g70
g51
NtRp2464
(dp2465
g54
(dp2466
sg63
g2451
sg56
(lp2467
g49
(g50
g51
NtRp2468
(dp2469
g54
(dp2470
g62
I5
ssg63
g2464
sg56
(lp2471
g92
asbasbasbag49
(g65
g51
NtRp2472
(dp2473
g54
(dp2474
sg63
g59
sg56
(lp2475
g49
(g70
g51
NtRp2476
(dp2477
g54
(dp2478
g74
g75
ssg63
g2472
sg56
(lp2479
S'is_restful'
p2480
asbag49
(g70
g51
NtRp2481
(dp2482
g54
(dp2483
g81
g82
ssg63
g2472
sg56
(lp2484
S':'
asbag49
(g70
g51
NtRp2485
(dp2486
g54
(dp2487
sg63
g2472
sg56
(lp2488
g49
(g50
g51
NtRp2489
(dp2490
g54
(dp2491
g62
I5
ssg63
g2485
sg56
(lp2492
g1300
asbasbasbag49
(g65
g51
NtRp2493
(dp2494
g54
(dp2495
sg63
g59
sg56
(lp2496
g49
(g70
g51
NtRp2497
(dp2498
g54
(dp2499
g74
g75
ssg63
g2493
sg56
(lp2500
S'now'
p2501
asbag49
(g70
g51
NtRp2502
(dp2503
g54
(dp2504
g81
g82
ssg63
g2493
sg56
(lp2505
S':'
asbag49
(g70
g51
NtRp2506
(dp2507
g54
(dp2508
sg63
g2493
sg56
(lp2509
g49
(g50
g51
NtRp2510
(dp2511
g54
(dp2512
g62
I5
ssg63
g2506
sg56
(lp2513
S'datetime.datetime(2013, 3, 26, 13, 9, 14, 213349)'
p2514
asbasbasbag49
(g65
g51
NtRp2515
(dp2516
g54
(dp2517
sg63
g59
sg56
(lp2518
g49
(g70
g51
NtRp2519
(dp2520
g54
(dp2521
g74
g75
ssg63
g2515
sg56
(lp2522
S'post_vars'
p2523
asbag49
(g70
g51
NtRp2524
(dp2525
g54
(dp2526
g81
g82
ssg63
g2515
sg56
(lp2527
S':'
asbag49
(g70
g51
NtRp2528
(dp2529
g54
(dp2530
sg63
g2515
sg56
(lp2531
g49
(g50
g51
NtRp2532
(dp2533
g54
(dp2534
g62
I5
ssg63
g2528
sg56
(lp2535
g49
(g58
g51
NtRp2536
(dp2537
g54
(dp2538
g62
I4
ssg63
Nsg56
(lp2539
g49
(g65
g51
NtRp2540
(dp2541
g54
(dp2542
sg63
g2536
sg56
(lp2543
g49
(g70
g51
NtRp2544
(dp2545
g54
(dp2546
g74
g75
ssg63
g2540
sg56
(lp2547
S'statement'
p2548
asbag49
(g70
g51
NtRp2549
(dp2550
g54
(dp2551
g81
g82
ssg63
g2540
sg56
(lp2552
S':'
asbag49
(g70
g51
NtRp2553
(dp2554
g54
(dp2555
sg63
g2540
sg56
(lp2556
g49
(g50
g51
NtRp2557
(dp2558
g54
(dp2559
g62
I4
ssg63
g2553
sg56
(lp2560
S'y = db(db.slot)\n'
p2561
asbasbasbasbasbasbasbag49
(g65
g51
NtRp2562
(dp2563
g54
(dp2564
sg63
g59
sg56
(lp2565
g49
(g70
g51
NtRp2566
(dp2567
g54
(dp2568
g74
g75
ssg63
g2562
sg56
(lp2569
S'raw_args'
p2570
asbag49
(g70
g51
NtRp2571
(dp2572
g54
(dp2573
g81
g82
ssg63
g2562
sg56
(lp2574
S':'
asbag49
(g70
g51
NtRp2575
(dp2576
g54
(dp2577
sg63
g2562
sg56
(lp2578
g49
(g50
g51
NtRp2579
(dp2580
g54
(dp2581
g62
I5
ssg63
g2575
sg56
(lp2582
S'hellow'
p2583
asbasbasbag49
(g65
g51
NtRp2584
(dp2585
g54
(dp2586
sg63
g59
sg56
(lp2587
g49
(g70
g51
NtRp2588
(dp2589
g54
(dp2590
g74
g75
ssg63
g2584
sg56
(lp2591
S'raw_extension'
p2592
asbag49
(g70
g51
NtRp2593
(dp2594
g54
(dp2595
g81
g82
ssg63
g2584
sg56
(lp2596
S':'
asbag49
(g70
g51
NtRp2597
(dp2598
g54
(dp2599
sg63
g2584
sg56
(lp2600
g49
(g50
g51
NtRp2601
(dp2602
g54
(dp2603
g62
I5
ssg63
g2597
sg56
(lp2604
S'None'
p2605
asbasbasbag49
(g65
g51
NtRp2606
(dp2607
g54
(dp2608
sg63
g59
sg56
(lp2609
g49
(g70
g51
NtRp2610
(dp2611
g54
(dp2612
g74
g75
ssg63
g2606
sg56
(lp2613
S'url'
p2614
asbag49
(g70
g51
NtRp2615
(dp2616
g54
(dp2617
g81
g82
ssg63
g2606
sg56
(lp2618
S':'
asbag49
(g70
g51
NtRp2619
(dp2620
g54
(dp2621
sg63
g2606
sg56
(lp2622
g49
(g50
g51
NtRp2623
(dp2624
g54
(dp2625
g62
I5
ssg63
g2619
sg56
(lp2626
g1433
asbasbasbag49
(g65
g51
NtRp2627
(dp2628
g54
(dp2629
sg63
g59
sg56
(lp2630
g49
(g70
g51
NtRp2631
(dp2632
g54
(dp2633
g74
g75
ssg63
g2627
sg56
(lp2634
S'utcnow'
p2635
asbag49
(g70
g51
NtRp2636
(dp2637
g54
(dp2638
g81
g82
ssg63
g2627
sg56
(lp2639
S':'
asbag49
(g70
g51
NtRp2640
(dp2641
g54
(dp2642
sg63
g2627
sg56
(lp2643
g49
(g50
g51
NtRp2644
(dp2645
g54
(dp2646
g62
I5
ssg63
g2640
sg56
(lp2647
S'datetime.datetime(2013, 3, 26, 17, 9, 14, 213359)'
p2648
asbasbasbag49
(g65
g51
NtRp2649
(dp2650
g54
(dp2651
sg63
g59
sg56
(lp2652
g49
(g70
g51
NtRp2653
(dp2654
g54
(dp2655
g74
g75
ssg63
g2649
sg56
(lp2656
S'uuid'
p2657
asbag49
(g70
g51
NtRp2658
(dp2659
g54
(dp2660
g81
g82
ssg63
g2649
sg56
(lp2661
S':'
asbag49
(g70
g51
NtRp2662
(dp2663
g54
(dp2664
sg63
g2649
sg56
(lp2665
g49
(g50
g51
NtRp2666
(dp2667
g54
(dp2668
g62
I5
ssg63
g2662
sg56
(lp2669
S'admin/127.0.0.1.2013-03-26.13-09-14.be5d6963-9f9b-46a9-8063-a3d5de75e351'
p2670
asbasbasbag49
(g65
g51
NtRp2671
(dp2672
g54
(dp2673
sg63
g59
sg56
(lp2674
g49
(g70
g51
NtRp2675
(dp2676
g54
(dp2677
g74
g75
ssg63
g2671
sg56
(lp2678
S'vars'
p2679
asbag49
(g70
g51
NtRp2680
(dp2681
g54
(dp2682
g81
g82
ssg63
g2671
sg56
(lp2683
S':'
asbag49
(g70
g51
NtRp2684
(dp2685
g54
(dp2686
sg63
g2671
sg56
(lp2687
g49
(g50
g51
NtRp2688
(dp2689
g54
(dp2690
g62
I5
ssg63
g2684
sg56
(lp2691
g49
(g58
g51
NtRp2692
(dp2693
g54
(dp2694
g62
I4
ssg63
Nsg56
(lp2695
g49
(g65
g51
NtRp2696
(dp2697
g54
(dp2698
sg63
g2692
sg56
(lp2699
g49
(g70
g51
NtRp2700
(dp2701
g54
(dp2702
g74
g75
ssg63
g2696
sg56
(lp2703
g2548
asbag49
(g70
g51
NtRp2704
(dp2705
g54
(dp2706
g81
g82
ssg63
g2696
sg56
(lp2707
S':'
asbag49
(g70
g51
NtRp2708
(dp2709
g54
(dp2710
sg63
g2696
sg56
(lp2711
g49
(g50
g51
NtRp2712
(dp2713
g54
(dp2714
g62
I4
ssg63
g2708
sg56
(lp2715
g2561
asbasbasbasbasbasbasbag49
(g65
g51
NtRp2716
(dp2717
g54
(dp2718
sg63
g59
sg56
(lp2719
g49
(g70
g51
NtRp2720
(dp2721
g54
(dp2722
g74
g75
ssg63
g2716
sg56
(lp2723
S'wsgi'
p2724
asbag49
(g70
g51
NtRp2725
(dp2726
g54
(dp2727
g81
g82
ssg63
g2716
sg56
(lp2728
S':'
asbag49
(g70
g51
NtRp2729
(dp2730
g54
(dp2731
sg63
g2716
sg56
(lp2732
g49
(g50
g51
NtRp2733
(dp2734
g54
(dp2735
g62
I5
ssg63
g2729
sg56
(lp2736
g49
(g58
g51
NtRp2737
(dp2738
g54
(dp2739
g62
I4
ssg63
Nsg56
(lp2740
g49
(g65
g51
NtRp2741
(dp2742
g54
(dp2743
sg63
g2737
sg56
(lp2744
g49
(g70
g51
NtRp2745
(dp2746
g54
(dp2747
g74
g75
ssg63
g2741
sg56
(lp2748
S'environ'
p2749
asbag49
(g70
g51
NtRp2750
(dp2751
g54
(dp2752
g81
g82
ssg63
g2741
sg56
(lp2753
S':'
asbag49
(g70
g51
NtRp2754
(dp2755
g54
(dp2756
sg63
g2741
sg56
(lp2757
g49
(g50
g51
NtRp2758
(dp2759
g54
(dp2760
g62
I4
ssg63
g2754
sg56
(lp2761
g49
(g58
g51
NtRp2762
(dp2763
g54
(dp2764
g62
I3
ssg63
Nsg56
(lp2765
g49
(g65
g51
NtRp2766
(dp2767
g54
(dp2768
sg63
g2762
sg56
(lp2769
g49
(g70
g51
NtRp2770
(dp2771
g54
(dp2772
g74
g75
ssg63
g2766
sg56
(lp2773
S'CONTENT_LENGTH'
p2774
asbag49
(g70
g51
NtRp2775
(dp2776
g54
(dp2777
g81
g82
ssg63
g2766
sg56
(lp2778
S':'
asbag49
(g70
g51
NtRp2779
(dp2780
g54
(dp2781
sg63
g2766
sg56
(lp2782
g49
(g50
g51
NtRp2783
(dp2784
g54
(dp2785
g62
I3
ssg63
g2779
sg56
(lp2786
g907
asbasbasbag49
(g65
g51
NtRp2787
(dp2788
g54
(dp2789
sg63
g2762
sg56
(lp2790
g49
(g70
g51
NtRp2791
(dp2792
g54
(dp2793
g74
g75
ssg63
g2787
sg56
(lp2794
S'CONTENT_TYPE'
p2795
asbag49
(g70
g51
NtRp2796
(dp2797
g54
(dp2798
g81
g82
ssg63
g2787
sg56
(lp2799
S':'
asbag49
(g70
g51
NtRp2800
(dp2801
g54
(dp2802
sg63
g2787
sg56
(lp2803
g49
(g50
g51
NtRp2804
(dp2805
g54
(dp2806
g62
I3
ssg63
g2800
sg56
(lp2807
g929
asbasbasbag49
(g65
g51
NtRp2808
(dp2809
g54
(dp2810
sg63
g2762
sg56
(lp2811
g49
(g70
g51
NtRp2812
(dp2813
g54
(dp2814
g74
g75
ssg63
g2808
sg56
(lp2815
S'HTTP_ACCEPT'
p2816
asbag49
(g70
g51
NtRp2817
(dp2818
g54
(dp2819
g81
g82
ssg63
g2808
sg56
(lp2820
S':'
asbag49
(g70
g51
NtRp2821
(dp2822
g54
(dp2823
sg63
g2808
sg56
(lp2824
g49
(g50
g51
NtRp2825
(dp2826
g54
(dp2827
g62
I3
ssg63
g2821
sg56
(lp2828
g1016
asbasbasbag49
(g65
g51
NtRp2829
(dp2830
g54
(dp2831
sg63
g2762
sg56
(lp2832
g49
(g70
g51
NtRp2833
(dp2834
g54
(dp2835
g74
g75
ssg63
g2829
sg56
(lp2836
S'HTTP_ACCEPT_CHARSET'
p2837
asbag49
(g70
g51
NtRp2838
(dp2839
g54
(dp2840
g81
g82
ssg63
g2829
sg56
(lp2841
S':'
asbag49
(g70
g51
NtRp2842
(dp2843
g54
(dp2844
sg63
g2829
sg56
(lp2845
g49
(g50
g51
NtRp2846
(dp2847
g54
(dp2848
g62
I3
ssg63
g2842
sg56
(lp2849
g1038
asbasbasbag49
(g65
g51
NtRp2850
(dp2851
g54
(dp2852
sg63
g2762
sg56
(lp2853
g49
(g70
g51
NtRp2854
(dp2855
g54
(dp2856
g74
g75
ssg63
g2850
sg56
(lp2857
S'HTTP_ACCEPT_ENCODING'
p2858
asbag49
(g70
g51
NtRp2859
(dp2860
g54
(dp2861
g81
g82
ssg63
g2850
sg56
(lp2862
S':'
asbag49
(g70
g51
NtRp2863
(dp2864
g54
(dp2865
sg63
g2850
sg56
(lp2866
g49
(g50
g51
NtRp2867
(dp2868
g54
(dp2869
g62
I3
ssg63
g2863
sg56
(lp2870
g1060
asbasbasbag49
(g65
g51
NtRp2871
(dp2872
g54
(dp2873
sg63
g2762
sg56
(lp2874
g49
(g70
g51
NtRp2875
(dp2876
g54
(dp2877
g74
g75
ssg63
g2871
sg56
(lp2878
S'HTTP_ACCEPT_LANGUAGE'
p2879
asbag49
(g70
g51
NtRp2880
(dp2881
g54
(dp2882
g81
g82
ssg63
g2871
sg56
(lp2883
S':'
asbag49
(g70
g51
NtRp2884
(dp2885
g54
(dp2886
sg63
g2871
sg56
(lp2887
g49
(g50
g51
NtRp2888
(dp2889
g54
(dp2890
g62
I3
ssg63
g2884
sg56
(lp2891
g1082
asbasbasbag49
(g65
g51
NtRp2892
(dp2893
g54
(dp2894
sg63
g2762
sg56
(lp2895
g49
(g70
g51
NtRp2896
(dp2897
g54
(dp2898
g74
g75
ssg63
g2892
sg56
(lp2899
S'HTTP_CONNECTION'
p2900
asbag49
(g70
g51
NtRp2901
(dp2902
g54
(dp2903
g81
g82
ssg63
g2892
sg56
(lp2904
S':'
asbag49
(g70
g51
NtRp2905
(dp2906
g54
(dp2907
sg63
g2892
sg56
(lp2908
g49
(g50
g51
NtRp2909
(dp2910
g54
(dp2911
g62
I3
ssg63
g2905
sg56
(lp2912
g1104
asbasbasbag49
(g65
g51
NtRp2913
(dp2914
g54
(dp2915
sg63
g2762
sg56
(lp2916
g49
(g70
g51
NtRp2917
(dp2918
g54
(dp2919
g74
g75
ssg63
g2913
sg56
(lp2920
S'HTTP_CONTENT_LENGTH'
p2921
asbag49
(g70
g51
NtRp2922
(dp2923
g54
(dp2924
g81
g82
ssg63
g2913
sg56
(lp2925
S':'
asbag49
(g70
g51
NtRp2926
(dp2927
g54
(dp2928
sg63
g2913
sg56
(lp2929
g49
(g50
g51
NtRp2930
(dp2931
g54
(dp2932
g62
I3
ssg63
g2926
sg56
(lp2933
g907
asbasbasbag49
(g65
g51
NtRp2934
(dp2935
g54
(dp2936
sg63
g2762
sg56
(lp2937
g49
(g70
g51
NtRp2938
(dp2939
g54
(dp2940
g74
g75
ssg63
g2934
sg56
(lp2941
S'HTTP_CONTENT_TYPE'
p2942
asbag49
(g70
g51
NtRp2943
(dp2944
g54
(dp2945
g81
g82
ssg63
g2934
sg56
(lp2946
S':'
asbag49
(g70
g51
NtRp2947
(dp2948
g54
(dp2949
sg63
g2934
sg56
(lp2950
g49
(g50
g51
NtRp2951
(dp2952
g54
(dp2953
g62
I3
ssg63
g2947
sg56
(lp2954
g929
asbasbasbag49
(g65
g51
NtRp2955
(dp2956
g54
(dp2957
sg63
g2762
sg56
(lp2958
g49
(g70
g51
NtRp2959
(dp2960
g54
(dp2961
g74
g75
ssg63
g2955
sg56
(lp2962
S'HTTP_COOKIE'
p2963
asbag49
(g70
g51
NtRp2964
(dp2965
g54
(dp2966
g81
g82
ssg63
g2955
sg56
(lp2967
S':'
asbag49
(g70
g51
NtRp2968
(dp2969
g54
(dp2970
sg63
g2955
sg56
(lp2971
g49
(g50
g51
NtRp2972
(dp2973
g54
(dp2974
g62
I3
ssg63
g2968
sg56
(lp2975
g1168
asbasbasbag49
(g65
g51
NtRp2976
(dp2977
g54
(dp2978
sg63
g2762
sg56
(lp2979
g49
(g70
g51
NtRp2980
(dp2981
g54
(dp2982
g74
g75
ssg63
g2976
sg56
(lp2983
S'HTTP_HOST'
p2984
asbag49
(g70
g51
NtRp2985
(dp2986
g54
(dp2987
g81
g82
ssg63
g2976
sg56
(lp2988
S':'
asbag49
(g70
g51
NtRp2989
(dp2990
g54
(dp2991
sg63
g2976
sg56
(lp2992
g49
(g50
g51
NtRp2993
(dp2994
g54
(dp2995
g62
I3
ssg63
g2989
sg56
(lp2996
g1190
asbasbasbag49
(g65
g51
NtRp2997
(dp2998
g54
(dp2999
sg63
g2762
sg56
(lp3000
g49
(g70
g51
NtRp3001
(dp3002
g54
(dp3003
g74
g75
ssg63
g2997
sg56
(lp3004
S'HTTP_ORIGIN'
p3005
asbag49
(g70
g51
NtRp3006
(dp3007
g54
(dp3008
g81
g82
ssg63
g2997
sg56
(lp3009
S':'
asbag49
(g70
g51
NtRp3010
(dp3011
g54
(dp3012
sg63
g2997
sg56
(lp3013
g49
(g50
g51
NtRp3014
(dp3015
g54
(dp3016
g62
I3
ssg63
g3010
sg56
(lp3017
g1212
asbasbasbag49
(g65
g51
NtRp3018
(dp3019
g54
(dp3020
sg63
g2762
sg56
(lp3021
g49
(g70
g51
NtRp3022
(dp3023
g54
(dp3024
g74
g75
ssg63
g3018
sg56
(lp3025
S'HTTP_REFERER'
p3026
asbag49
(g70
g51
NtRp3027
(dp3028
g54
(dp3029
g81
g82
ssg63
g3018
sg56
(lp3030
S':'
asbag49
(g70
g51
NtRp3031
(dp3032
g54
(dp3033
sg63
g3018
sg56
(lp3034
g49
(g50
g51
NtRp3035
(dp3036
g54
(dp3037
g62
I3
ssg63
g3031
sg56
(lp3038
g1234
asbasbasbag49
(g65
g51
NtRp3039
(dp3040
g54
(dp3041
sg63
g2762
sg56
(lp3042
g49
(g70
g51
NtRp3043
(dp3044
g54
(dp3045
g74
g75
ssg63
g3039
sg56
(lp3046
S'HTTP_USER_AGENT'
p3047
asbag49
(g70
g51
NtRp3048
(dp3049
g54
(dp3050
g81
g82
ssg63
g3039
sg56
(lp3051
S':'
asbag49
(g70
g51
NtRp3052
(dp3053
g54
(dp3054
sg63
g3039
sg56
(lp3055
g49
(g50
g51
NtRp3056
(dp3057
g54
(dp3058
g62
I3
ssg63
g3052
sg56
(lp3059
g1256
asbasbasbag49
(g65
g51
NtRp3060
(dp3061
g54
(dp3062
sg63
g2762
sg56
(lp3063
g49
(g70
g51
NtRp3064
(dp3065
g54
(dp3066
g74
g75
ssg63
g3060
sg56
(lp3067
S'HTTP_X_REQUESTED_WITH'
p3068
asbag49
(g70
g51
NtRp3069
(dp3070
g54
(dp3071
g81
g82
ssg63
g3060
sg56
(lp3072
S':'
asbag49
(g70
g51
NtRp3073
(dp3074
g54
(dp3075
sg63
g3060
sg56
(lp3076
g49
(g50
g51
NtRp3077
(dp3078
g54
(dp3079
g62
I3
ssg63
g3073
sg56
(lp3080
g1278
asbasbasbag49
(g65
g51
NtRp3081
(dp3082
g54
(dp3083
sg63
g2762
sg56
(lp3084
g49
(g70
g51
NtRp3085
(dp3086
g54
(dp3087
g74
g75
ssg63
g3081
sg56
(lp3088
S'PATH_INFO'
p3089
asbag49
(g70
g51
NtRp3090
(dp3091
g54
(dp3092
g81
g82
ssg63
g3081
sg56
(lp3093
S':'
asbag49
(g70
g51
NtRp3094
(dp3095
g54
(dp3096
sg63
g3081
sg56
(lp3097
g49
(g50
g51
NtRp3098
(dp3099
g54
(dp3100
g62
I3
ssg63
g3094
sg56
(lp3101
g1433
asbasbasbag49
(g65
g51
NtRp3102
(dp3103
g54
(dp3104
sg63
g2762
sg56
(lp3105
g49
(g70
g51
NtRp3106
(dp3107
g54
(dp3108
g74
g75
ssg63
g3102
sg56
(lp3109
S'QUERY_STRING'
p3110
asbag49
(g70
g51
NtRp3111
(dp3112
g54
(dp3113
g81
g82
ssg63
g3102
sg56
(lp3114
S':'
asbag49
(g70
g51
NtRp3115
(dp3116
g54
(dp3117
sg63
g3102
sg56
(lp3118
g49
(g50
g51
NtRp3119
(dp3120
g54
(dp3121
g62
I3
ssg63
g3115
sg56
(lp3122
S''
asbasbasbag49
(g65
g51
NtRp3123
(dp3124
g54
(dp3125
sg63
g2762
sg56
(lp3126
g49
(g70
g51
NtRp3127
(dp3128
g54
(dp3129
g74
g75
ssg63
g3123
sg56
(lp3130
S'REMOTE_ADDR'
p3131
asbag49
(g70
g51
NtRp3132
(dp3133
g54
(dp3134
g81
g82
ssg63
g3123
sg56
(lp3135
S':'
asbag49
(g70
g51
NtRp3136
(dp3137
g54
(dp3138
sg63
g3123
sg56
(lp3139
g49
(g50
g51
NtRp3140
(dp3141
g54
(dp3142
g62
I3
ssg63
g3136
sg56
(lp3143
g217
asbasbasbag49
(g65
g51
NtRp3144
(dp3145
g54
(dp3146
sg63
g2762
sg56
(lp3147
g49
(g70
g51
NtRp3148
(dp3149
g54
(dp3150
g74
g75
ssg63
g3144
sg56
(lp3151
S'REMOTE_PORT'
p3152
asbag49
(g70
g51
NtRp3153
(dp3154
g54
(dp3155
g81
g82
ssg63
g3144
sg56
(lp3156
S':'
asbag49
(g70
g51
NtRp3157
(dp3158
g54
(dp3159
sg63
g3144
sg56
(lp3160
g49
(g50
g51
NtRp3161
(dp3162
g54
(dp3163
g62
I3
ssg63
g3157
sg56
(lp3164
g1497
asbasbasbag49
(g65
g51
NtRp3165
(dp3166
g54
(dp3167
sg63
g2762
sg56
(lp3168
g49
(g70
g51
NtRp3169
(dp3170
g54
(dp3171
g74
g75
ssg63
g3165
sg56
(lp3172
S'REQUEST_METHOD'
p3173
asbag49
(g70
g51
NtRp3174
(dp3175
g54
(dp3176
g81
g82
ssg63
g3165
sg56
(lp3177
S':'
asbag49
(g70
g51
NtRp3178
(dp3179
g54
(dp3180
sg63
g3165
sg56
(lp3181
g49
(g50
g51
NtRp3182
(dp3183
g54
(dp3184
g62
I3
ssg63
g3178
sg56
(lp3185
g1519
asbasbasbag49
(g65
g51
NtRp3186
(dp3187
g54
(dp3188
sg63
g2762
sg56
(lp3189
g49
(g70
g51
NtRp3190
(dp3191
g54
(dp3192
g74
g75
ssg63
g3186
sg56
(lp3193
S'REQUEST_URI'
p3194
asbag49
(g70
g51
NtRp3195
(dp3196
g54
(dp3197
g81
g82
ssg63
g3186
sg56
(lp3198
S':'
asbag49
(g70
g51
NtRp3199
(dp3200
g54
(dp3201
sg63
g3186
sg56
(lp3202
g49
(g50
g51
NtRp3203
(dp3204
g54
(dp3205
g62
I3
ssg63
g3199
sg56
(lp3206
g1433
asbasbasbag49
(g65
g51
NtRp3207
(dp3208
g54
(dp3209
sg63
g2762
sg56
(lp3210
g49
(g70
g51
NtRp3211
(dp3212
g54
(dp3213
g74
g75
ssg63
g3207
sg56
(lp3214
S'SCRIPT_NAME'
p3215
asbag49
(g70
g51
NtRp3216
(dp3217
g54
(dp3218
g81
g82
ssg63
g3207
sg56
(lp3219
S':'
asbag49
(g70
g51
NtRp3220
(dp3221
g54
(dp3222
sg63
g3207
sg56
(lp3223
g49
(g50
g51
NtRp3224
(dp3225
g54
(dp3226
g62
I3
ssg63
g3220
sg56
(lp3227
S''
asbasbasbag49
(g65
g51
NtRp3228
(dp3229
g54
(dp3230
sg63
g2762
sg56
(lp3231
g49
(g70
g51
NtRp3232
(dp3233
g54
(dp3234
g74
g75
ssg63
g3228
sg56
(lp3235
S'SERVER_NAME'
p3236
asbag49
(g70
g51
NtRp3237
(dp3238
g54
(dp3239
g81
g82
ssg63
g3228
sg56
(lp3240
S':'
asbag49
(g70
g51
NtRp3241
(dp3242
g54
(dp3243
sg63
g3228
sg56
(lp3244
g49
(g50
g51
NtRp3245
(dp3246
g54
(dp3247
g62
I3
ssg63
g3241
sg56
(lp3248
g1583
asbasbasbag49
(g65
g51
NtRp3249
(dp3250
g54
(dp3251
sg63
g2762
sg56
(lp3252
g49
(g70
g51
NtRp3253
(dp3254
g54
(dp3255
g74
g75
ssg63
g3249
sg56
(lp3256
S'SERVER_PORT'
p3257
asbag49
(g70
g51
NtRp3258
(dp3259
g54
(dp3260
g81
g82
ssg63
g3249
sg56
(lp3261
S':'
asbag49
(g70
g51
NtRp3262
(dp3263
g54
(dp3264
sg63
g3249
sg56
(lp3265
g49
(g50
g51
NtRp3266
(dp3267
g54
(dp3268
g62
I3
ssg63
g3262
sg56
(lp3269
g1605
asbasbasbag49
(g65
g51
NtRp3270
(dp3271
g54
(dp3272
sg63
g2762
sg56
(lp3273
g49
(g70
g51
NtRp3274
(dp3275
g54
(dp3276
g74
g75
ssg63
g3270
sg56
(lp3277
S'SERVER_PROTOCOL'
p3278
asbag49
(g70
g51
NtRp3279
(dp3280
g54
(dp3281
g81
g82
ssg63
g3270
sg56
(lp3282
S':'
asbag49
(g70
g51
NtRp3283
(dp3284
g54
(dp3285
sg63
g3270
sg56
(lp3286
g49
(g50
g51
NtRp3287
(dp3288
g54
(dp3289
g62
I3
ssg63
g3283
sg56
(lp3290
g1627
asbasbasbag49
(g65
g51
NtRp3291
(dp3292
g54
(dp3293
sg63
g2762
sg56
(lp3294
g49
(g70
g51
NtRp3295
(dp3296
g54
(dp3297
g74
g75
ssg63
g3291
sg56
(lp3298
S'SERVER_SOFTWARE'
p3299
asbag49
(g70
g51
NtRp3300
(dp3301
g54
(dp3302
g81
g82
ssg63
g3291
sg56
(lp3303
S':'
asbag49
(g70
g51
NtRp3304
(dp3305
g54
(dp3306
sg63
g3291
sg56
(lp3307
g49
(g50
g51
NtRp3308
(dp3309
g54
(dp3310
g62
I3
ssg63
g3304
sg56
(lp3311
g1649
asbasbasbag49
(g65
g51
NtRp3312
(dp3313
g54
(dp3314
sg63
g2762
sg56
(lp3315
g49
(g70
g51
NtRp3316
(dp3317
g54
(dp3318
g74
g75
ssg63
g3312
sg56
(lp3319
S'wsgi.errors'
p3320
asbag49
(g70
g51
NtRp3321
(dp3322
g54
(dp3323
g81
g82
ssg63
g3312
sg56
(lp3324
S':'
asbag49
(g70
g51
NtRp3325
(dp3326
g54
(dp3327
sg63
g3312
sg56
(lp3328
g49
(g50
g51
NtRp3329
(dp3330
g54
(dp3331
g62
I3
ssg63
g3325
sg56
(lp3332
S"<open file '<stderr>', mode 'w' at 0x540b0>"
p3333
asbasbasbag49
(g65
g51
NtRp3334
(dp3335
g54
(dp3336
sg63
g2762
sg56
(lp3337
g49
(g70
g51
NtRp3338
(dp3339
g54
(dp3340
g74
g75
ssg63
g3334
sg56
(lp3341
S'wsgi.file_wrapper'
p3342
asbag49
(g70
g51
NtRp3343
(dp3344
g54
(dp3345
g81
g82
ssg63
g3334
sg56
(lp3346
S':'
asbag49
(g70
g51
NtRp3347
(dp3348
g54
(dp3349
sg63
g3334
sg56
(lp3350
g49
(g50
g51
NtRp3351
(dp3352
g54
(dp3353
g62
I3
ssg63
g3347
sg56
(lp3354
S'<class wsgiref.util.FileWrapper at 0x329d060>'
p3355
asbasbasbag49
(g65
g51
NtRp3356
(dp3357
g54
(dp3358
sg63
g2762
sg56
(lp3359
g49
(g70
g51
NtRp3360
(dp3361
g54
(dp3362
g74
g75
ssg63
g3356
sg56
(lp3363
S'wsgi.input'
p3364
asbag49
(g70
g51
NtRp3365
(dp3366
g54
(dp3367
g81
g82
ssg63
g3356
sg56
(lp3368
S':'
asbag49
(g70
g51
NtRp3369
(dp3370
g54
(dp3371
sg63
g3356
sg56
(lp3372
g49
(g50
g51
NtRp3373
(dp3374
g54
(dp3375
g62
I3
ssg63
g3369
sg56
(lp3376
S"<open file '<fdopen>', mode 'w+b' at 0xa27f4e8>"
p3377
asbasbasbag49
(g65
g51
NtRp3378
(dp3379
g54
(dp3380
sg63
g2762
sg56
(lp3381
g49
(g70
g51
NtRp3382
(dp3383
g54
(dp3384
g74
g75
ssg63
g3378
sg56
(lp3385
S'wsgi.multiprocess'
p3386
asbag49
(g70
g51
NtRp3387
(dp3388
g54
(dp3389
g81
g82
ssg63
g3378
sg56
(lp3390
S':'
asbag49
(g70
g51
NtRp3391
(dp3392
g54
(dp3393
sg63
g3378
sg56
(lp3394
g49
(g50
g51
NtRp3395
(dp3396
g54
(dp3397
g62
I3
ssg63
g3391
sg56
(lp3398
g1300
asbasbasbag49
(g65
g51
NtRp3399
(dp3400
g54
(dp3401
sg63
g2762
sg56
(lp3402
g49
(g70
g51
NtRp3403
(dp3404
g54
(dp3405
g74
g75
ssg63
g3399
sg56
(lp3406
S'wsgi.multithread'
p3407
asbag49
(g70
g51
NtRp3408
(dp3409
g54
(dp3410
g81
g82
ssg63
g3399
sg56
(lp3411
S':'
asbag49
(g70
g51
NtRp3412
(dp3413
g54
(dp3414
sg63
g3399
sg56
(lp3415
g49
(g50
g51
NtRp3416
(dp3417
g54
(dp3418
g62
I3
ssg63
g3412
sg56
(lp3419
g92
asbasbasbag49
(g65
g51
NtRp3420
(dp3421
g54
(dp3422
sg63
g2762
sg56
(lp3423
g49
(g70
g51
NtRp3424
(dp3425
g54
(dp3426
g74
g75
ssg63
g3420
sg56
(lp3427
S'wsgi.run_once'
p3428
asbag49
(g70
g51
NtRp3429
(dp3430
g54
(dp3431
g81
g82
ssg63
g3420
sg56
(lp3432
S':'
asbag49
(g70
g51
NtRp3433
(dp3434
g54
(dp3435
sg63
g3420
sg56
(lp3436
g49
(g50
g51
NtRp3437
(dp3438
g54
(dp3439
g62
I3
ssg63
g3433
sg56
(lp3440
g1300
asbasbasbag49
(g65
g51
NtRp3441
(dp3442
g54
(dp3443
sg63
g2762
sg56
(lp3444
g49
(g70
g51
NtRp3445
(dp3446
g54
(dp3447
g74
g75
ssg63
g3441
sg56
(lp3448
S'wsgi.url_scheme'
p3449
asbag49
(g70
g51
NtRp3450
(dp3451
g54
(dp3452
g81
g82
ssg63
g3441
sg56
(lp3453
S':'
asbag49
(g70
g51
NtRp3454
(dp3455
g54
(dp3456
sg63
g3441
sg56
(lp3457
g49
(g50
g51
NtRp3458
(dp3459
g54
(dp3460
g62
I3
ssg63
g3454
sg56
(lp3461
g1908
asbasbasbag49
(g65
g51
NtRp3462
(dp3463
g54
(dp3464
sg63
g2762
sg56
(lp3465
g49
(g70
g51
NtRp3466
(dp3467
g54
(dp3468
g74
g75
ssg63
g3462
sg56
(lp3469
S'wsgi.version'
p3470
asbag49
(g70
g51
NtRp3471
(dp3472
g54
(dp3473
g81
g82
ssg63
g3462
sg56
(lp3474
S':'
asbag49
(g70
g51
NtRp3475
(dp3476
g54
(dp3477
sg63
g3462
sg56
(lp3478
g49
(g50
g51
NtRp3479
(dp3480
g54
(dp3481
g62
I3
ssg63
g3475
sg56
(lp3482
S'1'
asbasbasbasbasbasbasbasbasbasbasbasbasbsS'frames'
p3483
(lp3484
(dp3485
S'file'
p3486
S'/home/mdipierro/web2py/gluon/restricted.py'
p3487
sS'dump'
p3488
(dp3489
sS'lnum'
p3490
I212
sS'lines'
p3491
(dp3492
sS'call'
p3493
S'(code="import sys\\nimport cStringIO\\nimport gluon.contrib...done\'\\n\\nresponse._vars=response._caller(callback)\\n", environment={\'A\': <class \'gluon.html.A\'>, \'ALLOW_TOGGLE\': \'true\', \'A_button\': <function A_button at 0xacce130>, \'B\': <class \'gluon.html.B\'>, \'BEAUTIFY\': <class \'gluon.html.BEAUTIFY\'>, \'BODY\': <class \'gluon.html.BODY\'>, \'BR\': <class \'gluon.html.BR\'>, \'BUTTON\': <class \'gluon.html.BUTTON\'>, \'CAT\': <class \'gluon.html.CAT\'>, \'CENTER\': <class \'gluon.html.CENTER\'>, ...}, layer=\'/Users/zamechek/Downloads/web2py/web2py.app/Cont...Resources/applications/admin/controllers/shell.py\')'
p3494
sS'func'
p3495
S'restricted'
p3496
sa(dp3497
g3486
S'/Users/zamechek/Downloads/web2py/web2py.app/Contents/Resources/applications/admin/controllers/shell.py'
p3498
sg3488
(dp3499
sg3490
I52
sg3491
(dp3500
I41
S'    #output = PRE(output)'
p3501
sI42
S"    #return TABLE(TR('In[%i]:'%k,PRE(command)),TR('Out[%i]:'%k,output))"
p3502
sI43
S"    return 'In [%i] : %s%s\\n' % (k + 1, command, output)"
p3503
sI44
S''
sI45
S''
sI46
S'def reset():'
p3504
sI47
S"    app = request.args(0) or 'admin'"
p3505
sI48
S"    session['commands:' + app] = []"
p3506
sI49
S"    session['history:' + app] = gluon.contrib.shell.History()"
p3507
sI50
S"    return 'done'"
p3508
ssg3493
S'()'
p3509
sg3495
S'<module>'
p3510
sa(dp3511
g3486
S'/home/mdipierro/web2py/gluon/globals.py'
p3512
sg3488
(dp3513
sg3490
I193
sg3491
(dp3514
sg3493
S'(f=<function callback at 0xaccefb0>)'
p3515
sg3495
S'<lambda>'
p3516
sa(dp3517
g3486
S'/Users/zamechek/Downloads/web2py/web2py.app/Contents/Resources/applications/admin/controllers/shell.py'
p3518
sg3488
(dp3519
sg3490
I39
sg3491
(dp3520
I34
S"            command = session['commands:' + app][int(command[1:])]"
p3521
sI35
S'        except ValueError:'
p3522
sI36
S"            return ''"
p3523
sI37
S"    session['commands:' + app].append(command)"
p3524
sI38
S'    environ = env(app, True, extra_request=dict(is_https=request.is_https))'
p3525
sI39
S'    output = gluon.contrib.shell.run(history, command, environ)'
p3526
sI40
S"    k = len(session['commands:' + app]) - 1"
p3527
sI41
S'    #output = PRE(output)'
p3528
sI42
S"    #return TABLE(TR('In[%i]:'%k,PRE(command)),TR('Out[%i]:'%k,output))"
p3529
sI43
S"    return 'In [%i] : %s%s\\n' % (k + 1, command, output)"
p3530
ssg3493
S'()'
p3531
sg3495
S'callback'
p3532
sa(dp3533
g3486
S'/home/mdipierro/web2py/gluon/contrib/shell.py'
p3534
sg3488
(dp3535
sg3490
I260
sg3491
(dp3536
sg3493
S"(history=<gluon.contrib.shell.History instance at 0xa25f738>, statement='y = db(db.slot)\\n\\n\\n', env={'A': <class 'gluon.html.A'>, 'Auth': <class 'gluon.tools.Auth'>, 'B': <class 'gluon.html.B'>, 'BEAUTIFY': <class 'gluon.html.BEAUTIFY'>, 'BODY': <class 'gluon.html.BODY'>, 'BR': <class 'gluon.html.BR'>, 'BUTTON': <class 'gluon.html.BUTTON'>, 'CAT': <class 'gluon.html.CAT'>, 'CENTER': <class 'gluon.html.CENTER'>, 'CLEANUP': <class 'gluon.validators.CLEANUP'>, ...})"
p3537
sg3495
S'run'
p3538
sa(dp3539
g3486
S'/home/mdipierro/web2py/gluon/contrib/shell.py'
p3540
sg3488
(dp3541
sg3490
I104
sg3491
(dp3542
sg3493
S"(self=<gluon.contrib.shell.History instance at 0xa25f738>, name='y', value=<Set (slot.id IS NOT NULL)>)"
p3543
sg3495
S'set_global'
p3544
sa(dp3545
g3486
S'/Users/zamechek/Downloads/web2py/web2py.app/Contents/Resources/copy_reg.pyc'
p3546
sg3488
(dp3547
sg3490
I69
sg3491
(dp3548
sg3493
S'(self=<bound method SQLiteAdapter.NE of <gluon.dal.SQLiteAdapter object at 0xb9abd70>>, proto=0)'
p3549
sg3495
S'_reduce_ex'
p3550
sasS'pyver'
p3551
S'Python 2.5.1: /Users/zamechek/Downloads/web2py/web2py.app/Contents/MacOS/python'
p3552
sS'session'
p3553
g49
(g50
g51
NtRp3554
(dp3555
g54
(dp3556
sg56
(lp3557
g49
(g58
g51
NtRp3558
(dp3559
g54
(dp3560
g62
I5
ssg63
Nsg56
(lp3561
g49
(g65
g51
NtRp3562
(dp3563
g54
(dp3564
sg63
g3558
sg56
(lp3565
g49
(g70
g51
NtRp3566
(dp3567
g54
(dp3568
g74
g75
ssg63
g3562
sg56
(lp3569
S'authorized'
p3570
asbag49
(g70
g51
NtRp3571
(dp3572
g54
(dp3573
g81
g82
ssg63
g3562
sg56
(lp3574
S':'
asbag49
(g70
g51
NtRp3575
(dp3576
g54
(dp3577
sg63
g3562
sg56
(lp3578
g49
(g50
g51
NtRp3579
(dp3580
g54
(dp3581
g62
I5
ssg63
g3575
sg56
(lp3582
g92
asbasbasbag49
(g65
g51
NtRp3583
(dp3584
g54
(dp3585
sg63
g3558
sg56
(lp3586
g49
(g70
g51
NtRp3587
(dp3588
g54
(dp3589
g74
g75
ssg63
g3583
sg56
(lp3590
S'check_version'
p3591
asbag49
(g70
g51
NtRp3592
(dp3593
g54
(dp3594
g81
g82
ssg63
g3583
sg56
(lp3595
S':'
asbag49
(g70
g51
NtRp3596
(dp3597
g54
(dp3598
sg63
g3583
sg56
(lp3599
g49
(g50
g51
NtRp3600
(dp3601
g54
(dp3602
g62
I5
ssg63
g3596
sg56
(lp3603
g1300
asbasbasbag49
(g65
g51
NtRp3604
(dp3605
g54
(dp3606
sg63
g3558
sg56
(lp3607
g49
(g70
g51
NtRp3608
(dp3609
g54
(dp3610
g74
g75
ssg63
g3604
sg56
(lp3611
S'commands:hellow'
p3612
asbag49
(g70
g51
NtRp3613
(dp3614
g54
(dp3615
g81
g82
ssg63
g3604
sg56
(lp3616
S':'
asbag49
(g70
g51
NtRp3617
(dp3618
g54
(dp3619
sg63
g3604
sg56
(lp3620
g49
(g50
g51
NtRp3621
(dp3622
g54
(dp3623
g62
I5
ssg63
g3617
sg56
(lp3624
g49
(g58
g51
NtRp3625
(dp3626
g54
(dp3627
g62
I4
ssg63
Nsg56
(lp3628
g49
(g65
g51
NtRp3629
(dp3630
g54
(dp3631
sg63
g3625
sg56
(lp3632
g49
(g70
g51
NtRp3633
(dp3634
g54
(dp3635
sg63
g3629
sg56
(lp3636
g49
(g50
g51
NtRp3637
(dp3638
g54
(dp3639
g62
I4
ssg63
g3633
sg56
(lp3640
S'print db.slot[2]\n'
p3641
asbasbasbag49
(g65
g51
NtRp3642
(dp3643
g54
(dp3644
sg63
g3625
sg56
(lp3645
g49
(g70
g51
NtRp3646
(dp3647
g54
(dp3648
sg63
g3642
sg56
(lp3649
g49
(g50
g51
NtRp3650
(dp3651
g54
(dp3652
g62
I4
ssg63
g3646
sg56
(lp3653
S'for rows in db.slot.select():\n    rows.odds = 5\n    rows.update_record()\n\n'
p3654
asbasbasbag49
(g65
g51
NtRp3655
(dp3656
g54
(dp3657
sg63
g3625
sg56
(lp3658
g49
(g70
g51
NtRp3659
(dp3660
g54
(dp3661
sg63
g3655
sg56
(lp3662
g49
(g50
g51
NtRp3663
(dp3664
g54
(dp3665
g62
I4
ssg63
g3659
sg56
(lp3666
S'for rows in db.slot.select():\n    print rows\n\n'
p3667
asbasbasbag49
(g65
g51
NtRp3668
(dp3669
g54
(dp3670
sg63
g3625
sg56
(lp3671
g49
(g70
g51
NtRp3672
(dp3673
g54
(dp3674
sg63
g3668
sg56
(lp3675
g49
(g50
g51
NtRp3676
(dp3677
g54
(dp3678
g62
I4
ssg63
g3672
sg56
(lp3679
S'x\n'
p3680
asbasbasbag49
(g65
g51
NtRp3681
(dp3682
g54
(dp3683
sg63
g3625
sg56
(lp3684
g49
(g70
g51
NtRp3685
(dp3686
g54
(dp3687
sg63
g3681
sg56
(lp3688
g49
(g50
g51
NtRp3689
(dp3690
g54
(dp3691
g62
I4
ssg63
g3685
sg56
(lp3692
S'x\n'
p3693
asbasbasbag49
(g65
g51
NtRp3694
(dp3695
g54
(dp3696
sg63
g3625
sg56
(lp3697
g49
(g70
g51
NtRp3698
(dp3699
g54
(dp3700
sg63
g3694
sg56
(lp3701
g49
(g50
g51
NtRp3702
(dp3703
g54
(dp3704
g62
I4
ssg63
g3698
sg56
(lp3705
g2561
asbasbasbasbasbasbasbag49
(g65
g51
NtRp3706
(dp3707
g54
(dp3708
sg63
g3558
sg56
(lp3709
g49
(g70
g51
NtRp3710
(dp3711
g54
(dp3712
g74
g75
ssg63
g3706
sg56
(lp3713
S'flash'
p3714
asbag49
(g70
g51
NtRp3715
(dp3716
g54
(dp3717
g81
g82
ssg63
g3706
sg56
(lp3718
S':'
asbag49
(g70
g51
NtRp3719
(dp3720
g54
(dp3721
sg63
g3706
sg56
(lp3722
g49
(g50
g51
NtRp3723
(dp3724
g54
(dp3725
g62
I5
ssg63
g3719
sg56
(lp3726
S'None'
p3727
asbasbasbag49
(g65
g51
NtRp3728
(dp3729
g54
(dp3730
sg63
g3558
sg56
(lp3731
g49
(g70
g51
NtRp3732
(dp3733
g54
(dp3734
g74
g75
ssg63
g3728
sg56
(lp3735
S'history:hellow'
p3736
asbag49
(g70
g51
NtRp3737
(dp3738
g54
(dp3739
g81
g82
ssg63
g3728
sg56
(lp3740
S':'
asbag49
(g70
g51
NtRp3741
(dp3742
g54
(dp3743
sg63
g3728
sg56
(lp3744
g49
(g50
g51
NtRp3745
(dp3746
g54
(dp3747
g62
I5
ssg63
g3741
sg56
(lp3748
S'<gluon.contrib.shell.History instance at 0xa25f710>'
p3749
asbasbasbag49
(g65
g51
NtRp3750
(dp3751
g54
(dp3752
sg63
g3558
sg56
(lp3753
g49
(g70
g51
NtRp3754
(dp3755
g54
(dp3756
g74
g75
ssg63
g3750
sg56
(lp3757
S'is_mobile'
p3758
asbag49
(g70
g51
NtRp3759
(dp3760
g54
(dp3761
g81
g82
ssg63
g3750
sg56
(lp3762
S':'
asbag49
(g70
g51
NtRp3763
(dp3764
g54
(dp3765
sg63
g3750
sg56
(lp3766
g49
(g50
g51
NtRp3767
(dp3768
g54
(dp3769
g62
I5
ssg63
g3763
sg56
(lp3770
S'auto'
p3771
asbasbasbag49
(g65
g51
NtRp3772
(dp3773
g54
(dp3774
sg63
g3558
sg56
(lp3775
g49
(g70
g51
NtRp3776
(dp3777
g54
(dp3778
g74
g75
ssg63
g3772
sg56
(lp3779
S'last_time'
p3780
asbag49
(g70
g51
NtRp3781
(dp3782
g54
(dp3783
g81
g82
ssg63
g3772
sg56
(lp3784
S':'
asbag49
(g70
g51
NtRp3785
(dp3786
g54
(dp3787
sg63
g3772
sg56
(lp3788
g49
(g50
g51
NtRp3789
(dp3790
g54
(dp3791
g62
I5
ssg63
g3785
sg56
(lp3792
S'1364317754.2236061'
p3793
asbasbasbag49
(g65
g51
NtRp3794
(dp3795
g54
(dp3796
sg63
g3558
sg56
(lp3797
g49
(g70
g51
NtRp3798
(dp3799
g54
(dp3800
g74
g75
ssg63
g3794
sg56
(lp3801
S'pam_user'
p3802
asbag49
(g70
g51
NtRp3803
(dp3804
g54
(dp3805
g81
g82
ssg63
g3794
sg56
(lp3806
S':'
asbag49
(g70
g51
NtRp3807
(dp3808
g54
(dp3809
sg63
g3794
sg56
(lp3810
g49
(g50
g51
NtRp3811
(dp3812
g54
(dp3813
g62
I5
ssg63
g3807
sg56
(lp3814
S'None'
p3815
asbasbasbag49
(g65
g51
NtRp3816
(dp3817
g54
(dp3818
sg63
g3558
sg56
(lp3819
g49
(g70
g51
NtRp3820
(dp3821
g54
(dp3822
g74
g75
ssg63
g3816
sg56
(lp3823
S'token'
p3824
asbag49
(g70
g51
NtRp3825
(dp3826
g54
(dp3827
g81
g82
ssg63
g3816
sg56
(lp3828
S':'
asbag49
(g70
g51
NtRp3829
(dp3830
g54
(dp3831
sg63
g3816
sg56
(lp3832
g49
(g50
g51
NtRp3833
(dp3834
g54
(dp3835
g62
I5
ssg63
g3829
sg56
(lp3836
S'08213945-19c8-4a4a-9b58-fc9c26204ca0'
p3837
asbasbasbasbasbsS'etype'
p3838
S"<type 'exceptions.TypeError'>"
p3839
sS'date'
p3840
S'Tue Mar 26 13:09:14 2013'
p3841
sS'response'
p3842
g49
(g50
g51
NtRp3843
(dp3844
g54
(dp3845
sg56
(lp3846
g49
(g58
g51
NtRp3847
(dp3848
g54
(dp3849
g62
I5
ssg63
Nsg56
(lp3850
g49
(g65
g51
NtRp3851
(dp3852
g54
(dp3853
sg63
g3847
sg56
(lp3854
g49
(g70
g51
NtRp3855
(dp3856
g54
(dp3857
g74
g75
ssg63
g3851
sg56
(lp3858
g160
asbag49
(g70
g51
NtRp3859
(dp3860
g54
(dp3861
g81
g82
ssg63
g3851
sg56
(lp3862
S':'
asbag49
(g70
g51
NtRp3863
(dp3864
g54
(dp3865
sg63
g3851
sg56
(lp3866
g49
(g50
g51
NtRp3867
(dp3868
g54
(dp3869
g62
I5
ssg63
g3863
sg56
(lp3870
S'<cStringIO.StringO object at 0xadd72e0>'
p3871
asbasbasbag49
(g65
g51
NtRp3872
(dp3873
g54
(dp3874
sg63
g3847
sg56
(lp3875
g49
(g70
g51
NtRp3876
(dp3877
g54
(dp3878
g74
g75
ssg63
g3872
sg56
(lp3879
g248
asbag49
(g70
g51
NtRp3880
(dp3881
g54
(dp3882
g81
g82
ssg63
g3872
sg56
(lp3883
S':'
asbag49
(g70
g51
NtRp3884
(dp3885
g54
(dp3886
sg63
g3872
sg56
(lp3887
g49
(g50
g51
NtRp3888
(dp3889
g54
(dp3890
g62
I5
ssg63
g3884
sg56
(lp3891
g49
(g58
g51
NtRp3892
(dp3893
g54
(dp3894
g62
I4
ssg63
Nsg56
(lp3895
g49
(g65
g51
NtRp3896
(dp3897
g54
(dp3898
sg63
g3892
sg56
(lp3899
g49
(g70
g51
NtRp3900
(dp3901
g54
(dp3902
g74
g75
ssg63
g3896
sg56
(lp3903
S'session_id_admin'
p3904
asbag49
(g70
g51
NtRp3905
(dp3906
g54
(dp3907
g81
g82
ssg63
g3896
sg56
(lp3908
S':'
asbag49
(g70
g51
NtRp3909
(dp3910
g54
(dp3911
sg63
g3896
sg56
(lp3912
g49
(g50
g51
NtRp3913
(dp3914
g54
(dp3915
g62
I4
ssg63
g3909
sg56
(lp3916
g286
ag49
(g58
g51
NtRp3917
(dp3918
g54
(dp3919
g62
I3
ssg63
Nsg56
(lp3920
g49
(g65
g51
NtRp3921
(dp3922
g54
(dp3923
sg63
g3917
sg56
(lp3924
g49
(g70
g51
NtRp3925
(dp3926
g54
(dp3927
g74
g75
ssg63
g3921
sg56
(lp3928
g299
asbag49
(g70
g51
NtRp3929
(dp3930
g54
(dp3931
g81
g82
ssg63
g3921
sg56
(lp3932
S':'
asbag49
(g70
g51
NtRp3933
(dp3934
g54
(dp3935
sg63
g3921
sg56
(lp3936
g49
(g50
g51
NtRp3937
(dp3938
g54
(dp3939
g62
I3
ssg63
g3933
sg56
(lp3940
S''
asbasbasbag49
(g65
g51
NtRp3941
(dp3942
g54
(dp3943
sg63
g3917
sg56
(lp3944
g49
(g70
g51
NtRp3945
(dp3946
g54
(dp3947
g74
g75
ssg63
g3941
sg56
(lp3948
g320
asbag49
(g70
g51
NtRp3949
(dp3950
g54
(dp3951
g81
g82
ssg63
g3941
sg56
(lp3952
S':'
asbag49
(g70
g51
NtRp3953
(dp3954
g54
(dp3955
sg63
g3941
sg56
(lp3956
g49
(g50
g51
NtRp3957
(dp3958
g54
(dp3959
g62
I3
ssg63
g3953
sg56
(lp3960
S''
asbasbasbag49
(g65
g51
NtRp3961
(dp3962
g54
(dp3963
sg63
g3917
sg56
(lp3964
g49
(g70
g51
NtRp3965
(dp3966
g54
(dp3967
g74
g75
ssg63
g3961
sg56
(lp3968
g341
asbag49
(g70
g51
NtRp3969
(dp3970
g54
(dp3971
g81
g82
ssg63
g3961
sg56
(lp3972
S':'
asbag49
(g70
g51
NtRp3973
(dp3974
g54
(dp3975
sg63
g3961
sg56
(lp3976
g49
(g50
g51
NtRp3977
(dp3978
g54
(dp3979
g62
I3
ssg63
g3973
sg56
(lp3980
S''
asbasbasbag49
(g65
g51
NtRp3981
(dp3982
g54
(dp3983
sg63
g3917
sg56
(lp3984
g49
(g70
g51
NtRp3985
(dp3986
g54
(dp3987
g74
g75
ssg63
g3981
sg56
(lp3988
g362
asbag49
(g70
g51
NtRp3989
(dp3990
g54
(dp3991
g81
g82
ssg63
g3981
sg56
(lp3992
S':'
asbag49
(g70
g51
NtRp3993
(dp3994
g54
(dp3995
sg63
g3981
sg56
(lp3996
g49
(g50
g51
NtRp3997
(dp3998
g54
(dp3999
g62
I3
ssg63
g3993
sg56
(lp4000
S''
asbasbasbag49
(g65
g51
NtRp4001
(dp4002
g54
(dp4003
sg63
g3917
sg56
(lp4004
g49
(g70
g51
NtRp4005
(dp4006
g54
(dp4007
g74
g75
ssg63
g4001
sg56
(lp4008
g383
asbag49
(g70
g51
NtRp4009
(dp4010
g54
(dp4011
g81
g82
ssg63
g4001
sg56
(lp4012
S':'
asbag49
(g70
g51
NtRp4013
(dp4014
g54
(dp4015
sg63
g4001
sg56
(lp4016
g49
(g50
g51
NtRp4017
(dp4018
g54
(dp4019
g62
I3
ssg63
g4013
sg56
(lp4020
S'/'
asbasbasbag49
(g65
g51
NtRp4021
(dp4022
g54
(dp4023
sg63
g3917
sg56
(lp4024
g49
(g70
g51
NtRp4025
(dp4026
g54
(dp4027
g74
g75
ssg63
g4021
sg56
(lp4028
g404
asbag49
(g70
g51
NtRp4029
(dp4030
g54
(dp4031
g81
g82
ssg63
g4021
sg56
(lp4032
S':'
asbag49
(g70
g51
NtRp4033
(dp4034
g54
(dp4035
sg63
g4021
sg56
(lp4036
g49
(g50
g51
NtRp4037
(dp4038
g54
(dp4039
g62
I3
ssg63
g4033
sg56
(lp4040
S''
asbasbasbag49
(g65
g51
NtRp4041
(dp4042
g54
(dp4043
sg63
g3917
sg56
(lp4044
g49
(g70
g51
NtRp4045
(dp4046
g54
(dp4047
g74
g75
ssg63
g4041
sg56
(lp4048
g425
asbag49
(g70
g51
NtRp4049
(dp4050
g54
(dp4051
g81
g82
ssg63
g4041
sg56
(lp4052
S':'
asbag49
(g70
g51
NtRp4053
(dp4054
g54
(dp4055
sg63
g4041
sg56
(lp4056
g49
(g50
g51
NtRp4057
(dp4058
g54
(dp4059
g62
I3
ssg63
g4053
sg56
(lp4060
S''
asbasbasbasbasbasbasbasbasbasbasbag49
(g65
g51
NtRp4061
(dp4062
g54
(dp4063
sg63
g3847
sg56
(lp4064
g49
(g70
g51
NtRp4065
(dp4066
g54
(dp4067
g74
g75
ssg63
g4061
sg56
(lp4068
S'delimiters'
p4069
asbag49
(g70
g51
NtRp4070
(dp4071
g54
(dp4072
g81
g82
ssg63
g4061
sg56
(lp4073
S':'
asbag49
(g70
g51
NtRp4074
(dp4075
g54
(dp4076
sg63
g4061
sg56
(lp4077
g49
(g50
g51
NtRp4078
(dp4079
g54
(dp4080
g62
I5
ssg63
g4074
sg56
(lp4081
g49
(g58
g51
NtRp4082
(dp4083
g54
(dp4084
g62
I4
ssg63
Nsg56
(lp4085
g49
(g65
g51
NtRp4086
(dp4087
g54
(dp4088
sg63
g4082
sg56
(lp4089
g49
(g70
g51
NtRp4090
(dp4091
g54
(dp4092
sg63
g4086
sg56
(lp4093
g49
(g50
g51
NtRp4094
(dp4095
g54
(dp4096
g62
I4
ssg63
g4090
sg56
(lp4097
S'{{'
p4098
asbasbasbag49
(g65
g51
NtRp4099
(dp4100
g54
(dp4101
sg63
g4082
sg56
(lp4102
g49
(g70
g51
NtRp4103
(dp4104
g54
(dp4105
sg63
g4099
sg56
(lp4106
g49
(g50
g51
NtRp4107
(dp4108
g54
(dp4109
g62
I4
ssg63
g4103
sg56
(lp4110
S'}}'
p4111
asbasbasbasbasbasbasbag49
(g65
g51
NtRp4112
(dp4113
g54
(dp4114
sg63
g3847
sg56
(lp4115
g49
(g70
g51
NtRp4116
(dp4117
g54
(dp4118
g74
g75
ssg63
g4112
sg56
(lp4119
S'files'
p4120
asbag49
(g70
g51
NtRp4121
(dp4122
g54
(dp4123
g81
g82
ssg63
g4112
sg56
(lp4124
S':'
asbag49
(g70
g51
NtRp4125
(dp4126
g54
(dp4127
sg63
g4112
sg56
(lp4128
g49
(g50
g51
NtRp4129
(dp4130
g54
(dp4131
g62
I5
ssg63
g4125
sg56
(lp4132
g49
(g58
g51
NtRp4133
(dp4134
g54
(dp4135
g62
I4
ssg63
Nsg56
(lp4136
g49
(g65
g51
NtRp4137
(dp4138
g54
(dp4139
sg63
g4133
sg56
(lp4140
g49
(g70
g51
NtRp4141
(dp4142
g54
(dp4143
sg63
g4137
sg56
(lp4144
g49
(g50
g51
NtRp4145
(dp4146
g54
(dp4147
g62
I4
ssg63
g4141
sg56
(lp4148
S'/admin/static/plugin_multiselect/jquery.multi-select.js'
p4149
asbasbasbag49
(g65
g51
NtRp4150
(dp4151
g54
(dp4152
sg63
g4133
sg56
(lp4153
g49
(g70
g51
NtRp4154
(dp4155
g54
(dp4156
sg63
g4150
sg56
(lp4157
g49
(g50
g51
NtRp4158
(dp4159
g54
(dp4160
g62
I4
ssg63
g4154
sg56
(lp4161
S'/admin/static/plugin_multiselect/multi-select.css'
p4162
asbasbasbag49
(g65
g51
NtRp4163
(dp4164
g54
(dp4165
sg63
g4133
sg56
(lp4166
g49
(g70
g51
NtRp4167
(dp4168
g54
(dp4169
sg63
g4163
sg56
(lp4170
g49
(g50
g51
NtRp4171
(dp4172
g54
(dp4173
g62
I4
ssg63
g4167
sg56
(lp4174
S'/admin/static/plugin_multiselect/start.js'
p4175
asbasbasbasbasbasbasbag49
(g65
g51
NtRp4176
(dp4177
g54
(dp4178
sg63
g3847
sg56
(lp4179
g49
(g70
g51
NtRp4180
(dp4181
g54
(dp4182
g74
g75
ssg63
g4176
sg56
(lp4183
S'flash'
p4184
asbag49
(g70
g51
NtRp4185
(dp4186
g54
(dp4187
g81
g82
ssg63
g4176
sg56
(lp4188
S':'
asbag49
(g70
g51
NtRp4189
(dp4190
g54
(dp4191
sg63
g4176
sg56
(lp4192
g49
(g50
g51
NtRp4193
(dp4194
g54
(dp4195
g62
I5
ssg63
g4189
sg56
(lp4196
S''
asbasbasbag49
(g65
g51
NtRp4197
(dp4198
g54
(dp4199
sg63
g3847
sg56
(lp4200
g49
(g70
g51
NtRp4201
(dp4202
g54
(dp4203
g74
g75
ssg63
g4197
sg56
(lp4204
S'generic_patterns'
p4205
asbag49
(g70
g51
NtRp4206
(dp4207
g54
(dp4208
g81
g82
ssg63
g4197
sg56
(lp4209
S':'
asbag49
(g70
g51
NtRp4210
(dp4211
g54
(dp4212
sg63
g4197
sg56
(lp4213
g49
(g50
g51
NtRp4214
(dp4215
g54
(dp4216
g62
I5
ssg63
g4210
sg56
(lp4217
g49
(g58
g51
NtRp4218
(dp4219
g54
(dp4220
g62
I4
ssg63
Nsg56
(lp4221
sbasbasbasbag49
(g65
g51
NtRp4222
(dp4223
g54
(dp4224
sg63
g3847
sg56
(lp4225
g49
(g70
g51
NtRp4226
(dp4227
g54
(dp4228
g74
g75
ssg63
g4222
sg56
(lp4229
S'headers'
p4230
asbag49
(g70
g51
NtRp4231
(dp4232
g54
(dp4233
g81
g82
ssg63
g4222
sg56
(lp4234
S':'
asbag49
(g70
g51
NtRp4235
(dp4236
g54
(dp4237
sg63
g4222
sg56
(lp4238
g49
(g50
g51
NtRp4239
(dp4240
g54
(dp4241
g62
I5
ssg63
g4235
sg56
(lp4242
g49
(g58
g51
NtRp4243
(dp4244
g54
(dp4245
g62
I4
ssg63
Nsg56
(lp4246
g49
(g65
g51
NtRp4247
(dp4248
g54
(dp4249
sg63
g4243
sg56
(lp4250
g49
(g70
g51
NtRp4251
(dp4252
g54
(dp4253
g74
g75
ssg63
g4247
sg56
(lp4254
S'X-Powered-By'
p4255
asbag49
(g70
g51
NtRp4256
(dp4257
g54
(dp4258
g81
g82
ssg63
g4247
sg56
(lp4259
S':'
asbag49
(g70
g51
NtRp4260
(dp4261
g54
(dp4262
sg63
g4247
sg56
(lp4263
g49
(g50
g51
NtRp4264
(dp4265
g54
(dp4266
g62
I4
ssg63
g4260
sg56
(lp4267
S'web2py'
p4268
asbasbasbasbasbasbasbag49
(g65
g51
NtRp4269
(dp4270
g54
(dp4271
sg63
g3847
sg56
(lp4272
g49
(g70
g51
NtRp4273
(dp4274
g54
(dp4275
g74
g75
ssg63
g4269
sg56
(lp4276
S'menu'
p4277
asbag49
(g70
g51
NtRp4278
(dp4279
g54
(dp4280
g81
g82
ssg63
g4269
sg56
(lp4281
S':'
asbag49
(g70
g51
NtRp4282
(dp4283
g54
(dp4284
sg63
g4269
sg56
(lp4285
g49
(g50
g51
NtRp4286
(dp4287
g54
(dp4288
g62
I5
ssg63
g4282
sg56
(lp4289
g49
(g58
g51
NtRp4290
(dp4291
g54
(dp4292
g62
I4
ssg63
Nsg56
(lp4293
g49
(g65
g51
NtRp4294
(dp4295
g54
(dp4296
sg63
g4290
sg56
(lp4297
g49
(g70
g51
NtRp4298
(dp4299
g54
(dp4300
sg63
g4294
sg56
(lp4301
g49
(g50
g51
NtRp4302
(dp4303
g54
(dp4304
g62
I4
ssg63
g4298
sg56
(lp4305
g49
(g58
g51
NtRp4306
(dp4307
g54
(dp4308
g62
I3
ssg63
Nsg56
(lp4309
g49
(g65
g51
NtRp4310
(dp4311
g54
(dp4312
sg63
g4306
sg56
(lp4313
g49
(g70
g51
NtRp4314
(dp4315
g54
(dp4316
sg63
g4310
sg56
(lp4317
g49
(g50
g51
NtRp4318
(dp4319
g54
(dp4320
g62
I3
ssg63
g4314
sg56
(lp4321
cgluon.languages
lazyT_unpickle
p4322
(S't\x04\x00\x00\x00Site'
tRp4323
asbasbasbag49
(g65
g51
NtRp4324
(dp4325
g54
(dp4326
sg63
g4306
sg56
(lp4327
g49
(g70
g51
NtRp4328
(dp4329
g54
(dp4330
sg63
g4324
sg56
(lp4331
g49
(g50
g51
NtRp4332
(dp4333
g54
(dp4334
g62
I3
ssg63
g4328
sg56
(lp4335
g1300
asbasbasbag49
(g65
g51
NtRp4336
(dp4337
g54
(dp4338
sg63
g4306
sg56
(lp4339
g49
(g70
g51
NtRp4340
(dp4341
g54
(dp4342
sg63
g4336
sg56
(lp4343
g49
(g50
g51
NtRp4344
(dp4345
g54
(dp4346
g62
I3
ssg63
g4340
sg56
(lp4347
S'/admin/default/site'
p4348
asbasbasbasbasbasbasbag49
(g65
g51
NtRp4349
(dp4350
g54
(dp4351
sg63
g4290
sg56
(lp4352
g49
(g70
g51
NtRp4353
(dp4354
g54
(dp4355
sg63
g4349
sg56
(lp4356
g49
(g50
g51
NtRp4357
(dp4358
g54
(dp4359
g62
I4
ssg63
g4353
sg56
(lp4360
g49
(g58
g51
NtRp4361
(dp4362
g54
(dp4363
g62
I3
ssg63
Nsg56
(lp4364
g49
(g65
g51
NtRp4365
(dp4366
g54
(dp4367
sg63
g4361
sg56
(lp4368
g49
(g70
g51
NtRp4369
(dp4370
g54
(dp4371
sg63
g4365
sg56
(lp4372
g49
(g50
g51
NtRp4373
(dp4374
g54
(dp4375
g62
I3
ssg63
g4369
sg56
(lp4376
g4322
(S't\x04\x00\x00\x00Edit'
tRp4377
asbasbasbag49
(g65
g51
NtRp4378
(dp4379
g54
(dp4380
sg63
g4361
sg56
(lp4381
g49
(g70
g51
NtRp4382
(dp4383
g54
(dp4384
sg63
g4378
sg56
(lp4385
g49
(g50
g51
NtRp4386
(dp4387
g54
(dp4388
g62
I3
ssg63
g4382
sg56
(lp4389
g1300
asbasbasbag49
(g65
g51
NtRp4390
(dp4391
g54
(dp4392
sg63
g4361
sg56
(lp4393
g49
(g70
g51
NtRp4394
(dp4395
g54
(dp4396
sg63
g4390
sg56
(lp4397
g49
(g50
g51
NtRp4398
(dp4399
g54
(dp4400
g62
I3
ssg63
g4394
sg56
(lp4401
S'/admin/default/design/hellow'
p4402
asbasbasbasbasbasbasbag49
(g65
g51
NtRp4403
(dp4404
g54
(dp4405
sg63
g4290
sg56
(lp4406
g49
(g70
g51
NtRp4407
(dp4408
g54
(dp4409
sg63
g4403
sg56
(lp4410
g49
(g50
g51
NtRp4411
(dp4412
g54
(dp4413
g62
I4
ssg63
g4407
sg56
(lp4414
g49
(g58
g51
NtRp4415
(dp4416
g54
(dp4417
g62
I3
ssg63
Nsg56
(lp4418
g49
(g65
g51
NtRp4419
(dp4420
g54
(dp4421
sg63
g4415
sg56
(lp4422
g49
(g70
g51
NtRp4423
(dp4424
g54
(dp4425
sg63
g4419
sg56
(lp4426
g49
(g50
g51
NtRp4427
(dp4428
g54
(dp4429
g62
I3
ssg63
g4423
sg56
(lp4430
g4322
(S't\x05\x00\x00\x00About'
tRp4431
asbasbasbag49
(g65
g51
NtRp4432
(dp4433
g54
(dp4434
sg63
g4415
sg56
(lp4435
g49
(g70
g51
NtRp4436
(dp4437
g54
(dp4438
sg63
g4432
sg56
(lp4439
g49
(g50
g51
NtRp4440
(dp4441
g54
(dp4442
g62
I3
ssg63
g4436
sg56
(lp4443
g1300
asbasbasbag49
(g65
g51
NtRp4444
(dp4445
g54
(dp4446
sg63
g4415
sg56
(lp4447
g49
(g70
g51
NtRp4448
(dp4449
g54
(dp4450
sg63
g4444
sg56
(lp4451
g49
(g50
g51
NtRp4452
(dp4453
g54
(dp4454
g62
I3
ssg63
g4448
sg56
(lp4455
S'/admin/default/about/hellow'
p4456
asbasbasbasbasbasbasbag49
(g65
g51
NtRp4457
(dp4458
g54
(dp4459
sg63
g4290
sg56
(lp4460
g49
(g70
g51
NtRp4461
(dp4462
g54
(dp4463
sg63
g4457
sg56
(lp4464
g49
(g50
g51
NtRp4465
(dp4466
g54
(dp4467
g62
I4
ssg63
g4461
sg56
(lp4468
g49
(g58
g51
NtRp4469
(dp4470
g54
(dp4471
g62
I3
ssg63
Nsg56
(lp4472
g49
(g65
g51
NtRp4473
(dp4474
g54
(dp4475
sg63
g4469
sg56
(lp4476
g49
(g70
g51
NtRp4477
(dp4478
g54
(dp4479
sg63
g4473
sg56
(lp4480
g49
(g50
g51
NtRp4481
(dp4482
g54
(dp4483
g62
I3
ssg63
g4477
sg56
(lp4484
g4322
(S't\x06\x00\x00\x00Errors'
tRp4485
asbasbasbag49
(g65
g51
NtRp4486
(dp4487
g54
(dp4488
sg63
g4469
sg56
(lp4489
g49
(g70
g51
NtRp4490
(dp4491
g54
(dp4492
sg63
g4486
sg56
(lp4493
g49
(g50
g51
NtRp4494
(dp4495
g54
(dp4496
g62
I3
ssg63
g4490
sg56
(lp4497
g1300
asbasbasbag49
(g65
g51
NtRp4498
(dp4499
g54
(dp4500
sg63
g4469
sg56
(lp4501
g49
(g70
g51
NtRp4502
(dp4503
g54
(dp4504
sg63
g4498
sg56
(lp4505
g49
(g50
g51
NtRp4506
(dp4507
g54
(dp4508
g62
I3
ssg63
g4502
sg56
(lp4509
S'/admin/default/errors/hellow'
p4510
asbasbasbasbasbasbasbag49
(g65
g51
NtRp4511
(dp4512
g54
(dp4513
sg63
g4290
sg56
(lp4514
g49
(g70
g51
NtRp4515
(dp4516
g54
(dp4517
sg63
g4511
sg56
(lp4518
g49
(g50
g51
NtRp4519
(dp4520
g54
(dp4521
g62
I4
ssg63
g4515
sg56
(lp4522
g49
(g58
g51
NtRp4523
(dp4524
g54
(dp4525
g62
I3
ssg63
Nsg56
(lp4526
g49
(g65
g51
NtRp4527
(dp4528
g54
(dp4529
sg63
g4523
sg56
(lp4530
g49
(g70
g51
NtRp4531
(dp4532
g54
(dp4533
sg63
g4527
sg56
(lp4534
g49
(g50
g51
NtRp4535
(dp4536
g54
(dp4537
g62
I3
ssg63
g4531
sg56
(lp4538
g4322
(S't\n\x00\x00\x00Versioning'
tRp4539
asbasbasbag49
(g65
g51
NtRp4540
(dp4541
g54
(dp4542
sg63
g4523
sg56
(lp4543
g49
(g70
g51
NtRp4544
(dp4545
g54
(dp4546
sg63
g4540
sg56
(lp4547
g49
(g50
g51
NtRp4548
(dp4549
g54
(dp4550
g62
I3
ssg63
g4544
sg56
(lp4551
g1300
asbasbasbag49
(g65
g51
NtRp4552
(dp4553
g54
(dp4554
sg63
g4523
sg56
(lp4555
g49
(g70
g51
NtRp4556
(dp4557
g54
(dp4558
sg63
g4552
sg56
(lp4559
g49
(g50
g51
NtRp4560
(dp4561
g54
(dp4562
g62
I3
ssg63
g4556
sg56
(lp4563
S'/admin/mercurial/commit/hellow'
p4564
asbasbasbasbasbasbasbag49
(g65
g51
NtRp4565
(dp4566
g54
(dp4567
sg63
g4290
sg56
(lp4568
g49
(g70
g51
NtRp4569
(dp4570
g54
(dp4571
sg63
g4565
sg56
(lp4572
g49
(g50
g51
NtRp4573
(dp4574
g54
(dp4575
g62
I4
ssg63
g4569
sg56
(lp4576
g49
(g58
g51
NtRp4577
(dp4578
g54
(dp4579
g62
I3
ssg63
Nsg56
(lp4580
g49
(g65
g51
NtRp4581
(dp4582
g54
(dp4583
sg63
g4577
sg56
(lp4584
g49
(g70
g51
NtRp4585
(dp4586
g54
(dp4587
sg63
g4581
sg56
(lp4588
g49
(g50
g51
NtRp4589
(dp4590
g54
(dp4591
g62
I3
ssg63
g4585
sg56
(lp4592
g4322
(S't\x04\x00\x00\x00Help'
tRp4593
asbasbasbag49
(g65
g51
NtRp4594
(dp4595
g54
(dp4596
sg63
g4577
sg56
(lp4597
g49
(g70
g51
NtRp4598
(dp4599
g54
(dp4600
sg63
g4594
sg56
(lp4601
g49
(g50
g51
NtRp4602
(dp4603
g54
(dp4604
g62
I3
ssg63
g4598
sg56
(lp4605
g1300
asbasbasbag49
(g65
g51
NtRp4606
(dp4607
g54
(dp4608
sg63
g4577
sg56
(lp4609
g49
(g70
g51
NtRp4610
(dp4611
g54
(dp4612
sg63
g4606
sg56
(lp4613
g49
(g50
g51
NtRp4614
(dp4615
g54
(dp4616
g62
I3
ssg63
g4610
sg56
(lp4617
S'/examples/default/documentation'
p4618
asbasbasbasbasbasbasbag49
(g65
g51
NtRp4619
(dp4620
g54
(dp4621
sg63
g4290
sg56
(lp4622
g49
(g70
g51
NtRp4623
(dp4624
g54
(dp4625
sg63
g4619
sg56
(lp4626
g49
(g50
g51
NtRp4627
(dp4628
g54
(dp4629
g62
I4
ssg63
g4623
sg56
(lp4630
g49
(g58
g51
NtRp4631
(dp4632
g54
(dp4633
g62
I3
ssg63
Nsg56
(lp4634
g49
(g65
g51
NtRp4635
(dp4636
g54
(dp4637
sg63
g4631
sg56
(lp4638
g49
(g70
g51
NtRp4639
(dp4640
g54
(dp4641
sg63
g4635
sg56
(lp4642
g49
(g50
g51
NtRp4643
(dp4644
g54
(dp4645
g62
I3
ssg63
g4639
sg56
(lp4646
g4322
(S't\x06\x00\x00\x00Logout'
tRp4647
asbasbasbag49
(g65
g51
NtRp4648
(dp4649
g54
(dp4650
sg63
g4631
sg56
(lp4651
g49
(g70
g51
NtRp4652
(dp4653
g54
(dp4654
sg63
g4648
sg56
(lp4655
g49
(g50
g51
NtRp4656
(dp4657
g54
(dp4658
g62
I3
ssg63
g4652
sg56
(lp4659
g1300
asbasbasbag49
(g65
g51
NtRp4660
(dp4661
g54
(dp4662
sg63
g4631
sg56
(lp4663
g49
(g70
g51
NtRp4664
(dp4665
g54
(dp4666
sg63
g4660
sg56
(lp4667
g49
(g50
g51
NtRp4668
(dp4669
g54
(dp4670
g62
I3
ssg63
g4664
sg56
(lp4671
S'/admin/default/logout'
p4672
asbasbasbasbasbasbasbag49
(g65
g51
NtRp4673
(dp4674
g54
(dp4675
sg63
g4290
sg56
(lp4676
g49
(g70
g51
NtRp4677
(dp4678
g54
(dp4679
sg63
g4673
sg56
(lp4680
g49
(g50
g51
NtRp4681
(dp4682
g54
(dp4683
g62
I4
ssg63
g4677
sg56
(lp4684
g49
(g58
g51
NtRp4685
(dp4686
g54
(dp4687
g62
I3
ssg63
Nsg56
(lp4688
g49
(g65
g51
NtRp4689
(dp4690
g54
(dp4691
sg63
g4685
sg56
(lp4692
g49
(g70
g51
NtRp4693
(dp4694
g54
(dp4695
sg63
g4689
sg56
(lp4696
g49
(g50
g51
NtRp4697
(dp4698
g54
(dp4699
g62
I3
ssg63
g4693
sg56
(lp4700
g4322
(S't\x05\x00\x00\x00Debug'
tRp4701
asbasbasbag49
(g65
g51
NtRp4702
(dp4703
g54
(dp4704
sg63
g4685
sg56
(lp4705
g49
(g70
g51
NtRp4706
(dp4707
g54
(dp4708
sg63
g4702
sg56
(lp4709
g49
(g50
g51
NtRp4710
(dp4711
g54
(dp4712
g62
I3
ssg63
g4706
sg56
(lp4713
g1300
asbasbasbag49
(g65
g51
NtRp4714
(dp4715
g54
(dp4716
sg63
g4685
sg56
(lp4717
g49
(g70
g51
NtRp4718
(dp4719
g54
(dp4720
sg63
g4714
sg56
(lp4721
g49
(g50
g51
NtRp4722
(dp4723
g54
(dp4724
g62
I3
ssg63
g4718
sg56
(lp4725
S'/admin/debug/interact'
p4726
asbasbasbasbasbasbasbasbasbasbasbag49
(g65
g51
NtRp4727
(dp4728
g54
(dp4729
sg63
g3847
sg56
(lp4730
g49
(g70
g51
NtRp4731
(dp4732
g54
(dp4733
g74
g75
ssg63
g4727
sg56
(lp4734
S'meta'
p4735
asbag49
(g70
g51
NtRp4736
(dp4737
g54
(dp4738
g81
g82
ssg63
g4727
sg56
(lp4739
S':'
asbag49
(g70
g51
NtRp4740
(dp4741
g54
(dp4742
sg63
g4727
sg56
(lp4743
g49
(g50
g51
NtRp4744
(dp4745
g54
(dp4746
g62
I5
ssg63
g4740
sg56
(lp4747
g49
(g58
g51
NtRp4748
(dp4749
g54
(dp4750
g62
I4
ssg63
Nsg56
(lp4751
sbasbasbasbag49
(g65
g51
NtRp4752
(dp4753
g54
(dp4754
sg63
g3847
sg56
(lp4755
g49
(g70
g51
NtRp4756
(dp4757
g54
(dp4758
g74
g75
ssg63
g4752
sg56
(lp4759
S'models_to_run'
p4760
asbag49
(g70
g51
NtRp4761
(dp4762
g54
(dp4763
g81
g82
ssg63
g4752
sg56
(lp4764
S':'
asbag49
(g70
g51
NtRp4765
(dp4766
g54
(dp4767
sg63
g4752
sg56
(lp4768
g49
(g50
g51
NtRp4769
(dp4770
g54
(dp4771
g62
I5
ssg63
g4765
sg56
(lp4772
g49
(g58
g51
NtRp4773
(dp4774
g54
(dp4775
g62
I4
ssg63
Nsg56
(lp4776
g49
(g65
g51
NtRp4777
(dp4778
g54
(dp4779
sg63
g4773
sg56
(lp4780
g49
(g70
g51
NtRp4781
(dp4782
g54
(dp4783
sg63
g4777
sg56
(lp4784
g49
(g50
g51
NtRp4785
(dp4786
g54
(dp4787
g62
I4
ssg63
g4781
sg56
(lp4788
S'^\\w+\\.py$'
p4789
asbasbasbag49
(g65
g51
NtRp4790
(dp4791
g54
(dp4792
sg63
g4773
sg56
(lp4793
g49
(g70
g51
NtRp4794
(dp4795
g54
(dp4796
sg63
g4790
sg56
(lp4797
g49
(g50
g51
NtRp4798
(dp4799
g54
(dp4800
g62
I4
ssg63
g4794
sg56
(lp4801
S'^shell/\\w+\\.py$'
p4802
asbasbasbag49
(g65
g51
NtRp4803
(dp4804
g54
(dp4805
sg63
g4773
sg56
(lp4806
g49
(g70
g51
NtRp4807
(dp4808
g54
(dp4809
sg63
g4803
sg56
(lp4810
g49
(g50
g51
NtRp4811
(dp4812
g54
(dp4813
g62
I4
ssg63
g4807
sg56
(lp4814
S'^shell/callback/\\w+\\.py$'
p4815
asbasbasbasbasbasbasbag49
(g65
g51
NtRp4816
(dp4817
g54
(dp4818
sg63
g3847
sg56
(lp4819
g49
(g70
g51
NtRp4820
(dp4821
g54
(dp4822
g74
g75
ssg63
g4816
sg56
(lp4823
S'postprocessing'
p4824
asbag49
(g70
g51
NtRp4825
(dp4826
g54
(dp4827
g81
g82
ssg63
g4816
sg56
(lp4828
S':'
asbag49
(g70
g51
NtRp4829
(dp4830
g54
(dp4831
sg63
g4816
sg56
(lp4832
g49
(g50
g51
NtRp4833
(dp4834
g54
(dp4835
g62
I5
ssg63
g4829
sg56
(lp4836
g49
(g58
g51
NtRp4837
(dp4838
g54
(dp4839
g62
I4
ssg63
Nsg56
(lp4840
sbasbasbasbag49
(g65
g51
NtRp4841
(dp4842
g54
(dp4843
sg63
g3847
sg56
(lp4844
g49
(g70
g51
NtRp4845
(dp4846
g54
(dp4847
g74
g75
ssg63
g4841
sg56
(lp4848
S'session_cookie_expires'
p4849
asbag49
(g70
g51
NtRp4850
(dp4851
g54
(dp4852
g81
g82
ssg63
g4841
sg56
(lp4853
S':'
asbag49
(g70
g51
NtRp4854
(dp4855
g54
(dp4856
sg63
g4841
sg56
(lp4857
g49
(g50
g51
NtRp4858
(dp4859
g54
(dp4860
g62
I5
ssg63
g4854
sg56
(lp4861
S'None'
p4862
asbasbasbag49
(g65
g51
NtRp4863
(dp4864
g54
(dp4865
sg63
g3847
sg56
(lp4866
g49
(g70
g51
NtRp4867
(dp4868
g54
(dp4869
g74
g75
ssg63
g4863
sg56
(lp4870
S'session_data_name'
p4871
asbag49
(g70
g51
NtRp4872
(dp4873
g54
(dp4874
g81
g82
ssg63
g4863
sg56
(lp4875
S':'
asbag49
(g70
g51
NtRp4876
(dp4877
g54
(dp4878
sg63
g4863
sg56
(lp4879
g49
(g50
g51
NtRp4880
(dp4881
g54
(dp4882
g62
I5
ssg63
g4876
sg56
(lp4883
S'session_data_admin'
p4884
asbasbasbag49
(g65
g51
NtRp4885
(dp4886
g54
(dp4887
sg63
g3847
sg56
(lp4888
g49
(g70
g51
NtRp4889
(dp4890
g54
(dp4891
g74
g75
ssg63
g4885
sg56
(lp4892
S'session_file'
p4893
asbag49
(g70
g51
NtRp4894
(dp4895
g54
(dp4896
g81
g82
ssg63
g4885
sg56
(lp4897
S':'
asbag49
(g70
g51
NtRp4898
(dp4899
g54
(dp4900
sg63
g4885
sg56
(lp4901
g49
(g50
g51
NtRp4902
(dp4903
g54
(dp4904
g62
I5
ssg63
g4898
sg56
(lp4905
S"<open file '/Users/zamechek/Downloads/web2py/web2py.app/Contents/Resources/applications/admin/sessions/127.0.0.1-bf448199-cadc-41e3-b1a7-bed302e89a3e', mode 'rb+' at 0xa27f7b8>"
p4906
asbasbasbag49
(g65
g51
NtRp4907
(dp4908
g54
(dp4909
sg63
g3847
sg56
(lp4910
g49
(g70
g51
NtRp4911
(dp4912
g54
(dp4913
g74
g75
ssg63
g4907
sg56
(lp4914
S'session_filename'
p4915
asbag49
(g70
g51
NtRp4916
(dp4917
g54
(dp4918
g81
g82
ssg63
g4907
sg56
(lp4919
S':'
asbag49
(g70
g51
NtRp4920
(dp4921
g54
(dp4922
sg63
g4907
sg56
(lp4923
g49
(g50
g51
NtRp4924
(dp4925
g54
(dp4926
g62
I5
ssg63
g4920
sg56
(lp4927
S'/Users/zamechek/Downloads/web2py/web2py.app/Contents/Resources/applications/admin/sessions/127.0.0.1-bf448199-cadc-41e3-b1a7-bed302e89a3e'
p4928
asbasbasbag49
(g65
g51
NtRp4929
(dp4930
g54
(dp4931
sg63
g3847
sg56
(lp4932
g49
(g70
g51
NtRp4933
(dp4934
g54
(dp4935
g74
g75
ssg63
g4929
sg56
(lp4936
S'session_id'
p4937
asbag49
(g70
g51
NtRp4938
(dp4939
g54
(dp4940
g81
g82
ssg63
g4929
sg56
(lp4941
S':'
asbag49
(g70
g51
NtRp4942
(dp4943
g54
(dp4944
sg63
g4929
sg56
(lp4945
g49
(g50
g51
NtRp4946
(dp4947
g54
(dp4948
g62
I5
ssg63
g4942
sg56
(lp4949
g286
asbasbasbag49
(g65
g51
NtRp4950
(dp4951
g54
(dp4952
sg63
g3847
sg56
(lp4953
g49
(g70
g51
NtRp4954
(dp4955
g54
(dp4956
g74
g75
ssg63
g4950
sg56
(lp4957
S'session_id_name'
p4958
asbag49
(g70
g51
NtRp4959
(dp4960
g54
(dp4961
g81
g82
ssg63
g4950
sg56
(lp4962
S':'
asbag49
(g70
g51
NtRp4963
(dp4964
g54
(dp4965
sg63
g4950
sg56
(lp4966
g49
(g50
g51
NtRp4967
(dp4968
g54
(dp4969
g62
I5
ssg63
g4963
sg56
(lp4970
g3904
asbasbasbag49
(g65
g51
NtRp4971
(dp4972
g54
(dp4973
sg63
g3847
sg56
(lp4974
g49
(g70
g51
NtRp4975
(dp4976
g54
(dp4977
g74
g75
ssg63
g4971
sg56
(lp4978
S'session_locked'
p4979
asbag49
(g70
g51
NtRp4980
(dp4981
g54
(dp4982
g81
g82
ssg63
g4971
sg56
(lp4983
S':'
asbag49
(g70
g51
NtRp4984
(dp4985
g54
(dp4986
sg63
g4971
sg56
(lp4987
g49
(g50
g51
NtRp4988
(dp4989
g54
(dp4990
g62
I5
ssg63
g4984
sg56
(lp4991
g92
asbasbasbag49
(g65
g51
NtRp4992
(dp4993
g54
(dp4994
sg63
g3847
sg56
(lp4995
g49
(g70
g51
NtRp4996
(dp4997
g54
(dp4998
g74
g75
ssg63
g4992
sg56
(lp4999
S'session_new'
p5000
asbag49
(g70
g51
NtRp5001
(dp5002
g54
(dp5003
g81
g82
ssg63
g4992
sg56
(lp5004
S':'
asbag49
(g70
g51
NtRp5005
(dp5006
g54
(dp5007
sg63
g4992
sg56
(lp5008
g49
(g50
g51
NtRp5009
(dp5010
g54
(dp5011
g62
I5
ssg63
g5005
sg56
(lp5012
g1300
asbasbasbag49
(g65
g51
NtRp5013
(dp5014
g54
(dp5015
sg63
g3847
sg56
(lp5016
g49
(g70
g51
NtRp5017
(dp5018
g54
(dp5019
g74
g75
ssg63
g5013
sg56
(lp5020
S'session_storage_type'
p5021
asbag49
(g70
g51
NtRp5022
(dp5023
g54
(dp5024
g81
g82
ssg63
g5013
sg56
(lp5025
S':'
asbag49
(g70
g51
NtRp5026
(dp5027
g54
(dp5028
sg63
g5013
sg56
(lp5029
g49
(g50
g51
NtRp5030
(dp5031
g54
(dp5032
g62
I5
ssg63
g5026
sg56
(lp5033
g3486
asbasbasbag49
(g65
g51
NtRp5034
(dp5035
g54
(dp5036
sg63
g3847
sg56
(lp5037
g49
(g70
g51
NtRp5038
(dp5039
g54
(dp5040
g74
g75
ssg63
g5034
sg56
(lp5041
S'status'
p5042
asbag49
(g70
g51
NtRp5043
(dp5044
g54
(dp5045
g81
g82
ssg63
g5034
sg56
(lp5046
S':'
asbag49
(g70
g51
NtRp5047
(dp5048
g54
(dp5049
sg63
g5034
sg56
(lp5050
g49
(g50
g51
NtRp5051
(dp5052
g54
(dp5053
g62
I5
ssg63
g5047
sg56
(lp5054
S'200'
p5055
asbasbasbag49
(g65
g51
NtRp5056
(dp5057
g54
(dp5058
sg63
g3847
sg56
(lp5059
g49
(g70
g51
NtRp5060
(dp5061
g54
(dp5062
g74
g75
ssg63
g5056
sg56
(lp5063
S'subtitle'
p5064
asbag49
(g70
g51
NtRp5065
(dp5066
g54
(dp5067
g81
g82
ssg63
g5056
sg56
(lp5068
S':'
asbag49
(g70
g51
NtRp5069
(dp5070
g54
(dp5071
sg63
g5056
sg56
(lp5072
g49
(g50
g51
NtRp5073
(dp5074
g54
(dp5075
g62
I5
ssg63
g5069
sg56
(lp5076
S'admin'
p5077
asbasbasbag49
(g65
g51
NtRp5078
(dp5079
g54
(dp5080
sg63
g3847
sg56
(lp5081
g49
(g70
g51
NtRp5082
(dp5083
g54
(dp5084
g74
g75
ssg63
g5078
sg56
(lp5085
S'title'
p5086
asbag49
(g70
g51
NtRp5087
(dp5088
g54
(dp5089
g81
g82
ssg63
g5078
sg56
(lp5090
S':'
asbag49
(g70
g51
NtRp5091
(dp5092
g54
(dp5093
sg63
g5078
sg56
(lp5094
g49
(g50
g51
NtRp5095
(dp5096
g54
(dp5097
g62
I5
ssg63
g5091
sg56
(lp5098
S'callback hellow'
p5099
asbasbasbag49
(g65
g51
NtRp5100
(dp5101
g54
(dp5102
sg63
g3847
sg56
(lp5103
g49
(g70
g51
NtRp5104
(dp5105
g54
(dp5106
g74
g75
ssg63
g5100
sg56
(lp5107
S'view'
p5108
asbag49
(g70
g51
NtRp5109
(dp5110
g54
(dp5111
g81
g82
ssg63
g5100
sg56
(lp5112
S':'
asbag49
(g70
g51
NtRp5113
(dp5114
g54
(dp5115
sg63
g5100
sg56
(lp5116
g49
(g50
g51
NtRp5117
(dp5118
g54
(dp5119
g62
I5
ssg63
g5113
sg56
(lp5120
S'shell/callback.html'
p5121
asbasbasbasbasbsS'locals'
p5122
(dp5123
S'self'
p5124
S'<bound method SQLiteAdapter.NE of <gluon.dal.SQLiteAdapter object at 0xb9abd70>>'
p5125
sS'base'
p5126
S"<type 'instancemethod'>"
p5127
sS'proto'
p5128
S'0'
sssS'traceback'
p5129
S'Traceback (most recent call last):\n  File "/home/mdipierro/web2py/gluon/restricted.py", line 212, in restricted\n  File "/Users/zamechek/Downloads/web2py/web2py.app/Contents/Resources/applications/admin/controllers/shell.py", line 52, in <module>\n  File "/home/mdipierro/web2py/gluon/globals.py", line 193, in <lambda>\n  File "/Users/zamechek/Downloads/web2py/web2py.app/Contents/Resources/applications/admin/controllers/shell.py", line 39, in callback\n  File "/home/mdipierro/web2py/gluon/contrib/shell.py", line 260, in run\n  File "/home/mdipierro/web2py/gluon/contrib/shell.py", line 104, in set_global\n  File "copy_reg.pyc", line 69, in _reduce_ex\nTypeError: can\'t pickle instancemethod objects\n'
p5130
s.