(dp1
S'output'
p2
S"<type 'exceptions.TypeError'> can't pickle StringO objects"
p3
sS'layer'
p4
S'/Users/zamechek/Downloads/web2py/web2py.app/Contents/Resources/applications/admin/controllers/shell.py'
p5
sS'code'
p6
S"import sys\nimport cStringIO\nimport gluon.contrib.shell\nimport code\nimport thread\nfrom gluon.shell import env\n\nif DEMO_MODE or MULTI_USER_MODE:\n    session.flash = T('disabled in demo mode')\n    redirect(URL('default', 'site'))\n\nFE = 10 ** 9\n\n\ndef index():\n    app = request.args(0) or 'admin'\n    reset()\n    return dict(app=app)\n\n\ndef callback():\n    app = request.args[0]\n    command = request.vars.statement\n    escape = command[:1] != '!'\n    history = session['history:' + app] = session.get(\n        'history:' + app, gluon.contrib.shell.History())\n    if not escape:\n        command = command[1:]\n    if command == '%reset':\n        reset()\n        return '*** reset ***'\n    elif command[0] == '%':\n        try:\n            command = session['commands:' + app][int(command[1:])]\n        except ValueError:\n            return ''\n    session['commands:' + app].append(command)\n    environ = env(app, True, extra_request=dict(is_https=request.is_https))\n    output = gluon.contrib.shell.run(history, command, environ)\n    k = len(session['commands:' + app]) - 1\n    #output = PRE(output)\n    #return TABLE(TR('In[%i]:'%k,PRE(command)),TR('Out[%i]:'%k,output))\n    return 'In [%i] : %s%s\\n' % (k + 1, command, output)\n\n\ndef reset():\n    app = request.args(0) or 'admin'\n    session['commands:' + app] = []\n    session['history:' + app] = gluon.contrib.shell.History()\n    return 'done'\n\nresponse._vars=response._caller(callback)\n"
p7
sS'snapshot'
p8
(dp9
S'exception'
p10
(dp11
S'__hash__'
p12
S"<method-wrapper '__hash__' of exceptions.TypeError object at 0xad54bc0>"
p13
sS'__setattr__'
p14
S"<method-wrapper '__setattr__' of exceptions.TypeError object at 0xad54bc0>"
p15
sS'__reduce_ex__'
p16
S'<built-in method __reduce_ex__ of exceptions.TypeError object at 0xad54bc0>'
p17
sS'__getslice__'
p18
S"<method-wrapper '__getslice__' of exceptions.TypeError object at 0xad54bc0>"
p19
sS'__getitem__'
p20
S"<method-wrapper '__getitem__' of exceptions.TypeError object at 0xad54bc0>"
p21
sS'__setstate__'
p22
S'<built-in method __setstate__ of exceptions.TypeError object at 0xad54bc0>'
p23
sS'__reduce__'
p24
S'<built-in method __reduce__ of exceptions.TypeError object at 0xad54bc0>'
p25
sS'__str__'
p26
S"<method-wrapper '__str__' of exceptions.TypeError object at 0xad54bc0>"
p27
sS'args'
p28
S'("can\'t pickle StringO objects",)'
p29
sS'__getattribute__'
p30
S"<method-wrapper '__getattribute__' of exceptions.TypeError object at 0xad54bc0>"
p31
sS'__class__'
p32
S"<type 'exceptions.TypeError'>"
p33
sS'__delattr__'
p34
S"<method-wrapper '__delattr__' of exceptions.TypeError object at 0xad54bc0>"
p35
sS'__repr__'
p36
S"<method-wrapper '__repr__' of exceptions.TypeError object at 0xad54bc0>"
p37
sS'__dict__'
p38
S'{}'
p39
sS'__doc__'
p40
S"'Inappropriate argument type.'"
p41
sS'__init__'
p42
S"<method-wrapper '__init__' of exceptions.TypeError object at 0xad54bc0>"
p43
sS'__new__'
p44
S'<built-in method __new__ of type object at 0x5fa140>'
p45
ssS'evalue'
p46
S"can't pickle StringO objects"
p47
sS'request'
p48
ccopy_reg
_reconstructor
p49
(cgluon.html
BEAUTIFY
p50
c__builtin__
object
p51
NtRp52
(dp53
S'attributes'
p54
(dp55
sS'components'
p56
(lp57
g49
(cgluon.html
TABLE
p58
g51
NtRp59
(dp60
g54
(dp61
S'level'
p62
I5
ssS'parent'
p63
Nsg56
(lp64
g49
(cgluon.html
TR
p65
g51
NtRp66
(dp67
g54
(dp68
sg63
g59
sg56
(lp69
g49
(cgluon.html
TD
p70
g51
NtRp71
(dp72
g54
(dp73
S'_style'
p74
S'font-weight:bold;vertical-align:top'
p75
ssg63
g66
sg56
(lp76
S'ajax'
p77
asbag49
(g70
g51
NtRp78
(dp79
g54
(dp80
S'_valign'
p81
S'top'
p82
ssg63
g66
sg56
(lp83
S':'
asbag49
(g70
g51
NtRp84
(dp85
g54
(dp86
sg63
g66
sg56
(lp87
g49
(g50
g51
NtRp88
(dp89
g54
(dp90
g62
I5
ssg63
g84
sg56
(lp91
S'True'
p92
asbasbasbag49
(g65
g51
NtRp93
(dp94
g54
(dp95
sg63
g59
sg56
(lp96
g49
(g70
g51
NtRp97
(dp98
g54
(dp99
g74
g75
ssg63
g93
sg56
(lp100
S'application'
p101
asbag49
(g70
g51
NtRp102
(dp103
g54
(dp104
g81
g82
ssg63
g93
sg56
(lp105
S':'
asbag49
(g70
g51
NtRp106
(dp107
g54
(dp108
sg63
g93
sg56
(lp109
g49
(g50
g51
NtRp110
(dp111
g54
(dp112
g62
I5
ssg63
g106
sg56
(lp113
S'admin'
p114
asbasbasbag49
(g65
g51
NtRp115
(dp116
g54
(dp117
sg63
g59
sg56
(lp118
g49
(g70
g51
NtRp119
(dp120
g54
(dp121
g74
g75
ssg63
g115
sg56
(lp122
g28
asbag49
(g70
g51
NtRp123
(dp124
g54
(dp125
g81
g82
ssg63
g115
sg56
(lp126
S':'
asbag49
(g70
g51
NtRp127
(dp128
g54
(dp129
sg63
g115
sg56
(lp130
g49
(g50
g51
NtRp131
(dp132
g54
(dp133
g62
I5
ssg63
g127
sg56
(lp134
g49
(g58
g51
NtRp135
(dp136
g54
(dp137
g62
I4
ssg63
Nsg56
(lp138
g49
(g65
g51
NtRp139
(dp140
g54
(dp141
sg63
g135
sg56
(lp142
g49
(g70
g51
NtRp143
(dp144
g54
(dp145
sg63
g139
sg56
(lp146
g49
(g50
g51
NtRp147
(dp148
g54
(dp149
g62
I4
ssg63
g143
sg56
(lp150
S'hellow'
p151
asbasbasbasbasbasbasbag49
(g65
g51
NtRp152
(dp153
g54
(dp154
sg63
g59
sg56
(lp155
g49
(g70
g51
NtRp156
(dp157
g54
(dp158
g74
g75
ssg63
g152
sg56
(lp159
S'body'
p160
asbag49
(g70
g51
NtRp161
(dp162
g54
(dp163
g81
g82
ssg63
g152
sg56
(lp164
S':'
asbag49
(g70
g51
NtRp165
(dp166
g54
(dp167
sg63
g152
sg56
(lp168
g49
(g50
g51
NtRp169
(dp170
g54
(dp171
g62
I5
ssg63
g165
sg56
(lp172
S"<open file '<fdopen>', mode 'w+b' at 0xa452068>"
p173
asbasbasbag49
(g65
g51
NtRp174
(dp175
g54
(dp176
sg63
g59
sg56
(lp177
g49
(g70
g51
NtRp178
(dp179
g54
(dp180
g74
g75
ssg63
g174
sg56
(lp181
S'cid'
p182
asbag49
(g70
g51
NtRp183
(dp184
g54
(dp185
g81
g82
ssg63
g174
sg56
(lp186
S':'
asbag49
(g70
g51
NtRp187
(dp188
g54
(dp189
sg63
g174
sg56
(lp190
g49
(g50
g51
NtRp191
(dp192
g54
(dp193
g62
I5
ssg63
g187
sg56
(lp194
S'None'
p195
asbasbasbag49
(g65
g51
NtRp196
(dp197
g54
(dp198
sg63
g59
sg56
(lp199
g49
(g70
g51
NtRp200
(dp201
g54
(dp202
g74
g75
ssg63
g196
sg56
(lp203
S'client'
p204
asbag49
(g70
g51
NtRp205
(dp206
g54
(dp207
g81
g82
ssg63
g196
sg56
(lp208
S':'
asbag49
(g70
g51
NtRp209
(dp210
g54
(dp211
sg63
g196
sg56
(lp212
g49
(g50
g51
NtRp213
(dp214
g54
(dp215
g62
I5
ssg63
g209
sg56
(lp216
S'127.0.0.1'
p217
asbasbasbag49
(g65
g51
NtRp218
(dp219
g54
(dp220
sg63
g59
sg56
(lp221
g49
(g70
g51
NtRp222
(dp223
g54
(dp224
g74
g75
ssg63
g218
sg56
(lp225
S'controller'
p226
asbag49
(g70
g51
NtRp227
(dp228
g54
(dp229
g81
g82
ssg63
g218
sg56
(lp230
S':'
asbag49
(g70
g51
NtRp231
(dp232
g54
(dp233
sg63
g218
sg56
(lp234
g49
(g50
g51
NtRp235
(dp236
g54
(dp237
g62
I5
ssg63
g231
sg56
(lp238
S'shell'
p239
asbasbasbag49
(g65
g51
NtRp240
(dp241
g54
(dp242
sg63
g59
sg56
(lp243
g49
(g70
g51
NtRp244
(dp245
g54
(dp246
g74
g75
ssg63
g240
sg56
(lp247
S'cookies'
p248
asbag49
(g70
g51
NtRp249
(dp250
g54
(dp251
g81
g82
ssg63
g240
sg56
(lp252
S':'
asbag49
(g70
g51
NtRp253
(dp254
g54
(dp255
sg63
g240
sg56
(lp256
g49
(g50
g51
NtRp257
(dp258
g54
(dp259
g62
I5
ssg63
g253
sg56
(lp260
g49
(g58
g51
NtRp261
(dp262
g54
(dp263
g62
I4
ssg63
Nsg56
(lp264
g49
(g65
g51
NtRp265
(dp266
g54
(dp267
sg63
g261
sg56
(lp268
g49
(g70
g51
NtRp269
(dp270
g54
(dp271
g74
g75
ssg63
g265
sg56
(lp272
S'session_data_examples'
p273
asbag49
(g70
g51
NtRp274
(dp275
g54
(dp276
g81
g82
ssg63
g265
sg56
(lp277
S':'
asbag49
(g70
g51
NtRp278
(dp279
g54
(dp280
sg63
g265
sg56
(lp281
g49
(g50
g51
NtRp282
(dp283
g54
(dp284
g62
I4
ssg63
g278
sg56
(lp285
S'6590e93a92ae056071f3d5d23c5da718:8mcaYr3jD5OS9Hm5obiuGpOS1hqNCswQLIoFlRGZYdaR8FVZ84s0w9vMAEY5L6DK8gvTZcQowujTbbDj-ns3802lRCPwkkcburTr1lmHorC9hQtD5W0yZ89O_mdlKuHPlwEItXQ5_WAFut_RTkzpuyS0nQWmuEGxVuLk0DXc0ndh8WySsXoErgPnINq0aXqKzueVqcmNBWwB7tluAV8oSQyVVnjPajiXfmT2moAb3dPnaGC3yePavU4XAXO8FVarzcdAnZ4bnTo9uMJJvT2hL9oQVbtD8YY8yMHurMAdtIpf8wcGfXNr6SjFTzpMxYtAg1tv7XdXpUPETM1Ox80jE-qsgQd_Xr1FA049-xsoxpdA4EzMUoouiTJ995NWCOJNjo6VICpuSvfOJBlnOLd8aLxueLUtuyScbkLd2jOCQIsF2aV6hhIZWDXpJwlCKPkIckeaXaaHeE4EqTZR6N0JnA=='
p286
ag49
(g58
g51
NtRp287
(dp288
g54
(dp289
g62
I3
ssg63
Nsg56
(lp290
g49
(g65
g51
NtRp291
(dp292
g54
(dp293
sg63
g287
sg56
(lp294
g49
(g70
g51
NtRp295
(dp296
g54
(dp297
g74
g75
ssg63
g291
sg56
(lp298
S'comment'
p299
asbag49
(g70
g51
NtRp300
(dp301
g54
(dp302
g81
g82
ssg63
g291
sg56
(lp303
S':'
asbag49
(g70
g51
NtRp304
(dp305
g54
(dp306
sg63
g291
sg56
(lp307
g49
(g50
g51
NtRp308
(dp309
g54
(dp310
g62
I3
ssg63
g304
sg56
(lp311
S''
asbasbasbag49
(g65
g51
NtRp312
(dp313
g54
(dp314
sg63
g287
sg56
(lp315
g49
(g70
g51
NtRp316
(dp317
g54
(dp318
g74
g75
ssg63
g312
sg56
(lp319
S'domain'
p320
asbag49
(g70
g51
NtRp321
(dp322
g54
(dp323
g81
g82
ssg63
g312
sg56
(lp324
S':'
asbag49
(g70
g51
NtRp325
(dp326
g54
(dp327
sg63
g312
sg56
(lp328
g49
(g50
g51
NtRp329
(dp330
g54
(dp331
g62
I3
ssg63
g325
sg56
(lp332
S''
asbasbasbag49
(g65
g51
NtRp333
(dp334
g54
(dp335
sg63
g287
sg56
(lp336
g49
(g70
g51
NtRp337
(dp338
g54
(dp339
g74
g75
ssg63
g333
sg56
(lp340
S'expires'
p341
asbag49
(g70
g51
NtRp342
(dp343
g54
(dp344
g81
g82
ssg63
g333
sg56
(lp345
S':'
asbag49
(g70
g51
NtRp346
(dp347
g54
(dp348
sg63
g333
sg56
(lp349
g49
(g50
g51
NtRp350
(dp351
g54
(dp352
g62
I3
ssg63
g346
sg56
(lp353
S''
asbasbasbag49
(g65
g51
NtRp354
(dp355
g54
(dp356
sg63
g287
sg56
(lp357
g49
(g70
g51
NtRp358
(dp359
g54
(dp360
g74
g75
ssg63
g354
sg56
(lp361
S'max-age'
p362
asbag49
(g70
g51
NtRp363
(dp364
g54
(dp365
g81
g82
ssg63
g354
sg56
(lp366
S':'
asbag49
(g70
g51
NtRp367
(dp368
g54
(dp369
sg63
g354
sg56
(lp370
g49
(g50
g51
NtRp371
(dp372
g54
(dp373
g62
I3
ssg63
g367
sg56
(lp374
S''
asbasbasbag49
(g65
g51
NtRp375
(dp376
g54
(dp377
sg63
g287
sg56
(lp378
g49
(g70
g51
NtRp379
(dp380
g54
(dp381
g74
g75
ssg63
g375
sg56
(lp382
S'path'
p383
asbag49
(g70
g51
NtRp384
(dp385
g54
(dp386
g81
g82
ssg63
g375
sg56
(lp387
S':'
asbag49
(g70
g51
NtRp388
(dp389
g54
(dp390
sg63
g375
sg56
(lp391
g49
(g50
g51
NtRp392
(dp393
g54
(dp394
g62
I3
ssg63
g388
sg56
(lp395
S''
asbasbasbag49
(g65
g51
NtRp396
(dp397
g54
(dp398
sg63
g287
sg56
(lp399
g49
(g70
g51
NtRp400
(dp401
g54
(dp402
g74
g75
ssg63
g396
sg56
(lp403
S'secure'
p404
asbag49
(g70
g51
NtRp405
(dp406
g54
(dp407
g81
g82
ssg63
g396
sg56
(lp408
S':'
asbag49
(g70
g51
NtRp409
(dp410
g54
(dp411
sg63
g396
sg56
(lp412
g49
(g50
g51
NtRp413
(dp414
g54
(dp415
g62
I3
ssg63
g409
sg56
(lp416
S''
asbasbasbag49
(g65
g51
NtRp417
(dp418
g54
(dp419
sg63
g287
sg56
(lp420
g49
(g70
g51
NtRp421
(dp422
g54
(dp423
g74
g75
ssg63
g417
sg56
(lp424
S'version'
p425
asbag49
(g70
g51
NtRp426
(dp427
g54
(dp428
g81
g82
ssg63
g417
sg56
(lp429
S':'
asbag49
(g70
g51
NtRp430
(dp431
g54
(dp432
sg63
g417
sg56
(lp433
g49
(g50
g51
NtRp434
(dp435
g54
(dp436
g62
I3
ssg63
g430
sg56
(lp437
S''
asbasbasbasbasbasbasbag49
(g65
g51
NtRp438
(dp439
g54
(dp440
sg63
g261
sg56
(lp441
g49
(g70
g51
NtRp442
(dp443
g54
(dp444
g74
g75
ssg63
g438
sg56
(lp445
S'session_id_admin'
p446
asbag49
(g70
g51
NtRp447
(dp448
g54
(dp449
g81
g82
ssg63
g438
sg56
(lp450
S':'
asbag49
(g70
g51
NtRp451
(dp452
g54
(dp453
sg63
g438
sg56
(lp454
g49
(g50
g51
NtRp455
(dp456
g54
(dp457
g62
I4
ssg63
g451
sg56
(lp458
S'127.0.0.1-66a1de5b-ba15-4b30-ba06-132c9e7969c1'
p459
ag49
(g58
g51
NtRp460
(dp461
g54
(dp462
g62
I3
ssg63
Nsg56
(lp463
g49
(g65
g51
NtRp464
(dp465
g54
(dp466
sg63
g460
sg56
(lp467
g49
(g70
g51
NtRp468
(dp469
g54
(dp470
g74
g75
ssg63
g464
sg56
(lp471
g299
asbag49
(g70
g51
NtRp472
(dp473
g54
(dp474
g81
g82
ssg63
g464
sg56
(lp475
S':'
asbag49
(g70
g51
NtRp476
(dp477
g54
(dp478
sg63
g464
sg56
(lp479
g49
(g50
g51
NtRp480
(dp481
g54
(dp482
g62
I3
ssg63
g476
sg56
(lp483
S''
asbasbasbag49
(g65
g51
NtRp484
(dp485
g54
(dp486
sg63
g460
sg56
(lp487
g49
(g70
g51
NtRp488
(dp489
g54
(dp490
g74
g75
ssg63
g484
sg56
(lp491
g320
asbag49
(g70
g51
NtRp492
(dp493
g54
(dp494
g81
g82
ssg63
g484
sg56
(lp495
S':'
asbag49
(g70
g51
NtRp496
(dp497
g54
(dp498
sg63
g484
sg56
(lp499
g49
(g50
g51
NtRp500
(dp501
g54
(dp502
g62
I3
ssg63
g496
sg56
(lp503
S''
asbasbasbag49
(g65
g51
NtRp504
(dp505
g54
(dp506
sg63
g460
sg56
(lp507
g49
(g70
g51
NtRp508
(dp509
g54
(dp510
g74
g75
ssg63
g504
sg56
(lp511
g341
asbag49
(g70
g51
NtRp512
(dp513
g54
(dp514
g81
g82
ssg63
g504
sg56
(lp515
S':'
asbag49
(g70
g51
NtRp516
(dp517
g54
(dp518
sg63
g504
sg56
(lp519
g49
(g50
g51
NtRp520
(dp521
g54
(dp522
g62
I3
ssg63
g516
sg56
(lp523
S''
asbasbasbag49
(g65
g51
NtRp524
(dp525
g54
(dp526
sg63
g460
sg56
(lp527
g49
(g70
g51
NtRp528
(dp529
g54
(dp530
g74
g75
ssg63
g524
sg56
(lp531
g362
asbag49
(g70
g51
NtRp532
(dp533
g54
(dp534
g81
g82
ssg63
g524
sg56
(lp535
S':'
asbag49
(g70
g51
NtRp536
(dp537
g54
(dp538
sg63
g524
sg56
(lp539
g49
(g50
g51
NtRp540
(dp541
g54
(dp542
g62
I3
ssg63
g536
sg56
(lp543
S''
asbasbasbag49
(g65
g51
NtRp544
(dp545
g54
(dp546
sg63
g460
sg56
(lp547
g49
(g70
g51
NtRp548
(dp549
g54
(dp550
g74
g75
ssg63
g544
sg56
(lp551
g383
asbag49
(g70
g51
NtRp552
(dp553
g54
(dp554
g81
g82
ssg63
g544
sg56
(lp555
S':'
asbag49
(g70
g51
NtRp556
(dp557
g54
(dp558
sg63
g544
sg56
(lp559
g49
(g50
g51
NtRp560
(dp561
g54
(dp562
g62
I3
ssg63
g556
sg56
(lp563
S''
asbasbasbag49
(g65
g51
NtRp564
(dp565
g54
(dp566
sg63
g460
sg56
(lp567
g49
(g70
g51
NtRp568
(dp569
g54
(dp570
g74
g75
ssg63
g564
sg56
(lp571
g404
asbag49
(g70
g51
NtRp572
(dp573
g54
(dp574
g81
g82
ssg63
g564
sg56
(lp575
S':'
asbag49
(g70
g51
NtRp576
(dp577
g54
(dp578
sg63
g564
sg56
(lp579
g49
(g50
g51
NtRp580
(dp581
g54
(dp582
g62
I3
ssg63
g576
sg56
(lp583
S''
asbasbasbag49
(g65
g51
NtRp584
(dp585
g54
(dp586
sg63
g460
sg56
(lp587
g49
(g70
g51
NtRp588
(dp589
g54
(dp590
g74
g75
ssg63
g584
sg56
(lp591
g425
asbag49
(g70
g51
NtRp592
(dp593
g54
(dp594
g81
g82
ssg63
g584
sg56
(lp595
S':'
asbag49
(g70
g51
NtRp596
(dp597
g54
(dp598
sg63
g584
sg56
(lp599
g49
(g50
g51
NtRp600
(dp601
g54
(dp602
g62
I3
ssg63
g596
sg56
(lp603
S''
asbasbasbasbasbasbasbag49
(g65
g51
NtRp604
(dp605
g54
(dp606
sg63
g261
sg56
(lp607
g49
(g70
g51
NtRp608
(dp609
g54
(dp610
g74
g75
ssg63
g604
sg56
(lp611
S'session_id_hellow'
p612
asbag49
(g70
g51
NtRp613
(dp614
g54
(dp615
g81
g82
ssg63
g604
sg56
(lp616
S':'
asbag49
(g70
g51
NtRp617
(dp618
g54
(dp619
sg63
g604
sg56
(lp620
g49
(g50
g51
NtRp621
(dp622
g54
(dp623
g62
I4
ssg63
g617
sg56
(lp624
S'127.0.0.1-f0c125e4-5d5e-4805-8c10-bdfc66367729'
p625
ag49
(g58
g51
NtRp626
(dp627
g54
(dp628
g62
I3
ssg63
Nsg56
(lp629
g49
(g65
g51
NtRp630
(dp631
g54
(dp632
sg63
g626
sg56
(lp633
g49
(g70
g51
NtRp634
(dp635
g54
(dp636
g74
g75
ssg63
g630
sg56
(lp637
g299
asbag49
(g70
g51
NtRp638
(dp639
g54
(dp640
g81
g82
ssg63
g630
sg56
(lp641
S':'
asbag49
(g70
g51
NtRp642
(dp643
g54
(dp644
sg63
g630
sg56
(lp645
g49
(g50
g51
NtRp646
(dp647
g54
(dp648
g62
I3
ssg63
g642
sg56
(lp649
S''
asbasbasbag49
(g65
g51
NtRp650
(dp651
g54
(dp652
sg63
g626
sg56
(lp653
g49
(g70
g51
NtRp654
(dp655
g54
(dp656
g74
g75
ssg63
g650
sg56
(lp657
g320
asbag49
(g70
g51
NtRp658
(dp659
g54
(dp660
g81
g82
ssg63
g650
sg56
(lp661
S':'
asbag49
(g70
g51
NtRp662
(dp663
g54
(dp664
sg63
g650
sg56
(lp665
g49
(g50
g51
NtRp666
(dp667
g54
(dp668
g62
I3
ssg63
g662
sg56
(lp669
S''
asbasbasbag49
(g65
g51
NtRp670
(dp671
g54
(dp672
sg63
g626
sg56
(lp673
g49
(g70
g51
NtRp674
(dp675
g54
(dp676
g74
g75
ssg63
g670
sg56
(lp677
g341
asbag49
(g70
g51
NtRp678
(dp679
g54
(dp680
g81
g82
ssg63
g670
sg56
(lp681
S':'
asbag49
(g70
g51
NtRp682
(dp683
g54
(dp684
sg63
g670
sg56
(lp685
g49
(g50
g51
NtRp686
(dp687
g54
(dp688
g62
I3
ssg63
g682
sg56
(lp689
S''
asbasbasbag49
(g65
g51
NtRp690
(dp691
g54
(dp692
sg63
g626
sg56
(lp693
g49
(g70
g51
NtRp694
(dp695
g54
(dp696
g74
g75
ssg63
g690
sg56
(lp697
g362
asbag49
(g70
g51
NtRp698
(dp699
g54
(dp700
g81
g82
ssg63
g690
sg56
(lp701
S':'
asbag49
(g70
g51
NtRp702
(dp703
g54
(dp704
sg63
g690
sg56
(lp705
g49
(g50
g51
NtRp706
(dp707
g54
(dp708
g62
I3
ssg63
g702
sg56
(lp709
S''
asbasbasbag49
(g65
g51
NtRp710
(dp711
g54
(dp712
sg63
g626
sg56
(lp713
g49
(g70
g51
NtRp714
(dp715
g54
(dp716
g74
g75
ssg63
g710
sg56
(lp717
g383
asbag49
(g70
g51
NtRp718
(dp719
g54
(dp720
g81
g82
ssg63
g710
sg56
(lp721
S':'
asbag49
(g70
g51
NtRp722
(dp723
g54
(dp724
sg63
g710
sg56
(lp725
g49
(g50
g51
NtRp726
(dp727
g54
(dp728
g62
I3
ssg63
g722
sg56
(lp729
S''
asbasbasbag49
(g65
g51
NtRp730
(dp731
g54
(dp732
sg63
g626
sg56
(lp733
g49
(g70
g51
NtRp734
(dp735
g54
(dp736
g74
g75
ssg63
g730
sg56
(lp737
g404
asbag49
(g70
g51
NtRp738
(dp739
g54
(dp740
g81
g82
ssg63
g730
sg56
(lp741
S':'
asbag49
(g70
g51
NtRp742
(dp743
g54
(dp744
sg63
g730
sg56
(lp745
g49
(g50
g51
NtRp746
(dp747
g54
(dp748
g62
I3
ssg63
g742
sg56
(lp749
S''
asbasbasbag49
(g65
g51
NtRp750
(dp751
g54
(dp752
sg63
g626
sg56
(lp753
g49
(g70
g51
NtRp754
(dp755
g54
(dp756
g74
g75
ssg63
g750
sg56
(lp757
g425
asbag49
(g70
g51
NtRp758
(dp759
g54
(dp760
g81
g82
ssg63
g750
sg56
(lp761
S':'
asbag49
(g70
g51
NtRp762
(dp763
g54
(dp764
sg63
g750
sg56
(lp765
g49
(g50
g51
NtRp766
(dp767
g54
(dp768
g62
I3
ssg63
g762
sg56
(lp769
S''
asbasbasbasbasbasbasbag49
(g65
g51
NtRp770
(dp771
g54
(dp772
sg63
g261
sg56
(lp773
g49
(g70
g51
NtRp774
(dp775
g54
(dp776
g74
g75
ssg63
g770
sg56
(lp777
S'session_id_slots'
p778
asbag49
(g70
g51
NtRp779
(dp780
g54
(dp781
g81
g82
ssg63
g770
sg56
(lp782
S':'
asbag49
(g70
g51
NtRp783
(dp784
g54
(dp785
sg63
g770
sg56
(lp786
g49
(g50
g51
NtRp787
(dp788
g54
(dp789
g62
I4
ssg63
g783
sg56
(lp790
S'127.0.0.1-c959d0b0-1e49-49e4-b6ce-60b17dcbfd08'
p791
ag49
(g58
g51
NtRp792
(dp793
g54
(dp794
g62
I3
ssg63
Nsg56
(lp795
g49
(g65
g51
NtRp796
(dp797
g54
(dp798
sg63
g792
sg56
(lp799
g49
(g70
g51
NtRp800
(dp801
g54
(dp802
g74
g75
ssg63
g796
sg56
(lp803
g299
asbag49
(g70
g51
NtRp804
(dp805
g54
(dp806
g81
g82
ssg63
g796
sg56
(lp807
S':'
asbag49
(g70
g51
NtRp808
(dp809
g54
(dp810
sg63
g796
sg56
(lp811
g49
(g50
g51
NtRp812
(dp813
g54
(dp814
g62
I3
ssg63
g808
sg56
(lp815
S''
asbasbasbag49
(g65
g51
NtRp816
(dp817
g54
(dp818
sg63
g792
sg56
(lp819
g49
(g70
g51
NtRp820
(dp821
g54
(dp822
g74
g75
ssg63
g816
sg56
(lp823
g320
asbag49
(g70
g51
NtRp824
(dp825
g54
(dp826
g81
g82
ssg63
g816
sg56
(lp827
S':'
asbag49
(g70
g51
NtRp828
(dp829
g54
(dp830
sg63
g816
sg56
(lp831
g49
(g50
g51
NtRp832
(dp833
g54
(dp834
g62
I3
ssg63
g828
sg56
(lp835
S''
asbasbasbag49
(g65
g51
NtRp836
(dp837
g54
(dp838
sg63
g792
sg56
(lp839
g49
(g70
g51
NtRp840
(dp841
g54
(dp842
g74
g75
ssg63
g836
sg56
(lp843
g341
asbag49
(g70
g51
NtRp844
(dp845
g54
(dp846
g81
g82
ssg63
g836
sg56
(lp847
S':'
asbag49
(g70
g51
NtRp848
(dp849
g54
(dp850
sg63
g836
sg56
(lp851
g49
(g50
g51
NtRp852
(dp853
g54
(dp854
g62
I3
ssg63
g848
sg56
(lp855
S''
asbasbasbag49
(g65
g51
NtRp856
(dp857
g54
(dp858
sg63
g792
sg56
(lp859
g49
(g70
g51
NtRp860
(dp861
g54
(dp862
g74
g75
ssg63
g856
sg56
(lp863
g362
asbag49
(g70
g51
NtRp864
(dp865
g54
(dp866
g81
g82
ssg63
g856
sg56
(lp867
S':'
asbag49
(g70
g51
NtRp868
(dp869
g54
(dp870
sg63
g856
sg56
(lp871
g49
(g50
g51
NtRp872
(dp873
g54
(dp874
g62
I3
ssg63
g868
sg56
(lp875
S''
asbasbasbag49
(g65
g51
NtRp876
(dp877
g54
(dp878
sg63
g792
sg56
(lp879
g49
(g70
g51
NtRp880
(dp881
g54
(dp882
g74
g75
ssg63
g876
sg56
(lp883
g383
asbag49
(g70
g51
NtRp884
(dp885
g54
(dp886
g81
g82
ssg63
g876
sg56
(lp887
S':'
asbag49
(g70
g51
NtRp888
(dp889
g54
(dp890
sg63
g876
sg56
(lp891
g49
(g50
g51
NtRp892
(dp893
g54
(dp894
g62
I3
ssg63
g888
sg56
(lp895
S''
asbasbasbag49
(g65
g51
NtRp896
(dp897
g54
(dp898
sg63
g792
sg56
(lp899
g49
(g70
g51
NtRp900
(dp901
g54
(dp902
g74
g75
ssg63
g896
sg56
(lp903
g404
asbag49
(g70
g51
NtRp904
(dp905
g54
(dp906
g81
g82
ssg63
g896
sg56
(lp907
S':'
asbag49
(g70
g51
NtRp908
(dp909
g54
(dp910
sg63
g896
sg56
(lp911
g49
(g50
g51
NtRp912
(dp913
g54
(dp914
g62
I3
ssg63
g908
sg56
(lp915
S''
asbasbasbag49
(g65
g51
NtRp916
(dp917
g54
(dp918
sg63
g792
sg56
(lp919
g49
(g70
g51
NtRp920
(dp921
g54
(dp922
g74
g75
ssg63
g916
sg56
(lp923
g425
asbag49
(g70
g51
NtRp924
(dp925
g54
(dp926
g81
g82
ssg63
g916
sg56
(lp927
S':'
asbag49
(g70
g51
NtRp928
(dp929
g54
(dp930
sg63
g916
sg56
(lp931
g49
(g50
g51
NtRp932
(dp933
g54
(dp934
g62
I3
ssg63
g928
sg56
(lp935
S''
asbasbasbasbasbasbasbag49
(g65
g51
NtRp936
(dp937
g54
(dp938
sg63
g261
sg56
(lp939
g49
(g70
g51
NtRp940
(dp941
g54
(dp942
g74
g75
ssg63
g936
sg56
(lp943
S'session_id_welcome'
p944
asbag49
(g70
g51
NtRp945
(dp946
g54
(dp947
g81
g82
ssg63
g936
sg56
(lp948
S':'
asbag49
(g70
g51
NtRp949
(dp950
g54
(dp951
sg63
g936
sg56
(lp952
g49
(g50
g51
NtRp953
(dp954
g54
(dp955
g62
I4
ssg63
g949
sg56
(lp956
S'127.0.0.1-245d6654-272e-49f5-968f-2cbd15b43359'
p957
ag49
(g58
g51
NtRp958
(dp959
g54
(dp960
g62
I3
ssg63
Nsg56
(lp961
g49
(g65
g51
NtRp962
(dp963
g54
(dp964
sg63
g958
sg56
(lp965
g49
(g70
g51
NtRp966
(dp967
g54
(dp968
g74
g75
ssg63
g962
sg56
(lp969
g299
asbag49
(g70
g51
NtRp970
(dp971
g54
(dp972
g81
g82
ssg63
g962
sg56
(lp973
S':'
asbag49
(g70
g51
NtRp974
(dp975
g54
(dp976
sg63
g962
sg56
(lp977
g49
(g50
g51
NtRp978
(dp979
g54
(dp980
g62
I3
ssg63
g974
sg56
(lp981
S''
asbasbasbag49
(g65
g51
NtRp982
(dp983
g54
(dp984
sg63
g958
sg56
(lp985
g49
(g70
g51
NtRp986
(dp987
g54
(dp988
g74
g75
ssg63
g982
sg56
(lp989
g320
asbag49
(g70
g51
NtRp990
(dp991
g54
(dp992
g81
g82
ssg63
g982
sg56
(lp993
S':'
asbag49
(g70
g51
NtRp994
(dp995
g54
(dp996
sg63
g982
sg56
(lp997
g49
(g50
g51
NtRp998
(dp999
g54
(dp1000
g62
I3
ssg63
g994
sg56
(lp1001
S''
asbasbasbag49
(g65
g51
NtRp1002
(dp1003
g54
(dp1004
sg63
g958
sg56
(lp1005
g49
(g70
g51
NtRp1006
(dp1007
g54
(dp1008
g74
g75
ssg63
g1002
sg56
(lp1009
g341
asbag49
(g70
g51
NtRp1010
(dp1011
g54
(dp1012
g81
g82
ssg63
g1002
sg56
(lp1013
S':'
asbag49
(g70
g51
NtRp1014
(dp1015
g54
(dp1016
sg63
g1002
sg56
(lp1017
g49
(g50
g51
NtRp1018
(dp1019
g54
(dp1020
g62
I3
ssg63
g1014
sg56
(lp1021
S''
asbasbasbag49
(g65
g51
NtRp1022
(dp1023
g54
(dp1024
sg63
g958
sg56
(lp1025
g49
(g70
g51
NtRp1026
(dp1027
g54
(dp1028
g74
g75
ssg63
g1022
sg56
(lp1029
g362
asbag49
(g70
g51
NtRp1030
(dp1031
g54
(dp1032
g81
g82
ssg63
g1022
sg56
(lp1033
S':'
asbag49
(g70
g51
NtRp1034
(dp1035
g54
(dp1036
sg63
g1022
sg56
(lp1037
g49
(g50
g51
NtRp1038
(dp1039
g54
(dp1040
g62
I3
ssg63
g1034
sg56
(lp1041
S''
asbasbasbag49
(g65
g51
NtRp1042
(dp1043
g54
(dp1044
sg63
g958
sg56
(lp1045
g49
(g70
g51
NtRp1046
(dp1047
g54
(dp1048
g74
g75
ssg63
g1042
sg56
(lp1049
g383
asbag49
(g70
g51
NtRp1050
(dp1051
g54
(dp1052
g81
g82
ssg63
g1042
sg56
(lp1053
S':'
asbag49
(g70
g51
NtRp1054
(dp1055
g54
(dp1056
sg63
g1042
sg56
(lp1057
g49
(g50
g51
NtRp1058
(dp1059
g54
(dp1060
g62
I3
ssg63
g1054
sg56
(lp1061
S''
asbasbasbag49
(g65
g51
NtRp1062
(dp1063
g54
(dp1064
sg63
g958
sg56
(lp1065
g49
(g70
g51
NtRp1066
(dp1067
g54
(dp1068
g74
g75
ssg63
g1062
sg56
(lp1069
g404
asbag49
(g70
g51
NtRp1070
(dp1071
g54
(dp1072
g81
g82
ssg63
g1062
sg56
(lp1073
S':'
asbag49
(g70
g51
NtRp1074
(dp1075
g54
(dp1076
sg63
g1062
sg56
(lp1077
g49
(g50
g51
NtRp1078
(dp1079
g54
(dp1080
g62
I3
ssg63
g1074
sg56
(lp1081
S''
asbasbasbag49
(g65
g51
NtRp1082
(dp1083
g54
(dp1084
sg63
g958
sg56
(lp1085
g49
(g70
g51
NtRp1086
(dp1087
g54
(dp1088
g74
g75
ssg63
g1082
sg56
(lp1089
g425
asbag49
(g70
g51
NtRp1090
(dp1091
g54
(dp1092
g81
g82
ssg63
g1082
sg56
(lp1093
S':'
asbag49
(g70
g51
NtRp1094
(dp1095
g54
(dp1096
sg63
g1082
sg56
(lp1097
g49
(g50
g51
NtRp1098
(dp1099
g54
(dp1100
g62
I3
ssg63
g1094
sg56
(lp1101
S''
asbasbasbasbasbasbasbasbasbasbasbag49
(g65
g51
NtRp1102
(dp1103
g54
(dp1104
sg63
g59
sg56
(lp1105
g49
(g70
g51
NtRp1106
(dp1107
g54
(dp1108
g74
g75
ssg63
g1102
sg56
(lp1109
S'env'
p1110
asbag49
(g70
g51
NtRp1111
(dp1112
g54
(dp1113
g81
g82
ssg63
g1102
sg56
(lp1114
S':'
asbag49
(g70
g51
NtRp1115
(dp1116
g54
(dp1117
sg63
g1102
sg56
(lp1118
g49
(g50
g51
NtRp1119
(dp1120
g54
(dp1121
g62
I5
ssg63
g1115
sg56
(lp1122
g49
(g58
g51
NtRp1123
(dp1124
g54
(dp1125
g62
I4
ssg63
Nsg56
(lp1126
g49
(g65
g51
NtRp1127
(dp1128
g54
(dp1129
sg63
g1123
sg56
(lp1130
g49
(g70
g51
NtRp1131
(dp1132
g54
(dp1133
g74
g75
ssg63
g1127
sg56
(lp1134
S'app_folders'
p1135
asbag49
(g70
g51
NtRp1136
(dp1137
g54
(dp1138
g81
g82
ssg63
g1127
sg56
(lp1139
S':'
asbag49
(g70
g51
NtRp1140
(dp1141
g54
(dp1142
sg63
g1127
sg56
(lp1143
g49
(g50
g51
NtRp1144
(dp1145
g54
(dp1146
g62
I4
ssg63
g1140
sg56
(lp1147
S"set(['/Users/zamechek/Downloads/web2py/web2py.app/Contents/Resources/applications/examples/', '/Users/zamechek/Downloads/web2py/web2py.app/Contents/Resources/applications/hellow/', '/Users/zamechek/Downloads/web2py/web2py.app/Contents/Resources/applications/admin/', '/Users/zamechek/Downloads/web2py/web2py.app/Contents/Resources/applications/slots/', '/Users/zamechek/Downloads/web2py/web2py.app/Contents/Resources/applications/welcome/'])"
p1148
asbasbasbag49
(g65
g51
NtRp1149
(dp1150
g54
(dp1151
sg63
g1123
sg56
(lp1152
g49
(g70
g51
NtRp1153
(dp1154
g54
(dp1155
g74
g75
ssg63
g1149
sg56
(lp1156
S'applications_parent'
p1157
asbag49
(g70
g51
NtRp1158
(dp1159
g54
(dp1160
g81
g82
ssg63
g1149
sg56
(lp1161
S':'
asbag49
(g70
g51
NtRp1162
(dp1163
g54
(dp1164
sg63
g1149
sg56
(lp1165
g49
(g50
g51
NtRp1166
(dp1167
g54
(dp1168
g62
I4
ssg63
g1162
sg56
(lp1169
S'/Users/zamechek/Downloads/web2py/web2py.app/Contents/Resources'
p1170
asbasbasbag49
(g65
g51
NtRp1171
(dp1172
g54
(dp1173
sg63
g1123
sg56
(lp1174
g49
(g70
g51
NtRp1175
(dp1176
g54
(dp1177
g74
g75
ssg63
g1171
sg56
(lp1178
S'cmd_args'
p1179
asbag49
(g70
g51
NtRp1180
(dp1181
g54
(dp1182
g81
g82
ssg63
g1171
sg56
(lp1183
S':'
asbag49
(g70
g51
NtRp1184
(dp1185
g54
(dp1186
sg63
g1171
sg56
(lp1187
g49
(g50
g51
NtRp1188
(dp1189
g54
(dp1190
g62
I4
ssg63
g1184
sg56
(lp1191
g49
(g58
g51
NtRp1192
(dp1193
g54
(dp1194
g62
I3
ssg63
Nsg56
(lp1195
sbasbasbasbag49
(g65
g51
NtRp1196
(dp1197
g54
(dp1198
sg63
g1123
sg56
(lp1199
g49
(g70
g51
NtRp1200
(dp1201
g54
(dp1202
g74
g75
ssg63
g1196
sg56
(lp1203
S'cmd_options'
p1204
asbag49
(g70
g51
NtRp1205
(dp1206
g54
(dp1207
g81
g82
ssg63
g1196
sg56
(lp1208
S':'
asbag49
(g70
g51
NtRp1209
(dp1210
g54
(dp1211
sg63
g1196
sg56
(lp1212
g49
(g50
g51
NtRp1213
(dp1214
g54
(dp1215
g62
I4
ssg63
g1209
sg56
(lp1216
S"<Values at 0x32c8f58: {'verbose': False, 'ip': '127.0.0.1', 'with_scheduler': False, 'ips': ['130.91.151.157'], 'shutdown_timeout': 5, 'taskbar': False, 'port': 8000, 'maxthreads': None, 'softcron': False, 'server_name': 'hntvlan531.0924.wlan.wireless-pennnet.upenn.edu', 'bpython': False, 'nogui': False, 'pid_filename': 'httpserver.pid', 'extcron': False, 'runcron': False, 'run_system_tests': False, 'test': None, 'folder': '/Users/zamechek/Downloads/web2py/web2py.app/Contents/Resources', 'config': '', 'import_models': False, 'winservice': '', 'shell': None, 'run': '', 'log_filename': 'httpserver.log', 'debuglevel': 30, 'args': [''], 'socket_timeout': 5, 'ssl_ca_certificate': None, 'scheduler': None, 'profiler_filename': None, 'ssl_private_key': '', 'scheduler_groups': None, 'password': '<ask>', 'request_queue_size': 5, 'ssl_certificate': '', 'cronjob': False, 'numthreads': None, 'quiet': False, 'interfaces': None, 'minthreads': None, 'timeout': 10, 'plain': False, 'nobanner': False}>"
p1217
asbasbasbag49
(g65
g51
NtRp1218
(dp1219
g54
(dp1220
sg63
g1123
sg56
(lp1221
g49
(g70
g51
NtRp1222
(dp1223
g54
(dp1224
g74
g75
ssg63
g1218
sg56
(lp1225
S'content_length'
p1226
asbag49
(g70
g51
NtRp1227
(dp1228
g54
(dp1229
g81
g82
ssg63
g1218
sg56
(lp1230
S':'
asbag49
(g70
g51
NtRp1231
(dp1232
g54
(dp1233
sg63
g1218
sg56
(lp1234
g49
(g50
g51
NtRp1235
(dp1236
g54
(dp1237
g62
I4
ssg63
g1231
sg56
(lp1238
S'14'
p1239
asbasbasbag49
(g65
g51
NtRp1240
(dp1241
g54
(dp1242
sg63
g1123
sg56
(lp1243
g49
(g70
g51
NtRp1244
(dp1245
g54
(dp1246
g74
g75
ssg63
g1240
sg56
(lp1247
S'content_type'
p1248
asbag49
(g70
g51
NtRp1249
(dp1250
g54
(dp1251
g81
g82
ssg63
g1240
sg56
(lp1252
S':'
asbag49
(g70
g51
NtRp1253
(dp1254
g54
(dp1255
sg63
g1240
sg56
(lp1256
g49
(g50
g51
NtRp1257
(dp1258
g54
(dp1259
g62
I4
ssg63
g1253
sg56
(lp1260
S'application/x-www-form-urlencoded; charset=UTF-8'
p1261
asbasbasbag49
(g65
g51
NtRp1262
(dp1263
g54
(dp1264
sg63
g1123
sg56
(lp1265
g49
(g70
g51
NtRp1266
(dp1267
g54
(dp1268
g74
g75
ssg63
g1262
sg56
(lp1269
S'db_sessions'
p1270
asbag49
(g70
g51
NtRp1271
(dp1272
g54
(dp1273
g81
g82
ssg63
g1262
sg56
(lp1274
S':'
asbag49
(g70
g51
NtRp1275
(dp1276
g54
(dp1277
sg63
g1262
sg56
(lp1278
g49
(g50
g51
NtRp1279
(dp1280
g54
(dp1281
g62
I4
ssg63
g1275
sg56
(lp1282
S'set([])'
p1283
asbasbasbag49
(g65
g51
NtRp1284
(dp1285
g54
(dp1286
sg63
g1123
sg56
(lp1287
g49
(g70
g51
NtRp1288
(dp1289
g54
(dp1290
g74
g75
ssg63
g1284
sg56
(lp1291
S'debugging'
p1292
asbag49
(g70
g51
NtRp1293
(dp1294
g54
(dp1295
g81
g82
ssg63
g1284
sg56
(lp1296
S':'
asbag49
(g70
g51
NtRp1297
(dp1298
g54
(dp1299
sg63
g1284
sg56
(lp1300
g49
(g50
g51
NtRp1301
(dp1302
g54
(dp1303
g62
I4
ssg63
g1297
sg56
(lp1304
g92
asbasbasbag49
(g65
g51
NtRp1305
(dp1306
g54
(dp1307
sg63
g1123
sg56
(lp1308
g49
(g70
g51
NtRp1309
(dp1310
g54
(dp1311
g74
g75
ssg63
g1305
sg56
(lp1312
S'gluon_parent'
p1313
asbag49
(g70
g51
NtRp1314
(dp1315
g54
(dp1316
g81
g82
ssg63
g1305
sg56
(lp1317
S':'
asbag49
(g70
g51
NtRp1318
(dp1319
g54
(dp1320
sg63
g1305
sg56
(lp1321
g49
(g50
g51
NtRp1322
(dp1323
g54
(dp1324
g62
I4
ssg63
g1318
sg56
(lp1325
S'/Users/zamechek/Downloads/web2py/web2py.app/Contents/Resources'
p1326
asbasbasbag49
(g65
g51
NtRp1327
(dp1328
g54
(dp1329
sg63
g1123
sg56
(lp1330
g49
(g70
g51
NtRp1331
(dp1332
g54
(dp1333
g74
g75
ssg63
g1327
sg56
(lp1334
S'http_accept'
p1335
asbag49
(g70
g51
NtRp1336
(dp1337
g54
(dp1338
g81
g82
ssg63
g1327
sg56
(lp1339
S':'
asbag49
(g70
g51
NtRp1340
(dp1341
g54
(dp1342
sg63
g1327
sg56
(lp1343
g49
(g50
g51
NtRp1344
(dp1345
g54
(dp1346
g62
I4
ssg63
g1340
sg56
(lp1347
S'*/*'
p1348
asbasbasbag49
(g65
g51
NtRp1349
(dp1350
g54
(dp1351
sg63
g1123
sg56
(lp1352
g49
(g70
g51
NtRp1353
(dp1354
g54
(dp1355
g74
g75
ssg63
g1349
sg56
(lp1356
S'http_accept_charset'
p1357
asbag49
(g70
g51
NtRp1358
(dp1359
g54
(dp1360
g81
g82
ssg63
g1349
sg56
(lp1361
S':'
asbag49
(g70
g51
NtRp1362
(dp1363
g54
(dp1364
sg63
g1349
sg56
(lp1365
g49
(g50
g51
NtRp1366
(dp1367
g54
(dp1368
g62
I4
ssg63
g1362
sg56
(lp1369
S'ISO-8859-1,utf-8;q=0.7,*;q=0.3'
p1370
asbasbasbag49
(g65
g51
NtRp1371
(dp1372
g54
(dp1373
sg63
g1123
sg56
(lp1374
g49
(g70
g51
NtRp1375
(dp1376
g54
(dp1377
g74
g75
ssg63
g1371
sg56
(lp1378
S'http_accept_encoding'
p1379
asbag49
(g70
g51
NtRp1380
(dp1381
g54
(dp1382
g81
g82
ssg63
g1371
sg56
(lp1383
S':'
asbag49
(g70
g51
NtRp1384
(dp1385
g54
(dp1386
sg63
g1371
sg56
(lp1387
g49
(g50
g51
NtRp1388
(dp1389
g54
(dp1390
g62
I4
ssg63
g1384
sg56
(lp1391
S'gzip,deflate,sdch'
p1392
asbasbasbag49
(g65
g51
NtRp1393
(dp1394
g54
(dp1395
sg63
g1123
sg56
(lp1396
g49
(g70
g51
NtRp1397
(dp1398
g54
(dp1399
g74
g75
ssg63
g1393
sg56
(lp1400
S'http_accept_language'
p1401
asbag49
(g70
g51
NtRp1402
(dp1403
g54
(dp1404
g81
g82
ssg63
g1393
sg56
(lp1405
S':'
asbag49
(g70
g51
NtRp1406
(dp1407
g54
(dp1408
sg63
g1393
sg56
(lp1409
g49
(g50
g51
NtRp1410
(dp1411
g54
(dp1412
g62
I4
ssg63
g1406
sg56
(lp1413
S'en-US,en;q=0.8'
p1414
asbasbasbag49
(g65
g51
NtRp1415
(dp1416
g54
(dp1417
sg63
g1123
sg56
(lp1418
g49
(g70
g51
NtRp1419
(dp1420
g54
(dp1421
g74
g75
ssg63
g1415
sg56
(lp1422
S'http_connection'
p1423
asbag49
(g70
g51
NtRp1424
(dp1425
g54
(dp1426
g81
g82
ssg63
g1415
sg56
(lp1427
S':'
asbag49
(g70
g51
NtRp1428
(dp1429
g54
(dp1430
sg63
g1415
sg56
(lp1431
g49
(g50
g51
NtRp1432
(dp1433
g54
(dp1434
g62
I4
ssg63
g1428
sg56
(lp1435
S'keep-alive'
p1436
asbasbasbag49
(g65
g51
NtRp1437
(dp1438
g54
(dp1439
sg63
g1123
sg56
(lp1440
g49
(g70
g51
NtRp1441
(dp1442
g54
(dp1443
g74
g75
ssg63
g1437
sg56
(lp1444
S'http_content_length'
p1445
asbag49
(g70
g51
NtRp1446
(dp1447
g54
(dp1448
g81
g82
ssg63
g1437
sg56
(lp1449
S':'
asbag49
(g70
g51
NtRp1450
(dp1451
g54
(dp1452
sg63
g1437
sg56
(lp1453
g49
(g50
g51
NtRp1454
(dp1455
g54
(dp1456
g62
I4
ssg63
g1450
sg56
(lp1457
g1239
asbasbasbag49
(g65
g51
NtRp1458
(dp1459
g54
(dp1460
sg63
g1123
sg56
(lp1461
g49
(g70
g51
NtRp1462
(dp1463
g54
(dp1464
g74
g75
ssg63
g1458
sg56
(lp1465
S'http_content_type'
p1466
asbag49
(g70
g51
NtRp1467
(dp1468
g54
(dp1469
g81
g82
ssg63
g1458
sg56
(lp1470
S':'
asbag49
(g70
g51
NtRp1471
(dp1472
g54
(dp1473
sg63
g1458
sg56
(lp1474
g49
(g50
g51
NtRp1475
(dp1476
g54
(dp1477
g62
I4
ssg63
g1471
sg56
(lp1478
g1261
asbasbasbag49
(g65
g51
NtRp1479
(dp1480
g54
(dp1481
sg63
g1123
sg56
(lp1482
g49
(g70
g51
NtRp1483
(dp1484
g54
(dp1485
g74
g75
ssg63
g1479
sg56
(lp1486
S'http_cookie'
p1487
asbag49
(g70
g51
NtRp1488
(dp1489
g54
(dp1490
g81
g82
ssg63
g1479
sg56
(lp1491
S':'
asbag49
(g70
g51
NtRp1492
(dp1493
g54
(dp1494
sg63
g1479
sg56
(lp1495
g49
(g50
g51
NtRp1496
(dp1497
g54
(dp1498
g62
I4
ssg63
g1492
sg56
(lp1499
S'session_id_welcome=127.0.0.1-245d6654-272e-49f5-968f-2cbd15b43359; session_id_slots=127.0.0.1-c959d0b0-1e49-49e4-b6ce-60b17dcbfd08; session_data_examples="6590e93a92ae056071f3d5d23c5da718:8mcaYr3jD5OS9Hm5obiuGpOS1hqNCswQLIoFlRGZYdaR8FVZ84s0w9vMAEY5L6DK8gvTZcQowujTbbDj-ns3802lRCPwkkcburTr1lmHorC9hQtD5W0yZ89O_mdlKuHPlwEItXQ5_WAFut_RTkzpuyS0nQWmuEGxVuLk0DXc0ndh8WySsXoErgPnINq0aXqKzueVqcmNBWwB7tluAV8oSQyVVnjPajiXfmT2moAb3dPnaGC3yePavU4XAXO8FVarzcdAnZ4bnTo9uMJJvT2hL9oQVbtD8YY8yMHurMAdtIpf8wcGfXNr6SjFTzpMxYtAg1tv7XdXpUPETM1Ox80jE-qsgQd_Xr1FA049-xsoxpdA4EzMUoouiTJ995NWCOJNjo6VICpuSvfOJBlnOLd8aLxueLUtuyScbkLd2jOCQIsF2aV6hhIZWDXpJwlCKPkIckeaXaaHeE4EqTZR6N0JnA=="; session_id_hellow=127.0.0.1-f0c125e4-5d5e-4805-8c10-bdfc66367729; session_id_admin=127.0.0.1-66a1de5b-ba15-4b30-ba06-132c9e7969c1'
p1500
asbasbasbag49
(g65
g51
NtRp1501
(dp1502
g54
(dp1503
sg63
g1123
sg56
(lp1504
g49
(g70
g51
NtRp1505
(dp1506
g54
(dp1507
g74
g75
ssg63
g1501
sg56
(lp1508
S'http_host'
p1509
asbag49
(g70
g51
NtRp1510
(dp1511
g54
(dp1512
g81
g82
ssg63
g1501
sg56
(lp1513
S':'
asbag49
(g70
g51
NtRp1514
(dp1515
g54
(dp1516
sg63
g1501
sg56
(lp1517
g49
(g50
g51
NtRp1518
(dp1519
g54
(dp1520
g62
I4
ssg63
g1514
sg56
(lp1521
S'127.0.0.1:8887'
p1522
asbasbasbag49
(g65
g51
NtRp1523
(dp1524
g54
(dp1525
sg63
g1123
sg56
(lp1526
g49
(g70
g51
NtRp1527
(dp1528
g54
(dp1529
g74
g75
ssg63
g1523
sg56
(lp1530
S'http_origin'
p1531
asbag49
(g70
g51
NtRp1532
(dp1533
g54
(dp1534
g81
g82
ssg63
g1523
sg56
(lp1535
S':'
asbag49
(g70
g51
NtRp1536
(dp1537
g54
(dp1538
sg63
g1523
sg56
(lp1539
g49
(g50
g51
NtRp1540
(dp1541
g54
(dp1542
g62
I4
ssg63
g1536
sg56
(lp1543
S'http://127.0.0.1:8887'
p1544
asbasbasbag49
(g65
g51
NtRp1545
(dp1546
g54
(dp1547
sg63
g1123
sg56
(lp1548
g49
(g70
g51
NtRp1549
(dp1550
g54
(dp1551
g74
g75
ssg63
g1545
sg56
(lp1552
S'http_referer'
p1553
asbag49
(g70
g51
NtRp1554
(dp1555
g54
(dp1556
g81
g82
ssg63
g1545
sg56
(lp1557
S':'
asbag49
(g70
g51
NtRp1558
(dp1559
g54
(dp1560
sg63
g1545
sg56
(lp1561
g49
(g50
g51
NtRp1562
(dp1563
g54
(dp1564
g62
I4
ssg63
g1558
sg56
(lp1565
S'http://127.0.0.1:8887/admin/shell/index/hellow'
p1566
asbasbasbag49
(g65
g51
NtRp1567
(dp1568
g54
(dp1569
sg63
g1123
sg56
(lp1570
g49
(g70
g51
NtRp1571
(dp1572
g54
(dp1573
g74
g75
ssg63
g1567
sg56
(lp1574
S'http_user_agent'
p1575
asbag49
(g70
g51
NtRp1576
(dp1577
g54
(dp1578
g81
g82
ssg63
g1567
sg56
(lp1579
S':'
asbag49
(g70
g51
NtRp1580
(dp1581
g54
(dp1582
sg63
g1567
sg56
(lp1583
g49
(g50
g51
NtRp1584
(dp1585
g54
(dp1586
g62
I4
ssg63
g1580
sg56
(lp1587
S'Mozilla/5.0 (Macintosh; Intel Mac OS X 10_8_3) AppleWebKit/537.22 (KHTML, like Gecko) Chrome/25.0.1364.172 Safari/537.22'
p1588
asbasbasbag49
(g65
g51
NtRp1589
(dp1590
g54
(dp1591
sg63
g1123
sg56
(lp1592
g49
(g70
g51
NtRp1593
(dp1594
g54
(dp1595
g74
g75
ssg63
g1589
sg56
(lp1596
S'http_x_requested_with'
p1597
asbag49
(g70
g51
NtRp1598
(dp1599
g54
(dp1600
g81
g82
ssg63
g1589
sg56
(lp1601
S':'
asbag49
(g70
g51
NtRp1602
(dp1603
g54
(dp1604
sg63
g1589
sg56
(lp1605
g49
(g50
g51
NtRp1606
(dp1607
g54
(dp1608
g62
I4
ssg63
g1602
sg56
(lp1609
S'XMLHttpRequest'
p1610
asbasbasbag49
(g65
g51
NtRp1611
(dp1612
g54
(dp1613
sg63
g1123
sg56
(lp1614
g49
(g70
g51
NtRp1615
(dp1616
g54
(dp1617
g74
g75
ssg63
g1611
sg56
(lp1618
S'is_jython'
p1619
asbag49
(g70
g51
NtRp1620
(dp1621
g54
(dp1622
g81
g82
ssg63
g1611
sg56
(lp1623
S':'
asbag49
(g70
g51
NtRp1624
(dp1625
g54
(dp1626
sg63
g1611
sg56
(lp1627
g49
(g50
g51
NtRp1628
(dp1629
g54
(dp1630
g62
I4
ssg63
g1624
sg56
(lp1631
S'False'
p1632
asbasbasbag49
(g65
g51
NtRp1633
(dp1634
g54
(dp1635
sg63
g1123
sg56
(lp1636
g49
(g70
g51
NtRp1637
(dp1638
g54
(dp1639
g74
g75
ssg63
g1633
sg56
(lp1640
S'is_pypy'
p1641
asbag49
(g70
g51
NtRp1642
(dp1643
g54
(dp1644
g81
g82
ssg63
g1633
sg56
(lp1645
S':'
asbag49
(g70
g51
NtRp1646
(dp1647
g54
(dp1648
sg63
g1633
sg56
(lp1649
g49
(g50
g51
NtRp1650
(dp1651
g54
(dp1652
g62
I4
ssg63
g1646
sg56
(lp1653
g1632
asbasbasbag49
(g65
g51
NtRp1654
(dp1655
g54
(dp1656
sg63
g1123
sg56
(lp1657
g49
(g70
g51
NtRp1658
(dp1659
g54
(dp1660
g74
g75
ssg63
g1654
sg56
(lp1661
S'local_hosts'
p1662
asbag49
(g70
g51
NtRp1663
(dp1664
g54
(dp1665
g81
g82
ssg63
g1654
sg56
(lp1666
S':'
asbag49
(g70
g51
NtRp1667
(dp1668
g54
(dp1669
sg63
g1654
sg56
(lp1670
g49
(g50
g51
NtRp1671
(dp1672
g54
(dp1673
g62
I4
ssg63
g1667
sg56
(lp1674
g49
(g58
g51
NtRp1675
(dp1676
g54
(dp1677
g62
I3
ssg63
Nsg56
(lp1678
g49
(g65
g51
NtRp1679
(dp1680
g54
(dp1681
sg63
g1675
sg56
(lp1682
g49
(g70
g51
NtRp1683
(dp1684
g54
(dp1685
sg63
g1679
sg56
(lp1686
g49
(g50
g51
NtRp1687
(dp1688
g54
(dp1689
g62
I3
ssg63
g1683
sg56
(lp1690
S'130.91.151.157'
p1691
asbasbasbag49
(g65
g51
NtRp1692
(dp1693
g54
(dp1694
sg63
g1675
sg56
(lp1695
g49
(g70
g51
NtRp1696
(dp1697
g54
(dp1698
sg63
g1692
sg56
(lp1699
g49
(g50
g51
NtRp1700
(dp1701
g54
(dp1702
g62
I3
ssg63
g1696
sg56
(lp1703
S'::1'
p1704
asbasbasbag49
(g65
g51
NtRp1705
(dp1706
g54
(dp1707
sg63
g1675
sg56
(lp1708
g49
(g70
g51
NtRp1709
(dp1710
g54
(dp1711
sg63
g1705
sg56
(lp1712
g49
(g50
g51
NtRp1713
(dp1714
g54
(dp1715
g62
I3
ssg63
g1709
sg56
(lp1716
S'::ffff:127.0.0.1'
p1717
asbasbasbag49
(g65
g51
NtRp1718
(dp1719
g54
(dp1720
sg63
g1675
sg56
(lp1721
g49
(g70
g51
NtRp1722
(dp1723
g54
(dp1724
sg63
g1718
sg56
(lp1725
g49
(g50
g51
NtRp1726
(dp1727
g54
(dp1728
g62
I3
ssg63
g1722
sg56
(lp1729
S'127.0.0.1'
p1730
asbasbasbag49
(g65
g51
NtRp1731
(dp1732
g54
(dp1733
sg63
g1675
sg56
(lp1734
g49
(g70
g51
NtRp1735
(dp1736
g54
(dp1737
sg63
g1731
sg56
(lp1738
g49
(g50
g51
NtRp1739
(dp1740
g54
(dp1741
g62
I3
ssg63
g1735
sg56
(lp1742
S'hntvlan531.0924.wlan.wireless-pennnet.upenn.edu'
p1743
asbasbasbasbasbasbasbag49
(g65
g51
NtRp1744
(dp1745
g54
(dp1746
sg63
g1123
sg56
(lp1747
g49
(g70
g51
NtRp1748
(dp1749
g54
(dp1750
g74
g75
ssg63
g1744
sg56
(lp1751
S'path_info'
p1752
asbag49
(g70
g51
NtRp1753
(dp1754
g54
(dp1755
g81
g82
ssg63
g1744
sg56
(lp1756
S':'
asbag49
(g70
g51
NtRp1757
(dp1758
g54
(dp1759
sg63
g1744
sg56
(lp1760
g49
(g50
g51
NtRp1761
(dp1762
g54
(dp1763
g62
I4
ssg63
g1757
sg56
(lp1764
S'/admin/shell/callback/hellow'
p1765
asbasbasbag49
(g65
g51
NtRp1766
(dp1767
g54
(dp1768
sg63
g1123
sg56
(lp1769
g49
(g70
g51
NtRp1770
(dp1771
g54
(dp1772
g74
g75
ssg63
g1766
sg56
(lp1773
S'query_string'
p1774
asbag49
(g70
g51
NtRp1775
(dp1776
g54
(dp1777
g81
g82
ssg63
g1766
sg56
(lp1778
S':'
asbag49
(g70
g51
NtRp1779
(dp1780
g54
(dp1781
sg63
g1766
sg56
(lp1782
g49
(g50
g51
NtRp1783
(dp1784
g54
(dp1785
g62
I4
ssg63
g1779
sg56
(lp1786
S''
asbasbasbag49
(g65
g51
NtRp1787
(dp1788
g54
(dp1789
sg63
g1123
sg56
(lp1790
g49
(g70
g51
NtRp1791
(dp1792
g54
(dp1793
g74
g75
ssg63
g1787
sg56
(lp1794
S'remote_addr'
p1795
asbag49
(g70
g51
NtRp1796
(dp1797
g54
(dp1798
g81
g82
ssg63
g1787
sg56
(lp1799
S':'
asbag49
(g70
g51
NtRp1800
(dp1801
g54
(dp1802
sg63
g1787
sg56
(lp1803
g49
(g50
g51
NtRp1804
(dp1805
g54
(dp1806
g62
I4
ssg63
g1800
sg56
(lp1807
g217
asbasbasbag49
(g65
g51
NtRp1808
(dp1809
g54
(dp1810
sg63
g1123
sg56
(lp1811
g49
(g70
g51
NtRp1812
(dp1813
g54
(dp1814
g74
g75
ssg63
g1808
sg56
(lp1815
S'remote_port'
p1816
asbag49
(g70
g51
NtRp1817
(dp1818
g54
(dp1819
g81
g82
ssg63
g1808
sg56
(lp1820
S':'
asbag49
(g70
g51
NtRp1821
(dp1822
g54
(dp1823
sg63
g1808
sg56
(lp1824
g49
(g50
g51
NtRp1825
(dp1826
g54
(dp1827
g62
I4
ssg63
g1821
sg56
(lp1828
S'49560'
p1829
asbasbasbag49
(g65
g51
NtRp1830
(dp1831
g54
(dp1832
sg63
g1123
sg56
(lp1833
g49
(g70
g51
NtRp1834
(dp1835
g54
(dp1836
g74
g75
ssg63
g1830
sg56
(lp1837
S'request_method'
p1838
asbag49
(g70
g51
NtRp1839
(dp1840
g54
(dp1841
g81
g82
ssg63
g1830
sg56
(lp1842
S':'
asbag49
(g70
g51
NtRp1843
(dp1844
g54
(dp1845
sg63
g1830
sg56
(lp1846
g49
(g50
g51
NtRp1847
(dp1848
g54
(dp1849
g62
I4
ssg63
g1843
sg56
(lp1850
S'POST'
p1851
asbasbasbag49
(g65
g51
NtRp1852
(dp1853
g54
(dp1854
sg63
g1123
sg56
(lp1855
g49
(g70
g51
NtRp1856
(dp1857
g54
(dp1858
g74
g75
ssg63
g1852
sg56
(lp1859
S'request_uri'
p1860
asbag49
(g70
g51
NtRp1861
(dp1862
g54
(dp1863
g81
g82
ssg63
g1852
sg56
(lp1864
S':'
asbag49
(g70
g51
NtRp1865
(dp1866
g54
(dp1867
sg63
g1852
sg56
(lp1868
g49
(g50
g51
NtRp1869
(dp1870
g54
(dp1871
g62
I4
ssg63
g1865
sg56
(lp1872
g1765
asbasbasbag49
(g65
g51
NtRp1873
(dp1874
g54
(dp1875
sg63
g1123
sg56
(lp1876
g49
(g70
g51
NtRp1877
(dp1878
g54
(dp1879
g74
g75
ssg63
g1873
sg56
(lp1880
S'script_name'
p1881
asbag49
(g70
g51
NtRp1882
(dp1883
g54
(dp1884
g81
g82
ssg63
g1873
sg56
(lp1885
S':'
asbag49
(g70
g51
NtRp1886
(dp1887
g54
(dp1888
sg63
g1873
sg56
(lp1889
g49
(g50
g51
NtRp1890
(dp1891
g54
(dp1892
g62
I4
ssg63
g1886
sg56
(lp1893
S''
asbasbasbag49
(g65
g51
NtRp1894
(dp1895
g54
(dp1896
sg63
g1123
sg56
(lp1897
g49
(g70
g51
NtRp1898
(dp1899
g54
(dp1900
g74
g75
ssg63
g1894
sg56
(lp1901
S'server_name'
p1902
asbag49
(g70
g51
NtRp1903
(dp1904
g54
(dp1905
g81
g82
ssg63
g1894
sg56
(lp1906
S':'
asbag49
(g70
g51
NtRp1907
(dp1908
g54
(dp1909
sg63
g1894
sg56
(lp1910
g49
(g50
g51
NtRp1911
(dp1912
g54
(dp1913
g62
I4
ssg63
g1907
sg56
(lp1914
S'hntvlan531.0924.wlan.wireless-pennnet.upenn.edu'
p1915
asbasbasbag49
(g65
g51
NtRp1916
(dp1917
g54
(dp1918
sg63
g1123
sg56
(lp1919
g49
(g70
g51
NtRp1920
(dp1921
g54
(dp1922
g74
g75
ssg63
g1916
sg56
(lp1923
S'server_port'
p1924
asbag49
(g70
g51
NtRp1925
(dp1926
g54
(dp1927
g81
g82
ssg63
g1916
sg56
(lp1928
S':'
asbag49
(g70
g51
NtRp1929
(dp1930
g54
(dp1931
sg63
g1916
sg56
(lp1932
g49
(g50
g51
NtRp1933
(dp1934
g54
(dp1935
g62
I4
ssg63
g1929
sg56
(lp1936
S'8887'
p1937
asbasbasbag49
(g65
g51
NtRp1938
(dp1939
g54
(dp1940
sg63
g1123
sg56
(lp1941
g49
(g70
g51
NtRp1942
(dp1943
g54
(dp1944
g74
g75
ssg63
g1938
sg56
(lp1945
S'server_protocol'
p1946
asbag49
(g70
g51
NtRp1947
(dp1948
g54
(dp1949
g81
g82
ssg63
g1938
sg56
(lp1950
S':'
asbag49
(g70
g51
NtRp1951
(dp1952
g54
(dp1953
sg63
g1938
sg56
(lp1954
g49
(g50
g51
NtRp1955
(dp1956
g54
(dp1957
g62
I4
ssg63
g1951
sg56
(lp1958
S'HTTP/1.1'
p1959
asbasbasbag49
(g65
g51
NtRp1960
(dp1961
g54
(dp1962
sg63
g1123
sg56
(lp1963
g49
(g70
g51
NtRp1964
(dp1965
g54
(dp1966
g74
g75
ssg63
g1960
sg56
(lp1967
S'server_software'
p1968
asbag49
(g70
g51
NtRp1969
(dp1970
g54
(dp1971
g81
g82
ssg63
g1960
sg56
(lp1972
S':'
asbag49
(g70
g51
NtRp1973
(dp1974
g54
(dp1975
sg63
g1960
sg56
(lp1976
g49
(g50
g51
NtRp1977
(dp1978
g54
(dp1979
g62
I4
ssg63
g1973
sg56
(lp1980
S'Rocket 1.2.6'
p1981
asbasbasbag49
(g65
g51
NtRp1982
(dp1983
g54
(dp1984
sg63
g1123
sg56
(lp1985
g49
(g70
g51
NtRp1986
(dp1987
g54
(dp1988
g74
g75
ssg63
g1982
sg56
(lp1989
S'web2py_path'
p1990
asbag49
(g70
g51
NtRp1991
(dp1992
g54
(dp1993
g81
g82
ssg63
g1982
sg56
(lp1994
S':'
asbag49
(g70
g51
NtRp1995
(dp1996
g54
(dp1997
sg63
g1982
sg56
(lp1998
g49
(g50
g51
NtRp1999
(dp2000
g54
(dp2001
g62
I4
ssg63
g1995
sg56
(lp2002
g1170
asbasbasbag49
(g65
g51
NtRp2003
(dp2004
g54
(dp2005
sg63
g1123
sg56
(lp2006
g49
(g70
g51
NtRp2007
(dp2008
g54
(dp2009
g74
g75
ssg63
g2003
sg56
(lp2010
S'web2py_version'
p2011
asbag49
(g70
g51
NtRp2012
(dp2013
g54
(dp2014
g81
g82
ssg63
g2003
sg56
(lp2015
S':'
asbag49
(g70
g51
NtRp2016
(dp2017
g54
(dp2018
sg63
g2003
sg56
(lp2019
g49
(g50
g51
NtRp2020
(dp2021
g54
(dp2022
g62
I4
ssg63
g2016
sg56
(lp2023
g49
(g58
g51
NtRp2024
(dp2025
g54
(dp2026
g62
I3
ssg63
Nsg56
(lp2027
g49
(g65
g51
NtRp2028
(dp2029
g54
(dp2030
sg63
g2024
sg56
(lp2031
g49
(g70
g51
NtRp2032
(dp2033
g54
(dp2034
sg63
g2028
sg56
(lp2035
g49
(g50
g51
NtRp2036
(dp2037
g54
(dp2038
g62
I3
ssg63
g2032
sg56
(lp2039
S'2'
asbasbasbag49
(g65
g51
NtRp2040
(dp2041
g54
(dp2042
sg63
g2024
sg56
(lp2043
g49
(g70
g51
NtRp2044
(dp2045
g54
(dp2046
sg63
g2040
sg56
(lp2047
g49
(g50
g51
NtRp2048
(dp2049
g54
(dp2050
g62
I3
ssg63
g2044
sg56
(lp2051
S'4'
asbasbasbag49
(g65
g51
NtRp2052
(dp2053
g54
(dp2054
sg63
g2024
sg56
(lp2055
g49
(g70
g51
NtRp2056
(dp2057
g54
(dp2058
sg63
g2052
sg56
(lp2059
g49
(g50
g51
NtRp2060
(dp2061
g54
(dp2062
g62
I3
ssg63
g2056
sg56
(lp2063
S'5'
asbasbasbag49
(g65
g51
NtRp2064
(dp2065
g54
(dp2066
sg63
g2024
sg56
(lp2067
g49
(g70
g51
NtRp2068
(dp2069
g54
(dp2070
sg63
g2064
sg56
(lp2071
g49
(g50
g51
NtRp2072
(dp2073
g54
(dp2074
g62
I3
ssg63
g2068
sg56
(lp2075
S'stable'
p2076
asbasbasbag49
(g65
g51
NtRp2077
(dp2078
g54
(dp2079
sg63
g2024
sg56
(lp2080
g49
(g70
g51
NtRp2081
(dp2082
g54
(dp2083
sg63
g2077
sg56
(lp2084
g49
(g50
g51
NtRp2085
(dp2086
g54
(dp2087
g62
I3
ssg63
g2081
sg56
(lp2088
S'datetime.datetime(2013, 3, 18, 22, 46, 22)'
p2089
asbasbasbasbasbasbasbag49
(g65
g51
NtRp2090
(dp2091
g54
(dp2092
sg63
g1123
sg56
(lp2093
g49
(g70
g51
NtRp2094
(dp2095
g54
(dp2096
g74
g75
ssg63
g2090
sg56
(lp2097
S'wsgi_errors'
p2098
asbag49
(g70
g51
NtRp2099
(dp2100
g54
(dp2101
g81
g82
ssg63
g2090
sg56
(lp2102
S':'
asbag49
(g70
g51
NtRp2103
(dp2104
g54
(dp2105
sg63
g2090
sg56
(lp2106
g49
(g50
g51
NtRp2107
(dp2108
g54
(dp2109
g62
I4
ssg63
g2103
sg56
(lp2110
S"<open file '<stderr>', mode 'w' at 0x540b0>"
p2111
asbasbasbag49
(g65
g51
NtRp2112
(dp2113
g54
(dp2114
sg63
g1123
sg56
(lp2115
g49
(g70
g51
NtRp2116
(dp2117
g54
(dp2118
g74
g75
ssg63
g2112
sg56
(lp2119
S'wsgi_file_wrapper'
p2120
asbag49
(g70
g51
NtRp2121
(dp2122
g54
(dp2123
g81
g82
ssg63
g2112
sg56
(lp2124
S':'
asbag49
(g70
g51
NtRp2125
(dp2126
g54
(dp2127
sg63
g2112
sg56
(lp2128
g49
(g50
g51
NtRp2129
(dp2130
g54
(dp2131
g62
I4
ssg63
g2125
sg56
(lp2132
S'<class wsgiref.util.FileWrapper at 0x329d060>'
p2133
asbasbasbag49
(g65
g51
NtRp2134
(dp2135
g54
(dp2136
sg63
g1123
sg56
(lp2137
g49
(g70
g51
NtRp2138
(dp2139
g54
(dp2140
g74
g75
ssg63
g2134
sg56
(lp2141
S'wsgi_input'
p2142
asbag49
(g70
g51
NtRp2143
(dp2144
g54
(dp2145
g81
g82
ssg63
g2134
sg56
(lp2146
S':'
asbag49
(g70
g51
NtRp2147
(dp2148
g54
(dp2149
sg63
g2134
sg56
(lp2150
g49
(g50
g51
NtRp2151
(dp2152
g54
(dp2153
g62
I4
ssg63
g2147
sg56
(lp2154
S'<socket._fileobject object at 0x864c930>'
p2155
asbasbasbag49
(g65
g51
NtRp2156
(dp2157
g54
(dp2158
sg63
g1123
sg56
(lp2159
g49
(g70
g51
NtRp2160
(dp2161
g54
(dp2162
g74
g75
ssg63
g2156
sg56
(lp2163
S'wsgi_multiprocess'
p2164
asbag49
(g70
g51
NtRp2165
(dp2166
g54
(dp2167
g81
g82
ssg63
g2156
sg56
(lp2168
S':'
asbag49
(g70
g51
NtRp2169
(dp2170
g54
(dp2171
sg63
g2156
sg56
(lp2172
g49
(g50
g51
NtRp2173
(dp2174
g54
(dp2175
g62
I4
ssg63
g2169
sg56
(lp2176
g1632
asbasbasbag49
(g65
g51
NtRp2177
(dp2178
g54
(dp2179
sg63
g1123
sg56
(lp2180
g49
(g70
g51
NtRp2181
(dp2182
g54
(dp2183
g74
g75
ssg63
g2177
sg56
(lp2184
S'wsgi_multithread'
p2185
asbag49
(g70
g51
NtRp2186
(dp2187
g54
(dp2188
g81
g82
ssg63
g2177
sg56
(lp2189
S':'
asbag49
(g70
g51
NtRp2190
(dp2191
g54
(dp2192
sg63
g2177
sg56
(lp2193
g49
(g50
g51
NtRp2194
(dp2195
g54
(dp2196
g62
I4
ssg63
g2190
sg56
(lp2197
g92
asbasbasbag49
(g65
g51
NtRp2198
(dp2199
g54
(dp2200
sg63
g1123
sg56
(lp2201
g49
(g70
g51
NtRp2202
(dp2203
g54
(dp2204
g74
g75
ssg63
g2198
sg56
(lp2205
S'wsgi_run_once'
p2206
asbag49
(g70
g51
NtRp2207
(dp2208
g54
(dp2209
g81
g82
ssg63
g2198
sg56
(lp2210
S':'
asbag49
(g70
g51
NtRp2211
(dp2212
g54
(dp2213
sg63
g2198
sg56
(lp2214
g49
(g50
g51
NtRp2215
(dp2216
g54
(dp2217
g62
I4
ssg63
g2211
sg56
(lp2218
g1632
asbasbasbag49
(g65
g51
NtRp2219
(dp2220
g54
(dp2221
sg63
g1123
sg56
(lp2222
g49
(g70
g51
NtRp2223
(dp2224
g54
(dp2225
g74
g75
ssg63
g2219
sg56
(lp2226
S'wsgi_url_scheme'
p2227
asbag49
(g70
g51
NtRp2228
(dp2229
g54
(dp2230
g81
g82
ssg63
g2219
sg56
(lp2231
S':'
asbag49
(g70
g51
NtRp2232
(dp2233
g54
(dp2234
sg63
g2219
sg56
(lp2235
g49
(g50
g51
NtRp2236
(dp2237
g54
(dp2238
g62
I4
ssg63
g2232
sg56
(lp2239
S'http'
p2240
asbasbasbag49
(g65
g51
NtRp2241
(dp2242
g54
(dp2243
sg63
g1123
sg56
(lp2244
g49
(g70
g51
NtRp2245
(dp2246
g54
(dp2247
g74
g75
ssg63
g2241
sg56
(lp2248
S'wsgi_version'
p2249
asbag49
(g70
g51
NtRp2250
(dp2251
g54
(dp2252
g81
g82
ssg63
g2241
sg56
(lp2253
S':'
asbag49
(g70
g51
NtRp2254
(dp2255
g54
(dp2256
sg63
g2241
sg56
(lp2257
g49
(g50
g51
NtRp2258
(dp2259
g54
(dp2260
g62
I4
ssg63
g2254
sg56
(lp2261
g49
(g58
g51
NtRp2262
(dp2263
g54
(dp2264
g62
I3
ssg63
Nsg56
(lp2265
g49
(g65
g51
NtRp2266
(dp2267
g54
(dp2268
sg63
g2262
sg56
(lp2269
g49
(g70
g51
NtRp2270
(dp2271
g54
(dp2272
sg63
g2266
sg56
(lp2273
g49
(g50
g51
NtRp2274
(dp2275
g54
(dp2276
g62
I3
ssg63
g2270
sg56
(lp2277
S'1'
asbasbasbag49
(g65
g51
NtRp2278
(dp2279
g54
(dp2280
sg63
g2262
sg56
(lp2281
g49
(g70
g51
NtRp2282
(dp2283
g54
(dp2284
sg63
g2278
sg56
(lp2285
g49
(g50
g51
NtRp2286
(dp2287
g54
(dp2288
g62
I3
ssg63
g2282
sg56
(lp2289
S'0'
asbasbasbasbasbasbasbasbasbasbasbag49
(g65
g51
NtRp2290
(dp2291
g54
(dp2292
sg63
g59
sg56
(lp2293
g49
(g70
g51
NtRp2294
(dp2295
g54
(dp2296
g74
g75
ssg63
g2290
sg56
(lp2297
S'extension'
p2298
asbag49
(g70
g51
NtRp2299
(dp2300
g54
(dp2301
g81
g82
ssg63
g2290
sg56
(lp2302
S':'
asbag49
(g70
g51
NtRp2303
(dp2304
g54
(dp2305
sg63
g2290
sg56
(lp2306
g49
(g50
g51
NtRp2307
(dp2308
g54
(dp2309
g62
I5
ssg63
g2303
sg56
(lp2310
S'html'
p2311
asbasbasbag49
(g65
g51
NtRp2312
(dp2313
g54
(dp2314
sg63
g59
sg56
(lp2315
g49
(g70
g51
NtRp2316
(dp2317
g54
(dp2318
g74
g75
ssg63
g2312
sg56
(lp2319
S'folder'
p2320
asbag49
(g70
g51
NtRp2321
(dp2322
g54
(dp2323
g81
g82
ssg63
g2312
sg56
(lp2324
S':'
asbag49
(g70
g51
NtRp2325
(dp2326
g54
(dp2327
sg63
g2312
sg56
(lp2328
g49
(g50
g51
NtRp2329
(dp2330
g54
(dp2331
g62
I5
ssg63
g2325
sg56
(lp2332
S'/Users/zamechek/Downloads/web2py/web2py.app/Contents/Resources/applications/admin/'
p2333
asbasbasbag49
(g65
g51
NtRp2334
(dp2335
g54
(dp2336
sg63
g59
sg56
(lp2337
g49
(g70
g51
NtRp2338
(dp2339
g54
(dp2340
g74
g75
ssg63
g2334
sg56
(lp2341
S'function'
p2342
asbag49
(g70
g51
NtRp2343
(dp2344
g54
(dp2345
g81
g82
ssg63
g2334
sg56
(lp2346
S':'
asbag49
(g70
g51
NtRp2347
(dp2348
g54
(dp2349
sg63
g2334
sg56
(lp2350
g49
(g50
g51
NtRp2351
(dp2352
g54
(dp2353
g62
I5
ssg63
g2347
sg56
(lp2354
S'callback'
p2355
asbasbasbag49
(g65
g51
NtRp2356
(dp2357
g54
(dp2358
sg63
g59
sg56
(lp2359
g49
(g70
g51
NtRp2360
(dp2361
g54
(dp2362
g74
g75
ssg63
g2356
sg56
(lp2363
S'get_vars'
p2364
asbag49
(g70
g51
NtRp2365
(dp2366
g54
(dp2367
g81
g82
ssg63
g2356
sg56
(lp2368
S':'
asbag49
(g70
g51
NtRp2369
(dp2370
g54
(dp2371
sg63
g2356
sg56
(lp2372
g49
(g50
g51
NtRp2373
(dp2374
g54
(dp2375
g62
I5
ssg63
g2369
sg56
(lp2376
g49
(g58
g51
NtRp2377
(dp2378
g54
(dp2379
g62
I4
ssg63
Nsg56
(lp2380
sbasbasbasbag49
(g65
g51
NtRp2381
(dp2382
g54
(dp2383
sg63
g59
sg56
(lp2384
g49
(g70
g51
NtRp2385
(dp2386
g54
(dp2387
g74
g75
ssg63
g2381
sg56
(lp2388
S'global_settings'
p2389
asbag49
(g70
g51
NtRp2390
(dp2391
g54
(dp2392
g81
g82
ssg63
g2381
sg56
(lp2393
S':'
asbag49
(g70
g51
NtRp2394
(dp2395
g54
(dp2396
sg63
g2381
sg56
(lp2397
g49
(g50
g51
NtRp2398
(dp2399
g54
(dp2400
g62
I5
ssg63
g2394
sg56
(lp2401
g49
(g58
g51
NtRp2402
(dp2403
g54
(dp2404
g62
I4
ssg63
Nsg56
(lp2405
g49
(g65
g51
NtRp2406
(dp2407
g54
(dp2408
sg63
g2402
sg56
(lp2409
g49
(g70
g51
NtRp2410
(dp2411
g54
(dp2412
g74
g75
ssg63
g2406
sg56
(lp2413
g1135
asbag49
(g70
g51
NtRp2414
(dp2415
g54
(dp2416
g81
g82
ssg63
g2406
sg56
(lp2417
S':'
asbag49
(g70
g51
NtRp2418
(dp2419
g54
(dp2420
sg63
g2406
sg56
(lp2421
g49
(g50
g51
NtRp2422
(dp2423
g54
(dp2424
g62
I4
ssg63
g2418
sg56
(lp2425
S"set(['/Users/zamechek/Downloads/web2py/web2py.app/Contents/Resources/applications/examples/', '/Users/zamechek/Downloads/web2py/web2py.app/Contents/Resources/applications/hellow/', '/Users/zamechek/Downloads/web2py/web2py.app/Contents/Resources/applications/admin/', '/Users/zamechek/Downloads/web2py/web2py.app/Contents/Resources/applications/slots/', '/Users/zamechek/Downloads/web2py/web2py.app/Contents/Resources/applications/welcome/'])"
p2426
asbasbasbag49
(g65
g51
NtRp2427
(dp2428
g54
(dp2429
sg63
g2402
sg56
(lp2430
g49
(g70
g51
NtRp2431
(dp2432
g54
(dp2433
g74
g75
ssg63
g2427
sg56
(lp2434
g1157
asbag49
(g70
g51
NtRp2435
(dp2436
g54
(dp2437
g81
g82
ssg63
g2427
sg56
(lp2438
S':'
asbag49
(g70
g51
NtRp2439
(dp2440
g54
(dp2441
sg63
g2427
sg56
(lp2442
g49
(g50
g51
NtRp2443
(dp2444
g54
(dp2445
g62
I4
ssg63
g2439
sg56
(lp2446
g1170
asbasbasbag49
(g65
g51
NtRp2447
(dp2448
g54
(dp2449
sg63
g2402
sg56
(lp2450
g49
(g70
g51
NtRp2451
(dp2452
g54
(dp2453
g74
g75
ssg63
g2447
sg56
(lp2454
g1179
asbag49
(g70
g51
NtRp2455
(dp2456
g54
(dp2457
g81
g82
ssg63
g2447
sg56
(lp2458
S':'
asbag49
(g70
g51
NtRp2459
(dp2460
g54
(dp2461
sg63
g2447
sg56
(lp2462
g49
(g50
g51
NtRp2463
(dp2464
g54
(dp2465
g62
I4
ssg63
g2459
sg56
(lp2466
g49
(g58
g51
NtRp2467
(dp2468
g54
(dp2469
g62
I3
ssg63
Nsg56
(lp2470
sbasbasbasbag49
(g65
g51
NtRp2471
(dp2472
g54
(dp2473
sg63
g2402
sg56
(lp2474
g49
(g70
g51
NtRp2475
(dp2476
g54
(dp2477
g74
g75
ssg63
g2471
sg56
(lp2478
g1204
asbag49
(g70
g51
NtRp2479
(dp2480
g54
(dp2481
g81
g82
ssg63
g2471
sg56
(lp2482
S':'
asbag49
(g70
g51
NtRp2483
(dp2484
g54
(dp2485
sg63
g2471
sg56
(lp2486
g49
(g50
g51
NtRp2487
(dp2488
g54
(dp2489
g62
I4
ssg63
g2483
sg56
(lp2490
S"<Values at 0x32c8f58: {'verbose': False, 'ip': '127.0.0.1', 'with_scheduler': False, 'ips': ['130.91.151.157'], 'shutdown_timeout': 5, 'taskbar': False, 'port': 8000, 'maxthreads': None, 'softcron': False, 'server_name': 'hntvlan531.0924.wlan.wireless-pennnet.upenn.edu', 'bpython': False, 'nogui': False, 'pid_filename': 'httpserver.pid', 'extcron': False, 'runcron': False, 'run_system_tests': False, 'test': None, 'folder': '/Users/zamechek/Downloads/web2py/web2py.app/Contents/Resources', 'config': '', 'import_models': False, 'winservice': '', 'shell': None, 'run': '', 'log_filename': 'httpserver.log', 'debuglevel': 30, 'args': [''], 'socket_timeout': 5, 'ssl_ca_certificate': None, 'scheduler': None, 'profiler_filename': None, 'ssl_private_key': '', 'scheduler_groups': None, 'password': '<ask>', 'request_queue_size': 5, 'ssl_certificate': '', 'cronjob': False, 'numthreads': None, 'quiet': False, 'interfaces': None, 'minthreads': None, 'timeout': 10, 'plain': False, 'nobanner': False}>"
p2491
asbasbasbag49
(g65
g51
NtRp2492
(dp2493
g54
(dp2494
sg63
g2402
sg56
(lp2495
g49
(g70
g51
NtRp2496
(dp2497
g54
(dp2498
g74
g75
ssg63
g2492
sg56
(lp2499
g1270
asbag49
(g70
g51
NtRp2500
(dp2501
g54
(dp2502
g81
g82
ssg63
g2492
sg56
(lp2503
S':'
asbag49
(g70
g51
NtRp2504
(dp2505
g54
(dp2506
sg63
g2492
sg56
(lp2507
g49
(g50
g51
NtRp2508
(dp2509
g54
(dp2510
g62
I4
ssg63
g2504
sg56
(lp2511
S'set([])'
p2512
asbasbasbag49
(g65
g51
NtRp2513
(dp2514
g54
(dp2515
sg63
g2402
sg56
(lp2516
g49
(g70
g51
NtRp2517
(dp2518
g54
(dp2519
g74
g75
ssg63
g2513
sg56
(lp2520
g1292
asbag49
(g70
g51
NtRp2521
(dp2522
g54
(dp2523
g81
g82
ssg63
g2513
sg56
(lp2524
S':'
asbag49
(g70
g51
NtRp2525
(dp2526
g54
(dp2527
sg63
g2513
sg56
(lp2528
g49
(g50
g51
NtRp2529
(dp2530
g54
(dp2531
g62
I4
ssg63
g2525
sg56
(lp2532
g92
asbasbasbag49
(g65
g51
NtRp2533
(dp2534
g54
(dp2535
sg63
g2402
sg56
(lp2536
g49
(g70
g51
NtRp2537
(dp2538
g54
(dp2539
g74
g75
ssg63
g2533
sg56
(lp2540
g1313
asbag49
(g70
g51
NtRp2541
(dp2542
g54
(dp2543
g81
g82
ssg63
g2533
sg56
(lp2544
S':'
asbag49
(g70
g51
NtRp2545
(dp2546
g54
(dp2547
sg63
g2533
sg56
(lp2548
g49
(g50
g51
NtRp2549
(dp2550
g54
(dp2551
g62
I4
ssg63
g2545
sg56
(lp2552
g1326
asbasbasbag49
(g65
g51
NtRp2553
(dp2554
g54
(dp2555
sg63
g2402
sg56
(lp2556
g49
(g70
g51
NtRp2557
(dp2558
g54
(dp2559
g74
g75
ssg63
g2553
sg56
(lp2560
g1619
asbag49
(g70
g51
NtRp2561
(dp2562
g54
(dp2563
g81
g82
ssg63
g2553
sg56
(lp2564
S':'
asbag49
(g70
g51
NtRp2565
(dp2566
g54
(dp2567
sg63
g2553
sg56
(lp2568
g49
(g50
g51
NtRp2569
(dp2570
g54
(dp2571
g62
I4
ssg63
g2565
sg56
(lp2572
g1632
asbasbasbag49
(g65
g51
NtRp2573
(dp2574
g54
(dp2575
sg63
g2402
sg56
(lp2576
g49
(g70
g51
NtRp2577
(dp2578
g54
(dp2579
g74
g75
ssg63
g2573
sg56
(lp2580
g1641
asbag49
(g70
g51
NtRp2581
(dp2582
g54
(dp2583
g81
g82
ssg63
g2573
sg56
(lp2584
S':'
asbag49
(g70
g51
NtRp2585
(dp2586
g54
(dp2587
sg63
g2573
sg56
(lp2588
g49
(g50
g51
NtRp2589
(dp2590
g54
(dp2591
g62
I4
ssg63
g2585
sg56
(lp2592
g1632
asbasbasbag49
(g65
g51
NtRp2593
(dp2594
g54
(dp2595
sg63
g2402
sg56
(lp2596
g49
(g70
g51
NtRp2597
(dp2598
g54
(dp2599
g74
g75
ssg63
g2593
sg56
(lp2600
g1662
asbag49
(g70
g51
NtRp2601
(dp2602
g54
(dp2603
g81
g82
ssg63
g2593
sg56
(lp2604
S':'
asbag49
(g70
g51
NtRp2605
(dp2606
g54
(dp2607
sg63
g2593
sg56
(lp2608
g49
(g50
g51
NtRp2609
(dp2610
g54
(dp2611
g62
I4
ssg63
g2605
sg56
(lp2612
g49
(g58
g51
NtRp2613
(dp2614
g54
(dp2615
g62
I3
ssg63
Nsg56
(lp2616
g49
(g65
g51
NtRp2617
(dp2618
g54
(dp2619
sg63
g2613
sg56
(lp2620
g49
(g70
g51
NtRp2621
(dp2622
g54
(dp2623
sg63
g2617
sg56
(lp2624
g49
(g50
g51
NtRp2625
(dp2626
g54
(dp2627
g62
I3
ssg63
g2621
sg56
(lp2628
g1691
asbasbasbag49
(g65
g51
NtRp2629
(dp2630
g54
(dp2631
sg63
g2613
sg56
(lp2632
g49
(g70
g51
NtRp2633
(dp2634
g54
(dp2635
sg63
g2629
sg56
(lp2636
g49
(g50
g51
NtRp2637
(dp2638
g54
(dp2639
g62
I3
ssg63
g2633
sg56
(lp2640
g1704
asbasbasbag49
(g65
g51
NtRp2641
(dp2642
g54
(dp2643
sg63
g2613
sg56
(lp2644
g49
(g70
g51
NtRp2645
(dp2646
g54
(dp2647
sg63
g2641
sg56
(lp2648
g49
(g50
g51
NtRp2649
(dp2650
g54
(dp2651
g62
I3
ssg63
g2645
sg56
(lp2652
g1717
asbasbasbag49
(g65
g51
NtRp2653
(dp2654
g54
(dp2655
sg63
g2613
sg56
(lp2656
g49
(g70
g51
NtRp2657
(dp2658
g54
(dp2659
sg63
g2653
sg56
(lp2660
g49
(g50
g51
NtRp2661
(dp2662
g54
(dp2663
g62
I3
ssg63
g2657
sg56
(lp2664
g1730
asbasbasbag49
(g65
g51
NtRp2665
(dp2666
g54
(dp2667
sg63
g2613
sg56
(lp2668
g49
(g70
g51
NtRp2669
(dp2670
g54
(dp2671
sg63
g2665
sg56
(lp2672
g49
(g50
g51
NtRp2673
(dp2674
g54
(dp2675
g62
I3
ssg63
g2669
sg56
(lp2676
g1743
asbasbasbasbasbasbasbag49
(g65
g51
NtRp2677
(dp2678
g54
(dp2679
sg63
g2402
sg56
(lp2680
g49
(g70
g51
NtRp2681
(dp2682
g54
(dp2683
g74
g75
ssg63
g2677
sg56
(lp2684
g2011
asbag49
(g70
g51
NtRp2685
(dp2686
g54
(dp2687
g81
g82
ssg63
g2677
sg56
(lp2688
S':'
asbag49
(g70
g51
NtRp2689
(dp2690
g54
(dp2691
sg63
g2677
sg56
(lp2692
g49
(g50
g51
NtRp2693
(dp2694
g54
(dp2695
g62
I4
ssg63
g2689
sg56
(lp2696
g49
(g58
g51
NtRp2697
(dp2698
g54
(dp2699
g62
I3
ssg63
Nsg56
(lp2700
g49
(g65
g51
NtRp2701
(dp2702
g54
(dp2703
sg63
g2697
sg56
(lp2704
g49
(g70
g51
NtRp2705
(dp2706
g54
(dp2707
sg63
g2701
sg56
(lp2708
g49
(g50
g51
NtRp2709
(dp2710
g54
(dp2711
g62
I3
ssg63
g2705
sg56
(lp2712
S'2'
asbasbasbag49
(g65
g51
NtRp2713
(dp2714
g54
(dp2715
sg63
g2697
sg56
(lp2716
g49
(g70
g51
NtRp2717
(dp2718
g54
(dp2719
sg63
g2713
sg56
(lp2720
g49
(g50
g51
NtRp2721
(dp2722
g54
(dp2723
g62
I3
ssg63
g2717
sg56
(lp2724
S'4'
asbasbasbag49
(g65
g51
NtRp2725
(dp2726
g54
(dp2727
sg63
g2697
sg56
(lp2728
g49
(g70
g51
NtRp2729
(dp2730
g54
(dp2731
sg63
g2725
sg56
(lp2732
g49
(g50
g51
NtRp2733
(dp2734
g54
(dp2735
g62
I3
ssg63
g2729
sg56
(lp2736
S'5'
asbasbasbag49
(g65
g51
NtRp2737
(dp2738
g54
(dp2739
sg63
g2697
sg56
(lp2740
g49
(g70
g51
NtRp2741
(dp2742
g54
(dp2743
sg63
g2737
sg56
(lp2744
g49
(g50
g51
NtRp2745
(dp2746
g54
(dp2747
g62
I3
ssg63
g2741
sg56
(lp2748
g2076
asbasbasbag49
(g65
g51
NtRp2749
(dp2750
g54
(dp2751
sg63
g2697
sg56
(lp2752
g49
(g70
g51
NtRp2753
(dp2754
g54
(dp2755
sg63
g2749
sg56
(lp2756
g49
(g50
g51
NtRp2757
(dp2758
g54
(dp2759
g62
I3
ssg63
g2753
sg56
(lp2760
S'datetime.datetime(2013, 3, 18, 22, 46, 22)'
p2761
asbasbasbasbasbasbasbasbasbasbasbag49
(g65
g51
NtRp2762
(dp2763
g54
(dp2764
sg63
g59
sg56
(lp2765
g49
(g70
g51
NtRp2766
(dp2767
g54
(dp2768
g74
g75
ssg63
g2762
sg56
(lp2769
S'is_https'
p2770
asbag49
(g70
g51
NtRp2771
(dp2772
g54
(dp2773
g81
g82
ssg63
g2762
sg56
(lp2774
S':'
asbag49
(g70
g51
NtRp2775
(dp2776
g54
(dp2777
sg63
g2762
sg56
(lp2778
g49
(g50
g51
NtRp2779
(dp2780
g54
(dp2781
g62
I5
ssg63
g2775
sg56
(lp2782
g1632
asbasbasbag49
(g65
g51
NtRp2783
(dp2784
g54
(dp2785
sg63
g59
sg56
(lp2786
g49
(g70
g51
NtRp2787
(dp2788
g54
(dp2789
g74
g75
ssg63
g2783
sg56
(lp2790
S'is_local'
p2791
asbag49
(g70
g51
NtRp2792
(dp2793
g54
(dp2794
g81
g82
ssg63
g2783
sg56
(lp2795
S':'
asbag49
(g70
g51
NtRp2796
(dp2797
g54
(dp2798
sg63
g2783
sg56
(lp2799
g49
(g50
g51
NtRp2800
(dp2801
g54
(dp2802
g62
I5
ssg63
g2796
sg56
(lp2803
g92
asbasbasbag49
(g65
g51
NtRp2804
(dp2805
g54
(dp2806
sg63
g59
sg56
(lp2807
g49
(g70
g51
NtRp2808
(dp2809
g54
(dp2810
g74
g75
ssg63
g2804
sg56
(lp2811
S'is_restful'
p2812
asbag49
(g70
g51
NtRp2813
(dp2814
g54
(dp2815
g81
g82
ssg63
g2804
sg56
(lp2816
S':'
asbag49
(g70
g51
NtRp2817
(dp2818
g54
(dp2819
sg63
g2804
sg56
(lp2820
g49
(g50
g51
NtRp2821
(dp2822
g54
(dp2823
g62
I5
ssg63
g2817
sg56
(lp2824
g1632
asbasbasbag49
(g65
g51
NtRp2825
(dp2826
g54
(dp2827
sg63
g59
sg56
(lp2828
g49
(g70
g51
NtRp2829
(dp2830
g54
(dp2831
g74
g75
ssg63
g2825
sg56
(lp2832
S'now'
p2833
asbag49
(g70
g51
NtRp2834
(dp2835
g54
(dp2836
g81
g82
ssg63
g2825
sg56
(lp2837
S':'
asbag49
(g70
g51
NtRp2838
(dp2839
g54
(dp2840
sg63
g2825
sg56
(lp2841
g49
(g50
g51
NtRp2842
(dp2843
g54
(dp2844
g62
I5
ssg63
g2838
sg56
(lp2845
S'datetime.datetime(2013, 3, 25, 15, 30, 18, 145336)'
p2846
asbasbasbag49
(g65
g51
NtRp2847
(dp2848
g54
(dp2849
sg63
g59
sg56
(lp2850
g49
(g70
g51
NtRp2851
(dp2852
g54
(dp2853
g74
g75
ssg63
g2847
sg56
(lp2854
S'post_vars'
p2855
asbag49
(g70
g51
NtRp2856
(dp2857
g54
(dp2858
g81
g82
ssg63
g2847
sg56
(lp2859
S':'
asbag49
(g70
g51
NtRp2860
(dp2861
g54
(dp2862
sg63
g2847
sg56
(lp2863
g49
(g50
g51
NtRp2864
(dp2865
g54
(dp2866
g62
I5
ssg63
g2860
sg56
(lp2867
g49
(g58
g51
NtRp2868
(dp2869
g54
(dp2870
g62
I4
ssg63
Nsg56
(lp2871
g49
(g65
g51
NtRp2872
(dp2873
g54
(dp2874
sg63
g2868
sg56
(lp2875
g49
(g70
g51
NtRp2876
(dp2877
g54
(dp2878
g74
g75
ssg63
g2872
sg56
(lp2879
S'statement'
p2880
asbag49
(g70
g51
NtRp2881
(dp2882
g54
(dp2883
g81
g82
ssg63
g2872
sg56
(lp2884
S':'
asbag49
(g70
g51
NtRp2885
(dp2886
g54
(dp2887
sg63
g2872
sg56
(lp2888
g49
(g50
g51
NtRp2889
(dp2890
g54
(dp2891
g62
I4
ssg63
g2885
sg56
(lp2892
S'x\n'
p2893
asbasbasbasbasbasbasbag49
(g65
g51
NtRp2894
(dp2895
g54
(dp2896
sg63
g59
sg56
(lp2897
g49
(g70
g51
NtRp2898
(dp2899
g54
(dp2900
g74
g75
ssg63
g2894
sg56
(lp2901
S'raw_args'
p2902
asbag49
(g70
g51
NtRp2903
(dp2904
g54
(dp2905
g81
g82
ssg63
g2894
sg56
(lp2906
S':'
asbag49
(g70
g51
NtRp2907
(dp2908
g54
(dp2909
sg63
g2894
sg56
(lp2910
g49
(g50
g51
NtRp2911
(dp2912
g54
(dp2913
g62
I5
ssg63
g2907
sg56
(lp2914
S'hellow'
p2915
asbasbasbag49
(g65
g51
NtRp2916
(dp2917
g54
(dp2918
sg63
g59
sg56
(lp2919
g49
(g70
g51
NtRp2920
(dp2921
g54
(dp2922
g74
g75
ssg63
g2916
sg56
(lp2923
S'raw_extension'
p2924
asbag49
(g70
g51
NtRp2925
(dp2926
g54
(dp2927
g81
g82
ssg63
g2916
sg56
(lp2928
S':'
asbag49
(g70
g51
NtRp2929
(dp2930
g54
(dp2931
sg63
g2916
sg56
(lp2932
g49
(g50
g51
NtRp2933
(dp2934
g54
(dp2935
g62
I5
ssg63
g2929
sg56
(lp2936
S'None'
p2937
asbasbasbag49
(g65
g51
NtRp2938
(dp2939
g54
(dp2940
sg63
g59
sg56
(lp2941
g49
(g70
g51
NtRp2942
(dp2943
g54
(dp2944
g74
g75
ssg63
g2938
sg56
(lp2945
S'url'
p2946
asbag49
(g70
g51
NtRp2947
(dp2948
g54
(dp2949
g81
g82
ssg63
g2938
sg56
(lp2950
S':'
asbag49
(g70
g51
NtRp2951
(dp2952
g54
(dp2953
sg63
g2938
sg56
(lp2954
g49
(g50
g51
NtRp2955
(dp2956
g54
(dp2957
g62
I5
ssg63
g2951
sg56
(lp2958
g1765
asbasbasbag49
(g65
g51
NtRp2959
(dp2960
g54
(dp2961
sg63
g59
sg56
(lp2962
g49
(g70
g51
NtRp2963
(dp2964
g54
(dp2965
g74
g75
ssg63
g2959
sg56
(lp2966
S'utcnow'
p2967
asbag49
(g70
g51
NtRp2968
(dp2969
g54
(dp2970
g81
g82
ssg63
g2959
sg56
(lp2971
S':'
asbag49
(g70
g51
NtRp2972
(dp2973
g54
(dp2974
sg63
g2959
sg56
(lp2975
g49
(g50
g51
NtRp2976
(dp2977
g54
(dp2978
g62
I5
ssg63
g2972
sg56
(lp2979
S'datetime.datetime(2013, 3, 25, 19, 30, 18, 145348)'
p2980
asbasbasbag49
(g65
g51
NtRp2981
(dp2982
g54
(dp2983
sg63
g59
sg56
(lp2984
g49
(g70
g51
NtRp2985
(dp2986
g54
(dp2987
g74
g75
ssg63
g2981
sg56
(lp2988
S'uuid'
p2989
asbag49
(g70
g51
NtRp2990
(dp2991
g54
(dp2992
g81
g82
ssg63
g2981
sg56
(lp2993
S':'
asbag49
(g70
g51
NtRp2994
(dp2995
g54
(dp2996
sg63
g2981
sg56
(lp2997
g49
(g50
g51
NtRp2998
(dp2999
g54
(dp3000
g62
I5
ssg63
g2994
sg56
(lp3001
S'admin/127.0.0.1.2013-03-25.15-30-18.9e868112-830b-47e6-b57e-00340eb4c540'
p3002
asbasbasbag49
(g65
g51
NtRp3003
(dp3004
g54
(dp3005
sg63
g59
sg56
(lp3006
g49
(g70
g51
NtRp3007
(dp3008
g54
(dp3009
g74
g75
ssg63
g3003
sg56
(lp3010
S'vars'
p3011
asbag49
(g70
g51
NtRp3012
(dp3013
g54
(dp3014
g81
g82
ssg63
g3003
sg56
(lp3015
S':'
asbag49
(g70
g51
NtRp3016
(dp3017
g54
(dp3018
sg63
g3003
sg56
(lp3019
g49
(g50
g51
NtRp3020
(dp3021
g54
(dp3022
g62
I5
ssg63
g3016
sg56
(lp3023
g49
(g58
g51
NtRp3024
(dp3025
g54
(dp3026
g62
I4
ssg63
Nsg56
(lp3027
g49
(g65
g51
NtRp3028
(dp3029
g54
(dp3030
sg63
g3024
sg56
(lp3031
g49
(g70
g51
NtRp3032
(dp3033
g54
(dp3034
g74
g75
ssg63
g3028
sg56
(lp3035
g2880
asbag49
(g70
g51
NtRp3036
(dp3037
g54
(dp3038
g81
g82
ssg63
g3028
sg56
(lp3039
S':'
asbag49
(g70
g51
NtRp3040
(dp3041
g54
(dp3042
sg63
g3028
sg56
(lp3043
g49
(g50
g51
NtRp3044
(dp3045
g54
(dp3046
g62
I4
ssg63
g3040
sg56
(lp3047
g2893
asbasbasbasbasbasbasbag49
(g65
g51
NtRp3048
(dp3049
g54
(dp3050
sg63
g59
sg56
(lp3051
g49
(g70
g51
NtRp3052
(dp3053
g54
(dp3054
g74
g75
ssg63
g3048
sg56
(lp3055
S'wsgi'
p3056
asbag49
(g70
g51
NtRp3057
(dp3058
g54
(dp3059
g81
g82
ssg63
g3048
sg56
(lp3060
S':'
asbag49
(g70
g51
NtRp3061
(dp3062
g54
(dp3063
sg63
g3048
sg56
(lp3064
g49
(g50
g51
NtRp3065
(dp3066
g54
(dp3067
g62
I5
ssg63
g3061
sg56
(lp3068
g49
(g58
g51
NtRp3069
(dp3070
g54
(dp3071
g62
I4
ssg63
Nsg56
(lp3072
g49
(g65
g51
NtRp3073
(dp3074
g54
(dp3075
sg63
g3069
sg56
(lp3076
g49
(g70
g51
NtRp3077
(dp3078
g54
(dp3079
g74
g75
ssg63
g3073
sg56
(lp3080
S'environ'
p3081
asbag49
(g70
g51
NtRp3082
(dp3083
g54
(dp3084
g81
g82
ssg63
g3073
sg56
(lp3085
S':'
asbag49
(g70
g51
NtRp3086
(dp3087
g54
(dp3088
sg63
g3073
sg56
(lp3089
g49
(g50
g51
NtRp3090
(dp3091
g54
(dp3092
g62
I4
ssg63
g3086
sg56
(lp3093
g49
(g58
g51
NtRp3094
(dp3095
g54
(dp3096
g62
I3
ssg63
Nsg56
(lp3097
g49
(g65
g51
NtRp3098
(dp3099
g54
(dp3100
sg63
g3094
sg56
(lp3101
g49
(g70
g51
NtRp3102
(dp3103
g54
(dp3104
g74
g75
ssg63
g3098
sg56
(lp3105
S'CONTENT_LENGTH'
p3106
asbag49
(g70
g51
NtRp3107
(dp3108
g54
(dp3109
g81
g82
ssg63
g3098
sg56
(lp3110
S':'
asbag49
(g70
g51
NtRp3111
(dp3112
g54
(dp3113
sg63
g3098
sg56
(lp3114
g49
(g50
g51
NtRp3115
(dp3116
g54
(dp3117
g62
I3
ssg63
g3111
sg56
(lp3118
g1239
asbasbasbag49
(g65
g51
NtRp3119
(dp3120
g54
(dp3121
sg63
g3094
sg56
(lp3122
g49
(g70
g51
NtRp3123
(dp3124
g54
(dp3125
g74
g75
ssg63
g3119
sg56
(lp3126
S'CONTENT_TYPE'
p3127
asbag49
(g70
g51
NtRp3128
(dp3129
g54
(dp3130
g81
g82
ssg63
g3119
sg56
(lp3131
S':'
asbag49
(g70
g51
NtRp3132
(dp3133
g54
(dp3134
sg63
g3119
sg56
(lp3135
g49
(g50
g51
NtRp3136
(dp3137
g54
(dp3138
g62
I3
ssg63
g3132
sg56
(lp3139
g1261
asbasbasbag49
(g65
g51
NtRp3140
(dp3141
g54
(dp3142
sg63
g3094
sg56
(lp3143
g49
(g70
g51
NtRp3144
(dp3145
g54
(dp3146
g74
g75
ssg63
g3140
sg56
(lp3147
S'HTTP_ACCEPT'
p3148
asbag49
(g70
g51
NtRp3149
(dp3150
g54
(dp3151
g81
g82
ssg63
g3140
sg56
(lp3152
S':'
asbag49
(g70
g51
NtRp3153
(dp3154
g54
(dp3155
sg63
g3140
sg56
(lp3156
g49
(g50
g51
NtRp3157
(dp3158
g54
(dp3159
g62
I3
ssg63
g3153
sg56
(lp3160
g1348
asbasbasbag49
(g65
g51
NtRp3161
(dp3162
g54
(dp3163
sg63
g3094
sg56
(lp3164
g49
(g70
g51
NtRp3165
(dp3166
g54
(dp3167
g74
g75
ssg63
g3161
sg56
(lp3168
S'HTTP_ACCEPT_CHARSET'
p3169
asbag49
(g70
g51
NtRp3170
(dp3171
g54
(dp3172
g81
g82
ssg63
g3161
sg56
(lp3173
S':'
asbag49
(g70
g51
NtRp3174
(dp3175
g54
(dp3176
sg63
g3161
sg56
(lp3177
g49
(g50
g51
NtRp3178
(dp3179
g54
(dp3180
g62
I3
ssg63
g3174
sg56
(lp3181
g1370
asbasbasbag49
(g65
g51
NtRp3182
(dp3183
g54
(dp3184
sg63
g3094
sg56
(lp3185
g49
(g70
g51
NtRp3186
(dp3187
g54
(dp3188
g74
g75
ssg63
g3182
sg56
(lp3189
S'HTTP_ACCEPT_ENCODING'
p3190
asbag49
(g70
g51
NtRp3191
(dp3192
g54
(dp3193
g81
g82
ssg63
g3182
sg56
(lp3194
S':'
asbag49
(g70
g51
NtRp3195
(dp3196
g54
(dp3197
sg63
g3182
sg56
(lp3198
g49
(g50
g51
NtRp3199
(dp3200
g54
(dp3201
g62
I3
ssg63
g3195
sg56
(lp3202
g1392
asbasbasbag49
(g65
g51
NtRp3203
(dp3204
g54
(dp3205
sg63
g3094
sg56
(lp3206
g49
(g70
g51
NtRp3207
(dp3208
g54
(dp3209
g74
g75
ssg63
g3203
sg56
(lp3210
S'HTTP_ACCEPT_LANGUAGE'
p3211
asbag49
(g70
g51
NtRp3212
(dp3213
g54
(dp3214
g81
g82
ssg63
g3203
sg56
(lp3215
S':'
asbag49
(g70
g51
NtRp3216
(dp3217
g54
(dp3218
sg63
g3203
sg56
(lp3219
g49
(g50
g51
NtRp3220
(dp3221
g54
(dp3222
g62
I3
ssg63
g3216
sg56
(lp3223
g1414
asbasbasbag49
(g65
g51
NtRp3224
(dp3225
g54
(dp3226
sg63
g3094
sg56
(lp3227
g49
(g70
g51
NtRp3228
(dp3229
g54
(dp3230
g74
g75
ssg63
g3224
sg56
(lp3231
S'HTTP_CONNECTION'
p3232
asbag49
(g70
g51
NtRp3233
(dp3234
g54
(dp3235
g81
g82
ssg63
g3224
sg56
(lp3236
S':'
asbag49
(g70
g51
NtRp3237
(dp3238
g54
(dp3239
sg63
g3224
sg56
(lp3240
g49
(g50
g51
NtRp3241
(dp3242
g54
(dp3243
g62
I3
ssg63
g3237
sg56
(lp3244
g1436
asbasbasbag49
(g65
g51
NtRp3245
(dp3246
g54
(dp3247
sg63
g3094
sg56
(lp3248
g49
(g70
g51
NtRp3249
(dp3250
g54
(dp3251
g74
g75
ssg63
g3245
sg56
(lp3252
S'HTTP_CONTENT_LENGTH'
p3253
asbag49
(g70
g51
NtRp3254
(dp3255
g54
(dp3256
g81
g82
ssg63
g3245
sg56
(lp3257
S':'
asbag49
(g70
g51
NtRp3258
(dp3259
g54
(dp3260
sg63
g3245
sg56
(lp3261
g49
(g50
g51
NtRp3262
(dp3263
g54
(dp3264
g62
I3
ssg63
g3258
sg56
(lp3265
g1239
asbasbasbag49
(g65
g51
NtRp3266
(dp3267
g54
(dp3268
sg63
g3094
sg56
(lp3269
g49
(g70
g51
NtRp3270
(dp3271
g54
(dp3272
g74
g75
ssg63
g3266
sg56
(lp3273
S'HTTP_CONTENT_TYPE'
p3274
asbag49
(g70
g51
NtRp3275
(dp3276
g54
(dp3277
g81
g82
ssg63
g3266
sg56
(lp3278
S':'
asbag49
(g70
g51
NtRp3279
(dp3280
g54
(dp3281
sg63
g3266
sg56
(lp3282
g49
(g50
g51
NtRp3283
(dp3284
g54
(dp3285
g62
I3
ssg63
g3279
sg56
(lp3286
g1261
asbasbasbag49
(g65
g51
NtRp3287
(dp3288
g54
(dp3289
sg63
g3094
sg56
(lp3290
g49
(g70
g51
NtRp3291
(dp3292
g54
(dp3293
g74
g75
ssg63
g3287
sg56
(lp3294
S'HTTP_COOKIE'
p3295
asbag49
(g70
g51
NtRp3296
(dp3297
g54
(dp3298
g81
g82
ssg63
g3287
sg56
(lp3299
S':'
asbag49
(g70
g51
NtRp3300
(dp3301
g54
(dp3302
sg63
g3287
sg56
(lp3303
g49
(g50
g51
NtRp3304
(dp3305
g54
(dp3306
g62
I3
ssg63
g3300
sg56
(lp3307
g1500
asbasbasbag49
(g65
g51
NtRp3308
(dp3309
g54
(dp3310
sg63
g3094
sg56
(lp3311
g49
(g70
g51
NtRp3312
(dp3313
g54
(dp3314
g74
g75
ssg63
g3308
sg56
(lp3315
S'HTTP_HOST'
p3316
asbag49
(g70
g51
NtRp3317
(dp3318
g54
(dp3319
g81
g82
ssg63
g3308
sg56
(lp3320
S':'
asbag49
(g70
g51
NtRp3321
(dp3322
g54
(dp3323
sg63
g3308
sg56
(lp3324
g49
(g50
g51
NtRp3325
(dp3326
g54
(dp3327
g62
I3
ssg63
g3321
sg56
(lp3328
g1522
asbasbasbag49
(g65
g51
NtRp3329
(dp3330
g54
(dp3331
sg63
g3094
sg56
(lp3332
g49
(g70
g51
NtRp3333
(dp3334
g54
(dp3335
g74
g75
ssg63
g3329
sg56
(lp3336
S'HTTP_ORIGIN'
p3337
asbag49
(g70
g51
NtRp3338
(dp3339
g54
(dp3340
g81
g82
ssg63
g3329
sg56
(lp3341
S':'
asbag49
(g70
g51
NtRp3342
(dp3343
g54
(dp3344
sg63
g3329
sg56
(lp3345
g49
(g50
g51
NtRp3346
(dp3347
g54
(dp3348
g62
I3
ssg63
g3342
sg56
(lp3349
g1544
asbasbasbag49
(g65
g51
NtRp3350
(dp3351
g54
(dp3352
sg63
g3094
sg56
(lp3353
g49
(g70
g51
NtRp3354
(dp3355
g54
(dp3356
g74
g75
ssg63
g3350
sg56
(lp3357
S'HTTP_REFERER'
p3358
asbag49
(g70
g51
NtRp3359
(dp3360
g54
(dp3361
g81
g82
ssg63
g3350
sg56
(lp3362
S':'
asbag49
(g70
g51
NtRp3363
(dp3364
g54
(dp3365
sg63
g3350
sg56
(lp3366
g49
(g50
g51
NtRp3367
(dp3368
g54
(dp3369
g62
I3
ssg63
g3363
sg56
(lp3370
g1566
asbasbasbag49
(g65
g51
NtRp3371
(dp3372
g54
(dp3373
sg63
g3094
sg56
(lp3374
g49
(g70
g51
NtRp3375
(dp3376
g54
(dp3377
g74
g75
ssg63
g3371
sg56
(lp3378
S'HTTP_USER_AGENT'
p3379
asbag49
(g70
g51
NtRp3380
(dp3381
g54
(dp3382
g81
g82
ssg63
g3371
sg56
(lp3383
S':'
asbag49
(g70
g51
NtRp3384
(dp3385
g54
(dp3386
sg63
g3371
sg56
(lp3387
g49
(g50
g51
NtRp3388
(dp3389
g54
(dp3390
g62
I3
ssg63
g3384
sg56
(lp3391
g1588
asbasbasbag49
(g65
g51
NtRp3392
(dp3393
g54
(dp3394
sg63
g3094
sg56
(lp3395
g49
(g70
g51
NtRp3396
(dp3397
g54
(dp3398
g74
g75
ssg63
g3392
sg56
(lp3399
S'HTTP_X_REQUESTED_WITH'
p3400
asbag49
(g70
g51
NtRp3401
(dp3402
g54
(dp3403
g81
g82
ssg63
g3392
sg56
(lp3404
S':'
asbag49
(g70
g51
NtRp3405
(dp3406
g54
(dp3407
sg63
g3392
sg56
(lp3408
g49
(g50
g51
NtRp3409
(dp3410
g54
(dp3411
g62
I3
ssg63
g3405
sg56
(lp3412
g1610
asbasbasbag49
(g65
g51
NtRp3413
(dp3414
g54
(dp3415
sg63
g3094
sg56
(lp3416
g49
(g70
g51
NtRp3417
(dp3418
g54
(dp3419
g74
g75
ssg63
g3413
sg56
(lp3420
S'PATH_INFO'
p3421
asbag49
(g70
g51
NtRp3422
(dp3423
g54
(dp3424
g81
g82
ssg63
g3413
sg56
(lp3425
S':'
asbag49
(g70
g51
NtRp3426
(dp3427
g54
(dp3428
sg63
g3413
sg56
(lp3429
g49
(g50
g51
NtRp3430
(dp3431
g54
(dp3432
g62
I3
ssg63
g3426
sg56
(lp3433
g1765
asbasbasbag49
(g65
g51
NtRp3434
(dp3435
g54
(dp3436
sg63
g3094
sg56
(lp3437
g49
(g70
g51
NtRp3438
(dp3439
g54
(dp3440
g74
g75
ssg63
g3434
sg56
(lp3441
S'QUERY_STRING'
p3442
asbag49
(g70
g51
NtRp3443
(dp3444
g54
(dp3445
g81
g82
ssg63
g3434
sg56
(lp3446
S':'
asbag49
(g70
g51
NtRp3447
(dp3448
g54
(dp3449
sg63
g3434
sg56
(lp3450
g49
(g50
g51
NtRp3451
(dp3452
g54
(dp3453
g62
I3
ssg63
g3447
sg56
(lp3454
S''
asbasbasbag49
(g65
g51
NtRp3455
(dp3456
g54
(dp3457
sg63
g3094
sg56
(lp3458
g49
(g70
g51
NtRp3459
(dp3460
g54
(dp3461
g74
g75
ssg63
g3455
sg56
(lp3462
S'REMOTE_ADDR'
p3463
asbag49
(g70
g51
NtRp3464
(dp3465
g54
(dp3466
g81
g82
ssg63
g3455
sg56
(lp3467
S':'
asbag49
(g70
g51
NtRp3468
(dp3469
g54
(dp3470
sg63
g3455
sg56
(lp3471
g49
(g50
g51
NtRp3472
(dp3473
g54
(dp3474
g62
I3
ssg63
g3468
sg56
(lp3475
g217
asbasbasbag49
(g65
g51
NtRp3476
(dp3477
g54
(dp3478
sg63
g3094
sg56
(lp3479
g49
(g70
g51
NtRp3480
(dp3481
g54
(dp3482
g74
g75
ssg63
g3476
sg56
(lp3483
S'REMOTE_PORT'
p3484
asbag49
(g70
g51
NtRp3485
(dp3486
g54
(dp3487
g81
g82
ssg63
g3476
sg56
(lp3488
S':'
asbag49
(g70
g51
NtRp3489
(dp3490
g54
(dp3491
sg63
g3476
sg56
(lp3492
g49
(g50
g51
NtRp3493
(dp3494
g54
(dp3495
g62
I3
ssg63
g3489
sg56
(lp3496
g1829
asbasbasbag49
(g65
g51
NtRp3497
(dp3498
g54
(dp3499
sg63
g3094
sg56
(lp3500
g49
(g70
g51
NtRp3501
(dp3502
g54
(dp3503
g74
g75
ssg63
g3497
sg56
(lp3504
S'REQUEST_METHOD'
p3505
asbag49
(g70
g51
NtRp3506
(dp3507
g54
(dp3508
g81
g82
ssg63
g3497
sg56
(lp3509
S':'
asbag49
(g70
g51
NtRp3510
(dp3511
g54
(dp3512
sg63
g3497
sg56
(lp3513
g49
(g50
g51
NtRp3514
(dp3515
g54
(dp3516
g62
I3
ssg63
g3510
sg56
(lp3517
g1851
asbasbasbag49
(g65
g51
NtRp3518
(dp3519
g54
(dp3520
sg63
g3094
sg56
(lp3521
g49
(g70
g51
NtRp3522
(dp3523
g54
(dp3524
g74
g75
ssg63
g3518
sg56
(lp3525
S'REQUEST_URI'
p3526
asbag49
(g70
g51
NtRp3527
(dp3528
g54
(dp3529
g81
g82
ssg63
g3518
sg56
(lp3530
S':'
asbag49
(g70
g51
NtRp3531
(dp3532
g54
(dp3533
sg63
g3518
sg56
(lp3534
g49
(g50
g51
NtRp3535
(dp3536
g54
(dp3537
g62
I3
ssg63
g3531
sg56
(lp3538
g1765
asbasbasbag49
(g65
g51
NtRp3539
(dp3540
g54
(dp3541
sg63
g3094
sg56
(lp3542
g49
(g70
g51
NtRp3543
(dp3544
g54
(dp3545
g74
g75
ssg63
g3539
sg56
(lp3546
S'SCRIPT_NAME'
p3547
asbag49
(g70
g51
NtRp3548
(dp3549
g54
(dp3550
g81
g82
ssg63
g3539
sg56
(lp3551
S':'
asbag49
(g70
g51
NtRp3552
(dp3553
g54
(dp3554
sg63
g3539
sg56
(lp3555
g49
(g50
g51
NtRp3556
(dp3557
g54
(dp3558
g62
I3
ssg63
g3552
sg56
(lp3559
S''
asbasbasbag49
(g65
g51
NtRp3560
(dp3561
g54
(dp3562
sg63
g3094
sg56
(lp3563
g49
(g70
g51
NtRp3564
(dp3565
g54
(dp3566
g74
g75
ssg63
g3560
sg56
(lp3567
S'SERVER_NAME'
p3568
asbag49
(g70
g51
NtRp3569
(dp3570
g54
(dp3571
g81
g82
ssg63
g3560
sg56
(lp3572
S':'
asbag49
(g70
g51
NtRp3573
(dp3574
g54
(dp3575
sg63
g3560
sg56
(lp3576
g49
(g50
g51
NtRp3577
(dp3578
g54
(dp3579
g62
I3
ssg63
g3573
sg56
(lp3580
g1915
asbasbasbag49
(g65
g51
NtRp3581
(dp3582
g54
(dp3583
sg63
g3094
sg56
(lp3584
g49
(g70
g51
NtRp3585
(dp3586
g54
(dp3587
g74
g75
ssg63
g3581
sg56
(lp3588
S'SERVER_PORT'
p3589
asbag49
(g70
g51
NtRp3590
(dp3591
g54
(dp3592
g81
g82
ssg63
g3581
sg56
(lp3593
S':'
asbag49
(g70
g51
NtRp3594
(dp3595
g54
(dp3596
sg63
g3581
sg56
(lp3597
g49
(g50
g51
NtRp3598
(dp3599
g54
(dp3600
g62
I3
ssg63
g3594
sg56
(lp3601
g1937
asbasbasbag49
(g65
g51
NtRp3602
(dp3603
g54
(dp3604
sg63
g3094
sg56
(lp3605
g49
(g70
g51
NtRp3606
(dp3607
g54
(dp3608
g74
g75
ssg63
g3602
sg56
(lp3609
S'SERVER_PROTOCOL'
p3610
asbag49
(g70
g51
NtRp3611
(dp3612
g54
(dp3613
g81
g82
ssg63
g3602
sg56
(lp3614
S':'
asbag49
(g70
g51
NtRp3615
(dp3616
g54
(dp3617
sg63
g3602
sg56
(lp3618
g49
(g50
g51
NtRp3619
(dp3620
g54
(dp3621
g62
I3
ssg63
g3615
sg56
(lp3622
g1959
asbasbasbag49
(g65
g51
NtRp3623
(dp3624
g54
(dp3625
sg63
g3094
sg56
(lp3626
g49
(g70
g51
NtRp3627
(dp3628
g54
(dp3629
g74
g75
ssg63
g3623
sg56
(lp3630
S'SERVER_SOFTWARE'
p3631
asbag49
(g70
g51
NtRp3632
(dp3633
g54
(dp3634
g81
g82
ssg63
g3623
sg56
(lp3635
S':'
asbag49
(g70
g51
NtRp3636
(dp3637
g54
(dp3638
sg63
g3623
sg56
(lp3639
g49
(g50
g51
NtRp3640
(dp3641
g54
(dp3642
g62
I3
ssg63
g3636
sg56
(lp3643
g1981
asbasbasbag49
(g65
g51
NtRp3644
(dp3645
g54
(dp3646
sg63
g3094
sg56
(lp3647
g49
(g70
g51
NtRp3648
(dp3649
g54
(dp3650
g74
g75
ssg63
g3644
sg56
(lp3651
S'wsgi.errors'
p3652
asbag49
(g70
g51
NtRp3653
(dp3654
g54
(dp3655
g81
g82
ssg63
g3644
sg56
(lp3656
S':'
asbag49
(g70
g51
NtRp3657
(dp3658
g54
(dp3659
sg63
g3644
sg56
(lp3660
g49
(g50
g51
NtRp3661
(dp3662
g54
(dp3663
g62
I3
ssg63
g3657
sg56
(lp3664
S"<open file '<stderr>', mode 'w' at 0x540b0>"
p3665
asbasbasbag49
(g65
g51
NtRp3666
(dp3667
g54
(dp3668
sg63
g3094
sg56
(lp3669
g49
(g70
g51
NtRp3670
(dp3671
g54
(dp3672
g74
g75
ssg63
g3666
sg56
(lp3673
S'wsgi.file_wrapper'
p3674
asbag49
(g70
g51
NtRp3675
(dp3676
g54
(dp3677
g81
g82
ssg63
g3666
sg56
(lp3678
S':'
asbag49
(g70
g51
NtRp3679
(dp3680
g54
(dp3681
sg63
g3666
sg56
(lp3682
g49
(g50
g51
NtRp3683
(dp3684
g54
(dp3685
g62
I3
ssg63
g3679
sg56
(lp3686
S'<class wsgiref.util.FileWrapper at 0x329d060>'
p3687
asbasbasbag49
(g65
g51
NtRp3688
(dp3689
g54
(dp3690
sg63
g3094
sg56
(lp3691
g49
(g70
g51
NtRp3692
(dp3693
g54
(dp3694
g74
g75
ssg63
g3688
sg56
(lp3695
S'wsgi.input'
p3696
asbag49
(g70
g51
NtRp3697
(dp3698
g54
(dp3699
g81
g82
ssg63
g3688
sg56
(lp3700
S':'
asbag49
(g70
g51
NtRp3701
(dp3702
g54
(dp3703
sg63
g3688
sg56
(lp3704
g49
(g50
g51
NtRp3705
(dp3706
g54
(dp3707
g62
I3
ssg63
g3701
sg56
(lp3708
S"<open file '<fdopen>', mode 'w+b' at 0xa452068>"
p3709
asbasbasbag49
(g65
g51
NtRp3710
(dp3711
g54
(dp3712
sg63
g3094
sg56
(lp3713
g49
(g70
g51
NtRp3714
(dp3715
g54
(dp3716
g74
g75
ssg63
g3710
sg56
(lp3717
S'wsgi.multiprocess'
p3718
asbag49
(g70
g51
NtRp3719
(dp3720
g54
(dp3721
g81
g82
ssg63
g3710
sg56
(lp3722
S':'
asbag49
(g70
g51
NtRp3723
(dp3724
g54
(dp3725
sg63
g3710
sg56
(lp3726
g49
(g50
g51
NtRp3727
(dp3728
g54
(dp3729
g62
I3
ssg63
g3723
sg56
(lp3730
g1632
asbasbasbag49
(g65
g51
NtRp3731
(dp3732
g54
(dp3733
sg63
g3094
sg56
(lp3734
g49
(g70
g51
NtRp3735
(dp3736
g54
(dp3737
g74
g75
ssg63
g3731
sg56
(lp3738
S'wsgi.multithread'
p3739
asbag49
(g70
g51
NtRp3740
(dp3741
g54
(dp3742
g81
g82
ssg63
g3731
sg56
(lp3743
S':'
asbag49
(g70
g51
NtRp3744
(dp3745
g54
(dp3746
sg63
g3731
sg56
(lp3747
g49
(g50
g51
NtRp3748
(dp3749
g54
(dp3750
g62
I3
ssg63
g3744
sg56
(lp3751
g92
asbasbasbag49
(g65
g51
NtRp3752
(dp3753
g54
(dp3754
sg63
g3094
sg56
(lp3755
g49
(g70
g51
NtRp3756
(dp3757
g54
(dp3758
g74
g75
ssg63
g3752
sg56
(lp3759
S'wsgi.run_once'
p3760
asbag49
(g70
g51
NtRp3761
(dp3762
g54
(dp3763
g81
g82
ssg63
g3752
sg56
(lp3764
S':'
asbag49
(g70
g51
NtRp3765
(dp3766
g54
(dp3767
sg63
g3752
sg56
(lp3768
g49
(g50
g51
NtRp3769
(dp3770
g54
(dp3771
g62
I3
ssg63
g3765
sg56
(lp3772
g1632
asbasbasbag49
(g65
g51
NtRp3773
(dp3774
g54
(dp3775
sg63
g3094
sg56
(lp3776
g49
(g70
g51
NtRp3777
(dp3778
g54
(dp3779
g74
g75
ssg63
g3773
sg56
(lp3780
S'wsgi.url_scheme'
p3781
asbag49
(g70
g51
NtRp3782
(dp3783
g54
(dp3784
g81
g82
ssg63
g3773
sg56
(lp3785
S':'
asbag49
(g70
g51
NtRp3786
(dp3787
g54
(dp3788
sg63
g3773
sg56
(lp3789
g49
(g50
g51
NtRp3790
(dp3791
g54
(dp3792
g62
I3
ssg63
g3786
sg56
(lp3793
g2240
asbasbasbag49
(g65
g51
NtRp3794
(dp3795
g54
(dp3796
sg63
g3094
sg56
(lp3797
g49
(g70
g51
NtRp3798
(dp3799
g54
(dp3800
g74
g75
ssg63
g3794
sg56
(lp3801
S'wsgi.version'
p3802
asbag49
(g70
g51
NtRp3803
(dp3804
g54
(dp3805
g81
g82
ssg63
g3794
sg56
(lp3806
S':'
asbag49
(g70
g51
NtRp3807
(dp3808
g54
(dp3809
sg63
g3794
sg56
(lp3810
g49
(g50
g51
NtRp3811
(dp3812
g54
(dp3813
g62
I3
ssg63
g3807
sg56
(lp3814
S'1'
asbasbasbasbasbasbasbasbasbasbasbasbasbsS'frames'
p3815
(lp3816
(dp3817
S'file'
p3818
S'/home/mdipierro/web2py/gluon/restricted.py'
p3819
sS'dump'
p3820
(dp3821
sS'lnum'
p3822
I212
sS'lines'
p3823
(dp3824
sS'call'
p3825
S'(code="import sys\\nimport cStringIO\\nimport gluon.contrib...done\'\\n\\nresponse._vars=response._caller(callback)\\n", environment={\'A\': <class \'gluon.html.A\'>, \'ALLOW_TOGGLE\': \'true\', \'A_button\': <function A_button at 0x9e11eb0>, \'B\': <class \'gluon.html.B\'>, \'BEAUTIFY\': <class \'gluon.html.BEAUTIFY\'>, \'BODY\': <class \'gluon.html.BODY\'>, \'BR\': <class \'gluon.html.BR\'>, \'BUTTON\': <class \'gluon.html.BUTTON\'>, \'CAT\': <class \'gluon.html.CAT\'>, \'CENTER\': <class \'gluon.html.CENTER\'>, ...}, layer=\'/Users/zamechek/Downloads/web2py/web2py.app/Cont...Resources/applications/admin/controllers/shell.py\')'
p3826
sS'func'
p3827
S'restricted'
p3828
sa(dp3829
g3818
S'/Users/zamechek/Downloads/web2py/web2py.app/Contents/Resources/applications/admin/controllers/shell.py'
p3830
sg3820
(dp3831
sg3822
I52
sg3823
(dp3832
I41
S'    #output = PRE(output)'
p3833
sI42
S"    #return TABLE(TR('In[%i]:'%k,PRE(command)),TR('Out[%i]:'%k,output))"
p3834
sI43
S"    return 'In [%i] : %s%s\\n' % (k + 1, command, output)"
p3835
sI44
S''
sI45
S''
sI46
S'def reset():'
p3836
sI47
S"    app = request.args(0) or 'admin'"
p3837
sI48
S"    session['commands:' + app] = []"
p3838
sI49
S"    session['history:' + app] = gluon.contrib.shell.History()"
p3839
sI50
S"    return 'done'"
p3840
ssg3825
S'()'
p3841
sg3827
S'<module>'
p3842
sa(dp3843
g3818
S'/home/mdipierro/web2py/gluon/globals.py'
p3844
sg3820
(dp3845
sg3822
I193
sg3823
(dp3846
sg3825
S'(f=<function callback at 0xa0ab070>)'
p3847
sg3827
S'<lambda>'
p3848
sa(dp3849
g3818
S'/Users/zamechek/Downloads/web2py/web2py.app/Contents/Resources/applications/admin/controllers/shell.py'
p3850
sg3820
(dp3851
sg3822
I39
sg3823
(dp3852
I34
S"            command = session['commands:' + app][int(command[1:])]"
p3853
sI35
S'        except ValueError:'
p3854
sI36
S"            return ''"
p3855
sI37
S"    session['commands:' + app].append(command)"
p3856
sI38
S'    environ = env(app, True, extra_request=dict(is_https=request.is_https))'
p3857
sI39
S'    output = gluon.contrib.shell.run(history, command, environ)'
p3858
sI40
S"    k = len(session['commands:' + app]) - 1"
p3859
sI41
S'    #output = PRE(output)'
p3860
sI42
S"    #return TABLE(TR('In[%i]:'%k,PRE(command)),TR('Out[%i]:'%k,output))"
p3861
sI43
S"    return 'In [%i] : %s%s\\n' % (k + 1, command, output)"
p3862
ssg3825
S'()'
p3863
sg3827
S'callback'
p3864
sa(dp3865
g3818
S'/home/mdipierro/web2py/gluon/contrib/shell.py'
p3866
sg3820
(dp3867
sg3822
I260
sg3823
(dp3868
sg3825
S"(history=<gluon.contrib.shell.History instance at 0xb4bb8a0>, statement='x\\n\\n\\n', env={'A': <class 'gluon.html.A'>, 'Auth': <class 'gluon.tools.Auth'>, 'B': <class 'gluon.html.B'>, 'BEAUTIFY': <class 'gluon.html.BEAUTIFY'>, 'BODY': <class 'gluon.html.BODY'>, 'BR': <class 'gluon.html.BR'>, 'BUTTON': <class 'gluon.html.BUTTON'>, 'CAT': <class 'gluon.html.CAT'>, 'CENTER': <class 'gluon.html.CENTER'>, 'CLEANUP': <class 'gluon.validators.CLEANUP'>, ...})"
p3869
sg3827
S'run'
p3870
sa(dp3871
g3818
S'/home/mdipierro/web2py/gluon/contrib/shell.py'
p3872
sg3820
(dp3873
sg3822
I104
sg3823
(dp3874
sg3825
S"(self=<gluon.contrib.shell.History instance at 0xb4bb8a0>, name='response', value=<Storage {'body': <cStringIO.StringO object at 0...da> at 0xa0abcf0>, 'view': 'default/index.html'}>)"
p3875
sg3827
S'set_global'
p3876
sa(dp3877
g3818
S'/Users/zamechek/Downloads/web2py/web2py.app/Contents/Resources/copy_reg.pyc'
p3878
sg3820
(dp3879
sg3822
I69
sg3823
(dp3880
sg3825
S'(self=<cStringIO.StringO object at 0xb973c40>, proto=0)'
p3881
sg3827
S'_reduce_ex'
p3882
sasS'pyver'
p3883
S'Python 2.5.1: /Users/zamechek/Downloads/web2py/web2py.app/Contents/MacOS/python'
p3884
sS'session'
p3885
g49
(g50
g51
NtRp3886
(dp3887
g54
(dp3888
sg56
(lp3889
g49
(g58
g51
NtRp3890
(dp3891
g54
(dp3892
g62
I5
ssg63
Nsg56
(lp3893
g49
(g65
g51
NtRp3894
(dp3895
g54
(dp3896
sg63
g3890
sg56
(lp3897
g49
(g70
g51
NtRp3898
(dp3899
g54
(dp3900
g74
g75
ssg63
g3894
sg56
(lp3901
S'app'
p3902
asbag49
(g70
g51
NtRp3903
(dp3904
g54
(dp3905
g81
g82
ssg63
g3894
sg56
(lp3906
S':'
asbag49
(g70
g51
NtRp3907
(dp3908
g54
(dp3909
sg63
g3894
sg56
(lp3910
g49
(g50
g51
NtRp3911
(dp3912
g54
(dp3913
g62
I5
ssg63
g3907
sg56
(lp3914
g49
(g58
g51
NtRp3915
(dp3916
g54
(dp3917
g62
I4
ssg63
Nsg56
(lp3918
g49
(g65
g51
NtRp3919
(dp3920
g54
(dp3921
sg63
g3915
sg56
(lp3922
g49
(g70
g51
NtRp3923
(dp3924
g54
(dp3925
g74
g75
ssg63
g3919
sg56
(lp3926
S'name'
p3927
asbag49
(g70
g51
NtRp3928
(dp3929
g54
(dp3930
g81
g82
ssg63
g3919
sg56
(lp3931
S':'
asbag49
(g70
g51
NtRp3932
(dp3933
g54
(dp3934
sg63
g3919
sg56
(lp3935
g49
(g50
g51
NtRp3936
(dp3937
g54
(dp3938
g62
I4
ssg63
g3932
sg56
(lp3939
S'slots'
p3940
asbasbasbag49
(g65
g51
NtRp3941
(dp3942
g54
(dp3943
sg63
g3915
sg56
(lp3944
g49
(g70
g51
NtRp3945
(dp3946
g54
(dp3947
g74
g75
ssg63
g3941
sg56
(lp3948
S'page_error'
p3949
asbag49
(g70
g51
NtRp3950
(dp3951
g54
(dp3952
g81
g82
ssg63
g3941
sg56
(lp3953
S':'
asbag49
(g70
g51
NtRp3954
(dp3955
g54
(dp3956
sg63
g3941
sg56
(lp3957
g49
(g50
g51
NtRp3958
(dp3959
g54
(dp3960
g62
I4
ssg63
g3954
sg56
(lp3961
S'# Error: the document does not exist'
p3962
asbasbasbag49
(g65
g51
NtRp3963
(dp3964
g54
(dp3965
sg63
g3915
sg56
(lp3966
g49
(g70
g51
NtRp3967
(dp3968
g54
(dp3969
g74
g75
ssg63
g3963
sg56
(lp3970
S'page_index'
p3971
asbag49
(g70
g51
NtRp3972
(dp3973
g54
(dp3974
g81
g82
ssg63
g3963
sg56
(lp3975
S':'
asbag49
(g70
g51
NtRp3976
(dp3977
g54
(dp3978
sg63
g3963
sg56
(lp3979
g49
(g50
g51
NtRp3980
(dp3981
g54
(dp3982
g62
I4
ssg63
g3976
sg56
(lp3983
S'# Welcome to my new app'
p3984
asbasbasbag49
(g65
g51
NtRp3985
(dp3986
g54
(dp3987
sg63
g3915
sg56
(lp3988
g49
(g70
g51
NtRp3989
(dp3990
g54
(dp3991
g74
g75
ssg63
g3985
sg56
(lp3992
S'pages'
p3993
asbag49
(g70
g51
NtRp3994
(dp3995
g54
(dp3996
g81
g82
ssg63
g3985
sg56
(lp3997
S':'
asbag49
(g70
g51
NtRp3998
(dp3999
g54
(dp4000
sg63
g3985
sg56
(lp4001
g49
(g50
g51
NtRp4002
(dp4003
g54
(dp4004
g62
I4
ssg63
g3998
sg56
(lp4005
g49
(g58
g51
NtRp4006
(dp4007
g54
(dp4008
g62
I3
ssg63
Nsg56
(lp4009
g49
(g65
g51
NtRp4010
(dp4011
g54
(dp4012
sg63
g4006
sg56
(lp4013
g49
(g70
g51
NtRp4014
(dp4015
g54
(dp4016
sg63
g4010
sg56
(lp4017
g49
(g50
g51
NtRp4018
(dp4019
g54
(dp4020
g62
I3
ssg63
g4014
sg56
(lp4021
S'index'
p4022
asbasbasbag49
(g65
g51
NtRp4023
(dp4024
g54
(dp4025
sg63
g4006
sg56
(lp4026
g49
(g70
g51
NtRp4027
(dp4028
g54
(dp4029
sg63
g4023
sg56
(lp4030
g49
(g50
g51
NtRp4031
(dp4032
g54
(dp4033
g62
I3
ssg63
g4027
sg56
(lp4034
S'error'
p4035
asbasbasbasbasbasbasbag49
(g65
g51
NtRp4036
(dp4037
g54
(dp4038
sg63
g3915
sg56
(lp4039
g49
(g70
g51
NtRp4040
(dp4041
g54
(dp4042
g74
g75
ssg63
g4036
sg56
(lp4043
S'params'
p4044
asbag49
(g70
g51
NtRp4045
(dp4046
g54
(dp4047
g81
g82
ssg63
g4036
sg56
(lp4048
S':'
asbag49
(g70
g51
NtRp4049
(dp4050
g54
(dp4051
sg63
g4036
sg56
(lp4052
g49
(g50
g51
NtRp4053
(dp4054
g54
(dp4055
g62
I4
ssg63
g4049
sg56
(lp4056
g49
(g58
g51
NtRp4057
(dp4058
g54
(dp4059
g62
I3
ssg63
Nsg56
(lp4060
g49
(g65
g51
NtRp4061
(dp4062
g54
(dp4063
sg63
g4057
sg56
(lp4064
g49
(g70
g51
NtRp4065
(dp4066
g54
(dp4067
sg63
g4061
sg56
(lp4068
g49
(g50
g51
NtRp4069
(dp4070
g54
(dp4071
g62
I3
ssg63
g4065
sg56
(lp4072
g49
(g58
g51
NtRp4073
(dp4074
g54
(dp4075
g62
I2
ssg63
Nsg56
(lp4076
g49
(g65
g51
NtRp4077
(dp4078
g54
(dp4079
sg63
g4073
sg56
(lp4080
g49
(g70
g51
NtRp4081
(dp4082
g54
(dp4083
sg63
g4077
sg56
(lp4084
g49
(g50
g51
NtRp4085
(dp4086
g54
(dp4087
g62
I2
ssg63
g4081
sg56
(lp4088
S'title'
p4089
asbasbasbag49
(g65
g51
NtRp4090
(dp4091
g54
(dp4092
sg63
g4073
sg56
(lp4093
g49
(g70
g51
NtRp4094
(dp4095
g54
(dp4096
sg63
g4090
sg56
(lp4097
g49
(g50
g51
NtRp4098
(dp4099
g54
(dp4100
g62
I2
ssg63
g4094
sg56
(lp4101
S'slots'
p4102
asbasbasbasbasbasbasbag49
(g65
g51
NtRp4103
(dp4104
g54
(dp4105
sg63
g4057
sg56
(lp4106
g49
(g70
g51
NtRp4107
(dp4108
g54
(dp4109
sg63
g4103
sg56
(lp4110
g49
(g50
g51
NtRp4111
(dp4112
g54
(dp4113
g62
I3
ssg63
g4107
sg56
(lp4114
g49
(g58
g51
NtRp4115
(dp4116
g54
(dp4117
g62
I2
ssg63
Nsg56
(lp4118
g49
(g65
g51
NtRp4119
(dp4120
g54
(dp4121
sg63
g4115
sg56
(lp4122
g49
(g70
g51
NtRp4123
(dp4124
g54
(dp4125
sg63
g4119
sg56
(lp4126
g49
(g50
g51
NtRp4127
(dp4128
g54
(dp4129
g62
I2
ssg63
g4123
sg56
(lp4130
S'subtitle'
p4131
asbasbasbag49
(g65
g51
NtRp4132
(dp4133
g54
(dp4134
sg63
g4115
sg56
(lp4135
g49
(g70
g51
NtRp4136
(dp4137
g54
(dp4138
sg63
g4132
sg56
(lp4139
g49
(g50
g51
NtRp4140
(dp4141
g54
(dp4142
g62
I2
ssg63
g4136
sg56
(lp4143
S'powered by web2py'
p4144
asbasbasbasbasbasbasbag49
(g65
g51
NtRp4145
(dp4146
g54
(dp4147
sg63
g4057
sg56
(lp4148
g49
(g70
g51
NtRp4149
(dp4150
g54
(dp4151
sg63
g4145
sg56
(lp4152
g49
(g50
g51
NtRp4153
(dp4154
g54
(dp4155
g62
I3
ssg63
g4149
sg56
(lp4156
g49
(g58
g51
NtRp4157
(dp4158
g54
(dp4159
g62
I2
ssg63
Nsg56
(lp4160
g49
(g65
g51
NtRp4161
(dp4162
g54
(dp4163
sg63
g4157
sg56
(lp4164
g49
(g70
g51
NtRp4165
(dp4166
g54
(dp4167
sg63
g4161
sg56
(lp4168
g49
(g50
g51
NtRp4169
(dp4170
g54
(dp4171
g62
I2
ssg63
g4165
sg56
(lp4172
S'author'
p4173
asbasbasbag49
(g65
g51
NtRp4174
(dp4175
g54
(dp4176
sg63
g4157
sg56
(lp4177
g49
(g70
g51
NtRp4178
(dp4179
g54
(dp4180
sg63
g4174
sg56
(lp4181
g49
(g50
g51
NtRp4182
(dp4183
g54
(dp4184
g62
I2
ssg63
g4178
sg56
(lp4185
S'shawn'
p4186
asbasbasbasbasbasbasbag49
(g65
g51
NtRp4187
(dp4188
g54
(dp4189
sg63
g4057
sg56
(lp4190
g49
(g70
g51
NtRp4191
(dp4192
g54
(dp4193
sg63
g4187
sg56
(lp4194
g49
(g50
g51
NtRp4195
(dp4196
g54
(dp4197
g62
I3
ssg63
g4191
sg56
(lp4198
g49
(g58
g51
NtRp4199
(dp4200
g54
(dp4201
g62
I2
ssg63
Nsg56
(lp4202
g49
(g65
g51
NtRp4203
(dp4204
g54
(dp4205
sg63
g4199
sg56
(lp4206
g49
(g70
g51
NtRp4207
(dp4208
g54
(dp4209
sg63
g4203
sg56
(lp4210
g49
(g50
g51
NtRp4211
(dp4212
g54
(dp4213
g62
I2
ssg63
g4207
sg56
(lp4214
S'author_email'
p4215
asbasbasbag49
(g65
g51
NtRp4216
(dp4217
g54
(dp4218
sg63
g4199
sg56
(lp4219
g49
(g70
g51
NtRp4220
(dp4221
g54
(dp4222
sg63
g4216
sg56
(lp4223
g49
(g50
g51
NtRp4224
(dp4225
g54
(dp4226
g62
I2
ssg63
g4220
sg56
(lp4227
S'shawnzam@gmail.com'
p4228
asbasbasbasbasbasbasbag49
(g65
g51
NtRp4229
(dp4230
g54
(dp4231
sg63
g4057
sg56
(lp4232
g49
(g70
g51
NtRp4233
(dp4234
g54
(dp4235
sg63
g4229
sg56
(lp4236
g49
(g50
g51
NtRp4237
(dp4238
g54
(dp4239
g62
I3
ssg63
g4233
sg56
(lp4240
g49
(g58
g51
NtRp4241
(dp4242
g54
(dp4243
g62
I2
ssg63
Nsg56
(lp4244
g49
(g65
g51
NtRp4245
(dp4246
g54
(dp4247
sg63
g4241
sg56
(lp4248
g49
(g70
g51
NtRp4249
(dp4250
g54
(dp4251
sg63
g4245
sg56
(lp4252
g49
(g50
g51
NtRp4253
(dp4254
g54
(dp4255
g62
I2
ssg63
g4249
sg56
(lp4256
S'keywords'
p4257
asbasbasbag49
(g65
g51
NtRp4258
(dp4259
g54
(dp4260
sg63
g4241
sg56
(lp4261
g49
(g70
g51
NtRp4262
(dp4263
g54
(dp4264
sg63
g4258
sg56
(lp4265
g49
(g50
g51
NtRp4266
(dp4267
g54
(dp4268
g62
I2
ssg63
g4262
sg56
(lp4269
S''
asbasbasbasbasbasbasbag49
(g65
g51
NtRp4270
(dp4271
g54
(dp4272
sg63
g4057
sg56
(lp4273
g49
(g70
g51
NtRp4274
(dp4275
g54
(dp4276
sg63
g4270
sg56
(lp4277
g49
(g50
g51
NtRp4278
(dp4279
g54
(dp4280
g62
I3
ssg63
g4274
sg56
(lp4281
g49
(g58
g51
NtRp4282
(dp4283
g54
(dp4284
g62
I2
ssg63
Nsg56
(lp4285
g49
(g65
g51
NtRp4286
(dp4287
g54
(dp4288
sg63
g4282
sg56
(lp4289
g49
(g70
g51
NtRp4290
(dp4291
g54
(dp4292
sg63
g4286
sg56
(lp4293
g49
(g50
g51
NtRp4294
(dp4295
g54
(dp4296
g62
I2
ssg63
g4290
sg56
(lp4297
S'description'
p4298
asbasbasbag49
(g65
g51
NtRp4299
(dp4300
g54
(dp4301
sg63
g4282
sg56
(lp4302
g49
(g70
g51
NtRp4303
(dp4304
g54
(dp4305
sg63
g4299
sg56
(lp4306
g49
(g50
g51
NtRp4307
(dp4308
g54
(dp4309
g62
I2
ssg63
g4303
sg56
(lp4310
S''
asbasbasbasbasbasbasbag49
(g65
g51
NtRp4311
(dp4312
g54
(dp4313
sg63
g4057
sg56
(lp4314
g49
(g70
g51
NtRp4315
(dp4316
g54
(dp4317
sg63
g4311
sg56
(lp4318
g49
(g50
g51
NtRp4319
(dp4320
g54
(dp4321
g62
I3
ssg63
g4315
sg56
(lp4322
g49
(g58
g51
NtRp4323
(dp4324
g54
(dp4325
g62
I2
ssg63
Nsg56
(lp4326
g49
(g65
g51
NtRp4327
(dp4328
g54
(dp4329
sg63
g4323
sg56
(lp4330
g49
(g70
g51
NtRp4331
(dp4332
g54
(dp4333
sg63
g4327
sg56
(lp4334
g49
(g50
g51
NtRp4335
(dp4336
g54
(dp4337
g62
I2
ssg63
g4331
sg56
(lp4338
S'layout_theme'
p4339
asbasbasbag49
(g65
g51
NtRp4340
(dp4341
g54
(dp4342
sg63
g4323
sg56
(lp4343
g49
(g70
g51
NtRp4344
(dp4345
g54
(dp4346
sg63
g4340
sg56
(lp4347
g49
(g50
g51
NtRp4348
(dp4349
g54
(dp4350
g62
I2
ssg63
g4344
sg56
(lp4351
S'Default'
p4352
asbasbasbasbasbasbasbag49
(g65
g51
NtRp4353
(dp4354
g54
(dp4355
sg63
g4057
sg56
(lp4356
g49
(g70
g51
NtRp4357
(dp4358
g54
(dp4359
sg63
g4353
sg56
(lp4360
g49
(g50
g51
NtRp4361
(dp4362
g54
(dp4363
g62
I3
ssg63
g4357
sg56
(lp4364
g49
(g58
g51
NtRp4365
(dp4366
g54
(dp4367
g62
I2
ssg63
Nsg56
(lp4368
g49
(g65
g51
NtRp4369
(dp4370
g54
(dp4371
sg63
g4365
sg56
(lp4372
g49
(g70
g51
NtRp4373
(dp4374
g54
(dp4375
sg63
g4369
sg56
(lp4376
g49
(g50
g51
NtRp4377
(dp4378
g54
(dp4379
g62
I2
ssg63
g4373
sg56
(lp4380
S'database_uri'
p4381
asbasbasbag49
(g65
g51
NtRp4382
(dp4383
g54
(dp4384
sg63
g4365
sg56
(lp4385
g49
(g70
g51
NtRp4386
(dp4387
g54
(dp4388
sg63
g4382
sg56
(lp4389
g49
(g50
g51
NtRp4390
(dp4391
g54
(dp4392
g62
I2
ssg63
g4386
sg56
(lp4393
S'sqlite://storage.sqlite'
p4394
asbasbasbasbasbasbasbag49
(g65
g51
NtRp4395
(dp4396
g54
(dp4397
sg63
g4057
sg56
(lp4398
g49
(g70
g51
NtRp4399
(dp4400
g54
(dp4401
sg63
g4395
sg56
(lp4402
g49
(g50
g51
NtRp4403
(dp4404
g54
(dp4405
g62
I3
ssg63
g4399
sg56
(lp4406
g49
(g58
g51
NtRp4407
(dp4408
g54
(dp4409
g62
I2
ssg63
Nsg56
(lp4410
g49
(g65
g51
NtRp4411
(dp4412
g54
(dp4413
sg63
g4407
sg56
(lp4414
g49
(g70
g51
NtRp4415
(dp4416
g54
(dp4417
sg63
g4411
sg56
(lp4418
g49
(g50
g51
NtRp4419
(dp4420
g54
(dp4421
g62
I2
ssg63
g4415
sg56
(lp4422
S'security_key'
p4423
asbasbasbag49
(g65
g51
NtRp4424
(dp4425
g54
(dp4426
sg63
g4407
sg56
(lp4427
g49
(g70
g51
NtRp4428
(dp4429
g54
(dp4430
sg63
g4424
sg56
(lp4431
g49
(g50
g51
NtRp4432
(dp4433
g54
(dp4434
g62
I2
ssg63
g4428
sg56
(lp4435
S'0652f2ac-3d3b-49ee-bb27-6594ff6a20e6'
p4436
asbasbasbasbasbasbasbag49
(g65
g51
NtRp4437
(dp4438
g54
(dp4439
sg63
g4057
sg56
(lp4440
g49
(g70
g51
NtRp4441
(dp4442
g54
(dp4443
sg63
g4437
sg56
(lp4444
g49
(g50
g51
NtRp4445
(dp4446
g54
(dp4447
g62
I3
ssg63
g4441
sg56
(lp4448
g49
(g58
g51
NtRp4449
(dp4450
g54
(dp4451
g62
I2
ssg63
Nsg56
(lp4452
g49
(g65
g51
NtRp4453
(dp4454
g54
(dp4455
sg63
g4449
sg56
(lp4456
g49
(g70
g51
NtRp4457
(dp4458
g54
(dp4459
sg63
g4453
sg56
(lp4460
g49
(g50
g51
NtRp4461
(dp4462
g54
(dp4463
g62
I2
ssg63
g4457
sg56
(lp4464
S'email_server'
p4465
asbasbasbag49
(g65
g51
NtRp4466
(dp4467
g54
(dp4468
sg63
g4449
sg56
(lp4469
g49
(g70
g51
NtRp4470
(dp4471
g54
(dp4472
sg63
g4466
sg56
(lp4473
g49
(g50
g51
NtRp4474
(dp4475
g54
(dp4476
g62
I2
ssg63
g4470
sg56
(lp4477
S'localhost'
p4478
asbasbasbasbasbasbasbag49
(g65
g51
NtRp4479
(dp4480
g54
(dp4481
sg63
g4057
sg56
(lp4482
g49
(g70
g51
NtRp4483
(dp4484
g54
(dp4485
sg63
g4479
sg56
(lp4486
g49
(g50
g51
NtRp4487
(dp4488
g54
(dp4489
g62
I3
ssg63
g4483
sg56
(lp4490
g49
(g58
g51
NtRp4491
(dp4492
g54
(dp4493
g62
I2
ssg63
Nsg56
(lp4494
g49
(g65
g51
NtRp4495
(dp4496
g54
(dp4497
sg63
g4491
sg56
(lp4498
g49
(g70
g51
NtRp4499
(dp4500
g54
(dp4501
sg63
g4495
sg56
(lp4502
g49
(g50
g51
NtRp4503
(dp4504
g54
(dp4505
g62
I2
ssg63
g4499
sg56
(lp4506
S'email_sender'
p4507
asbasbasbag49
(g65
g51
NtRp4508
(dp4509
g54
(dp4510
sg63
g4491
sg56
(lp4511
g49
(g70
g51
NtRp4512
(dp4513
g54
(dp4514
sg63
g4508
sg56
(lp4515
g49
(g50
g51
NtRp4516
(dp4517
g54
(dp4518
g62
I2
ssg63
g4512
sg56
(lp4519
S'shawnzam@gmail.com'
p4520
asbasbasbasbasbasbasbag49
(g65
g51
NtRp4521
(dp4522
g54
(dp4523
sg63
g4057
sg56
(lp4524
g49
(g70
g51
NtRp4525
(dp4526
g54
(dp4527
sg63
g4521
sg56
(lp4528
g49
(g50
g51
NtRp4529
(dp4530
g54
(dp4531
g62
I3
ssg63
g4525
sg56
(lp4532
g49
(g58
g51
NtRp4533
(dp4534
g54
(dp4535
g62
I2
ssg63
Nsg56
(lp4536
g49
(g65
g51
NtRp4537
(dp4538
g54
(dp4539
sg63
g4533
sg56
(lp4540
g49
(g70
g51
NtRp4541
(dp4542
g54
(dp4543
sg63
g4537
sg56
(lp4544
g49
(g50
g51
NtRp4545
(dp4546
g54
(dp4547
g62
I2
ssg63
g4541
sg56
(lp4548
S'email_login'
p4549
asbasbasbag49
(g65
g51
NtRp4550
(dp4551
g54
(dp4552
sg63
g4533
sg56
(lp4553
g49
(g70
g51
NtRp4554
(dp4555
g54
(dp4556
sg63
g4550
sg56
(lp4557
g49
(g50
g51
NtRp4558
(dp4559
g54
(dp4560
g62
I2
ssg63
g4554
sg56
(lp4561
S''
asbasbasbasbasbasbasbag49
(g65
g51
NtRp4562
(dp4563
g54
(dp4564
sg63
g4057
sg56
(lp4565
g49
(g70
g51
NtRp4566
(dp4567
g54
(dp4568
sg63
g4562
sg56
(lp4569
g49
(g50
g51
NtRp4570
(dp4571
g54
(dp4572
g62
I3
ssg63
g4566
sg56
(lp4573
g49
(g58
g51
NtRp4574
(dp4575
g54
(dp4576
g62
I2
ssg63
Nsg56
(lp4577
g49
(g65
g51
NtRp4578
(dp4579
g54
(dp4580
sg63
g4574
sg56
(lp4581
g49
(g70
g51
NtRp4582
(dp4583
g54
(dp4584
sg63
g4578
sg56
(lp4585
g49
(g50
g51
NtRp4586
(dp4587
g54
(dp4588
g62
I2
ssg63
g4582
sg56
(lp4589
S'login_method'
p4590
asbasbasbag49
(g65
g51
NtRp4591
(dp4592
g54
(dp4593
sg63
g4574
sg56
(lp4594
g49
(g70
g51
NtRp4595
(dp4596
g54
(dp4597
sg63
g4591
sg56
(lp4598
g49
(g50
g51
NtRp4599
(dp4600
g54
(dp4601
g62
I2
ssg63
g4595
sg56
(lp4602
S'local'
p4603
asbasbasbasbasbasbasbag49
(g65
g51
NtRp4604
(dp4605
g54
(dp4606
sg63
g4057
sg56
(lp4607
g49
(g70
g51
NtRp4608
(dp4609
g54
(dp4610
sg63
g4604
sg56
(lp4611
g49
(g50
g51
NtRp4612
(dp4613
g54
(dp4614
g62
I3
ssg63
g4608
sg56
(lp4615
g49
(g58
g51
NtRp4616
(dp4617
g54
(dp4618
g62
I2
ssg63
Nsg56
(lp4619
g49
(g65
g51
NtRp4620
(dp4621
g54
(dp4622
sg63
g4616
sg56
(lp4623
g49
(g70
g51
NtRp4624
(dp4625
g54
(dp4626
sg63
g4620
sg56
(lp4627
g49
(g50
g51
NtRp4628
(dp4629
g54
(dp4630
g62
I2
ssg63
g4624
sg56
(lp4631
S'login_config'
p4632
asbasbasbag49
(g65
g51
NtRp4633
(dp4634
g54
(dp4635
sg63
g4616
sg56
(lp4636
g49
(g70
g51
NtRp4637
(dp4638
g54
(dp4639
sg63
g4633
sg56
(lp4640
g49
(g50
g51
NtRp4641
(dp4642
g54
(dp4643
g62
I2
ssg63
g4637
sg56
(lp4644
S''
asbasbasbasbasbasbasbag49
(g65
g51
NtRp4645
(dp4646
g54
(dp4647
sg63
g4057
sg56
(lp4648
g49
(g70
g51
NtRp4649
(dp4650
g54
(dp4651
sg63
g4645
sg56
(lp4652
g49
(g50
g51
NtRp4653
(dp4654
g54
(dp4655
g62
I3
ssg63
g4649
sg56
(lp4656
g49
(g58
g51
NtRp4657
(dp4658
g54
(dp4659
g62
I2
ssg63
Nsg56
(lp4660
g49
(g65
g51
NtRp4661
(dp4662
g54
(dp4663
sg63
g4657
sg56
(lp4664
g49
(g70
g51
NtRp4665
(dp4666
g54
(dp4667
sg63
g4661
sg56
(lp4668
g49
(g50
g51
NtRp4669
(dp4670
g54
(dp4671
g62
I2
ssg63
g4665
sg56
(lp4672
S'plugins'
p4673
asbasbasbag49
(g65
g51
NtRp4674
(dp4675
g54
(dp4676
sg63
g4657
sg56
(lp4677
g49
(g70
g51
NtRp4678
(dp4679
g54
(dp4680
sg63
g4674
sg56
(lp4681
g49
(g50
g51
NtRp4682
(dp4683
g54
(dp4684
g62
I2
ssg63
g4678
sg56
(lp4685
g49
(g58
g51
NtRp4686
(dp4687
g54
(dp4688
g62
I1
ssg63
Nsg56
(lp4689
sbasbasbasbasbasbasbasbasbasbasbasbag49
(g65
g51
NtRp4690
(dp4691
g54
(dp4692
sg63
g3915
sg56
(lp4693
g49
(g70
g51
NtRp4694
(dp4695
g54
(dp4696
g74
g75
ssg63
g4690
sg56
(lp4697
S'table_auth_user'
p4698
asbag49
(g70
g51
NtRp4699
(dp4700
g54
(dp4701
g81
g82
ssg63
g4690
sg56
(lp4702
S':'
asbag49
(g70
g51
NtRp4703
(dp4704
g54
(dp4705
sg63
g4690
sg56
(lp4706
g49
(g50
g51
NtRp4707
(dp4708
g54
(dp4709
g62
I4
ssg63
g4703
sg56
(lp4710
g49
(g58
g51
NtRp4711
(dp4712
g54
(dp4713
g62
I3
ssg63
Nsg56
(lp4714
g49
(g65
g51
NtRp4715
(dp4716
g54
(dp4717
sg63
g4711
sg56
(lp4718
g49
(g70
g51
NtRp4719
(dp4720
g54
(dp4721
sg63
g4715
sg56
(lp4722
g49
(g50
g51
NtRp4723
(dp4724
g54
(dp4725
g62
I3
ssg63
g4719
sg56
(lp4726
S'username'
p4727
asbasbasbag49
(g65
g51
NtRp4728
(dp4729
g54
(dp4730
sg63
g4711
sg56
(lp4731
g49
(g70
g51
NtRp4732
(dp4733
g54
(dp4734
sg63
g4728
sg56
(lp4735
g49
(g50
g51
NtRp4736
(dp4737
g54
(dp4738
g62
I3
ssg63
g4732
sg56
(lp4739
S'first_name'
p4740
asbasbasbag49
(g65
g51
NtRp4741
(dp4742
g54
(dp4743
sg63
g4711
sg56
(lp4744
g49
(g70
g51
NtRp4745
(dp4746
g54
(dp4747
sg63
g4741
sg56
(lp4748
g49
(g50
g51
NtRp4749
(dp4750
g54
(dp4751
g62
I3
ssg63
g4745
sg56
(lp4752
S'last_name'
p4753
asbasbasbag49
(g65
g51
NtRp4754
(dp4755
g54
(dp4756
sg63
g4711
sg56
(lp4757
g49
(g70
g51
NtRp4758
(dp4759
g54
(dp4760
sg63
g4754
sg56
(lp4761
g49
(g50
g51
NtRp4762
(dp4763
g54
(dp4764
g62
I3
ssg63
g4758
sg56
(lp4765
S'email'
p4766
asbasbasbag49
(g65
g51
NtRp4767
(dp4768
g54
(dp4769
sg63
g4711
sg56
(lp4770
g49
(g70
g51
NtRp4771
(dp4772
g54
(dp4773
sg63
g4767
sg56
(lp4774
g49
(g50
g51
NtRp4775
(dp4776
g54
(dp4777
g62
I3
ssg63
g4771
sg56
(lp4778
S'password'
p4779
asbasbasbasbasbasbasbag49
(g65
g51
NtRp4780
(dp4781
g54
(dp4782
sg63
g3915
sg56
(lp4783
g49
(g70
g51
NtRp4784
(dp4785
g54
(dp4786
g74
g75
ssg63
g4780
sg56
(lp4787
S'tables'
p4788
asbag49
(g70
g51
NtRp4789
(dp4790
g54
(dp4791
g81
g82
ssg63
g4780
sg56
(lp4792
S':'
asbag49
(g70
g51
NtRp4793
(dp4794
g54
(dp4795
sg63
g4780
sg56
(lp4796
g49
(g50
g51
NtRp4797
(dp4798
g54
(dp4799
g62
I4
ssg63
g4793
sg56
(lp4800
g49
(g58
g51
NtRp4801
(dp4802
g54
(dp4803
g62
I3
ssg63
Nsg56
(lp4804
g49
(g65
g51
NtRp4805
(dp4806
g54
(dp4807
sg63
g4801
sg56
(lp4808
g49
(g70
g51
NtRp4809
(dp4810
g54
(dp4811
sg63
g4805
sg56
(lp4812
g49
(g50
g51
NtRp4813
(dp4814
g54
(dp4815
g62
I3
ssg63
g4809
sg56
(lp4816
S'auth_user'
p4817
asbasbasbasbasbasbasbasbasbasbasbag49
(g65
g51
NtRp4818
(dp4819
g54
(dp4820
sg63
g3890
sg56
(lp4821
g49
(g70
g51
NtRp4822
(dp4823
g54
(dp4824
g74
g75
ssg63
g4818
sg56
(lp4825
S'authorized'
p4826
asbag49
(g70
g51
NtRp4827
(dp4828
g54
(dp4829
g81
g82
ssg63
g4818
sg56
(lp4830
S':'
asbag49
(g70
g51
NtRp4831
(dp4832
g54
(dp4833
sg63
g4818
sg56
(lp4834
g49
(g50
g51
NtRp4835
(dp4836
g54
(dp4837
g62
I5
ssg63
g4831
sg56
(lp4838
g92
asbasbasbag49
(g65
g51
NtRp4839
(dp4840
g54
(dp4841
sg63
g3890
sg56
(lp4842
g49
(g70
g51
NtRp4843
(dp4844
g54
(dp4845
g74
g75
ssg63
g4839
sg56
(lp4846
S'check_version'
p4847
asbag49
(g70
g51
NtRp4848
(dp4849
g54
(dp4850
g81
g82
ssg63
g4839
sg56
(lp4851
S':'
asbag49
(g70
g51
NtRp4852
(dp4853
g54
(dp4854
sg63
g4839
sg56
(lp4855
g49
(g50
g51
NtRp4856
(dp4857
g54
(dp4858
g62
I5
ssg63
g4852
sg56
(lp4859
g1632
asbasbasbag49
(g65
g51
NtRp4860
(dp4861
g54
(dp4862
sg63
g3890
sg56
(lp4863
g49
(g70
g51
NtRp4864
(dp4865
g54
(dp4866
g74
g75
ssg63
g4860
sg56
(lp4867
S'commands:hellow'
p4868
asbag49
(g70
g51
NtRp4869
(dp4870
g54
(dp4871
g81
g82
ssg63
g4860
sg56
(lp4872
S':'
asbag49
(g70
g51
NtRp4873
(dp4874
g54
(dp4875
sg63
g4860
sg56
(lp4876
g49
(g50
g51
NtRp4877
(dp4878
g54
(dp4879
g62
I5
ssg63
g4873
sg56
(lp4880
g49
(g58
g51
NtRp4881
(dp4882
g54
(dp4883
g62
I4
ssg63
Nsg56
(lp4884
g49
(g65
g51
NtRp4885
(dp4886
g54
(dp4887
sg63
g4881
sg56
(lp4888
g49
(g70
g51
NtRp4889
(dp4890
g54
(dp4891
sg63
g4885
sg56
(lp4892
g49
(g50
g51
NtRp4893
(dp4894
g54
(dp4895
g62
I4
ssg63
g4889
sg56
(lp4896
S'x = db.slot(1)\n'
p4897
asbasbasbag49
(g65
g51
NtRp4898
(dp4899
g54
(dp4900
sg63
g4881
sg56
(lp4901
g49
(g70
g51
NtRp4902
(dp4903
g54
(dp4904
sg63
g4898
sg56
(lp4905
g49
(g50
g51
NtRp4906
(dp4907
g54
(dp4908
g62
I4
ssg63
g4902
sg56
(lp4909
g2893
asbasbasbasbasbasbasbag49
(g65
g51
NtRp4910
(dp4911
g54
(dp4912
sg63
g3890
sg56
(lp4913
g49
(g70
g51
NtRp4914
(dp4915
g54
(dp4916
g74
g75
ssg63
g4910
sg56
(lp4917
S'flash'
p4918
asbag49
(g70
g51
NtRp4919
(dp4920
g54
(dp4921
g81
g82
ssg63
g4910
sg56
(lp4922
S':'
asbag49
(g70
g51
NtRp4923
(dp4924
g54
(dp4925
sg63
g4910
sg56
(lp4926
g49
(g50
g51
NtRp4927
(dp4928
g54
(dp4929
g62
I5
ssg63
g4923
sg56
(lp4930
S'None'
p4931
asbasbasbag49
(g65
g51
NtRp4932
(dp4933
g54
(dp4934
sg63
g3890
sg56
(lp4935
g49
(g70
g51
NtRp4936
(dp4937
g54
(dp4938
g74
g75
ssg63
g4932
sg56
(lp4939
S'history:hellow'
p4940
asbag49
(g70
g51
NtRp4941
(dp4942
g54
(dp4943
g81
g82
ssg63
g4932
sg56
(lp4944
S':'
asbag49
(g70
g51
NtRp4945
(dp4946
g54
(dp4947
sg63
g4932
sg56
(lp4948
g49
(g50
g51
NtRp4949
(dp4950
g54
(dp4951
g62
I5
ssg63
g4945
sg56
(lp4952
S'<gluon.contrib.shell.History instance at 0xb4bb788>'
p4953
asbasbasbag49
(g65
g51
NtRp4954
(dp4955
g54
(dp4956
sg63
g3890
sg56
(lp4957
g49
(g70
g51
NtRp4958
(dp4959
g54
(dp4960
g74
g75
ssg63
g4954
sg56
(lp4961
S'is_mobile'
p4962
asbag49
(g70
g51
NtRp4963
(dp4964
g54
(dp4965
g81
g82
ssg63
g4954
sg56
(lp4966
S':'
asbag49
(g70
g51
NtRp4967
(dp4968
g54
(dp4969
sg63
g4954
sg56
(lp4970
g49
(g50
g51
NtRp4971
(dp4972
g54
(dp4973
g62
I5
ssg63
g4967
sg56
(lp4974
S'auto'
p4975
asbasbasbag49
(g65
g51
NtRp4976
(dp4977
g54
(dp4978
sg63
g3890
sg56
(lp4979
g49
(g70
g51
NtRp4980
(dp4981
g54
(dp4982
g74
g75
ssg63
g4976
sg56
(lp4983
S'last_time'
p4984
asbag49
(g70
g51
NtRp4985
(dp4986
g54
(dp4987
g81
g82
ssg63
g4976
sg56
(lp4988
S':'
asbag49
(g70
g51
NtRp4989
(dp4990
g54
(dp4991
sg63
g4976
sg56
(lp4992
g49
(g50
g51
NtRp4993
(dp4994
g54
(dp4995
g62
I5
ssg63
g4989
sg56
(lp4996
S'1364239818.1571009'
p4997
asbasbasbag49
(g65
g51
NtRp4998
(dp4999
g54
(dp5000
sg63
g3890
sg56
(lp5001
g49
(g70
g51
NtRp5002
(dp5003
g54
(dp5004
g74
g75
ssg63
g4998
sg56
(lp5005
S'pam_user'
p5006
asbag49
(g70
g51
NtRp5007
(dp5008
g54
(dp5009
g81
g82
ssg63
g4998
sg56
(lp5010
S':'
asbag49
(g70
g51
NtRp5011
(dp5012
g54
(dp5013
sg63
g4998
sg56
(lp5014
g49
(g50
g51
NtRp5015
(dp5016
g54
(dp5017
g62
I5
ssg63
g5011
sg56
(lp5018
S'None'
p5019
asbasbasbag49
(g65
g51
NtRp5020
(dp5021
g54
(dp5022
sg63
g3890
sg56
(lp5023
g49
(g70
g51
NtRp5024
(dp5025
g54
(dp5026
g74
g75
ssg63
g5020
sg56
(lp5027
S'plugins'
p5028
asbag49
(g70
g51
NtRp5029
(dp5030
g54
(dp5031
g81
g82
ssg63
g5020
sg56
(lp5032
S':'
asbag49
(g70
g51
NtRp5033
(dp5034
g54
(dp5035
sg63
g5020
sg56
(lp5036
g49
(g50
g51
NtRp5037
(dp5038
g54
(dp5039
g62
I5
ssg63
g5033
sg56
(lp5040
g49
(g58
g51
NtRp5041
(dp5042
g54
(dp5043
g62
I4
ssg63
Nsg56
(lp5044
g49
(g65
g51
NtRp5045
(dp5046
g54
(dp5047
sg63
g5041
sg56
(lp5048
g49
(g70
g51
NtRp5049
(dp5050
g54
(dp5051
sg63
g5045
sg56
(lp5052
g49
(g50
g51
NtRp5053
(dp5054
g54
(dp5055
g62
I4
ssg63
g5049
sg56
(lp5056
S'web2py.plugin.attachments.w2p'
p5057
asbasbasbag49
(g65
g51
NtRp5058
(dp5059
g54
(dp5060
sg63
g5041
sg56
(lp5061
g49
(g70
g51
NtRp5062
(dp5063
g54
(dp5064
sg63
g5058
sg56
(lp5065
g49
(g50
g51
NtRp5066
(dp5067
g54
(dp5068
g62
I4
ssg63
g5062
sg56
(lp5069
S'web2py.plugin.datatable.w2p'
p5070
asbasbasbag49
(g65
g51
NtRp5071
(dp5072
g54
(dp5073
sg63
g5041
sg56
(lp5074
g49
(g70
g51
NtRp5075
(dp5076
g54
(dp5077
sg63
g5071
sg56
(lp5078
g49
(g50
g51
NtRp5079
(dp5080
g54
(dp5081
g62
I4
ssg63
g5075
sg56
(lp5082
S'web2py.plugin.dropdown.w2p'
p5083
asbasbasbag49
(g65
g51
NtRp5084
(dp5085
g54
(dp5086
sg63
g5041
sg56
(lp5087
g49
(g70
g51
NtRp5088
(dp5089
g54
(dp5090
sg63
g5084
sg56
(lp5091
g49
(g50
g51
NtRp5092
(dp5093
g54
(dp5094
g62
I4
ssg63
g5088
sg56
(lp5095
S'web2py.plugin.wiki.w2p'
p5096
asbasbasbag49
(g65
g51
NtRp5097
(dp5098
g54
(dp5099
sg63
g5041
sg56
(lp5100
g49
(g70
g51
NtRp5101
(dp5102
g54
(dp5103
sg63
g5097
sg56
(lp5104
g49
(g50
g51
NtRp5105
(dp5106
g54
(dp5107
g62
I4
ssg63
g5101
sg56
(lp5108
S'web2py.plugin.comments.w2p'
p5109
asbasbasbag49
(g65
g51
NtRp5110
(dp5111
g54
(dp5112
sg63
g5041
sg56
(lp5113
g49
(g70
g51
NtRp5114
(dp5115
g54
(dp5116
sg63
g5110
sg56
(lp5117
g49
(g50
g51
NtRp5118
(dp5119
g54
(dp5120
g62
I4
ssg63
g5114
sg56
(lp5121
S'web2py.plugin.locking.w2p'
p5122
asbasbasbag49
(g65
g51
NtRp5123
(dp5124
g54
(dp5125
sg63
g5041
sg56
(lp5126
g49
(g70
g51
NtRp5127
(dp5128
g54
(dp5129
sg63
g5123
sg56
(lp5130
g49
(g50
g51
NtRp5131
(dp5132
g54
(dp5133
g62
I4
ssg63
g5127
sg56
(lp5134
S'web2py.plugin.mmodal.w2p'
p5135
asbasbasbag49
(g65
g51
NtRp5136
(dp5137
g54
(dp5138
sg63
g5041
sg56
(lp5139
g49
(g70
g51
NtRp5140
(dp5141
g54
(dp5142
sg63
g5136
sg56
(lp5143
g49
(g50
g51
NtRp5144
(dp5145
g54
(dp5146
g62
I4
ssg63
g5140
sg56
(lp5147
S'web2py.plugin.jqmobile.w2p'
p5148
asbasbasbag49
(g65
g51
NtRp5149
(dp5150
g54
(dp5151
sg63
g5041
sg56
(lp5152
g49
(g70
g51
NtRp5153
(dp5154
g54
(dp5155
sg63
g5149
sg56
(lp5156
g49
(g50
g51
NtRp5157
(dp5158
g54
(dp5159
g62
I4
ssg63
g5153
sg56
(lp5160
S'web2py.plugin.google_checkout.w2p'
p5161
asbasbasbag49
(g65
g51
NtRp5162
(dp5163
g54
(dp5164
sg63
g5041
sg56
(lp5165
g49
(g70
g51
NtRp5166
(dp5167
g54
(dp5168
sg63
g5162
sg56
(lp5169
g49
(g50
g51
NtRp5170
(dp5171
g54
(dp5172
g62
I4
ssg63
g5166
sg56
(lp5173
S'web2py.plugin.tagging.w2p'
p5174
asbasbasbag49
(g65
g51
NtRp5175
(dp5176
g54
(dp5177
sg63
g5041
sg56
(lp5178
g49
(g70
g51
NtRp5179
(dp5180
g54
(dp5181
sg63
g5175
sg56
(lp5182
g49
(g50
g51
NtRp5183
(dp5184
g54
(dp5185
g62
I4
ssg63
g5179
sg56
(lp5186
S'web2py.plugin.mediaplayer.w2p'
p5187
asbasbasbag49
(g65
g51
NtRp5188
(dp5189
g54
(dp5190
sg63
g5041
sg56
(lp5191
g49
(g70
g51
NtRp5192
(dp5193
g54
(dp5194
sg63
g5188
sg56
(lp5195
g49
(g50
g51
NtRp5196
(dp5197
g54
(dp5198
g62
I4
ssg63
g5192
sg56
(lp5199
S'web2py.plugin.latex.w2p'
p5200
asbasbasbag49
(g65
g51
NtRp5201
(dp5202
g54
(dp5203
sg63
g5041
sg56
(lp5204
g49
(g70
g51
NtRp5205
(dp5206
g54
(dp5207
sg63
g5201
sg56
(lp5208
g49
(g50
g51
NtRp5209
(dp5210
g54
(dp5211
g62
I4
ssg63
g5205
sg56
(lp5212
S'web2py.plugin.clickatell.w2p'
p5213
asbasbasbag49
(g65
g51
NtRp5214
(dp5215
g54
(dp5216
sg63
g5041
sg56
(lp5217
g49
(g70
g51
NtRp5218
(dp5219
g54
(dp5220
sg63
g5214
sg56
(lp5221
g49
(g50
g51
NtRp5222
(dp5223
g54
(dp5224
g62
I4
ssg63
g5218
sg56
(lp5225
S'web2py.plugin.matplotlib.w2p'
p5226
asbasbasbag49
(g65
g51
NtRp5227
(dp5228
g54
(dp5229
sg63
g5041
sg56
(lp5230
g49
(g70
g51
NtRp5231
(dp5232
g54
(dp5233
sg63
g5227
sg56
(lp5234
g49
(g50
g51
NtRp5235
(dp5236
g54
(dp5237
g62
I4
ssg63
g5231
sg56
(lp5238
S'web2py.plugin.simple_comments.w2p'
p5239
asbasbasbag49
(g65
g51
NtRp5240
(dp5241
g54
(dp5242
sg63
g5041
sg56
(lp5243
g49
(g70
g51
NtRp5244
(dp5245
g54
(dp5246
sg63
g5240
sg56
(lp5247
g49
(g50
g51
NtRp5248
(dp5249
g54
(dp5250
g62
I4
ssg63
g5244
sg56
(lp5251
S'web2py.plugin.rating.w2p'
p5252
asbasbasbag49
(g65
g51
NtRp5253
(dp5254
g54
(dp5255
sg63
g5041
sg56
(lp5256
g49
(g70
g51
NtRp5257
(dp5258
g54
(dp5259
sg63
g5253
sg56
(lp5260
g49
(g50
g51
NtRp5261
(dp5262
g54
(dp5263
g62
I4
ssg63
g5257
sg56
(lp5264
S'web2py.plugin.utils.w2p'
p5265
asbasbasbag49
(g65
g51
NtRp5266
(dp5267
g54
(dp5268
sg63
g5041
sg56
(lp5269
g49
(g70
g51
NtRp5270
(dp5271
g54
(dp5272
sg63
g5266
sg56
(lp5273
g49
(g50
g51
NtRp5274
(dp5275
g54
(dp5276
g62
I4
ssg63
g5270
sg56
(lp5277
S'web2py.plugin.gmap.w2p'
p5278
asbasbasbag49
(g65
g51
NtRp5279
(dp5280
g54
(dp5281
sg63
g5041
sg56
(lp5282
g49
(g70
g51
NtRp5283
(dp5284
g54
(dp5285
sg63
g5279
sg56
(lp5286
g49
(g50
g51
NtRp5287
(dp5288
g54
(dp5289
g62
I4
ssg63
g5283
sg56
(lp5290
S'web2py.plugin.markitup.w2p'
p5291
asbasbasbag49
(g65
g51
NtRp5292
(dp5293
g54
(dp5294
sg63
g5041
sg56
(lp5295
g49
(g70
g51
NtRp5296
(dp5297
g54
(dp5298
sg63
g5292
sg56
(lp5299
g49
(g50
g51
NtRp5300
(dp5301
g54
(dp5302
g62
I4
ssg63
g5296
sg56
(lp5303
S'web2py.plugin.jqgrid.w2p'
p5304
asbasbasbag49
(g65
g51
NtRp5305
(dp5306
g54
(dp5307
sg63
g5041
sg56
(lp5308
g49
(g70
g51
NtRp5309
(dp5310
g54
(dp5311
sg63
g5305
sg56
(lp5312
g49
(g50
g51
NtRp5313
(dp5314
g54
(dp5315
g62
I4
ssg63
g5309
sg56
(lp5316
S'web2py.plugin.multiselect.w2p'
p5317
asbasbasbag49
(g65
g51
NtRp5318
(dp5319
g54
(dp5320
sg63
g5041
sg56
(lp5321
g49
(g70
g51
NtRp5322
(dp5323
g54
(dp5324
sg63
g5318
sg56
(lp5325
g49
(g50
g51
NtRp5326
(dp5327
g54
(dp5328
g62
I4
ssg63
g5322
sg56
(lp5329
S'web2py.plugin.translate.w2p'
p5330
asbasbasbag49
(g65
g51
NtRp5331
(dp5332
g54
(dp5333
sg63
g5041
sg56
(lp5334
g49
(g70
g51
NtRp5335
(dp5336
g54
(dp5337
sg63
g5331
sg56
(lp5338
g49
(g50
g51
NtRp5339
(dp5340
g54
(dp5341
g62
I4
ssg63
g5335
sg56
(lp5342
S'web2py.plugin.sortable.w2p'
p5343
asbasbasbasbasbasbasbag49
(g65
g51
NtRp5344
(dp5345
g54
(dp5346
sg63
g3890
sg56
(lp5347
g49
(g70
g51
NtRp5348
(dp5349
g54
(dp5350
g74
g75
ssg63
g5344
sg56
(lp5351
S'themes'
p5352
asbag49
(g70
g51
NtRp5353
(dp5354
g54
(dp5355
g81
g82
ssg63
g5344
sg56
(lp5356
S':'
asbag49
(g70
g51
NtRp5357
(dp5358
g54
(dp5359
sg63
g5344
sg56
(lp5360
g49
(g50
g51
NtRp5361
(dp5362
g54
(dp5363
g62
I5
ssg63
g5357
sg56
(lp5364
g49
(g58
g51
NtRp5365
(dp5366
g54
(dp5367
g62
I4
ssg63
Nsg56
(lp5368
g49
(g65
g51
NtRp5369
(dp5370
g54
(dp5371
sg63
g5365
sg56
(lp5372
g49
(g70
g51
NtRp5373
(dp5374
g54
(dp5375
sg63
g5369
sg56
(lp5376
g49
(g50
g51
NtRp5377
(dp5378
g54
(dp5379
g62
I4
ssg63
g5373
sg56
(lp5380
S'Default'
p5381
asbasbasbag49
(g65
g51
NtRp5382
(dp5383
g54
(dp5384
sg63
g5365
sg56
(lp5385
g49
(g70
g51
NtRp5386
(dp5387
g54
(dp5388
sg63
g5382
sg56
(lp5389
g49
(g50
g51
NtRp5390
(dp5391
g54
(dp5392
g62
I4
ssg63
g5386
sg56
(lp5393
S'Customize'
p5394
asbasbasbag49
(g65
g51
NtRp5395
(dp5396
g54
(dp5397
sg63
g5365
sg56
(lp5398
g49
(g70
g51
NtRp5399
(dp5400
g54
(dp5401
sg63
g5395
sg56
(lp5402
g49
(g50
g51
NtRp5403
(dp5404
g54
(dp5405
g62
I4
ssg63
g5399
sg56
(lp5406
S'OrangeandBlack'
p5407
asbasbasbag49
(g65
g51
NtRp5408
(dp5409
g54
(dp5410
sg63
g5365
sg56
(lp5411
g49
(g70
g51
NtRp5412
(dp5413
g54
(dp5414
sg63
g5408
sg56
(lp5415
g49
(g50
g51
NtRp5416
(dp5417
g54
(dp5418
g62
I4
ssg63
g5412
sg56
(lp5419
S'solutiongreen'
p5420
asbasbasbag49
(g65
g51
NtRp5421
(dp5422
g54
(dp5423
sg63
g5365
sg56
(lp5424
g49
(g70
g51
NtRp5425
(dp5426
g54
(dp5427
sg63
g5421
sg56
(lp5428
g49
(g50
g51
NtRp5429
(dp5430
g54
(dp5431
g62
I4
ssg63
g5425
sg56
(lp5432
S'FreshLight'
p5433
asbasbasbag49
(g65
g51
NtRp5434
(dp5435
g54
(dp5436
sg63
g5365
sg56
(lp5437
g49
(g70
g51
NtRp5438
(dp5439
g54
(dp5440
sg63
g5434
sg56
(lp5441
g49
(g50
g51
NtRp5442
(dp5443
g54
(dp5444
g62
I4
ssg63
g5438
sg56
(lp5445
S'StickyBud'
p5446
asbasbasbag49
(g65
g51
NtRp5447
(dp5448
g54
(dp5449
sg63
g5365
sg56
(lp5450
g49
(g70
g51
NtRp5451
(dp5452
g54
(dp5453
sg63
g5447
sg56
(lp5454
g49
(g50
g51
NtRp5455
(dp5456
g54
(dp5457
g62
I4
ssg63
g5451
sg56
(lp5458
S'orangeflower'
p5459
asbasbasbag49
(g65
g51
NtRp5460
(dp5461
g54
(dp5462
sg63
g5365
sg56
(lp5463
g49
(g70
g51
NtRp5464
(dp5465
g54
(dp5466
sg63
g5460
sg56
(lp5467
g49
(g50
g51
NtRp5468
(dp5469
g54
(dp5470
g62
I4
ssg63
g5464
sg56
(lp5471
S'Interlude'
p5472
asbasbasbag49
(g65
g51
NtRp5473
(dp5474
g54
(dp5475
sg63
g5365
sg56
(lp5476
g49
(g70
g51
NtRp5477
(dp5478
g54
(dp5479
sg63
g5473
sg56
(lp5480
g49
(g50
g51
NtRp5481
(dp5482
g54
(dp5483
g62
I4
ssg63
g5477
sg56
(lp5484
S'Industrial'
p5485
asbasbasbag49
(g65
g51
NtRp5486
(dp5487
g54
(dp5488
sg63
g5365
sg56
(lp5489
g49
(g70
g51
NtRp5490
(dp5491
g54
(dp5492
sg63
g5486
sg56
(lp5493
g49
(g50
g51
NtRp5494
(dp5495
g54
(dp5496
g62
I4
ssg63
g5490
sg56
(lp5497
S'GreenandPlain'
p5498
asbasbasbag49
(g65
g51
NtRp5499
(dp5500
g54
(dp5501
sg63
g5365
sg56
(lp5502
g49
(g70
g51
NtRp5503
(dp5504
g54
(dp5505
sg63
g5499
sg56
(lp5506
g49
(g50
g51
NtRp5507
(dp5508
g54
(dp5509
g62
I4
ssg63
g5503
sg56
(lp5510
S'FunRide'
p5511
asbasbasbag49
(g65
g51
NtRp5512
(dp5513
g54
(dp5514
sg63
g5365
sg56
(lp5515
g49
(g70
g51
NtRp5516
(dp5517
g54
(dp5518
sg63
g5512
sg56
(lp5519
g49
(g50
g51
NtRp5520
(dp5521
g54
(dp5522
g62
I4
ssg63
g5516
sg56
(lp5523
S'CorporateOffice'
p5524
asbasbasbag49
(g65
g51
NtRp5525
(dp5526
g54
(dp5527
sg63
g5365
sg56
(lp5528
g49
(g70
g51
NtRp5529
(dp5530
g54
(dp5531
sg63
g5525
sg56
(lp5532
g49
(g50
g51
NtRp5533
(dp5534
g54
(dp5535
g62
I4
ssg63
g5529
sg56
(lp5536
S'BlogSmith'
p5537
asbasbasbag49
(g65
g51
NtRp5538
(dp5539
g54
(dp5540
sg63
g5365
sg56
(lp5541
g49
(g70
g51
NtRp5542
(dp5543
g54
(dp5544
sg63
g5538
sg56
(lp5545
g49
(g50
g51
NtRp5546
(dp5547
g54
(dp5548
g62
I4
ssg63
g5542
sg56
(lp5549
S'Hibiscus'
p5550
asbasbasbag49
(g65
g51
NtRp5551
(dp5552
g54
(dp5553
sg63
g5365
sg56
(lp5554
g49
(g70
g51
NtRp5555
(dp5556
g54
(dp5557
sg63
g5551
sg56
(lp5558
g49
(g50
g51
NtRp5559
(dp5560
g54
(dp5561
g62
I4
ssg63
g5555
sg56
(lp5562
S'VioletRay'
p5563
asbasbasbag49
(g65
g51
NtRp5564
(dp5565
g54
(dp5566
sg63
g5365
sg56
(lp5567
g49
(g70
g51
NtRp5568
(dp5569
g54
(dp5570
sg63
g5564
sg56
(lp5571
g49
(g50
g51
NtRp5572
(dp5573
g54
(dp5574
g62
I4
ssg63
g5568
sg56
(lp5575
S'Chasmogamous'
p5576
asbasbasbag49
(g65
g51
NtRp5577
(dp5578
g54
(dp5579
sg63
g5365
sg56
(lp5580
g49
(g70
g51
NtRp5581
(dp5582
g54
(dp5583
sg63
g5577
sg56
(lp5584
g49
(g50
g51
NtRp5585
(dp5586
g54
(dp5587
g62
I4
ssg63
g5581
sg56
(lp5588
S'Uncomplicated'
p5589
asbasbasbag49
(g65
g51
NtRp5590
(dp5591
g54
(dp5592
sg63
g5365
sg56
(lp5593
g49
(g70
g51
NtRp5594
(dp5595
g54
(dp5596
sg63
g5590
sg56
(lp5597
g49
(g50
g51
NtRp5598
(dp5599
g54
(dp5600
g62
I4
ssg63
g5594
sg56
(lp5601
S'RoundHouse'
p5602
asbasbasbag49
(g65
g51
NtRp5603
(dp5604
g54
(dp5605
sg63
g5365
sg56
(lp5606
g49
(g70
g51
NtRp5607
(dp5608
g54
(dp5609
sg63
g5603
sg56
(lp5610
g49
(g50
g51
NtRp5611
(dp5612
g54
(dp5613
g62
I4
ssg63
g5607
sg56
(lp5614
S'CupofCoffee'
p5615
asbasbasbag49
(g65
g51
NtRp5616
(dp5617
g54
(dp5618
sg63
g5365
sg56
(lp5619
g49
(g70
g51
NtRp5620
(dp5621
g54
(dp5622
sg63
g5616
sg56
(lp5623
g49
(g50
g51
NtRp5624
(dp5625
g54
(dp5626
g62
I4
ssg63
g5620
sg56
(lp5627
S'Transient'
p5628
asbasbasbag49
(g65
g51
NtRp5629
(dp5630
g54
(dp5631
sg63
g5365
sg56
(lp5632
g49
(g70
g51
NtRp5633
(dp5634
g54
(dp5635
sg63
g5629
sg56
(lp5636
g49
(g50
g51
NtRp5637
(dp5638
g54
(dp5639
g62
I4
ssg63
g5633
sg56
(lp5640
S'Flourish'
p5641
asbasbasbag49
(g65
g51
NtRp5642
(dp5643
g54
(dp5644
sg63
g5365
sg56
(lp5645
g49
(g70
g51
NtRp5646
(dp5647
g54
(dp5648
sg63
g5642
sg56
(lp5649
g49
(g50
g51
NtRp5650
(dp5651
g54
(dp5652
g62
I4
ssg63
g5646
sg56
(lp5653
S'Astroturfd'
p5654
asbasbasbag49
(g65
g51
NtRp5655
(dp5656
g54
(dp5657
sg63
g5365
sg56
(lp5658
g49
(g70
g51
NtRp5659
(dp5660
g54
(dp5661
sg63
g5655
sg56
(lp5662
g49
(g50
g51
NtRp5663
(dp5664
g54
(dp5665
g62
I4
ssg63
g5659
sg56
(lp5666
S'EfflorescenceGreen'
p5667
asbasbasbag49
(g65
g51
NtRp5668
(dp5669
g54
(dp5670
sg63
g5365
sg56
(lp5671
g49
(g70
g51
NtRp5672
(dp5673
g54
(dp5674
sg63
g5668
sg56
(lp5675
g49
(g50
g51
NtRp5676
(dp5677
g54
(dp5678
g62
I4
ssg63
g5672
sg56
(lp5679
S'Instant'
p5680
asbasbasbag49
(g65
g51
NtRp5681
(dp5682
g54
(dp5683
sg63
g5365
sg56
(lp5684
g49
(g70
g51
NtRp5685
(dp5686
g54
(dp5687
sg63
g5681
sg56
(lp5688
g49
(g50
g51
NtRp5689
(dp5690
g54
(dp5691
g62
I4
ssg63
g5685
sg56
(lp5692
S'solutionblue'
p5693
asbasbasbag49
(g65
g51
NtRp5694
(dp5695
g54
(dp5696
sg63
g5365
sg56
(lp5697
g49
(g70
g51
NtRp5698
(dp5699
g54
(dp5700
sg63
g5694
sg56
(lp5701
g49
(g50
g51
NtRp5702
(dp5703
g54
(dp5704
g62
I4
ssg63
g5698
sg56
(lp5705
S'Balanced'
p5706
asbasbasbag49
(g65
g51
NtRp5707
(dp5708
g54
(dp5709
sg63
g5365
sg56
(lp5710
g49
(g70
g51
NtRp5711
(dp5712
g54
(dp5713
sg63
g5707
sg56
(lp5714
g49
(g50
g51
NtRp5715
(dp5716
g54
(dp5717
g62
I4
ssg63
g5711
sg56
(lp5718
S'RedCity'
p5719
asbasbasbag49
(g65
g51
NtRp5720
(dp5721
g54
(dp5722
sg63
g5365
sg56
(lp5723
g49
(g70
g51
NtRp5724
(dp5725
g54
(dp5726
sg63
g5720
sg56
(lp5727
g49
(g50
g51
NtRp5728
(dp5729
g54
(dp5730
g62
I4
ssg63
g5724
sg56
(lp5731
S'Stardust'
p5732
asbasbasbag49
(g65
g51
NtRp5733
(dp5734
g54
(dp5735
sg63
g5365
sg56
(lp5736
g49
(g70
g51
NtRp5737
(dp5738
g54
(dp5739
sg63
g5733
sg56
(lp5740
g49
(g50
g51
NtRp5741
(dp5742
g54
(dp5743
g62
I4
ssg63
g5737
sg56
(lp5744
S'EfflorescenceBlue'
p5745
asbasbasbag49
(g65
g51
NtRp5746
(dp5747
g54
(dp5748
sg63
g5365
sg56
(lp5749
g49
(g70
g51
NtRp5750
(dp5751
g54
(dp5752
sg63
g5746
sg56
(lp5753
g49
(g50
g51
NtRp5754
(dp5755
g54
(dp5756
g62
I4
ssg63
g5750
sg56
(lp5757
S'FlashyWeb'
p5758
asbasbasbag49
(g65
g51
NtRp5759
(dp5760
g54
(dp5761
sg63
g5365
sg56
(lp5762
g49
(g70
g51
NtRp5763
(dp5764
g54
(dp5765
sg63
g5759
sg56
(lp5766
g49
(g50
g51
NtRp5767
(dp5768
g54
(dp5769
g62
I4
ssg63
g5763
sg56
(lp5770
S'Spaced'
p5771
asbasbasbag49
(g65
g51
NtRp5772
(dp5773
g54
(dp5774
sg63
g5365
sg56
(lp5775
g49
(g70
g51
NtRp5776
(dp5777
g54
(dp5778
sg63
g5772
sg56
(lp5779
g49
(g50
g51
NtRp5780
(dp5781
g54
(dp5782
g62
I4
ssg63
g5776
sg56
(lp5783
S'EfflorescencePurple'
p5784
asbasbasbag49
(g65
g51
NtRp5785
(dp5786
g54
(dp5787
sg63
g5365
sg56
(lp5788
g49
(g70
g51
NtRp5789
(dp5790
g54
(dp5791
sg63
g5785
sg56
(lp5792
g49
(g50
g51
NtRp5793
(dp5794
g54
(dp5795
g62
I4
ssg63
g5789
sg56
(lp5796
S'TheMissingPiece'
p5797
asbasbasbag49
(g65
g51
NtRp5798
(dp5799
g54
(dp5800
sg63
g5365
sg56
(lp5801
g49
(g70
g51
NtRp5802
(dp5803
g54
(dp5804
sg63
g5798
sg56
(lp5805
g49
(g50
g51
NtRp5806
(dp5807
g54
(dp5808
g62
I4
ssg63
g5802
sg56
(lp5809
S'PremiumSeries'
p5810
asbasbasbag49
(g65
g51
NtRp5811
(dp5812
g54
(dp5813
sg63
g5365
sg56
(lp5814
g49
(g70
g51
NtRp5815
(dp5816
g54
(dp5817
sg63
g5811
sg56
(lp5818
g49
(g50
g51
NtRp5819
(dp5820
g54
(dp5821
g62
I4
ssg63
g5815
sg56
(lp5822
S'Abrasive'
p5823
asbasbasbag49
(g65
g51
NtRp5824
(dp5825
g54
(dp5826
sg63
g5365
sg56
(lp5827
g49
(g70
g51
NtRp5828
(dp5829
g54
(dp5830
sg63
g5824
sg56
(lp5831
g49
(g50
g51
NtRp5832
(dp5833
g54
(dp5834
g62
I4
ssg63
g5828
sg56
(lp5835
S'Simpletex'
p5836
asbasbasbag49
(g65
g51
NtRp5837
(dp5838
g54
(dp5839
sg63
g5365
sg56
(lp5840
g49
(g70
g51
NtRp5841
(dp5842
g54
(dp5843
sg63
g5837
sg56
(lp5844
g49
(g50
g51
NtRp5845
(dp5846
g54
(dp5847
g62
I4
ssg63
g5841
sg56
(lp5848
S'PinkFloat'
p5849
asbasbasbag49
(g65
g51
NtRp5850
(dp5851
g54
(dp5852
sg63
g5365
sg56
(lp5853
g49
(g70
g51
NtRp5854
(dp5855
g54
(dp5856
sg63
g5850
sg56
(lp5857
g49
(g50
g51
NtRp5858
(dp5859
g54
(dp5860
g62
I4
ssg63
g5854
sg56
(lp5861
S'FCTHarvest'
p5862
asbasbasbag49
(g65
g51
NtRp5863
(dp5864
g54
(dp5865
sg63
g5365
sg56
(lp5866
g49
(g70
g51
NtRp5867
(dp5868
g54
(dp5869
sg63
g5863
sg56
(lp5870
g49
(g50
g51
NtRp5871
(dp5872
g54
(dp5873
g62
I4
ssg63
g5867
sg56
(lp5874
S'Bounderies'
p5875
asbasbasbag49
(g65
g51
NtRp5876
(dp5877
g54
(dp5878
sg63
g5365
sg56
(lp5879
g49
(g70
g51
NtRp5880
(dp5881
g54
(dp5882
sg63
g5876
sg56
(lp5883
g49
(g50
g51
NtRp5884
(dp5885
g54
(dp5886
g62
I4
ssg63
g5880
sg56
(lp5887
S'BackgroundBlue'
p5888
asbasbasbag49
(g65
g51
NtRp5889
(dp5890
g54
(dp5891
sg63
g5365
sg56
(lp5892
g49
(g70
g51
NtRp5893
(dp5894
g54
(dp5895
sg63
g5889
sg56
(lp5896
g49
(g50
g51
NtRp5897
(dp5898
g54
(dp5899
g62
I4
ssg63
g5893
sg56
(lp5900
S'Tastelessly'
p5901
asbasbasbag49
(g65
g51
NtRp5902
(dp5903
g54
(dp5904
sg63
g5365
sg56
(lp5905
g49
(g70
g51
NtRp5906
(dp5907
g54
(dp5908
sg63
g5902
sg56
(lp5909
g49
(g50
g51
NtRp5910
(dp5911
g54
(dp5912
g62
I4
ssg63
g5906
sg56
(lp5913
S'Settings'
p5914
asbasbasbag49
(g65
g51
NtRp5915
(dp5916
g54
(dp5917
sg63
g5365
sg56
(lp5918
g49
(g70
g51
NtRp5919
(dp5920
g54
(dp5921
sg63
g5915
sg56
(lp5922
g49
(g50
g51
NtRp5923
(dp5924
g54
(dp5925
g62
I4
ssg63
g5919
sg56
(lp5926
S'Colorus'
p5927
asbasbasbag49
(g65
g51
NtRp5928
(dp5929
g54
(dp5930
sg63
g5365
sg56
(lp5931
g49
(g70
g51
NtRp5932
(dp5933
g54
(dp5934
sg63
g5928
sg56
(lp5935
g49
(g50
g51
NtRp5936
(dp5937
g54
(dp5938
g62
I4
ssg63
g5932
sg56
(lp5939
S'BackgroundGreen'
p5940
asbasbasbag49
(g65
g51
NtRp5941
(dp5942
g54
(dp5943
sg63
g5365
sg56
(lp5944
g49
(g70
g51
NtRp5945
(dp5946
g54
(dp5947
sg63
g5941
sg56
(lp5948
g49
(g50
g51
NtRp5949
(dp5950
g54
(dp5951
g62
I4
ssg63
g5945
sg56
(lp5952
S'TheIsland'
p5953
asbasbasbag49
(g65
g51
NtRp5954
(dp5955
g54
(dp5956
sg63
g5365
sg56
(lp5957
g49
(g70
g51
NtRp5958
(dp5959
g54
(dp5960
sg63
g5954
sg56
(lp5961
g49
(g50
g51
NtRp5962
(dp5963
g54
(dp5964
g62
I4
ssg63
g5958
sg56
(lp5965
S'TinyBlue'
p5966
asbasbasbag49
(g65
g51
NtRp5967
(dp5968
g54
(dp5969
sg63
g5365
sg56
(lp5970
g49
(g70
g51
NtRp5971
(dp5972
g54
(dp5973
sg63
g5967
sg56
(lp5974
g49
(g50
g51
NtRp5975
(dp5976
g54
(dp5977
g62
I4
ssg63
g5971
sg56
(lp5978
S'hexahedron'
p5979
asbasbasbag49
(g65
g51
NtRp5980
(dp5981
g54
(dp5982
sg63
g5365
sg56
(lp5983
g49
(g70
g51
NtRp5984
(dp5985
g54
(dp5986
sg63
g5980
sg56
(lp5987
g49
(g50
g51
NtRp5988
(dp5989
g54
(dp5990
g62
I4
ssg63
g5984
sg56
(lp5991
S'PetCharms'
p5992
asbasbasbag49
(g65
g51
NtRp5993
(dp5994
g54
(dp5995
sg63
g5365
sg56
(lp5996
g49
(g70
g51
NtRp5997
(dp5998
g54
(dp5999
sg63
g5993
sg56
(lp6000
g49
(g50
g51
NtRp6001
(dp6002
g54
(dp6003
g62
I4
ssg63
g5997
sg56
(lp6004
S'Subordinate'
p6005
asbasbasbag49
(g65
g51
NtRp6006
(dp6007
g54
(dp6008
sg63
g5365
sg56
(lp6009
g49
(g70
g51
NtRp6010
(dp6011
g54
(dp6012
sg63
g6006
sg56
(lp6013
g49
(g50
g51
NtRp6014
(dp6015
g54
(dp6016
g62
I4
ssg63
g6010
sg56
(lp6017
S'Voyage'
p6018
asbasbasbag49
(g65
g51
NtRp6019
(dp6020
g54
(dp6021
sg63
g5365
sg56
(lp6022
g49
(g70
g51
NtRp6023
(dp6024
g54
(dp6025
sg63
g6019
sg56
(lp6026
g49
(g50
g51
NtRp6027
(dp6028
g54
(dp6029
g62
I4
ssg63
g6023
sg56
(lp6030
S'Replenish'
p6031
asbasbasbag49
(g65
g51
NtRp6032
(dp6033
g54
(dp6034
sg63
g5365
sg56
(lp6035
g49
(g70
g51
NtRp6036
(dp6037
g54
(dp6038
sg63
g6032
sg56
(lp6039
g49
(g50
g51
NtRp6040
(dp6041
g54
(dp6042
g62
I4
ssg63
g6036
sg56
(lp6043
S'sliced'
p6044
asbasbasbag49
(g65
g51
NtRp6045
(dp6046
g54
(dp6047
sg63
g5365
sg56
(lp6048
g49
(g70
g51
NtRp6049
(dp6050
g54
(dp6051
sg63
g6045
sg56
(lp6052
g49
(g50
g51
NtRp6053
(dp6054
g54
(dp6055
g62
I4
ssg63
g6049
sg56
(lp6056
S'Papira'
p6057
asbasbasbag49
(g65
g51
NtRp6058
(dp6059
g54
(dp6060
sg63
g5365
sg56
(lp6061
g49
(g70
g51
NtRp6062
(dp6063
g54
(dp6064
sg63
g6058
sg56
(lp6065
g49
(g50
g51
NtRp6066
(dp6067
g54
(dp6068
g62
I4
ssg63
g6062
sg56
(lp6069
S'NewsFlash'
p6070
asbasbasbag49
(g65
g51
NtRp6071
(dp6072
g54
(dp6073
sg63
g5365
sg56
(lp6074
g49
(g70
g51
NtRp6075
(dp6076
g54
(dp6077
sg63
g6071
sg56
(lp6078
g49
(g50
g51
NtRp6079
(dp6080
g54
(dp6081
g62
I4
ssg63
g6075
sg56
(lp6082
S'Reference'
p6083
asbasbasbag49
(g65
g51
NtRp6084
(dp6085
g54
(dp6086
sg63
g5365
sg56
(lp6087
g49
(g70
g51
NtRp6088
(dp6089
g54
(dp6090
sg63
g6084
sg56
(lp6091
g49
(g50
g51
NtRp6092
(dp6093
g54
(dp6094
g62
I4
ssg63
g6088
sg56
(lp6095
S'Unqualified'
p6096
asbasbasbag49
(g65
g51
NtRp6097
(dp6098
g54
(dp6099
sg63
g5365
sg56
(lp6100
g49
(g70
g51
NtRp6101
(dp6102
g54
(dp6103
sg63
g6097
sg56
(lp6104
g49
(g50
g51
NtRp6105
(dp6106
g54
(dp6107
g62
I4
ssg63
g6101
sg56
(lp6108
S'Branches'
p6109
asbasbasbag49
(g65
g51
NtRp6110
(dp6111
g54
(dp6112
sg63
g5365
sg56
(lp6113
g49
(g70
g51
NtRp6114
(dp6115
g54
(dp6116
sg63
g6110
sg56
(lp6117
g49
(g50
g51
NtRp6118
(dp6119
g54
(dp6120
g62
I4
ssg63
g6114
sg56
(lp6121
S'Glazed'
p6122
asbasbasbag49
(g65
g51
NtRp6123
(dp6124
g54
(dp6125
sg63
g5365
sg56
(lp6126
g49
(g70
g51
NtRp6127
(dp6128
g54
(dp6129
sg63
g6123
sg56
(lp6130
g49
(g50
g51
NtRp6131
(dp6132
g54
(dp6133
g62
I4
ssg63
g6127
sg56
(lp6134
S'Excess'
p6135
asbasbasbag49
(g65
g51
NtRp6136
(dp6137
g54
(dp6138
sg63
g5365
sg56
(lp6139
g49
(g70
g51
NtRp6140
(dp6141
g54
(dp6142
sg63
g6136
sg56
(lp6143
g49
(g50
g51
NtRp6144
(dp6145
g54
(dp6146
g62
I4
ssg63
g6140
sg56
(lp6147
S'Commission'
p6148
asbasbasbag49
(g65
g51
NtRp6149
(dp6150
g54
(dp6151
sg63
g5365
sg56
(lp6152
g49
(g70
g51
NtRp6153
(dp6154
g54
(dp6155
sg63
g6149
sg56
(lp6156
g49
(g50
g51
NtRp6157
(dp6158
g54
(dp6159
g62
I4
ssg63
g6153
sg56
(lp6160
S'Frozenage'
p6161
asbasbasbag49
(g65
g51
NtRp6162
(dp6163
g54
(dp6164
sg63
g5365
sg56
(lp6165
g49
(g70
g51
NtRp6166
(dp6167
g54
(dp6168
sg63
g6162
sg56
(lp6169
g49
(g50
g51
NtRp6170
(dp6171
g54
(dp6172
g62
I4
ssg63
g6166
sg56
(lp6173
S'Blogging'
p6174
asbasbasbag49
(g65
g51
NtRp6175
(dp6176
g54
(dp6177
sg63
g5365
sg56
(lp6178
g49
(g70
g51
NtRp6179
(dp6180
g54
(dp6181
sg63
g6175
sg56
(lp6182
g49
(g50
g51
NtRp6183
(dp6184
g54
(dp6185
g62
I4
ssg63
g6179
sg56
(lp6186
S'Extracts'
p6187
asbasbasbag49
(g65
g51
NtRp6188
(dp6189
g54
(dp6190
sg63
g5365
sg56
(lp6191
g49
(g70
g51
NtRp6192
(dp6193
g54
(dp6194
sg63
g6188
sg56
(lp6195
g49
(g50
g51
NtRp6196
(dp6197
g54
(dp6198
g62
I4
ssg63
g6192
sg56
(lp6199
S'Rambling'
p6200
asbasbasbag49
(g65
g51
NtRp6201
(dp6202
g54
(dp6203
sg63
g5365
sg56
(lp6204
g49
(g70
g51
NtRp6205
(dp6206
g54
(dp6207
sg63
g6201
sg56
(lp6208
g49
(g50
g51
NtRp6209
(dp6210
g54
(dp6211
g62
I4
ssg63
g6205
sg56
(lp6212
S'OldArchitecture'
p6213
asbasbasbag49
(g65
g51
NtRp6214
(dp6215
g54
(dp6216
sg63
g5365
sg56
(lp6217
g49
(g70
g51
NtRp6218
(dp6219
g54
(dp6220
sg63
g6214
sg56
(lp6221
g49
(g50
g51
NtRp6222
(dp6223
g54
(dp6224
g62
I4
ssg63
g6218
sg56
(lp6225
S'Miscellaneous'
p6226
asbasbasbag49
(g65
g51
NtRp6227
(dp6228
g54
(dp6229
sg63
g5365
sg56
(lp6230
g49
(g70
g51
NtRp6231
(dp6232
g54
(dp6233
sg63
g6227
sg56
(lp6234
g49
(g50
g51
NtRp6235
(dp6236
g54
(dp6237
g62
I4
ssg63
g6231
sg56
(lp6238
S'Blend'
p6239
asbasbasbag49
(g65
g51
NtRp6240
(dp6241
g54
(dp6242
sg63
g5365
sg56
(lp6243
g49
(g70
g51
NtRp6244
(dp6245
g54
(dp6246
sg63
g6240
sg56
(lp6247
g49
(g50
g51
NtRp6248
(dp6249
g54
(dp6250
g62
I4
ssg63
g6244
sg56
(lp6251
S'Squarely'
p6252
asbasbasbag49
(g65
g51
NtRp6253
(dp6254
g54
(dp6255
sg63
g5365
sg56
(lp6256
g49
(g70
g51
NtRp6257
(dp6258
g54
(dp6259
sg63
g6253
sg56
(lp6260
g49
(g50
g51
NtRp6261
(dp6262
g54
(dp6263
g62
I4
ssg63
g6257
sg56
(lp6264
S'SnowCrystals'
p6265
asbasbasbag49
(g65
g51
NtRp6266
(dp6267
g54
(dp6268
sg63
g5365
sg56
(lp6269
g49
(g70
g51
NtRp6270
(dp6271
g54
(dp6272
sg63
g6266
sg56
(lp6273
g49
(g50
g51
NtRp6274
(dp6275
g54
(dp6276
g62
I4
ssg63
g6270
sg56
(lp6277
S'Emporium'
p6278
asbasbasbag49
(g65
g51
NtRp6279
(dp6280
g54
(dp6281
sg63
g5365
sg56
(lp6282
g49
(g70
g51
NtRp6283
(dp6284
g54
(dp6285
sg63
g6279
sg56
(lp6286
g49
(g50
g51
NtRp6287
(dp6288
g54
(dp6289
g62
I4
ssg63
g6283
sg56
(lp6290
S'Clicker'
p6291
asbasbasbag49
(g65
g51
NtRp6292
(dp6293
g54
(dp6294
sg63
g5365
sg56
(lp6295
g49
(g70
g51
NtRp6296
(dp6297
g54
(dp6298
sg63
g6292
sg56
(lp6299
g49
(g50
g51
NtRp6300
(dp6301
g54
(dp6302
g62
I4
ssg63
g6296
sg56
(lp6303
S'ConcreteV2'
p6304
asbasbasbag49
(g65
g51
NtRp6305
(dp6306
g54
(dp6307
sg63
g5365
sg56
(lp6308
g49
(g70
g51
NtRp6309
(dp6310
g54
(dp6311
sg63
g6305
sg56
(lp6312
g49
(g50
g51
NtRp6313
(dp6314
g54
(dp6315
g62
I4
ssg63
g6309
sg56
(lp6316
S'Neutral'
p6317
asbasbasbag49
(g65
g51
NtRp6318
(dp6319
g54
(dp6320
sg63
g5365
sg56
(lp6321
g49
(g70
g51
NtRp6322
(dp6323
g54
(dp6324
sg63
g6318
sg56
(lp6325
g49
(g50
g51
NtRp6326
(dp6327
g54
(dp6328
g62
I4
ssg63
g6322
sg56
(lp6329
S'EfflorescenceOrange'
p6330
asbasbasbag49
(g65
g51
NtRp6331
(dp6332
g54
(dp6333
sg63
g5365
sg56
(lp6334
g49
(g70
g51
NtRp6335
(dp6336
g54
(dp6337
sg63
g6331
sg56
(lp6338
g49
(g50
g51
NtRp6339
(dp6340
g54
(dp6341
g62
I4
ssg63
g6335
sg56
(lp6342
S'Boorish'
p6343
asbasbasbag49
(g65
g51
NtRp6344
(dp6345
g54
(dp6346
sg63
g5365
sg56
(lp6347
g49
(g70
g51
NtRp6348
(dp6349
g54
(dp6350
sg63
g6344
sg56
(lp6351
g49
(g50
g51
NtRp6352
(dp6353
g54
(dp6354
g62
I4
ssg63
g6348
sg56
(lp6355
S'Experience'
p6356
asbasbasbag49
(g65
g51
NtRp6357
(dp6358
g54
(dp6359
sg63
g5365
sg56
(lp6360
g49
(g70
g51
NtRp6361
(dp6362
g54
(dp6363
sg63
g6357
sg56
(lp6364
g49
(g50
g51
NtRp6365
(dp6366
g54
(dp6367
g62
I4
ssg63
g6361
sg56
(lp6368
S'CityLights'
p6369
asbasbasbag49
(g65
g51
NtRp6370
(dp6371
g54
(dp6372
sg63
g5365
sg56
(lp6373
g49
(g70
g51
NtRp6374
(dp6375
g54
(dp6376
sg63
g6370
sg56
(lp6377
g49
(g50
g51
NtRp6378
(dp6379
g54
(dp6380
g62
I4
ssg63
g6374
sg56
(lp6381
S'Incorporated'
p6382
asbasbasbag49
(g65
g51
NtRp6383
(dp6384
g54
(dp6385
sg63
g5365
sg56
(lp6386
g49
(g70
g51
NtRp6387
(dp6388
g54
(dp6389
sg63
g6383
sg56
(lp6390
g49
(g50
g51
NtRp6391
(dp6392
g54
(dp6393
g62
I4
ssg63
g6387
sg56
(lp6394
S'Thingreenline'
p6395
asbasbasbag49
(g65
g51
NtRp6396
(dp6397
g54
(dp6398
sg63
g5365
sg56
(lp6399
g49
(g70
g51
NtRp6400
(dp6401
g54
(dp6402
sg63
g6396
sg56
(lp6403
g49
(g50
g51
NtRp6404
(dp6405
g54
(dp6406
g62
I4
ssg63
g6400
sg56
(lp6407
S'HotAirBalloons'
p6408
asbasbasbag49
(g65
g51
NtRp6409
(dp6410
g54
(dp6411
sg63
g5365
sg56
(lp6412
g49
(g70
g51
NtRp6413
(dp6414
g54
(dp6415
sg63
g6409
sg56
(lp6416
g49
(g50
g51
NtRp6417
(dp6418
g54
(dp6419
g62
I4
ssg63
g6413
sg56
(lp6420
S'Optimism'
p6421
asbasbasbag49
(g65
g51
NtRp6422
(dp6423
g54
(dp6424
sg63
g5365
sg56
(lp6425
g49
(g70
g51
NtRp6426
(dp6427
g54
(dp6428
sg63
g6422
sg56
(lp6429
g49
(g50
g51
NtRp6430
(dp6431
g54
(dp6432
g62
I4
ssg63
g6426
sg56
(lp6433
S'Sampling'
p6434
asbasbasbag49
(g65
g51
NtRp6435
(dp6436
g54
(dp6437
sg63
g5365
sg56
(lp6438
g49
(g70
g51
NtRp6439
(dp6440
g54
(dp6441
sg63
g6435
sg56
(lp6442
g49
(g50
g51
NtRp6443
(dp6444
g54
(dp6445
g62
I4
ssg63
g6439
sg56
(lp6446
S'Oxidation'
p6447
asbasbasbag49
(g65
g51
NtRp6448
(dp6449
g54
(dp6450
sg63
g5365
sg56
(lp6451
g49
(g70
g51
NtRp6452
(dp6453
g54
(dp6454
sg63
g6448
sg56
(lp6455
g49
(g50
g51
NtRp6456
(dp6457
g54
(dp6458
g62
I4
ssg63
g6452
sg56
(lp6459
S'External'
p6460
asbasbasbag49
(g65
g51
NtRp6461
(dp6462
g54
(dp6463
sg63
g5365
sg56
(lp6464
g49
(g70
g51
NtRp6465
(dp6466
g54
(dp6467
sg63
g6461
sg56
(lp6468
g49
(g50
g51
NtRp6469
(dp6470
g54
(dp6471
g62
I4
ssg63
g6465
sg56
(lp6472
S'FCTInnovation'
p6473
asbasbasbag49
(g65
g51
NtRp6474
(dp6475
g54
(dp6476
sg63
g5365
sg56
(lp6477
g49
(g70
g51
NtRp6478
(dp6479
g54
(dp6480
sg63
g6474
sg56
(lp6481
g49
(g50
g51
NtRp6482
(dp6483
g54
(dp6484
g62
I4
ssg63
g6478
sg56
(lp6485
S'BlueStatic'
p6486
asbasbasbag49
(g65
g51
NtRp6487
(dp6488
g54
(dp6489
sg63
g5365
sg56
(lp6490
g49
(g70
g51
NtRp6491
(dp6492
g54
(dp6493
sg63
g6487
sg56
(lp6494
g49
(g50
g51
NtRp6495
(dp6496
g54
(dp6497
g62
I4
ssg63
g6491
sg56
(lp6498
S'Compromise'
p6499
asbasbasbag49
(g65
g51
NtRp6500
(dp6501
g54
(dp6502
sg63
g5365
sg56
(lp6503
g49
(g70
g51
NtRp6504
(dp6505
g54
(dp6506
sg63
g6500
sg56
(lp6507
g49
(g50
g51
NtRp6508
(dp6509
g54
(dp6510
g62
I4
ssg63
g6504
sg56
(lp6511
S'LongBeach'
p6512
asbasbasbag49
(g65
g51
NtRp6513
(dp6514
g54
(dp6515
sg63
g5365
sg56
(lp6516
g49
(g70
g51
NtRp6517
(dp6518
g54
(dp6519
sg63
g6513
sg56
(lp6520
g49
(g50
g51
NtRp6521
(dp6522
g54
(dp6523
g62
I4
ssg63
g6517
sg56
(lp6524
S'Efflorescence'
p6525
asbasbasbag49
(g65
g51
NtRp6526
(dp6527
g54
(dp6528
sg63
g5365
sg56
(lp6529
g49
(g70
g51
NtRp6530
(dp6531
g54
(dp6532
sg63
g6526
sg56
(lp6533
g49
(g50
g51
NtRp6534
(dp6535
g54
(dp6536
g62
I4
ssg63
g6530
sg56
(lp6537
S'KeepitSimple'
p6538
asbasbasbag49
(g65
g51
NtRp6539
(dp6540
g54
(dp6541
sg63
g5365
sg56
(lp6542
g49
(g70
g51
NtRp6543
(dp6544
g54
(dp6545
sg63
g6539
sg56
(lp6546
g49
(g50
g51
NtRp6547
(dp6548
g54
(dp6549
g62
I4
ssg63
g6543
sg56
(lp6550
S'Pressurized'
p6551
asbasbasbag49
(g65
g51
NtRp6552
(dp6553
g54
(dp6554
sg63
g5365
sg56
(lp6555
g49
(g70
g51
NtRp6556
(dp6557
g54
(dp6558
sg63
g6552
sg56
(lp6559
g49
(g50
g51
NtRp6560
(dp6561
g54
(dp6562
g62
I4
ssg63
g6556
sg56
(lp6563
S'FCTPuzzled'
p6564
asbasbasbag49
(g65
g51
NtRp6565
(dp6566
g54
(dp6567
sg63
g5365
sg56
(lp6568
g49
(g70
g51
NtRp6569
(dp6570
g54
(dp6571
sg63
g6565
sg56
(lp6572
g49
(g50
g51
NtRp6573
(dp6574
g54
(dp6575
g62
I4
ssg63
g6569
sg56
(lp6576
S'Embouteillage'
p6577
asbasbasbag49
(g65
g51
NtRp6578
(dp6579
g54
(dp6580
sg63
g5365
sg56
(lp6581
g49
(g70
g51
NtRp6582
(dp6583
g54
(dp6584
sg63
g6578
sg56
(lp6585
g49
(g50
g51
NtRp6586
(dp6587
g54
(dp6588
g62
I4
ssg63
g6582
sg56
(lp6589
S'Whitelight'
p6590
asbasbasbag49
(g65
g51
NtRp6591
(dp6592
g54
(dp6593
sg63
g5365
sg56
(lp6594
g49
(g70
g51
NtRp6595
(dp6596
g54
(dp6597
sg63
g6591
sg56
(lp6598
g49
(g50
g51
NtRp6599
(dp6600
g54
(dp6601
g62
I4
ssg63
g6595
sg56
(lp6602
S'Pluralism'
p6603
asbasbasbag49
(g65
g51
NtRp6604
(dp6605
g54
(dp6606
sg63
g5365
sg56
(lp6607
g49
(g70
g51
NtRp6608
(dp6609
g54
(dp6610
sg63
g6604
sg56
(lp6611
g49
(g50
g51
NtRp6612
(dp6613
g54
(dp6614
g62
I4
ssg63
g6608
sg56
(lp6615
S'solutionorange'
p6616
asbasbasbasbasbasbasbag49
(g65
g51
NtRp6617
(dp6618
g54
(dp6619
sg63
g3890
sg56
(lp6620
g49
(g70
g51
NtRp6621
(dp6622
g54
(dp6623
g74
g75
ssg63
g6617
sg56
(lp6624
S'token'
p6625
asbag49
(g70
g51
NtRp6626
(dp6627
g54
(dp6628
g81
g82
ssg63
g6617
sg56
(lp6629
S':'
asbag49
(g70
g51
NtRp6630
(dp6631
g54
(dp6632
sg63
g6617
sg56
(lp6633
g49
(g50
g51
NtRp6634
(dp6635
g54
(dp6636
g62
I5
ssg63
g6630
sg56
(lp6637
S'8c17c982-0343-4dfe-8fb4-cdf4d10cb661'
p6638
asbasbasbasbasbsS'etype'
p6639
S"<type 'exceptions.TypeError'>"
p6640
sS'date'
p6641
S'Mon Mar 25 15:30:18 2013'
p6642
sS'response'
p6643
g49
(g50
g51
NtRp6644
(dp6645
g54
(dp6646
sg56
(lp6647
g49
(g58
g51
NtRp6648
(dp6649
g54
(dp6650
g62
I5
ssg63
Nsg56
(lp6651
g49
(g65
g51
NtRp6652
(dp6653
g54
(dp6654
sg63
g6648
sg56
(lp6655
g49
(g70
g51
NtRp6656
(dp6657
g54
(dp6658
g74
g75
ssg63
g6652
sg56
(lp6659
g160
asbag49
(g70
g51
NtRp6660
(dp6661
g54
(dp6662
g81
g82
ssg63
g6652
sg56
(lp6663
S':'
asbag49
(g70
g51
NtRp6664
(dp6665
g54
(dp6666
sg63
g6652
sg56
(lp6667
g49
(g50
g51
NtRp6668
(dp6669
g54
(dp6670
g62
I5
ssg63
g6664
sg56
(lp6671
S'<cStringIO.StringO object at 0xaa12c00>'
p6672
asbasbasbag49
(g65
g51
NtRp6673
(dp6674
g54
(dp6675
sg63
g6648
sg56
(lp6676
g49
(g70
g51
NtRp6677
(dp6678
g54
(dp6679
g74
g75
ssg63
g6673
sg56
(lp6680
g248
asbag49
(g70
g51
NtRp6681
(dp6682
g54
(dp6683
g81
g82
ssg63
g6673
sg56
(lp6684
S':'
asbag49
(g70
g51
NtRp6685
(dp6686
g54
(dp6687
sg63
g6673
sg56
(lp6688
g49
(g50
g51
NtRp6689
(dp6690
g54
(dp6691
g62
I5
ssg63
g6685
sg56
(lp6692
g49
(g58
g51
NtRp6693
(dp6694
g54
(dp6695
g62
I4
ssg63
Nsg56
(lp6696
g49
(g65
g51
NtRp6697
(dp6698
g54
(dp6699
sg63
g6693
sg56
(lp6700
g49
(g70
g51
NtRp6701
(dp6702
g54
(dp6703
g74
g75
ssg63
g6697
sg56
(lp6704
S'session_id_admin'
p6705
asbag49
(g70
g51
NtRp6706
(dp6707
g54
(dp6708
g81
g82
ssg63
g6697
sg56
(lp6709
S':'
asbag49
(g70
g51
NtRp6710
(dp6711
g54
(dp6712
sg63
g6697
sg56
(lp6713
g49
(g50
g51
NtRp6714
(dp6715
g54
(dp6716
g62
I4
ssg63
g6710
sg56
(lp6717
g459
ag49
(g58
g51
NtRp6718
(dp6719
g54
(dp6720
g62
I3
ssg63
Nsg56
(lp6721
g49
(g65
g51
NtRp6722
(dp6723
g54
(dp6724
sg63
g6718
sg56
(lp6725
g49
(g70
g51
NtRp6726
(dp6727
g54
(dp6728
g74
g75
ssg63
g6722
sg56
(lp6729
g299
asbag49
(g70
g51
NtRp6730
(dp6731
g54
(dp6732
g81
g82
ssg63
g6722
sg56
(lp6733
S':'
asbag49
(g70
g51
NtRp6734
(dp6735
g54
(dp6736
sg63
g6722
sg56
(lp6737
g49
(g50
g51
NtRp6738
(dp6739
g54
(dp6740
g62
I3
ssg63
g6734
sg56
(lp6741
S''
asbasbasbag49
(g65
g51
NtRp6742
(dp6743
g54
(dp6744
sg63
g6718
sg56
(lp6745
g49
(g70
g51
NtRp6746
(dp6747
g54
(dp6748
g74
g75
ssg63
g6742
sg56
(lp6749
g320
asbag49
(g70
g51
NtRp6750
(dp6751
g54
(dp6752
g81
g82
ssg63
g6742
sg56
(lp6753
S':'
asbag49
(g70
g51
NtRp6754
(dp6755
g54
(dp6756
sg63
g6742
sg56
(lp6757
g49
(g50
g51
NtRp6758
(dp6759
g54
(dp6760
g62
I3
ssg63
g6754
sg56
(lp6761
S''
asbasbasbag49
(g65
g51
NtRp6762
(dp6763
g54
(dp6764
sg63
g6718
sg56
(lp6765
g49
(g70
g51
NtRp6766
(dp6767
g54
(dp6768
g74
g75
ssg63
g6762
sg56
(lp6769
g341
asbag49
(g70
g51
NtRp6770
(dp6771
g54
(dp6772
g81
g82
ssg63
g6762
sg56
(lp6773
S':'
asbag49
(g70
g51
NtRp6774
(dp6775
g54
(dp6776
sg63
g6762
sg56
(lp6777
g49
(g50
g51
NtRp6778
(dp6779
g54
(dp6780
g62
I3
ssg63
g6774
sg56
(lp6781
S''
asbasbasbag49
(g65
g51
NtRp6782
(dp6783
g54
(dp6784
sg63
g6718
sg56
(lp6785
g49
(g70
g51
NtRp6786
(dp6787
g54
(dp6788
g74
g75
ssg63
g6782
sg56
(lp6789
g362
asbag49
(g70
g51
NtRp6790
(dp6791
g54
(dp6792
g81
g82
ssg63
g6782
sg56
(lp6793
S':'
asbag49
(g70
g51
NtRp6794
(dp6795
g54
(dp6796
sg63
g6782
sg56
(lp6797
g49
(g50
g51
NtRp6798
(dp6799
g54
(dp6800
g62
I3
ssg63
g6794
sg56
(lp6801
S''
asbasbasbag49
(g65
g51
NtRp6802
(dp6803
g54
(dp6804
sg63
g6718
sg56
(lp6805
g49
(g70
g51
NtRp6806
(dp6807
g54
(dp6808
g74
g75
ssg63
g6802
sg56
(lp6809
g383
asbag49
(g70
g51
NtRp6810
(dp6811
g54
(dp6812
g81
g82
ssg63
g6802
sg56
(lp6813
S':'
asbag49
(g70
g51
NtRp6814
(dp6815
g54
(dp6816
sg63
g6802
sg56
(lp6817
g49
(g50
g51
NtRp6818
(dp6819
g54
(dp6820
g62
I3
ssg63
g6814
sg56
(lp6821
S'/'
asbasbasbag49
(g65
g51
NtRp6822
(dp6823
g54
(dp6824
sg63
g6718
sg56
(lp6825
g49
(g70
g51
NtRp6826
(dp6827
g54
(dp6828
g74
g75
ssg63
g6822
sg56
(lp6829
g404
asbag49
(g70
g51
NtRp6830
(dp6831
g54
(dp6832
g81
g82
ssg63
g6822
sg56
(lp6833
S':'
asbag49
(g70
g51
NtRp6834
(dp6835
g54
(dp6836
sg63
g6822
sg56
(lp6837
g49
(g50
g51
NtRp6838
(dp6839
g54
(dp6840
g62
I3
ssg63
g6834
sg56
(lp6841
S''
asbasbasbag49
(g65
g51
NtRp6842
(dp6843
g54
(dp6844
sg63
g6718
sg56
(lp6845
g49
(g70
g51
NtRp6846
(dp6847
g54
(dp6848
g74
g75
ssg63
g6842
sg56
(lp6849
g425
asbag49
(g70
g51
NtRp6850
(dp6851
g54
(dp6852
g81
g82
ssg63
g6842
sg56
(lp6853
S':'
asbag49
(g70
g51
NtRp6854
(dp6855
g54
(dp6856
sg63
g6842
sg56
(lp6857
g49
(g50
g51
NtRp6858
(dp6859
g54
(dp6860
g62
I3
ssg63
g6854
sg56
(lp6861
S''
asbasbasbasbasbasbasbasbasbasbasbag49
(g65
g51
NtRp6862
(dp6863
g54
(dp6864
sg63
g6648
sg56
(lp6865
g49
(g70
g51
NtRp6866
(dp6867
g54
(dp6868
g74
g75
ssg63
g6862
sg56
(lp6869
S'delimiters'
p6870
asbag49
(g70
g51
NtRp6871
(dp6872
g54
(dp6873
g81
g82
ssg63
g6862
sg56
(lp6874
S':'
asbag49
(g70
g51
NtRp6875
(dp6876
g54
(dp6877
sg63
g6862
sg56
(lp6878
g49
(g50
g51
NtRp6879
(dp6880
g54
(dp6881
g62
I5
ssg63
g6875
sg56
(lp6882
g49
(g58
g51
NtRp6883
(dp6884
g54
(dp6885
g62
I4
ssg63
Nsg56
(lp6886
g49
(g65
g51
NtRp6887
(dp6888
g54
(dp6889
sg63
g6883
sg56
(lp6890
g49
(g70
g51
NtRp6891
(dp6892
g54
(dp6893
sg63
g6887
sg56
(lp6894
g49
(g50
g51
NtRp6895
(dp6896
g54
(dp6897
g62
I4
ssg63
g6891
sg56
(lp6898
S'{{'
p6899
asbasbasbag49
(g65
g51
NtRp6900
(dp6901
g54
(dp6902
sg63
g6883
sg56
(lp6903
g49
(g70
g51
NtRp6904
(dp6905
g54
(dp6906
sg63
g6900
sg56
(lp6907
g49
(g50
g51
NtRp6908
(dp6909
g54
(dp6910
g62
I4
ssg63
g6904
sg56
(lp6911
S'}}'
p6912
asbasbasbasbasbasbasbag49
(g65
g51
NtRp6913
(dp6914
g54
(dp6915
sg63
g6648
sg56
(lp6916
g49
(g70
g51
NtRp6917
(dp6918
g54
(dp6919
g74
g75
ssg63
g6913
sg56
(lp6920
S'files'
p6921
asbag49
(g70
g51
NtRp6922
(dp6923
g54
(dp6924
g81
g82
ssg63
g6913
sg56
(lp6925
S':'
asbag49
(g70
g51
NtRp6926
(dp6927
g54
(dp6928
sg63
g6913
sg56
(lp6929
g49
(g50
g51
NtRp6930
(dp6931
g54
(dp6932
g62
I5
ssg63
g6926
sg56
(lp6933
g49
(g58
g51
NtRp6934
(dp6935
g54
(dp6936
g62
I4
ssg63
Nsg56
(lp6937
g49
(g65
g51
NtRp6938
(dp6939
g54
(dp6940
sg63
g6934
sg56
(lp6941
g49
(g70
g51
NtRp6942
(dp6943
g54
(dp6944
sg63
g6938
sg56
(lp6945
g49
(g50
g51
NtRp6946
(dp6947
g54
(dp6948
g62
I4
ssg63
g6942
sg56
(lp6949
S'/admin/static/plugin_multiselect/jquery.multi-select.js'
p6950
asbasbasbag49
(g65
g51
NtRp6951
(dp6952
g54
(dp6953
sg63
g6934
sg56
(lp6954
g49
(g70
g51
NtRp6955
(dp6956
g54
(dp6957
sg63
g6951
sg56
(lp6958
g49
(g50
g51
NtRp6959
(dp6960
g54
(dp6961
g62
I4
ssg63
g6955
sg56
(lp6962
S'/admin/static/plugin_multiselect/multi-select.css'
p6963
asbasbasbag49
(g65
g51
NtRp6964
(dp6965
g54
(dp6966
sg63
g6934
sg56
(lp6967
g49
(g70
g51
NtRp6968
(dp6969
g54
(dp6970
sg63
g6964
sg56
(lp6971
g49
(g50
g51
NtRp6972
(dp6973
g54
(dp6974
g62
I4
ssg63
g6968
sg56
(lp6975
S'/admin/static/plugin_multiselect/start.js'
p6976
asbasbasbasbasbasbasbag49
(g65
g51
NtRp6977
(dp6978
g54
(dp6979
sg63
g6648
sg56
(lp6980
g49
(g70
g51
NtRp6981
(dp6982
g54
(dp6983
g74
g75
ssg63
g6977
sg56
(lp6984
S'flash'
p6985
asbag49
(g70
g51
NtRp6986
(dp6987
g54
(dp6988
g81
g82
ssg63
g6977
sg56
(lp6989
S':'
asbag49
(g70
g51
NtRp6990
(dp6991
g54
(dp6992
sg63
g6977
sg56
(lp6993
g49
(g50
g51
NtRp6994
(dp6995
g54
(dp6996
g62
I5
ssg63
g6990
sg56
(lp6997
S''
asbasbasbag49
(g65
g51
NtRp6998
(dp6999
g54
(dp7000
sg63
g6648
sg56
(lp7001
g49
(g70
g51
NtRp7002
(dp7003
g54
(dp7004
g74
g75
ssg63
g6998
sg56
(lp7005
S'generic_patterns'
p7006
asbag49
(g70
g51
NtRp7007
(dp7008
g54
(dp7009
g81
g82
ssg63
g6998
sg56
(lp7010
S':'
asbag49
(g70
g51
NtRp7011
(dp7012
g54
(dp7013
sg63
g6998
sg56
(lp7014
g49
(g50
g51
NtRp7015
(dp7016
g54
(dp7017
g62
I5
ssg63
g7011
sg56
(lp7018
g49
(g58
g51
NtRp7019
(dp7020
g54
(dp7021
g62
I4
ssg63
Nsg56
(lp7022
sbasbasbasbag49
(g65
g51
NtRp7023
(dp7024
g54
(dp7025
sg63
g6648
sg56
(lp7026
g49
(g70
g51
NtRp7027
(dp7028
g54
(dp7029
g74
g75
ssg63
g7023
sg56
(lp7030
S'headers'
p7031
asbag49
(g70
g51
NtRp7032
(dp7033
g54
(dp7034
g81
g82
ssg63
g7023
sg56
(lp7035
S':'
asbag49
(g70
g51
NtRp7036
(dp7037
g54
(dp7038
sg63
g7023
sg56
(lp7039
g49
(g50
g51
NtRp7040
(dp7041
g54
(dp7042
g62
I5
ssg63
g7036
sg56
(lp7043
g49
(g58
g51
NtRp7044
(dp7045
g54
(dp7046
g62
I4
ssg63
Nsg56
(lp7047
g49
(g65
g51
NtRp7048
(dp7049
g54
(dp7050
sg63
g7044
sg56
(lp7051
g49
(g70
g51
NtRp7052
(dp7053
g54
(dp7054
g74
g75
ssg63
g7048
sg56
(lp7055
S'X-Powered-By'
p7056
asbag49
(g70
g51
NtRp7057
(dp7058
g54
(dp7059
g81
g82
ssg63
g7048
sg56
(lp7060
S':'
asbag49
(g70
g51
NtRp7061
(dp7062
g54
(dp7063
sg63
g7048
sg56
(lp7064
g49
(g50
g51
NtRp7065
(dp7066
g54
(dp7067
g62
I4
ssg63
g7061
sg56
(lp7068
S'web2py'
p7069
asbasbasbasbasbasbasbag49
(g65
g51
NtRp7070
(dp7071
g54
(dp7072
sg63
g6648
sg56
(lp7073
g49
(g70
g51
NtRp7074
(dp7075
g54
(dp7076
g74
g75
ssg63
g7070
sg56
(lp7077
S'menu'
p7078
asbag49
(g70
g51
NtRp7079
(dp7080
g54
(dp7081
g81
g82
ssg63
g7070
sg56
(lp7082
S':'
asbag49
(g70
g51
NtRp7083
(dp7084
g54
(dp7085
sg63
g7070
sg56
(lp7086
g49
(g50
g51
NtRp7087
(dp7088
g54
(dp7089
g62
I5
ssg63
g7083
sg56
(lp7090
g49
(g58
g51
NtRp7091
(dp7092
g54
(dp7093
g62
I4
ssg63
Nsg56
(lp7094
g49
(g65
g51
NtRp7095
(dp7096
g54
(dp7097
sg63
g7091
sg56
(lp7098
g49
(g70
g51
NtRp7099
(dp7100
g54
(dp7101
sg63
g7095
sg56
(lp7102
g49
(g50
g51
NtRp7103
(dp7104
g54
(dp7105
g62
I4
ssg63
g7099
sg56
(lp7106
g49
(g58
g51
NtRp7107
(dp7108
g54
(dp7109
g62
I3
ssg63
Nsg56
(lp7110
g49
(g65
g51
NtRp7111
(dp7112
g54
(dp7113
sg63
g7107
sg56
(lp7114
g49
(g70
g51
NtRp7115
(dp7116
g54
(dp7117
sg63
g7111
sg56
(lp7118
g49
(g50
g51
NtRp7119
(dp7120
g54
(dp7121
g62
I3
ssg63
g7115
sg56
(lp7122
cgluon.languages
lazyT_unpickle
p7123
(S't\x04\x00\x00\x00Site'
tRp7124
asbasbasbag49
(g65
g51
NtRp7125
(dp7126
g54
(dp7127
sg63
g7107
sg56
(lp7128
g49
(g70
g51
NtRp7129
(dp7130
g54
(dp7131
sg63
g7125
sg56
(lp7132
g49
(g50
g51
NtRp7133
(dp7134
g54
(dp7135
g62
I3
ssg63
g7129
sg56
(lp7136
g1632
asbasbasbag49
(g65
g51
NtRp7137
(dp7138
g54
(dp7139
sg63
g7107
sg56
(lp7140
g49
(g70
g51
NtRp7141
(dp7142
g54
(dp7143
sg63
g7137
sg56
(lp7144
g49
(g50
g51
NtRp7145
(dp7146
g54
(dp7147
g62
I3
ssg63
g7141
sg56
(lp7148
S'/admin/default/site'
p7149
asbasbasbasbasbasbasbag49
(g65
g51
NtRp7150
(dp7151
g54
(dp7152
sg63
g7091
sg56
(lp7153
g49
(g70
g51
NtRp7154
(dp7155
g54
(dp7156
sg63
g7150
sg56
(lp7157
g49
(g50
g51
NtRp7158
(dp7159
g54
(dp7160
g62
I4
ssg63
g7154
sg56
(lp7161
g49
(g58
g51
NtRp7162
(dp7163
g54
(dp7164
g62
I3
ssg63
Nsg56
(lp7165
g49
(g65
g51
NtRp7166
(dp7167
g54
(dp7168
sg63
g7162
sg56
(lp7169
g49
(g70
g51
NtRp7170
(dp7171
g54
(dp7172
sg63
g7166
sg56
(lp7173
g49
(g50
g51
NtRp7174
(dp7175
g54
(dp7176
g62
I3
ssg63
g7170
sg56
(lp7177
g7123
(S't\x04\x00\x00\x00Edit'
tRp7178
asbasbasbag49
(g65
g51
NtRp7179
(dp7180
g54
(dp7181
sg63
g7162
sg56
(lp7182
g49
(g70
g51
NtRp7183
(dp7184
g54
(dp7185
sg63
g7179
sg56
(lp7186
g49
(g50
g51
NtRp7187
(dp7188
g54
(dp7189
g62
I3
ssg63
g7183
sg56
(lp7190
g1632
asbasbasbag49
(g65
g51
NtRp7191
(dp7192
g54
(dp7193
sg63
g7162
sg56
(lp7194
g49
(g70
g51
NtRp7195
(dp7196
g54
(dp7197
sg63
g7191
sg56
(lp7198
g49
(g50
g51
NtRp7199
(dp7200
g54
(dp7201
g62
I3
ssg63
g7195
sg56
(lp7202
S'/admin/default/design/hellow'
p7203
asbasbasbasbasbasbasbag49
(g65
g51
NtRp7204
(dp7205
g54
(dp7206
sg63
g7091
sg56
(lp7207
g49
(g70
g51
NtRp7208
(dp7209
g54
(dp7210
sg63
g7204
sg56
(lp7211
g49
(g50
g51
NtRp7212
(dp7213
g54
(dp7214
g62
I4
ssg63
g7208
sg56
(lp7215
g49
(g58
g51
NtRp7216
(dp7217
g54
(dp7218
g62
I3
ssg63
Nsg56
(lp7219
g49
(g65
g51
NtRp7220
(dp7221
g54
(dp7222
sg63
g7216
sg56
(lp7223
g49
(g70
g51
NtRp7224
(dp7225
g54
(dp7226
sg63
g7220
sg56
(lp7227
g49
(g50
g51
NtRp7228
(dp7229
g54
(dp7230
g62
I3
ssg63
g7224
sg56
(lp7231
g7123
(S't\x05\x00\x00\x00About'
tRp7232
asbasbasbag49
(g65
g51
NtRp7233
(dp7234
g54
(dp7235
sg63
g7216
sg56
(lp7236
g49
(g70
g51
NtRp7237
(dp7238
g54
(dp7239
sg63
g7233
sg56
(lp7240
g49
(g50
g51
NtRp7241
(dp7242
g54
(dp7243
g62
I3
ssg63
g7237
sg56
(lp7244
g1632
asbasbasbag49
(g65
g51
NtRp7245
(dp7246
g54
(dp7247
sg63
g7216
sg56
(lp7248
g49
(g70
g51
NtRp7249
(dp7250
g54
(dp7251
sg63
g7245
sg56
(lp7252
g49
(g50
g51
NtRp7253
(dp7254
g54
(dp7255
g62
I3
ssg63
g7249
sg56
(lp7256
S'/admin/default/about/hellow'
p7257
asbasbasbasbasbasbasbag49
(g65
g51
NtRp7258
(dp7259
g54
(dp7260
sg63
g7091
sg56
(lp7261
g49
(g70
g51
NtRp7262
(dp7263
g54
(dp7264
sg63
g7258
sg56
(lp7265
g49
(g50
g51
NtRp7266
(dp7267
g54
(dp7268
g62
I4
ssg63
g7262
sg56
(lp7269
g49
(g58
g51
NtRp7270
(dp7271
g54
(dp7272
g62
I3
ssg63
Nsg56
(lp7273
g49
(g65
g51
NtRp7274
(dp7275
g54
(dp7276
sg63
g7270
sg56
(lp7277
g49
(g70
g51
NtRp7278
(dp7279
g54
(dp7280
sg63
g7274
sg56
(lp7281
g49
(g50
g51
NtRp7282
(dp7283
g54
(dp7284
g62
I3
ssg63
g7278
sg56
(lp7285
g7123
(S't\x06\x00\x00\x00Errors'
tRp7286
asbasbasbag49
(g65
g51
NtRp7287
(dp7288
g54
(dp7289
sg63
g7270
sg56
(lp7290
g49
(g70
g51
NtRp7291
(dp7292
g54
(dp7293
sg63
g7287
sg56
(lp7294
g49
(g50
g51
NtRp7295
(dp7296
g54
(dp7297
g62
I3
ssg63
g7291
sg56
(lp7298
g1632
asbasbasbag49
(g65
g51
NtRp7299
(dp7300
g54
(dp7301
sg63
g7270
sg56
(lp7302
g49
(g70
g51
NtRp7303
(dp7304
g54
(dp7305
sg63
g7299
sg56
(lp7306
g49
(g50
g51
NtRp7307
(dp7308
g54
(dp7309
g62
I3
ssg63
g7303
sg56
(lp7310
S'/admin/default/errors/hellow'
p7311
asbasbasbasbasbasbasbag49
(g65
g51
NtRp7312
(dp7313
g54
(dp7314
sg63
g7091
sg56
(lp7315
g49
(g70
g51
NtRp7316
(dp7317
g54
(dp7318
sg63
g7312
sg56
(lp7319
g49
(g50
g51
NtRp7320
(dp7321
g54
(dp7322
g62
I4
ssg63
g7316
sg56
(lp7323
g49
(g58
g51
NtRp7324
(dp7325
g54
(dp7326
g62
I3
ssg63
Nsg56
(lp7327
g49
(g65
g51
NtRp7328
(dp7329
g54
(dp7330
sg63
g7324
sg56
(lp7331
g49
(g70
g51
NtRp7332
(dp7333
g54
(dp7334
sg63
g7328
sg56
(lp7335
g49
(g50
g51
NtRp7336
(dp7337
g54
(dp7338
g62
I3
ssg63
g7332
sg56
(lp7339
g7123
(S't\n\x00\x00\x00Versioning'
tRp7340
asbasbasbag49
(g65
g51
NtRp7341
(dp7342
g54
(dp7343
sg63
g7324
sg56
(lp7344
g49
(g70
g51
NtRp7345
(dp7346
g54
(dp7347
sg63
g7341
sg56
(lp7348
g49
(g50
g51
NtRp7349
(dp7350
g54
(dp7351
g62
I3
ssg63
g7345
sg56
(lp7352
g1632
asbasbasbag49
(g65
g51
NtRp7353
(dp7354
g54
(dp7355
sg63
g7324
sg56
(lp7356
g49
(g70
g51
NtRp7357
(dp7358
g54
(dp7359
sg63
g7353
sg56
(lp7360
g49
(g50
g51
NtRp7361
(dp7362
g54
(dp7363
g62
I3
ssg63
g7357
sg56
(lp7364
S'/admin/mercurial/commit/hellow'
p7365
asbasbasbasbasbasbasbag49
(g65
g51
NtRp7366
(dp7367
g54
(dp7368
sg63
g7091
sg56
(lp7369
g49
(g70
g51
NtRp7370
(dp7371
g54
(dp7372
sg63
g7366
sg56
(lp7373
g49
(g50
g51
NtRp7374
(dp7375
g54
(dp7376
g62
I4
ssg63
g7370
sg56
(lp7377
g49
(g58
g51
NtRp7378
(dp7379
g54
(dp7380
g62
I3
ssg63
Nsg56
(lp7381
g49
(g65
g51
NtRp7382
(dp7383
g54
(dp7384
sg63
g7378
sg56
(lp7385
g49
(g70
g51
NtRp7386
(dp7387
g54
(dp7388
sg63
g7382
sg56
(lp7389
g49
(g50
g51
NtRp7390
(dp7391
g54
(dp7392
g62
I3
ssg63
g7386
sg56
(lp7393
g7123
(S't\x04\x00\x00\x00Help'
tRp7394
asbasbasbag49
(g65
g51
NtRp7395
(dp7396
g54
(dp7397
sg63
g7378
sg56
(lp7398
g49
(g70
g51
NtRp7399
(dp7400
g54
(dp7401
sg63
g7395
sg56
(lp7402
g49
(g50
g51
NtRp7403
(dp7404
g54
(dp7405
g62
I3
ssg63
g7399
sg56
(lp7406
g1632
asbasbasbag49
(g65
g51
NtRp7407
(dp7408
g54
(dp7409
sg63
g7378
sg56
(lp7410
g49
(g70
g51
NtRp7411
(dp7412
g54
(dp7413
sg63
g7407
sg56
(lp7414
g49
(g50
g51
NtRp7415
(dp7416
g54
(dp7417
g62
I3
ssg63
g7411
sg56
(lp7418
S'/examples/default/documentation'
p7419
asbasbasbasbasbasbasbag49
(g65
g51
NtRp7420
(dp7421
g54
(dp7422
sg63
g7091
sg56
(lp7423
g49
(g70
g51
NtRp7424
(dp7425
g54
(dp7426
sg63
g7420
sg56
(lp7427
g49
(g50
g51
NtRp7428
(dp7429
g54
(dp7430
g62
I4
ssg63
g7424
sg56
(lp7431
g49
(g58
g51
NtRp7432
(dp7433
g54
(dp7434
g62
I3
ssg63
Nsg56
(lp7435
g49
(g65
g51
NtRp7436
(dp7437
g54
(dp7438
sg63
g7432
sg56
(lp7439
g49
(g70
g51
NtRp7440
(dp7441
g54
(dp7442
sg63
g7436
sg56
(lp7443
g49
(g50
g51
NtRp7444
(dp7445
g54
(dp7446
g62
I3
ssg63
g7440
sg56
(lp7447
g7123
(S't\x06\x00\x00\x00Logout'
tRp7448
asbasbasbag49
(g65
g51
NtRp7449
(dp7450
g54
(dp7451
sg63
g7432
sg56
(lp7452
g49
(g70
g51
NtRp7453
(dp7454
g54
(dp7455
sg63
g7449
sg56
(lp7456
g49
(g50
g51
NtRp7457
(dp7458
g54
(dp7459
g62
I3
ssg63
g7453
sg56
(lp7460
g1632
asbasbasbag49
(g65
g51
NtRp7461
(dp7462
g54
(dp7463
sg63
g7432
sg56
(lp7464
g49
(g70
g51
NtRp7465
(dp7466
g54
(dp7467
sg63
g7461
sg56
(lp7468
g49
(g50
g51
NtRp7469
(dp7470
g54
(dp7471
g62
I3
ssg63
g7465
sg56
(lp7472
S'/admin/default/logout'
p7473
asbasbasbasbasbasbasbag49
(g65
g51
NtRp7474
(dp7475
g54
(dp7476
sg63
g7091
sg56
(lp7477
g49
(g70
g51
NtRp7478
(dp7479
g54
(dp7480
sg63
g7474
sg56
(lp7481
g49
(g50
g51
NtRp7482
(dp7483
g54
(dp7484
g62
I4
ssg63
g7478
sg56
(lp7485
g49
(g58
g51
NtRp7486
(dp7487
g54
(dp7488
g62
I3
ssg63
Nsg56
(lp7489
g49
(g65
g51
NtRp7490
(dp7491
g54
(dp7492
sg63
g7486
sg56
(lp7493
g49
(g70
g51
NtRp7494
(dp7495
g54
(dp7496
sg63
g7490
sg56
(lp7497
g49
(g50
g51
NtRp7498
(dp7499
g54
(dp7500
g62
I3
ssg63
g7494
sg56
(lp7501
g7123
(S't\x05\x00\x00\x00Debug'
tRp7502
asbasbasbag49
(g65
g51
NtRp7503
(dp7504
g54
(dp7505
sg63
g7486
sg56
(lp7506
g49
(g70
g51
NtRp7507
(dp7508
g54
(dp7509
sg63
g7503
sg56
(lp7510
g49
(g50
g51
NtRp7511
(dp7512
g54
(dp7513
g62
I3
ssg63
g7507
sg56
(lp7514
g1632
asbasbasbag49
(g65
g51
NtRp7515
(dp7516
g54
(dp7517
sg63
g7486
sg56
(lp7518
g49
(g70
g51
NtRp7519
(dp7520
g54
(dp7521
sg63
g7515
sg56
(lp7522
g49
(g50
g51
NtRp7523
(dp7524
g54
(dp7525
g62
I3
ssg63
g7519
sg56
(lp7526
S'/admin/debug/interact'
p7527
asbasbasbasbasbasbasbasbasbasbasbag49
(g65
g51
NtRp7528
(dp7529
g54
(dp7530
sg63
g6648
sg56
(lp7531
g49
(g70
g51
NtRp7532
(dp7533
g54
(dp7534
g74
g75
ssg63
g7528
sg56
(lp7535
S'meta'
p7536
asbag49
(g70
g51
NtRp7537
(dp7538
g54
(dp7539
g81
g82
ssg63
g7528
sg56
(lp7540
S':'
asbag49
(g70
g51
NtRp7541
(dp7542
g54
(dp7543
sg63
g7528
sg56
(lp7544
g49
(g50
g51
NtRp7545
(dp7546
g54
(dp7547
g62
I5
ssg63
g7541
sg56
(lp7548
g49
(g58
g51
NtRp7549
(dp7550
g54
(dp7551
g62
I4
ssg63
Nsg56
(lp7552
sbasbasbasbag49
(g65
g51
NtRp7553
(dp7554
g54
(dp7555
sg63
g6648
sg56
(lp7556
g49
(g70
g51
NtRp7557
(dp7558
g54
(dp7559
g74
g75
ssg63
g7553
sg56
(lp7560
S'models_to_run'
p7561
asbag49
(g70
g51
NtRp7562
(dp7563
g54
(dp7564
g81
g82
ssg63
g7553
sg56
(lp7565
S':'
asbag49
(g70
g51
NtRp7566
(dp7567
g54
(dp7568
sg63
g7553
sg56
(lp7569
g49
(g50
g51
NtRp7570
(dp7571
g54
(dp7572
g62
I5
ssg63
g7566
sg56
(lp7573
g49
(g58
g51
NtRp7574
(dp7575
g54
(dp7576
g62
I4
ssg63
Nsg56
(lp7577
g49
(g65
g51
NtRp7578
(dp7579
g54
(dp7580
sg63
g7574
sg56
(lp7581
g49
(g70
g51
NtRp7582
(dp7583
g54
(dp7584
sg63
g7578
sg56
(lp7585
g49
(g50
g51
NtRp7586
(dp7587
g54
(dp7588
g62
I4
ssg63
g7582
sg56
(lp7589
S'^\\w+\\.py$'
p7590
asbasbasbag49
(g65
g51
NtRp7591
(dp7592
g54
(dp7593
sg63
g7574
sg56
(lp7594
g49
(g70
g51
NtRp7595
(dp7596
g54
(dp7597
sg63
g7591
sg56
(lp7598
g49
(g50
g51
NtRp7599
(dp7600
g54
(dp7601
g62
I4
ssg63
g7595
sg56
(lp7602
S'^shell/\\w+\\.py$'
p7603
asbasbasbag49
(g65
g51
NtRp7604
(dp7605
g54
(dp7606
sg63
g7574
sg56
(lp7607
g49
(g70
g51
NtRp7608
(dp7609
g54
(dp7610
sg63
g7604
sg56
(lp7611
g49
(g50
g51
NtRp7612
(dp7613
g54
(dp7614
g62
I4
ssg63
g7608
sg56
(lp7615
S'^shell/callback/\\w+\\.py$'
p7616
asbasbasbasbasbasbasbag49
(g65
g51
NtRp7617
(dp7618
g54
(dp7619
sg63
g6648
sg56
(lp7620
g49
(g70
g51
NtRp7621
(dp7622
g54
(dp7623
g74
g75
ssg63
g7617
sg56
(lp7624
S'postprocessing'
p7625
asbag49
(g70
g51
NtRp7626
(dp7627
g54
(dp7628
g81
g82
ssg63
g7617
sg56
(lp7629
S':'
asbag49
(g70
g51
NtRp7630
(dp7631
g54
(dp7632
sg63
g7617
sg56
(lp7633
g49
(g50
g51
NtRp7634
(dp7635
g54
(dp7636
g62
I5
ssg63
g7630
sg56
(lp7637
g49
(g58
g51
NtRp7638
(dp7639
g54
(dp7640
g62
I4
ssg63
Nsg56
(lp7641
sbasbasbasbag49
(g65
g51
NtRp7642
(dp7643
g54
(dp7644
sg63
g6648
sg56
(lp7645
g49
(g70
g51
NtRp7646
(dp7647
g54
(dp7648
g74
g75
ssg63
g7642
sg56
(lp7649
S'session_cookie_expires'
p7650
asbag49
(g70
g51
NtRp7651
(dp7652
g54
(dp7653
g81
g82
ssg63
g7642
sg56
(lp7654
S':'
asbag49
(g70
g51
NtRp7655
(dp7656
g54
(dp7657
sg63
g7642
sg56
(lp7658
g49
(g50
g51
NtRp7659
(dp7660
g54
(dp7661
g62
I5
ssg63
g7655
sg56
(lp7662
S'None'
p7663
asbasbasbag49
(g65
g51
NtRp7664
(dp7665
g54
(dp7666
sg63
g6648
sg56
(lp7667
g49
(g70
g51
NtRp7668
(dp7669
g54
(dp7670
g74
g75
ssg63
g7664
sg56
(lp7671
S'session_data_name'
p7672
asbag49
(g70
g51
NtRp7673
(dp7674
g54
(dp7675
g81
g82
ssg63
g7664
sg56
(lp7676
S':'
asbag49
(g70
g51
NtRp7677
(dp7678
g54
(dp7679
sg63
g7664
sg56
(lp7680
g49
(g50
g51
NtRp7681
(dp7682
g54
(dp7683
g62
I5
ssg63
g7677
sg56
(lp7684
S'session_data_admin'
p7685
asbasbasbag49
(g65
g51
NtRp7686
(dp7687
g54
(dp7688
sg63
g6648
sg56
(lp7689
g49
(g70
g51
NtRp7690
(dp7691
g54
(dp7692
g74
g75
ssg63
g7686
sg56
(lp7693
S'session_file'
p7694
asbag49
(g70
g51
NtRp7695
(dp7696
g54
(dp7697
g81
g82
ssg63
g7686
sg56
(lp7698
S':'
asbag49
(g70
g51
NtRp7699
(dp7700
g54
(dp7701
sg63
g7686
sg56
(lp7702
g49
(g50
g51
NtRp7703
(dp7704
g54
(dp7705
g62
I5
ssg63
g7699
sg56
(lp7706
S"<open file '/Users/zamechek/Downloads/web2py/web2py.app/Contents/Resources/applications/admin/sessions/127.0.0.1-66a1de5b-ba15-4b30-ba06-132c9e7969c1', mode 'rb+' at 0xa3a1728>"
p7707
asbasbasbag49
(g65
g51
NtRp7708
(dp7709
g54
(dp7710
sg63
g6648
sg56
(lp7711
g49
(g70
g51
NtRp7712
(dp7713
g54
(dp7714
g74
g75
ssg63
g7708
sg56
(lp7715
S'session_filename'
p7716
asbag49
(g70
g51
NtRp7717
(dp7718
g54
(dp7719
g81
g82
ssg63
g7708
sg56
(lp7720
S':'
asbag49
(g70
g51
NtRp7721
(dp7722
g54
(dp7723
sg63
g7708
sg56
(lp7724
g49
(g50
g51
NtRp7725
(dp7726
g54
(dp7727
g62
I5
ssg63
g7721
sg56
(lp7728
S'/Users/zamechek/Downloads/web2py/web2py.app/Contents/Resources/applications/admin/sessions/127.0.0.1-66a1de5b-ba15-4b30-ba06-132c9e7969c1'
p7729
asbasbasbag49
(g65
g51
NtRp7730
(dp7731
g54
(dp7732
sg63
g6648
sg56
(lp7733
g49
(g70
g51
NtRp7734
(dp7735
g54
(dp7736
g74
g75
ssg63
g7730
sg56
(lp7737
S'session_id'
p7738
asbag49
(g70
g51
NtRp7739
(dp7740
g54
(dp7741
g81
g82
ssg63
g7730
sg56
(lp7742
S':'
asbag49
(g70
g51
NtRp7743
(dp7744
g54
(dp7745
sg63
g7730
sg56
(lp7746
g49
(g50
g51
NtRp7747
(dp7748
g54
(dp7749
g62
I5
ssg63
g7743
sg56
(lp7750
g459
asbasbasbag49
(g65
g51
NtRp7751
(dp7752
g54
(dp7753
sg63
g6648
sg56
(lp7754
g49
(g70
g51
NtRp7755
(dp7756
g54
(dp7757
g74
g75
ssg63
g7751
sg56
(lp7758
S'session_id_name'
p7759
asbag49
(g70
g51
NtRp7760
(dp7761
g54
(dp7762
g81
g82
ssg63
g7751
sg56
(lp7763
S':'
asbag49
(g70
g51
NtRp7764
(dp7765
g54
(dp7766
sg63
g7751
sg56
(lp7767
g49
(g50
g51
NtRp7768
(dp7769
g54
(dp7770
g62
I5
ssg63
g7764
sg56
(lp7771
g6705
asbasbasbag49
(g65
g51
NtRp7772
(dp7773
g54
(dp7774
sg63
g6648
sg56
(lp7775
g49
(g70
g51
NtRp7776
(dp7777
g54
(dp7778
g74
g75
ssg63
g7772
sg56
(lp7779
S'session_locked'
p7780
asbag49
(g70
g51
NtRp7781
(dp7782
g54
(dp7783
g81
g82
ssg63
g7772
sg56
(lp7784
S':'
asbag49
(g70
g51
NtRp7785
(dp7786
g54
(dp7787
sg63
g7772
sg56
(lp7788
g49
(g50
g51
NtRp7789
(dp7790
g54
(dp7791
g62
I5
ssg63
g7785
sg56
(lp7792
g92
asbasbasbag49
(g65
g51
NtRp7793
(dp7794
g54
(dp7795
sg63
g6648
sg56
(lp7796
g49
(g70
g51
NtRp7797
(dp7798
g54
(dp7799
g74
g75
ssg63
g7793
sg56
(lp7800
S'session_new'
p7801
asbag49
(g70
g51
NtRp7802
(dp7803
g54
(dp7804
g81
g82
ssg63
g7793
sg56
(lp7805
S':'
asbag49
(g70
g51
NtRp7806
(dp7807
g54
(dp7808
sg63
g7793
sg56
(lp7809
g49
(g50
g51
NtRp7810
(dp7811
g54
(dp7812
g62
I5
ssg63
g7806
sg56
(lp7813
g1632
asbasbasbag49
(g65
g51
NtRp7814
(dp7815
g54
(dp7816
sg63
g6648
sg56
(lp7817
g49
(g70
g51
NtRp7818
(dp7819
g54
(dp7820
g74
g75
ssg63
g7814
sg56
(lp7821
S'session_storage_type'
p7822
asbag49
(g70
g51
NtRp7823
(dp7824
g54
(dp7825
g81
g82
ssg63
g7814
sg56
(lp7826
S':'
asbag49
(g70
g51
NtRp7827
(dp7828
g54
(dp7829
sg63
g7814
sg56
(lp7830
g49
(g50
g51
NtRp7831
(dp7832
g54
(dp7833
g62
I5
ssg63
g7827
sg56
(lp7834
g3818
asbasbasbag49
(g65
g51
NtRp7835
(dp7836
g54
(dp7837
sg63
g6648
sg56
(lp7838
g49
(g70
g51
NtRp7839
(dp7840
g54
(dp7841
g74
g75
ssg63
g7835
sg56
(lp7842
S'status'
p7843
asbag49
(g70
g51
NtRp7844
(dp7845
g54
(dp7846
g81
g82
ssg63
g7835
sg56
(lp7847
S':'
asbag49
(g70
g51
NtRp7848
(dp7849
g54
(dp7850
sg63
g7835
sg56
(lp7851
g49
(g50
g51
NtRp7852
(dp7853
g54
(dp7854
g62
I5
ssg63
g7848
sg56
(lp7855
S'200'
p7856
asbasbasbag49
(g65
g51
NtRp7857
(dp7858
g54
(dp7859
sg63
g6648
sg56
(lp7860
g49
(g70
g51
NtRp7861
(dp7862
g54
(dp7863
g74
g75
ssg63
g7857
sg56
(lp7864
S'subtitle'
p7865
asbag49
(g70
g51
NtRp7866
(dp7867
g54
(dp7868
g81
g82
ssg63
g7857
sg56
(lp7869
S':'
asbag49
(g70
g51
NtRp7870
(dp7871
g54
(dp7872
sg63
g7857
sg56
(lp7873
g49
(g50
g51
NtRp7874
(dp7875
g54
(dp7876
g62
I5
ssg63
g7870
sg56
(lp7877
S'admin'
p7878
asbasbasbag49
(g65
g51
NtRp7879
(dp7880
g54
(dp7881
sg63
g6648
sg56
(lp7882
g49
(g70
g51
NtRp7883
(dp7884
g54
(dp7885
g74
g75
ssg63
g7879
sg56
(lp7886
S'title'
p7887
asbag49
(g70
g51
NtRp7888
(dp7889
g54
(dp7890
g81
g82
ssg63
g7879
sg56
(lp7891
S':'
asbag49
(g70
g51
NtRp7892
(dp7893
g54
(dp7894
sg63
g7879
sg56
(lp7895
g49
(g50
g51
NtRp7896
(dp7897
g54
(dp7898
g62
I5
ssg63
g7892
sg56
(lp7899
S'callback hellow'
p7900
asbasbasbag49
(g65
g51
NtRp7901
(dp7902
g54
(dp7903
sg63
g6648
sg56
(lp7904
g49
(g70
g51
NtRp7905
(dp7906
g54
(dp7907
g74
g75
ssg63
g7901
sg56
(lp7908
S'view'
p7909
asbag49
(g70
g51
NtRp7910
(dp7911
g54
(dp7912
g81
g82
ssg63
g7901
sg56
(lp7913
S':'
asbag49
(g70
g51
NtRp7914
(dp7915
g54
(dp7916
sg63
g7901
sg56
(lp7917
g49
(g50
g51
NtRp7918
(dp7919
g54
(dp7920
g62
I5
ssg63
g7914
sg56
(lp7921
S'shell/callback.html'
p7922
asbasbasbasbasbsS'locals'
p7923
(dp7924
S'self'
p7925
S'<cStringIO.StringO object at 0xb973c40>'
p7926
sS'base'
p7927
S"<type 'cStringIO.StringO'>"
p7928
sS'proto'
p7929
S'0'
sssS'traceback'
p7930
S'Traceback (most recent call last):\n  File "/home/mdipierro/web2py/gluon/restricted.py", line 212, in restricted\n  File "/Users/zamechek/Downloads/web2py/web2py.app/Contents/Resources/applications/admin/controllers/shell.py", line 52, in <module>\n  File "/home/mdipierro/web2py/gluon/globals.py", line 193, in <lambda>\n  File "/Users/zamechek/Downloads/web2py/web2py.app/Contents/Resources/applications/admin/controllers/shell.py", line 39, in callback\n  File "/home/mdipierro/web2py/gluon/contrib/shell.py", line 260, in run\n  File "/home/mdipierro/web2py/gluon/contrib/shell.py", line 104, in set_global\n  File "copy_reg.pyc", line 69, in _reduce_ex\nTypeError: can\'t pickle StringO objects\n'
p7931
s.